ARM GAS  /tmp/cc8KUQdq.s 			page 1


   1              		.syntax unified
   2              		.cpu cortex-m3
   3              		.fpu softvfp
   4              		.eabi_attribute 20, 1
   5              		.eabi_attribute 21, 1
   6              		.eabi_attribute 23, 3
   7              		.eabi_attribute 24, 1
   8              		.eabi_attribute 25, 1
   9              		.eabi_attribute 26, 1
  10              		.eabi_attribute 30, 2
  11              		.eabi_attribute 34, 1
  12              		.eabi_attribute 18, 4
  13              		.thumb
  14              		.file	"adc.c"
  15              		.text
  16              	.Ltext0:
  17              		.cfi_sections	.debug_frame
  18              		.section	.text.adcInit,"ax",%progbits
  19              		.align	2
  20              		.p2align 4,,15
  21              		.global	adcInit
  22              		.thumb
  23              		.thumb_func
  24              		.type	adcInit, %function
  25              	adcInit:
  26              	.LFB63:
  27              		.file 1 "../../../../ChibiOS_2.6.2/os/hal/src/adc.c"
  28              		.loc 1 68 0
  29              		.cfi_startproc
  30              		@ args = 0, pretend = 0, frame = 0
  31              		@ frame_needed = 0, uses_anonymous_args = 0
  32              		@ link register save eliminated.
  33              		.loc 1 70 0
  34 0000 FFF7FEBF 		b	adc_lld_init
  35              	.LVL0:
  36              		.cfi_endproc
  37              	.LFE63:
  38              		.size	adcInit, .-adcInit
  39 0004 AFF30080 		.section	.text.adcObjectInit,"ax",%progbits
  39      AFF30080 
  39      AFF30080 
  40              		.align	2
  41              		.p2align 4,,15
  42              		.global	adcObjectInit
  43              		.thumb
  44              		.thumb_func
  45              		.type	adcObjectInit, %function
  46              	adcObjectInit:
  47              	.LFB64:
  48              		.loc 1 80 0
  49              		.cfi_startproc
  50              		@ args = 0, pretend = 0, frame = 0
  51              		@ frame_needed = 0, uses_anonymous_args = 0
  52              		@ link register save eliminated.
  53              	.LVL1:
  54              		.loc 1 83 0
  55 0000 0023     		movs	r3, #0
ARM GAS  /tmp/cc8KUQdq.s 			page 2


  56              		.loc 1 82 0
  57 0002 0122     		movs	r2, #1
  58 0004 0270     		strb	r2, [r0]
  59              		.loc 1 83 0
  60 0006 4360     		str	r3, [r0, #4]
  61              		.loc 1 84 0
  62 0008 8360     		str	r3, [r0, #8]
  63              		.loc 1 85 0
  64 000a C360     		str	r3, [r0, #12]
  65              		.loc 1 86 0
  66 000c 0361     		str	r3, [r0, #16]
  67              		.loc 1 88 0
  68 000e 4361     		str	r3, [r0, #20]
  69              		.loc 1 92 0
  70 0010 1830     		adds	r0, r0, #24
  71              	.LVL2:
  72 0012 FFF7FEBF 		b	chMtxInit
  73              	.LVL3:
  74              		.cfi_endproc
  75              	.LFE64:
  76              		.size	adcObjectInit, .-adcObjectInit
  77 0016 00BFAFF3 		.section	.text.adcStart,"ax",%progbits
  77      0080AFF3 
  77      0080
  78              		.align	2
  79              		.p2align 4,,15
  80              		.global	adcStart
  81              		.thumb
  82              		.thumb_func
  83              		.type	adcStart, %function
  84              	adcStart:
  85              	.LFB65:
  86              		.loc 1 111 0
  87              		.cfi_startproc
  88              		@ args = 0, pretend = 0, frame = 0
  89              		@ frame_needed = 0, uses_anonymous_args = 0
  90              	.LVL4:
  91 0000 10B5     		push	{r4, lr}
  92              		.cfi_def_cfa_offset 8
  93              		.cfi_offset 4, -8
  94              		.cfi_offset 14, -4
  95              	.LBB10:
  96              		.loc 1 115 0
  97 0002 2023     		movs	r3, #32
  98              	.LBE10:
  99              		.loc 1 111 0
 100 0004 0446     		mov	r4, r0
 101              	.LBB11:
 102              		.loc 1 115 0
 103              	@ 115 "../../../../ChibiOS_2.6.2/os/hal/src/adc.c" 1
 104 0006 83F31188 		msr     BASEPRI, r3
 105              	@ 0 "" 2
 106              		.thumb
 107              	.LBE11:
 108              		.loc 1 118 0
 109 000a 4160     		str	r1, [r0, #4]
 110              		.loc 1 119 0
ARM GAS  /tmp/cc8KUQdq.s 			page 3


 111 000c FFF7FEFF 		bl	adc_lld_start
 112              	.LVL5:
 113              		.loc 1 120 0
 114 0010 0223     		movs	r3, #2
 115 0012 2370     		strb	r3, [r4]
 116              	.LBB12:
 117              		.loc 1 121 0
 118 0014 0023     		movs	r3, #0
 119              	@ 121 "../../../../ChibiOS_2.6.2/os/hal/src/adc.c" 1
 120 0016 83F31188 		msr     BASEPRI, r3
 121              	@ 0 "" 2
 122              		.thumb
 123 001a 10BD     		pop	{r4, pc}
 124              	.LBE12:
 125              		.cfi_endproc
 126              	.LFE65:
 127              		.size	adcStart, .-adcStart
 128 001c AFF30080 		.section	.text.adcStop,"ax",%progbits
 129              		.align	2
 130              		.p2align 4,,15
 131              		.global	adcStop
 132              		.thumb
 133              		.thumb_func
 134              		.type	adcStop, %function
 135              	adcStop:
 136              	.LFB66:
 137              		.loc 1 131 0
 138              		.cfi_startproc
 139              		@ args = 0, pretend = 0, frame = 0
 140              		@ frame_needed = 0, uses_anonymous_args = 0
 141              	.LVL6:
 142 0000 10B5     		push	{r4, lr}
 143              		.cfi_def_cfa_offset 8
 144              		.cfi_offset 4, -8
 145              		.cfi_offset 14, -4
 146              	.LBB13:
 147              		.loc 1 135 0
 148 0002 2023     		movs	r3, #32
 149              	.LBE13:
 150              		.loc 1 131 0
 151 0004 0446     		mov	r4, r0
 152              	.LBB14:
 153              		.loc 1 135 0
 154              	@ 135 "../../../../ChibiOS_2.6.2/os/hal/src/adc.c" 1
 155 0006 83F31188 		msr     BASEPRI, r3
 156              	@ 0 "" 2
 157              		.thumb
 158              	.LBE14:
 159              		.loc 1 138 0
 160 000a FFF7FEFF 		bl	adc_lld_stop
 161              	.LVL7:
 162              		.loc 1 139 0
 163 000e 0123     		movs	r3, #1
 164 0010 2370     		strb	r3, [r4]
 165              	.LBB15:
 166              		.loc 1 140 0
 167 0012 0023     		movs	r3, #0
ARM GAS  /tmp/cc8KUQdq.s 			page 4


 168              	@ 140 "../../../../ChibiOS_2.6.2/os/hal/src/adc.c" 1
 169 0014 83F31188 		msr     BASEPRI, r3
 170              	@ 0 "" 2
 171              		.thumb
 172 0018 10BD     		pop	{r4, pc}
 173              	.LBE15:
 174              		.cfi_endproc
 175              	.LFE66:
 176              		.size	adcStop, .-adcStop
 177 001a 00BFAFF3 		.section	.text.adcStartConversion,"ax",%progbits
 177      0080
 178              		.align	2
 179              		.p2align 4,,15
 180              		.global	adcStartConversion
 181              		.thumb
 182              		.thumb_func
 183              		.type	adcStartConversion, %function
 184              	adcStartConversion:
 185              	.LFB67:
 186              		.loc 1 162 0
 187              		.cfi_startproc
 188              		@ args = 0, pretend = 0, frame = 0
 189              		@ frame_needed = 0, uses_anonymous_args = 0
 190              	.LVL8:
 191 0000 10B5     		push	{r4, lr}
 192              		.cfi_def_cfa_offset 8
 193              		.cfi_offset 4, -8
 194              		.cfi_offset 14, -4
 195              		.loc 1 162 0
 196 0002 1C46     		mov	r4, r3
 197              	.LBB16:
 198              		.loc 1 164 0
 199 0004 2023     		movs	r3, #32
 200              	.LVL9:
 201              	@ 164 "../../../../ChibiOS_2.6.2/os/hal/src/adc.c" 1
 202 0006 83F31188 		msr     BASEPRI, r3
 203              	@ 0 "" 2
 204              	.LVL10:
 205              		.thumb
 206              	.LBE16:
 207              	.LBB17:
 208              	.LBB18:
 209              		.loc 1 204 0
 210 000a 0323     		movs	r3, #3
 211 000c 0370     		strb	r3, [r0]
 212              		.loc 1 201 0
 213 000e 8260     		str	r2, [r0, #8]
 214              		.loc 1 202 0
 215 0010 C460     		str	r4, [r0, #12]
 216              		.loc 1 203 0
 217 0012 0161     		str	r1, [r0, #16]
 218              		.loc 1 205 0
 219 0014 FFF7FEFF 		bl	adc_lld_start_conversion
 220              	.LVL11:
 221              	.LBE18:
 222              	.LBE17:
 223              	.LBB19:
ARM GAS  /tmp/cc8KUQdq.s 			page 5


 224              		.loc 1 166 0
 225 0018 0023     		movs	r3, #0
 226              	@ 166 "../../../../ChibiOS_2.6.2/os/hal/src/adc.c" 1
 227 001a 83F31188 		msr     BASEPRI, r3
 228              	@ 0 "" 2
 229              		.thumb
 230 001e 10BD     		pop	{r4, pc}
 231              	.LBE19:
 232              		.cfi_endproc
 233              	.LFE67:
 234              		.size	adcStartConversion, .-adcStartConversion
 235              		.section	.text.adcStartConversionI,"ax",%progbits
 236              		.align	2
 237              		.p2align 4,,15
 238              		.global	adcStartConversionI
 239              		.thumb
 240              		.thumb_func
 241              		.type	adcStartConversionI, %function
 242              	adcStartConversionI:
 243              	.LFB68:
 244              		.loc 1 190 0
 245              		.cfi_startproc
 246              		@ args = 0, pretend = 0, frame = 0
 247              		@ frame_needed = 0, uses_anonymous_args = 0
 248              		@ link register save eliminated.
 249              	.LVL12:
 250 0000 30B4     		push	{r4, r5}
 251              		.cfi_def_cfa_offset 8
 252              		.cfi_offset 4, -8
 253              		.cfi_offset 5, -4
 254              		.loc 1 204 0
 255 0002 0325     		movs	r5, #3
 256 0004 0570     		strb	r5, [r0]
 257              		.loc 1 201 0
 258 0006 8260     		str	r2, [r0, #8]
 259              		.loc 1 202 0
 260 0008 C360     		str	r3, [r0, #12]
 261              		.loc 1 203 0
 262 000a 0161     		str	r1, [r0, #16]
 263              		.loc 1 206 0
 264 000c 30BC     		pop	{r4, r5}
 265              		.loc 1 205 0
 266 000e FFF7FEBF 		b	adc_lld_start_conversion
 267              	.LVL13:
 268              		.cfi_endproc
 269              	.LFE68:
 270              		.size	adcStartConversionI, .-adcStartConversionI
 271 0012 00BFAFF3 		.section	.text.adcStopConversion,"ax",%progbits
 271      0080AFF3 
 271      0080AFF3 
 271      0080
 272              		.align	2
 273              		.p2align 4,,15
 274              		.global	adcStopConversion
 275              		.thumb
 276              		.thumb_func
 277              		.type	adcStopConversion, %function
ARM GAS  /tmp/cc8KUQdq.s 			page 6


 278              	adcStopConversion:
 279              	.LFB69:
 280              		.loc 1 218 0
 281              		.cfi_startproc
 282              		@ args = 0, pretend = 0, frame = 0
 283              		@ frame_needed = 0, uses_anonymous_args = 0
 284              	.LVL14:
 285 0000 10B5     		push	{r4, lr}
 286              		.cfi_def_cfa_offset 8
 287              		.cfi_offset 4, -8
 288              		.cfi_offset 14, -4
 289              	.LBB20:
 290              		.loc 1 222 0
 291 0002 2023     		movs	r3, #32
 292              	.LBE20:
 293              		.loc 1 218 0
 294 0004 0446     		mov	r4, r0
 295              	.LBB21:
 296              		.loc 1 222 0
 297              	@ 222 "../../../../ChibiOS_2.6.2/os/hal/src/adc.c" 1
 298 0006 83F31188 		msr     BASEPRI, r3
 299              	@ 0 "" 2
 300              		.thumb
 301              	.LBE21:
 302              		.loc 1 226 0
 303 000a 0378     		ldrb	r3, [r0]	@ zero_extendqisi2
 304 000c 022B     		cmp	r3, #2
 305 000e 0CD0     		beq	.L9
 306              		.loc 1 227 0
 307 0010 FFF7FEFF 		bl	adc_lld_stop_conversion
 308              	.LVL15:
 309              		.loc 1 230 0
 310 0014 6069     		ldr	r0, [r4, #20]
 311              		.loc 1 228 0
 312 0016 0023     		movs	r3, #0
 313              		.loc 1 229 0
 314 0018 0222     		movs	r2, #2
 315              		.loc 1 228 0
 316 001a 2361     		str	r3, [r4, #16]
 317              		.loc 1 229 0
 318 001c 2270     		strb	r2, [r4]
 319              		.loc 1 230 0
 320 001e 20B1     		cbz	r0, .L9
 321              	.LVL16:
 322              	.LBB22:
 323              		.loc 1 230 0 is_stmt 0 discriminator 1
 324 0020 6361     		str	r3, [r4, #20]
 325 0022 6FF00101 		mvn	r1, #1
 326 0026 FFF7FEFF 		bl	chSchWakeupS
 327              	.LVL17:
 328              	.L9:
 329              	.LBE22:
 330              	.LBB23:
 331              		.loc 1 232 0 is_stmt 1
 332 002a 0023     		movs	r3, #0
 333              	@ 232 "../../../../ChibiOS_2.6.2/os/hal/src/adc.c" 1
 334 002c 83F31188 		msr     BASEPRI, r3
ARM GAS  /tmp/cc8KUQdq.s 			page 7


 335              	@ 0 "" 2
 336              		.thumb
 337 0030 10BD     		pop	{r4, pc}
 338              	.LBE23:
 339              		.cfi_endproc
 340              	.LFE69:
 341              		.size	adcStopConversion, .-adcStopConversion
 342 0032 00BFAFF3 		.section	.text.adcStopConversionI,"ax",%progbits
 342      0080AFF3 
 342      0080AFF3 
 342      0080
 343              		.align	2
 344              		.p2align 4,,15
 345              		.global	adcStopConversionI
 346              		.thumb
 347              		.thumb_func
 348              		.type	adcStopConversionI, %function
 349              	adcStopConversionI:
 350              	.LFB70:
 351              		.loc 1 245 0
 352              		.cfi_startproc
 353              		@ args = 0, pretend = 0, frame = 0
 354              		@ frame_needed = 0, uses_anonymous_args = 0
 355              	.LVL18:
 356              		.loc 1 254 0
 357 0000 0378     		ldrb	r3, [r0]	@ zero_extendqisi2
 358              		.loc 1 245 0
 359 0002 10B5     		push	{r4, lr}
 360              		.cfi_def_cfa_offset 8
 361              		.cfi_offset 4, -8
 362              		.cfi_offset 14, -4
 363              		.loc 1 254 0
 364 0004 022B     		cmp	r3, #2
 365              		.loc 1 245 0
 366 0006 0446     		mov	r4, r0
 367              		.loc 1 254 0
 368 0008 10D0     		beq	.L15
 369              		.loc 1 255 0
 370 000a FFF7FEFF 		bl	adc_lld_stop_conversion
 371              	.LVL19:
 372              		.loc 1 258 0
 373 000e 6369     		ldr	r3, [r4, #20]
 374              		.loc 1 256 0
 375 0010 0022     		movs	r2, #0
 376              		.loc 1 257 0
 377 0012 0221     		movs	r1, #2
 378              		.loc 1 256 0
 379 0014 2261     		str	r2, [r4, #16]
 380              		.loc 1 257 0
 381 0016 2170     		strb	r1, [r4]
 382              		.loc 1 258 0
 383 0018 43B1     		cbz	r3, .L15
 384              	.LVL20:
 385              	.LBB24:
 386              		.loc 1 258 0 is_stmt 0 discriminator 1
 387 001a 6FF00101 		mvn	r1, #1
 388 001e 6261     		str	r2, [r4, #20]
ARM GAS  /tmp/cc8KUQdq.s 			page 8


 389 0020 5962     		str	r1, [r3, #36]
 390 0022 1846     		mov	r0, r3
 391              	.LBE24:
 392              		.loc 1 260 0 is_stmt 1 discriminator 1
 393 0024 BDE81040 		pop	{r4, lr}
 394              	.LVL21:
 395              	.LBB25:
 396              		.loc 1 258 0 discriminator 1
 397 0028 FFF7FEBF 		b	chSchReadyI
 398              	.LVL22:
 399              	.L15:
 400 002c 10BD     		pop	{r4, pc}
 401              	.LBE25:
 402              		.cfi_endproc
 403              	.LFE70:
 404              		.size	adcStopConversionI, .-adcStopConversionI
 405 002e 00BF     		.section	.text.adcConvert,"ax",%progbits
 406              		.align	2
 407              		.p2align 4,,15
 408              		.global	adcConvert
 409              		.thumb
 410              		.thumb_func
 411              		.type	adcConvert, %function
 412              	adcConvert:
 413              	.LFB71:
 414              		.loc 1 289 0
 415              		.cfi_startproc
 416              		@ args = 0, pretend = 0, frame = 0
 417              		@ frame_needed = 0, uses_anonymous_args = 0
 418              	.LVL23:
 419 0000 70B5     		push	{r4, r5, r6, lr}
 420              		.cfi_def_cfa_offset 16
 421              		.cfi_offset 4, -16
 422              		.cfi_offset 5, -12
 423              		.cfi_offset 6, -8
 424              		.cfi_offset 14, -4
 425              		.loc 1 289 0
 426 0002 1E46     		mov	r6, r3
 427 0004 0446     		mov	r4, r0
 428              	.LBB26:
 429              		.loc 1 292 0
 430 0006 2023     		movs	r3, #32
 431              	.LVL24:
 432              	@ 292 "../../../../ChibiOS_2.6.2/os/hal/src/adc.c" 1
 433 0008 83F31188 		msr     BASEPRI, r3
 434              	@ 0 "" 2
 435              	.LVL25:
 436              		.thumb
 437              	.LBE26:
 438              	.LBB27:
 439              	.LBB28:
 440              		.loc 1 204 0
 441 000c 0323     		movs	r3, #3
 442              	.LBE28:
 443              	.LBE27:
 444              		.loc 1 295 0
 445 000e 40F20005 		movw	r5, #:lower16:rlist
ARM GAS  /tmp/cc8KUQdq.s 			page 9


 446              	.LBB31:
 447              	.LBB29:
 448              		.loc 1 201 0
 449 0012 8260     		str	r2, [r0, #8]
 450              		.loc 1 203 0
 451 0014 0161     		str	r1, [r0, #16]
 452              		.loc 1 202 0
 453 0016 C660     		str	r6, [r0, #12]
 454              		.loc 1 204 0
 455 0018 0370     		strb	r3, [r0]
 456              	.LBE29:
 457              	.LBE31:
 458              		.loc 1 295 0
 459 001a C0F20005 		movt	r5, #:upper16:rlist
 460              	.LBB32:
 461              	.LBB30:
 462              		.loc 1 205 0
 463 001e FFF7FEFF 		bl	adc_lld_start_conversion
 464              	.LVL26:
 465              	.LBE30:
 466              	.LBE32:
 467              		.loc 1 295 0
 468 0022 AB69     		ldr	r3, [r5, #24]
 469              		.loc 1 296 0
 470 0024 0220     		movs	r0, #2
 471              		.loc 1 295 0
 472 0026 6361     		str	r3, [r4, #20]
 473              		.loc 1 296 0
 474 0028 FFF7FEFF 		bl	chSchGoSleepS
 475              	.LVL27:
 476              		.loc 1 297 0
 477 002c AA69     		ldr	r2, [r5, #24]
 478              	.LBB33:
 479              		.loc 1 298 0
 480 002e 0023     		movs	r3, #0
 481              	.LBE33:
 482              		.loc 1 297 0
 483 0030 506A     		ldr	r0, [r2, #36]
 484              	.LVL28:
 485              	.LBB34:
 486              		.loc 1 298 0
 487              	@ 298 "../../../../ChibiOS_2.6.2/os/hal/src/adc.c" 1
 488 0032 83F31188 		msr     BASEPRI, r3
 489              	@ 0 "" 2
 490              		.thumb
 491              	.LBE34:
 492              		.loc 1 300 0
 493 0036 70BD     		pop	{r4, r5, r6, pc}
 494              		.cfi_endproc
 495              	.LFE71:
 496              		.size	adcConvert, .-adcConvert
 497 0038 AFF30080 		.section	.text.adcAcquireBus,"ax",%progbits
 497      AFF30080 
 498              		.align	2
 499              		.p2align 4,,15
 500              		.global	adcAcquireBus
 501              		.thumb
ARM GAS  /tmp/cc8KUQdq.s 			page 10


 502              		.thumb_func
 503              		.type	adcAcquireBus, %function
 504              	adcAcquireBus:
 505              	.LFB72:
 506              		.loc 1 315 0
 507              		.cfi_startproc
 508              		@ args = 0, pretend = 0, frame = 0
 509              		@ frame_needed = 0, uses_anonymous_args = 0
 510              		@ link register save eliminated.
 511              	.LVL29:
 512              		.loc 1 320 0
 513 0000 1830     		adds	r0, r0, #24
 514              	.LVL30:
 515 0002 FFF7FEBF 		b	chMtxLock
 516              	.LVL31:
 517              		.cfi_endproc
 518              	.LFE72:
 519              		.size	adcAcquireBus, .-adcAcquireBus
 520 0006 00BFAFF3 		.section	.text.adcReleaseBus,"ax",%progbits
 520      0080AFF3 
 520      0080
 521              		.align	2
 522              		.p2align 4,,15
 523              		.global	adcReleaseBus
 524              		.thumb
 525              		.thumb_func
 526              		.type	adcReleaseBus, %function
 527              	adcReleaseBus:
 528              	.LFB73:
 529              		.loc 1 335 0
 530              		.cfi_startproc
 531              		@ args = 0, pretend = 0, frame = 0
 532              		@ frame_needed = 0, uses_anonymous_args = 0
 533              		@ link register save eliminated.
 534              	.LVL32:
 535              		.loc 1 341 0
 536 0000 FFF7FEBF 		b	chMtxUnlock
 537              	.LVL33:
 538              		.cfi_endproc
 539              	.LFE73:
 540              		.size	adcReleaseBus, .-adcReleaseBus
 541 0004 AFF30080 		.text
 541      AFF30080 
 541      AFF30080 
 542              	.Letext0:
 543              		.file 2 "/usr/lib/gcc/arm-none-eabi/4.8.2/include/stddef.h"
 544              		.file 3 "/usr/include/newlib/machine/_default_types.h"
 545              		.file 4 "/usr/include/newlib/stdint.h"
 546              		.file 5 "../../../../ChibiOS_2.6.2/os/ports/GCC/ARMCMx/chtypes.h"
 547              		.file 6 "../../../../ChibiOS_2.6.2/os/kernel/include/chlists.h"
 548              		.file 7 "../../../../ChibiOS_2.6.2/os/kernel/include/chthreads.h"
 549              		.file 8 "../../../../ChibiOS_2.6.2/os/ports/GCC/ARMCMx/chcore_v7m.h"
 550              		.file 9 "../../../../ChibiOS_2.6.2/os/kernel/include/chschd.h"
 551              		.file 10 "../../../../ChibiOS_2.6.2/os/kernel/include/chmtx.h"
 552              		.file 11 "../../../../ChibiOS_2.6.2/os/hal/platforms/STM32F1xx/stm32f10x.h"
 553              		.file 12 "../../../../ChibiOS_2.6.2/os/hal/platforms/STM32F1xx/stm32_dma.h"
 554              		.file 13 "../../../../ChibiOS_2.6.2/os/hal/include/adc.h"
ARM GAS  /tmp/cc8KUQdq.s 			page 11


 555              		.file 14 "../../../../ChibiOS_2.6.2/os/hal/platforms/STM32F1xx/adc_lld.h"
 556              		.file 15 "../../../../ChibiOS_2.6.2/os/ports/common/ARMCMx/CMSIS/include/core_cm3.h"
 557              		.section	.debug_info,"",%progbits
 558              	.Ldebug_info0:
 559 0000 C40D0000 		.4byte	0xdc4
 560 0004 0400     		.2byte	0x4
 561 0006 00000000 		.4byte	.Ldebug_abbrev0
 562 000a 04       		.byte	0x4
 563 000b 01       		.uleb128 0x1
 564 000c 81020000 		.4byte	.LASF151
 565 0010 01       		.byte	0x1
 566 0011 0E060000 		.4byte	.LASF152
 567 0015 2C020000 		.4byte	.LASF153
 568 0019 98000000 		.4byte	.Ldebug_ranges0+0x98
 569 001d 00000000 		.4byte	0
 570 0021 00000000 		.4byte	.Ldebug_line0
 571 0025 02       		.uleb128 0x2
 572 0026 04       		.byte	0x4
 573 0027 05       		.byte	0x5
 574 0028 696E7400 		.ascii	"int\000"
 575 002c 03       		.uleb128 0x3
 576 002d 00000000 		.4byte	.LASF2
 577 0031 02       		.byte	0x2
 578 0032 D4       		.byte	0xd4
 579 0033 37000000 		.4byte	0x37
 580 0037 04       		.uleb128 0x4
 581 0038 04       		.byte	0x4
 582 0039 07       		.byte	0x7
 583 003a D7010000 		.4byte	.LASF0
 584 003e 04       		.uleb128 0x4
 585 003f 01       		.byte	0x1
 586 0040 06       		.byte	0x6
 587 0041 8C000000 		.4byte	.LASF1
 588 0045 03       		.uleb128 0x3
 589 0046 21000000 		.4byte	.LASF3
 590 004a 03       		.byte	0x3
 591 004b 1C       		.byte	0x1c
 592 004c 50000000 		.4byte	0x50
 593 0050 04       		.uleb128 0x4
 594 0051 01       		.byte	0x1
 595 0052 08       		.byte	0x8
 596 0053 7C040000 		.4byte	.LASF4
 597 0057 04       		.uleb128 0x4
 598 0058 02       		.byte	0x2
 599 0059 05       		.byte	0x5
 600 005a 74030000 		.4byte	.LASF5
 601 005e 03       		.uleb128 0x3
 602 005f 5D050000 		.4byte	.LASF6
 603 0063 03       		.byte	0x3
 604 0064 26       		.byte	0x26
 605 0065 69000000 		.4byte	0x69
 606 0069 04       		.uleb128 0x4
 607 006a 02       		.byte	0x2
 608 006b 07       		.byte	0x7
 609 006c 1E030000 		.4byte	.LASF7
 610 0070 03       		.uleb128 0x3
 611 0071 8C050000 		.4byte	.LASF8
ARM GAS  /tmp/cc8KUQdq.s 			page 12


 612 0075 03       		.byte	0x3
 613 0076 37       		.byte	0x37
 614 0077 7B000000 		.4byte	0x7b
 615 007b 04       		.uleb128 0x4
 616 007c 04       		.byte	0x4
 617 007d 05       		.byte	0x5
 618 007e DA000000 		.4byte	.LASF9
 619 0082 03       		.uleb128 0x3
 620 0083 96050000 		.4byte	.LASF10
 621 0087 03       		.byte	0x3
 622 0088 38       		.byte	0x38
 623 0089 8D000000 		.4byte	0x8d
 624 008d 04       		.uleb128 0x4
 625 008e 04       		.byte	0x4
 626 008f 07       		.byte	0x7
 627 0090 3F050000 		.4byte	.LASF11
 628 0094 04       		.uleb128 0x4
 629 0095 08       		.byte	0x8
 630 0096 05       		.byte	0x5
 631 0097 32010000 		.4byte	.LASF12
 632 009b 04       		.uleb128 0x4
 633 009c 08       		.byte	0x8
 634 009d 07       		.byte	0x7
 635 009e 40000000 		.4byte	.LASF13
 636 00a2 03       		.uleb128 0x3
 637 00a3 3F060000 		.4byte	.LASF14
 638 00a7 04       		.byte	0x4
 639 00a8 2A       		.byte	0x2a
 640 00a9 45000000 		.4byte	0x45
 641 00ad 03       		.uleb128 0x3
 642 00ae 40010000 		.4byte	.LASF15
 643 00b2 04       		.byte	0x4
 644 00b3 36       		.byte	0x36
 645 00b4 5E000000 		.4byte	0x5e
 646 00b8 03       		.uleb128 0x3
 647 00b9 74040000 		.4byte	.LASF16
 648 00bd 04       		.byte	0x4
 649 00be 41       		.byte	0x41
 650 00bf 70000000 		.4byte	0x70
 651 00c3 03       		.uleb128 0x3
 652 00c4 16050000 		.4byte	.LASF17
 653 00c8 04       		.byte	0x4
 654 00c9 42       		.byte	0x42
 655 00ca 82000000 		.4byte	0x82
 656 00ce 03       		.uleb128 0x3
 657 00cf A0000000 		.4byte	.LASF18
 658 00d3 05       		.byte	0x5
 659 00d4 2B       		.byte	0x2b
 660 00d5 D9000000 		.4byte	0xd9
 661 00d9 04       		.uleb128 0x4
 662 00da 01       		.byte	0x1
 663 00db 02       		.byte	0x2
 664 00dc 6E040000 		.4byte	.LASF19
 665 00e0 03       		.uleb128 0x3
 666 00e1 47030000 		.4byte	.LASF20
 667 00e5 05       		.byte	0x5
 668 00e6 2C       		.byte	0x2c
ARM GAS  /tmp/cc8KUQdq.s 			page 13


 669 00e7 A2000000 		.4byte	0xa2
 670 00eb 03       		.uleb128 0x3
 671 00ec 22010000 		.4byte	.LASF21
 672 00f0 05       		.byte	0x5
 673 00f1 2D       		.byte	0x2d
 674 00f2 A2000000 		.4byte	0xa2
 675 00f6 03       		.uleb128 0x3
 676 00f7 3E040000 		.4byte	.LASF22
 677 00fb 05       		.byte	0x5
 678 00fc 2E       		.byte	0x2e
 679 00fd A2000000 		.4byte	0xa2
 680 0101 03       		.uleb128 0x3
 681 0102 CD010000 		.4byte	.LASF23
 682 0106 05       		.byte	0x5
 683 0107 2F       		.byte	0x2f
 684 0108 A2000000 		.4byte	0xa2
 685 010c 03       		.uleb128 0x3
 686 010d 60040000 		.4byte	.LASF24
 687 0111 05       		.byte	0x5
 688 0112 30       		.byte	0x30
 689 0113 C3000000 		.4byte	0xc3
 690 0117 03       		.uleb128 0x3
 691 0118 41030000 		.4byte	.LASF25
 692 011c 05       		.byte	0x5
 693 011d 31       		.byte	0x31
 694 011e B8000000 		.4byte	0xb8
 695 0122 03       		.uleb128 0x3
 696 0123 68030000 		.4byte	.LASF26
 697 0127 05       		.byte	0x5
 698 0128 33       		.byte	0x33
 699 0129 C3000000 		.4byte	0xc3
 700 012d 03       		.uleb128 0x3
 701 012e 77050000 		.4byte	.LASF27
 702 0132 05       		.byte	0x5
 703 0133 35       		.byte	0x35
 704 0134 C3000000 		.4byte	0xc3
 705 0138 03       		.uleb128 0x3
 706 0139 B0010000 		.4byte	.LASF28
 707 013d 06       		.byte	0x6
 708 013e 2A       		.byte	0x2a
 709 013f 43010000 		.4byte	0x143
 710 0143 05       		.uleb128 0x5
 711 0144 B0010000 		.4byte	.LASF28
 712 0148 48       		.byte	0x48
 713 0149 07       		.byte	0x7
 714 014a 5E       		.byte	0x5e
 715 014b 40020000 		.4byte	0x240
 716 014f 06       		.uleb128 0x6
 717 0150 D5040000 		.4byte	.LASF29
 718 0154 07       		.byte	0x7
 719 0155 5F       		.byte	0x5f
 720 0156 61020000 		.4byte	0x261
 721 015a 00       		.byte	0
 722 015b 06       		.uleb128 0x6
 723 015c 46040000 		.4byte	.LASF30
 724 0160 07       		.byte	0x7
 725 0161 61       		.byte	0x61
ARM GAS  /tmp/cc8KUQdq.s 			page 14


 726 0162 61020000 		.4byte	0x261
 727 0166 04       		.byte	0x4
 728 0167 06       		.uleb128 0x6
 729 0168 74000000 		.4byte	.LASF31
 730 016c 07       		.byte	0x7
 731 016d 63       		.byte	0x63
 732 016e 0C010000 		.4byte	0x10c
 733 0172 08       		.byte	0x8
 734 0173 06       		.uleb128 0x6
 735 0174 E8060000 		.4byte	.LASF32
 736 0178 07       		.byte	0x7
 737 0179 64       		.byte	0x64
 738 017a 1B030000 		.4byte	0x31b
 739 017e 0C       		.byte	0xc
 740 017f 06       		.uleb128 0x6
 741 0180 5C010000 		.4byte	.LASF33
 742 0184 07       		.byte	0x7
 743 0185 66       		.byte	0x66
 744 0186 61020000 		.4byte	0x261
 745 018a 10       		.byte	0x10
 746 018b 06       		.uleb128 0x6
 747 018c DB030000 		.4byte	.LASF34
 748 0190 07       		.byte	0x7
 749 0191 67       		.byte	0x67
 750 0192 61020000 		.4byte	0x261
 751 0196 14       		.byte	0x14
 752 0197 06       		.uleb128 0x6
 753 0198 95060000 		.4byte	.LASF35
 754 019c 07       		.byte	0x7
 755 019d 6E       		.byte	0x6e
 756 019e 20040000 		.4byte	0x420
 757 01a2 18       		.byte	0x18
 758 01a3 06       		.uleb128 0x6
 759 01a4 AC040000 		.4byte	.LASF36
 760 01a8 07       		.byte	0x7
 761 01a9 79       		.byte	0x79
 762 01aa EB000000 		.4byte	0xeb
 763 01ae 1C       		.byte	0x1c
 764 01af 06       		.uleb128 0x6
 765 01b0 DC040000 		.4byte	.LASF37
 766 01b4 07       		.byte	0x7
 767 01b5 7D       		.byte	0x7d
 768 01b6 E0000000 		.4byte	0xe0
 769 01ba 1D       		.byte	0x1d
 770 01bb 06       		.uleb128 0x6
 771 01bc F1050000 		.4byte	.LASF38
 772 01c0 07       		.byte	0x7
 773 01c1 82       		.byte	0x82
 774 01c2 F6000000 		.4byte	0xf6
 775 01c6 1E       		.byte	0x1e
 776 01c7 06       		.uleb128 0x6
 777 01c8 B4040000 		.4byte	.LASF39
 778 01cc 07       		.byte	0x7
 779 01cd 88       		.byte	0x88
 780 01ce 01010000 		.4byte	0x101
 781 01d2 1F       		.byte	0x1f
 782 01d3 06       		.uleb128 0x6
ARM GAS  /tmp/cc8KUQdq.s 			page 15


 783 01d4 49010000 		.4byte	.LASF40
 784 01d8 07       		.byte	0x7
 785 01d9 8F       		.byte	0x8f
 786 01da 48030000 		.4byte	0x348
 787 01de 20       		.byte	0x20
 788 01df 07       		.uleb128 0x7
 789 01e0 705F7500 		.ascii	"p_u\000"
 790 01e4 07       		.byte	0x7
 791 01e5 B4       		.byte	0xb4
 792 01e6 EB030000 		.4byte	0x3eb
 793 01ea 24       		.byte	0x24
 794 01eb 06       		.uleb128 0x6
 795 01ec EE060000 		.4byte	.LASF41
 796 01f0 07       		.byte	0x7
 797 01f1 B9       		.byte	0xb9
 798 01f2 87020000 		.4byte	0x287
 799 01f6 28       		.byte	0x28
 800 01f7 06       		.uleb128 0x6
 801 01f8 F7010000 		.4byte	.LASF42
 802 01fc 07       		.byte	0x7
 803 01fd BF       		.byte	0xbf
 804 01fe 67020000 		.4byte	0x267
 805 0202 2C       		.byte	0x2c
 806 0203 06       		.uleb128 0x6
 807 0204 AF060000 		.4byte	.LASF43
 808 0208 07       		.byte	0x7
 809 0209 C3       		.byte	0xc3
 810 020a 17010000 		.4byte	0x117
 811 020e 34       		.byte	0x34
 812 020f 06       		.uleb128 0x6
 813 0210 06050000 		.4byte	.LASF44
 814 0214 07       		.byte	0x7
 815 0215 C9       		.byte	0xc9
 816 0216 22010000 		.4byte	0x122
 817 021a 38       		.byte	0x38
 818 021b 06       		.uleb128 0x6
 819 021c 8A040000 		.4byte	.LASF45
 820 0220 07       		.byte	0x7
 821 0221 D0       		.byte	0xd0
 822 0222 32040000 		.4byte	0x432
 823 0226 3C       		.byte	0x3c
 824 0227 06       		.uleb128 0x6
 825 0228 81050000 		.4byte	.LASF46
 826 022c 07       		.byte	0x7
 827 022d D4       		.byte	0xd4
 828 022e 0C010000 		.4byte	0x10c
 829 0232 40       		.byte	0x40
 830 0233 06       		.uleb128 0x6
 831 0234 98000000 		.4byte	.LASF47
 832 0238 07       		.byte	0x7
 833 0239 DA       		.byte	0xda
 834 023a 9D020000 		.4byte	0x29d
 835 023e 44       		.byte	0x44
 836 023f 00       		.byte	0
 837 0240 08       		.uleb128 0x8
 838 0241 08       		.byte	0x8
 839 0242 06       		.byte	0x6
ARM GAS  /tmp/cc8KUQdq.s 			page 16


 840 0243 61       		.byte	0x61
 841 0244 61020000 		.4byte	0x261
 842 0248 06       		.uleb128 0x6
 843 0249 D5040000 		.4byte	.LASF29
 844 024d 06       		.byte	0x6
 845 024e 62       		.byte	0x62
 846 024f 61020000 		.4byte	0x261
 847 0253 00       		.byte	0
 848 0254 06       		.uleb128 0x6
 849 0255 46040000 		.4byte	.LASF30
 850 0259 06       		.byte	0x6
 851 025a 64       		.byte	0x64
 852 025b 61020000 		.4byte	0x261
 853 025f 04       		.byte	0x4
 854 0260 00       		.byte	0
 855 0261 09       		.uleb128 0x9
 856 0262 04       		.byte	0x4
 857 0263 38010000 		.4byte	0x138
 858 0267 03       		.uleb128 0x3
 859 0268 E9030000 		.4byte	.LASF48
 860 026c 06       		.byte	0x6
 861 026d 66       		.byte	0x66
 862 026e 40020000 		.4byte	0x240
 863 0272 08       		.uleb128 0x8
 864 0273 04       		.byte	0x4
 865 0274 06       		.byte	0x6
 866 0275 6B       		.byte	0x6b
 867 0276 87020000 		.4byte	0x287
 868 027a 06       		.uleb128 0x6
 869 027b D5040000 		.4byte	.LASF29
 870 027f 06       		.byte	0x6
 871 0280 6D       		.byte	0x6d
 872 0281 61020000 		.4byte	0x261
 873 0285 00       		.byte	0
 874 0286 00       		.byte	0
 875 0287 03       		.uleb128 0x3
 876 0288 5C030000 		.4byte	.LASF49
 877 028c 06       		.byte	0x6
 878 028d 70       		.byte	0x70
 879 028e 72020000 		.4byte	0x272
 880 0292 03       		.uleb128 0x3
 881 0293 97010000 		.4byte	.LASF50
 882 0297 08       		.byte	0x8
 883 0298 E5       		.byte	0xe5
 884 0299 9D020000 		.4byte	0x29d
 885 029d 0A       		.uleb128 0xa
 886 029e 04       		.byte	0x4
 887 029f 0B       		.uleb128 0xb
 888 02a0 BC050000 		.4byte	.LASF51
 889 02a4 24       		.byte	0x24
 890 02a5 08       		.byte	0x8
 891 02a6 0C01     		.2byte	0x10c
 892 02a8 1B030000 		.4byte	0x31b
 893 02ac 0C       		.uleb128 0xc
 894 02ad 723400   		.ascii	"r4\000"
 895 02b0 08       		.byte	0x8
 896 02b1 1F01     		.2byte	0x11f
ARM GAS  /tmp/cc8KUQdq.s 			page 17


 897 02b3 92020000 		.4byte	0x292
 898 02b7 00       		.byte	0
 899 02b8 0C       		.uleb128 0xc
 900 02b9 723500   		.ascii	"r5\000"
 901 02bc 08       		.byte	0x8
 902 02bd 2001     		.2byte	0x120
 903 02bf 92020000 		.4byte	0x292
 904 02c3 04       		.byte	0x4
 905 02c4 0C       		.uleb128 0xc
 906 02c5 723600   		.ascii	"r6\000"
 907 02c8 08       		.byte	0x8
 908 02c9 2101     		.2byte	0x121
 909 02cb 92020000 		.4byte	0x292
 910 02cf 08       		.byte	0x8
 911 02d0 0C       		.uleb128 0xc
 912 02d1 723700   		.ascii	"r7\000"
 913 02d4 08       		.byte	0x8
 914 02d5 2201     		.2byte	0x122
 915 02d7 92020000 		.4byte	0x292
 916 02db 0C       		.byte	0xc
 917 02dc 0C       		.uleb128 0xc
 918 02dd 723800   		.ascii	"r8\000"
 919 02e0 08       		.byte	0x8
 920 02e1 2301     		.2byte	0x123
 921 02e3 92020000 		.4byte	0x292
 922 02e7 10       		.byte	0x10
 923 02e8 0C       		.uleb128 0xc
 924 02e9 723900   		.ascii	"r9\000"
 925 02ec 08       		.byte	0x8
 926 02ed 2401     		.2byte	0x124
 927 02ef 92020000 		.4byte	0x292
 928 02f3 14       		.byte	0x14
 929 02f4 0C       		.uleb128 0xc
 930 02f5 72313000 		.ascii	"r10\000"
 931 02f9 08       		.byte	0x8
 932 02fa 2501     		.2byte	0x125
 933 02fc 92020000 		.4byte	0x292
 934 0300 18       		.byte	0x18
 935 0301 0C       		.uleb128 0xc
 936 0302 72313100 		.ascii	"r11\000"
 937 0306 08       		.byte	0x8
 938 0307 2601     		.2byte	0x126
 939 0309 92020000 		.4byte	0x292
 940 030d 1C       		.byte	0x1c
 941 030e 0C       		.uleb128 0xc
 942 030f 6C7200   		.ascii	"lr\000"
 943 0312 08       		.byte	0x8
 944 0313 2701     		.2byte	0x127
 945 0315 92020000 		.4byte	0x292
 946 0319 20       		.byte	0x20
 947 031a 00       		.byte	0
 948 031b 0B       		.uleb128 0xb
 949 031c A1050000 		.4byte	.LASF52
 950 0320 04       		.byte	0x4
 951 0321 08       		.byte	0x8
 952 0322 3101     		.2byte	0x131
 953 0324 36030000 		.4byte	0x336
ARM GAS  /tmp/cc8KUQdq.s 			page 18


 954 0328 0C       		.uleb128 0xc
 955 0329 72313300 		.ascii	"r13\000"
 956 032d 08       		.byte	0x8
 957 032e 3201     		.2byte	0x132
 958 0330 36030000 		.4byte	0x336
 959 0334 00       		.byte	0
 960 0335 00       		.byte	0
 961 0336 09       		.uleb128 0x9
 962 0337 04       		.byte	0x4
 963 0338 9F020000 		.4byte	0x29f
 964 033c 0D       		.uleb128 0xd
 965 033d C3000000 		.4byte	0xc3
 966 0341 04       		.uleb128 0x4
 967 0342 04       		.byte	0x4
 968 0343 07       		.byte	0x7
 969 0344 B1030000 		.4byte	.LASF53
 970 0348 0D       		.uleb128 0xd
 971 0349 2D010000 		.4byte	0x12d
 972 034d 08       		.uleb128 0x8
 973 034e 1C       		.byte	0x1c
 974 034f 09       		.byte	0x9
 975 0350 5E       		.byte	0x5e
 976 0351 9E030000 		.4byte	0x39e
 977 0355 06       		.uleb128 0x6
 978 0356 C0030000 		.4byte	.LASF54
 979 035a 09       		.byte	0x9
 980 035b 5F       		.byte	0x5f
 981 035c 67020000 		.4byte	0x267
 982 0360 00       		.byte	0
 983 0361 06       		.uleb128 0x6
 984 0362 C7040000 		.4byte	.LASF55
 985 0366 09       		.byte	0x9
 986 0367 60       		.byte	0x60
 987 0368 0C010000 		.4byte	0x10c
 988 036c 08       		.byte	0x8
 989 036d 06       		.uleb128 0x6
 990 036e E3030000 		.4byte	.LASF56
 991 0372 09       		.byte	0x9
 992 0373 62       		.byte	0x62
 993 0374 1B030000 		.4byte	0x31b
 994 0378 0C       		.byte	0xc
 995 0379 06       		.uleb128 0x6
 996 037a 85010000 		.4byte	.LASF57
 997 037e 09       		.byte	0x9
 998 037f 65       		.byte	0x65
 999 0380 61020000 		.4byte	0x261
 1000 0384 10       		.byte	0x10
 1001 0385 06       		.uleb128 0x6
 1002 0386 13040000 		.4byte	.LASF58
 1003 038a 09       		.byte	0x9
 1004 038b 66       		.byte	0x66
 1005 038c 61020000 		.4byte	0x261
 1006 0390 14       		.byte	0x14
 1007 0391 06       		.uleb128 0x6
 1008 0392 09040000 		.4byte	.LASF59
 1009 0396 09       		.byte	0x9
 1010 0397 69       		.byte	0x69
ARM GAS  /tmp/cc8KUQdq.s 			page 19


 1011 0398 61020000 		.4byte	0x261
 1012 039c 18       		.byte	0x18
 1013 039d 00       		.byte	0
 1014 039e 03       		.uleb128 0x3
 1015 039f F8050000 		.4byte	.LASF60
 1016 03a3 09       		.byte	0x9
 1017 03a4 6B       		.byte	0x6b
 1018 03a5 4D030000 		.4byte	0x34d
 1019 03a9 05       		.uleb128 0x5
 1020 03aa BA030000 		.4byte	.LASF61
 1021 03ae 10       		.byte	0x10
 1022 03af 0A       		.byte	0xa
 1023 03b0 2C       		.byte	0x2c
 1024 03b1 DA030000 		.4byte	0x3da
 1025 03b5 06       		.uleb128 0x6
 1026 03b6 A7000000 		.4byte	.LASF62
 1027 03ba 0A       		.byte	0xa
 1028 03bb 2D       		.byte	0x2d
 1029 03bc 67020000 		.4byte	0x267
 1030 03c0 00       		.byte	0
 1031 03c1 06       		.uleb128 0x6
 1032 03c2 D2060000 		.4byte	.LASF63
 1033 03c6 0A       		.byte	0xa
 1034 03c7 2F       		.byte	0x2f
 1035 03c8 61020000 		.4byte	0x261
 1036 03cc 08       		.byte	0x8
 1037 03cd 06       		.uleb128 0x6
 1038 03ce 02040000 		.4byte	.LASF64
 1039 03d2 0A       		.byte	0xa
 1040 03d3 31       		.byte	0x31
 1041 03d4 DA030000 		.4byte	0x3da
 1042 03d8 0C       		.byte	0xc
 1043 03d9 00       		.byte	0
 1044 03da 09       		.uleb128 0x9
 1045 03db 04       		.byte	0x4
 1046 03dc A9030000 		.4byte	0x3a9
 1047 03e0 03       		.uleb128 0x3
 1048 03e1 BA030000 		.4byte	.LASF61
 1049 03e5 0A       		.byte	0xa
 1050 03e6 33       		.byte	0x33
 1051 03e7 A9030000 		.4byte	0x3a9
 1052 03eb 0E       		.uleb128 0xe
 1053 03ec 04       		.byte	0x4
 1054 03ed 07       		.byte	0x7
 1055 03ee 96       		.byte	0x96
 1056 03ef 20040000 		.4byte	0x420
 1057 03f3 0F       		.uleb128 0xf
 1058 03f4 07000000 		.4byte	.LASF65
 1059 03f8 07       		.byte	0x7
 1060 03f9 9D       		.byte	0x9d
 1061 03fa 17010000 		.4byte	0x117
 1062 03fe 0F       		.uleb128 0xf
 1063 03ff 57000000 		.4byte	.LASF66
 1064 0403 07       		.byte	0x7
 1065 0404 A4       		.byte	0xa4
 1066 0405 17010000 		.4byte	0x117
 1067 0409 0F       		.uleb128 0xf
ARM GAS  /tmp/cc8KUQdq.s 			page 20


 1068 040a 81060000 		.4byte	.LASF67
 1069 040e 07       		.byte	0x7
 1070 040f AB       		.byte	0xab
 1071 0410 9D020000 		.4byte	0x29d
 1072 0414 0F       		.uleb128 0xf
 1073 0415 CE040000 		.4byte	.LASF68
 1074 0419 07       		.byte	0x7
 1075 041a B2       		.byte	0xb2
 1076 041b 22010000 		.4byte	0x122
 1077 041f 00       		.byte	0
 1078 0420 09       		.uleb128 0x9
 1079 0421 04       		.byte	0x4
 1080 0422 26040000 		.4byte	0x426
 1081 0426 10       		.uleb128 0x10
 1082 0427 2B040000 		.4byte	0x42b
 1083 042b 04       		.uleb128 0x4
 1084 042c 01       		.byte	0x1
 1085 042d 08       		.byte	0x8
 1086 042e 51050000 		.4byte	.LASF69
 1087 0432 09       		.uleb128 0x9
 1088 0433 04       		.byte	0x4
 1089 0434 E0030000 		.4byte	0x3e0
 1090 0438 0D       		.uleb128 0xd
 1091 0439 B8000000 		.4byte	0xb8
 1092 043d 11       		.uleb128 0x11
 1093 043e 50       		.byte	0x50
 1094 043f 0B       		.byte	0xb
 1095 0440 2D02     		.2byte	0x22d
 1096 0442 49050000 		.4byte	0x549
 1097 0446 0C       		.uleb128 0xc
 1098 0447 535200   		.ascii	"SR\000"
 1099 044a 0B       		.byte	0xb
 1100 044b 2F02     		.2byte	0x22f
 1101 044d 3C030000 		.4byte	0x33c
 1102 0451 00       		.byte	0
 1103 0452 0C       		.uleb128 0xc
 1104 0453 43523100 		.ascii	"CR1\000"
 1105 0457 0B       		.byte	0xb
 1106 0458 3002     		.2byte	0x230
 1107 045a 3C030000 		.4byte	0x33c
 1108 045e 04       		.byte	0x4
 1109 045f 0C       		.uleb128 0xc
 1110 0460 43523200 		.ascii	"CR2\000"
 1111 0464 0B       		.byte	0xb
 1112 0465 3102     		.2byte	0x231
 1113 0467 3C030000 		.4byte	0x33c
 1114 046b 08       		.byte	0x8
 1115 046c 12       		.uleb128 0x12
 1116 046d F6030000 		.4byte	.LASF70
 1117 0471 0B       		.byte	0xb
 1118 0472 3202     		.2byte	0x232
 1119 0474 3C030000 		.4byte	0x33c
 1120 0478 0C       		.byte	0xc
 1121 0479 12       		.uleb128 0x12
 1122 047a FC030000 		.4byte	.LASF71
 1123 047e 0B       		.byte	0xb
 1124 047f 3302     		.2byte	0x233
ARM GAS  /tmp/cc8KUQdq.s 			page 21


 1125 0481 3C030000 		.4byte	0x33c
 1126 0485 10       		.byte	0x10
 1127 0486 12       		.uleb128 0x12
 1128 0487 90030000 		.4byte	.LASF72
 1129 048b 0B       		.byte	0xb
 1130 048c 3402     		.2byte	0x234
 1131 048e 3C030000 		.4byte	0x33c
 1132 0492 14       		.byte	0x14
 1133 0493 12       		.uleb128 0x12
 1134 0494 96030000 		.4byte	.LASF73
 1135 0498 0B       		.byte	0xb
 1136 0499 3502     		.2byte	0x235
 1137 049b 3C030000 		.4byte	0x33c
 1138 049f 18       		.byte	0x18
 1139 04a0 12       		.uleb128 0x12
 1140 04a1 E4040000 		.4byte	.LASF74
 1141 04a5 0B       		.byte	0xb
 1142 04a6 3602     		.2byte	0x236
 1143 04a8 3C030000 		.4byte	0x33c
 1144 04ac 1C       		.byte	0x1c
 1145 04ad 12       		.uleb128 0x12
 1146 04ae EA040000 		.4byte	.LASF75
 1147 04b2 0B       		.byte	0xb
 1148 04b3 3702     		.2byte	0x237
 1149 04b5 3C030000 		.4byte	0x33c
 1150 04b9 20       		.byte	0x20
 1151 04ba 0C       		.uleb128 0xc
 1152 04bb 48545200 		.ascii	"HTR\000"
 1153 04bf 0B       		.byte	0xb
 1154 04c0 3802     		.2byte	0x238
 1155 04c2 3C030000 		.4byte	0x33c
 1156 04c6 24       		.byte	0x24
 1157 04c7 0C       		.uleb128 0xc
 1158 04c8 4C545200 		.ascii	"LTR\000"
 1159 04cc 0B       		.byte	0xb
 1160 04cd 3902     		.2byte	0x239
 1161 04cf 3C030000 		.4byte	0x33c
 1162 04d3 28       		.byte	0x28
 1163 04d4 12       		.uleb128 0x12
 1164 04d5 1B040000 		.4byte	.LASF76
 1165 04d9 0B       		.byte	0xb
 1166 04da 3A02     		.2byte	0x23a
 1167 04dc 3C030000 		.4byte	0x33c
 1168 04e0 2C       		.byte	0x2c
 1169 04e1 12       		.uleb128 0x12
 1170 04e2 20040000 		.4byte	.LASF77
 1171 04e6 0B       		.byte	0xb
 1172 04e7 3B02     		.2byte	0x23b
 1173 04e9 3C030000 		.4byte	0x33c
 1174 04ed 30       		.byte	0x30
 1175 04ee 12       		.uleb128 0x12
 1176 04ef 25040000 		.4byte	.LASF78
 1177 04f3 0B       		.byte	0xb
 1178 04f4 3C02     		.2byte	0x23c
 1179 04f6 3C030000 		.4byte	0x33c
 1180 04fa 34       		.byte	0x34
 1181 04fb 12       		.uleb128 0x12
ARM GAS  /tmp/cc8KUQdq.s 			page 22


 1182 04fc 7B000000 		.4byte	.LASF79
 1183 0500 0B       		.byte	0xb
 1184 0501 3D02     		.2byte	0x23d
 1185 0503 3C030000 		.4byte	0x33c
 1186 0507 38       		.byte	0x38
 1187 0508 12       		.uleb128 0x12
 1188 0509 6D060000 		.4byte	.LASF80
 1189 050d 0B       		.byte	0xb
 1190 050e 3E02     		.2byte	0x23e
 1191 0510 3C030000 		.4byte	0x33c
 1192 0514 3C       		.byte	0x3c
 1193 0515 12       		.uleb128 0x12
 1194 0516 72060000 		.4byte	.LASF81
 1195 051a 0B       		.byte	0xb
 1196 051b 3F02     		.2byte	0x23f
 1197 051d 3C030000 		.4byte	0x33c
 1198 0521 40       		.byte	0x40
 1199 0522 12       		.uleb128 0x12
 1200 0523 77060000 		.4byte	.LASF82
 1201 0527 0B       		.byte	0xb
 1202 0528 4002     		.2byte	0x240
 1203 052a 3C030000 		.4byte	0x33c
 1204 052e 44       		.byte	0x44
 1205 052f 12       		.uleb128 0x12
 1206 0530 7C060000 		.4byte	.LASF83
 1207 0534 0B       		.byte	0xb
 1208 0535 4102     		.2byte	0x241
 1209 0537 3C030000 		.4byte	0x33c
 1210 053b 48       		.byte	0x48
 1211 053c 0C       		.uleb128 0xc
 1212 053d 445200   		.ascii	"DR\000"
 1213 0540 0B       		.byte	0xb
 1214 0541 4202     		.2byte	0x242
 1215 0543 3C030000 		.4byte	0x33c
 1216 0547 4C       		.byte	0x4c
 1217 0548 00       		.byte	0
 1218 0549 13       		.uleb128 0x13
 1219 054a 50010000 		.4byte	.LASF84
 1220 054e 0B       		.byte	0xb
 1221 054f 4302     		.2byte	0x243
 1222 0551 3D040000 		.4byte	0x43d
 1223 0555 11       		.uleb128 0x11
 1224 0556 10       		.byte	0x10
 1225 0557 0B       		.byte	0xb
 1226 0558 2D03     		.2byte	0x32d
 1227 055a 93050000 		.4byte	0x593
 1228 055e 0C       		.uleb128 0xc
 1229 055f 43435200 		.ascii	"CCR\000"
 1230 0563 0B       		.byte	0xb
 1231 0564 2F03     		.2byte	0x32f
 1232 0566 3C030000 		.4byte	0x33c
 1233 056a 00       		.byte	0
 1234 056b 12       		.uleb128 0x12
 1235 056c 02060000 		.4byte	.LASF85
 1236 0570 0B       		.byte	0xb
 1237 0571 3003     		.2byte	0x330
 1238 0573 3C030000 		.4byte	0x33c
ARM GAS  /tmp/cc8KUQdq.s 			page 23


 1239 0577 04       		.byte	0x4
 1240 0578 12       		.uleb128 0x12
 1241 0579 F2010000 		.4byte	.LASF86
 1242 057d 0B       		.byte	0xb
 1243 057e 3103     		.2byte	0x331
 1244 0580 3C030000 		.4byte	0x33c
 1245 0584 08       		.byte	0x8
 1246 0585 12       		.uleb128 0x12
 1247 0586 86030000 		.4byte	.LASF87
 1248 058a 0B       		.byte	0xb
 1249 058b 3203     		.2byte	0x332
 1250 058d 3C030000 		.4byte	0x33c
 1251 0591 0C       		.byte	0xc
 1252 0592 00       		.byte	0
 1253 0593 13       		.uleb128 0x13
 1254 0594 11020000 		.4byte	.LASF88
 1255 0598 0B       		.byte	0xb
 1256 0599 3303     		.2byte	0x333
 1257 059b 55050000 		.4byte	0x555
 1258 059f 08       		.uleb128 0x8
 1259 05a0 0C       		.byte	0xc
 1260 05a1 0C       		.byte	0xc
 1261 05a2 C1       		.byte	0xc1
 1262 05a3 E4050000 		.4byte	0x5e4
 1263 05a7 06       		.uleb128 0x6
 1264 05a8 F0040000 		.4byte	.LASF89
 1265 05ac 0C       		.byte	0xc
 1266 05ad C2       		.byte	0xc2
 1267 05ae E4050000 		.4byte	0x5e4
 1268 05b2 00       		.byte	0
 1269 05b3 06       		.uleb128 0x6
 1270 05b4 11050000 		.4byte	.LASF90
 1271 05b8 0C       		.byte	0xc
 1272 05b9 C3       		.byte	0xc3
 1273 05ba EA050000 		.4byte	0x5ea
 1274 05be 04       		.byte	0x4
 1275 05bf 06       		.uleb128 0x6
 1276 05c0 25020000 		.4byte	.LASF91
 1277 05c4 0C       		.byte	0xc
 1278 05c5 C4       		.byte	0xc4
 1279 05c6 A2000000 		.4byte	0xa2
 1280 05ca 08       		.byte	0x8
 1281 05cb 06       		.uleb128 0x6
 1282 05cc A0010000 		.4byte	.LASF92
 1283 05d0 0C       		.byte	0xc
 1284 05d1 C6       		.byte	0xc6
 1285 05d2 A2000000 		.4byte	0xa2
 1286 05d6 09       		.byte	0x9
 1287 05d7 06       		.uleb128 0x6
 1288 05d8 60000000 		.4byte	.LASF93
 1289 05dc 0C       		.byte	0xc
 1290 05dd C7       		.byte	0xc7
 1291 05de A2000000 		.4byte	0xa2
 1292 05e2 0A       		.byte	0xa
 1293 05e3 00       		.byte	0
 1294 05e4 09       		.uleb128 0x9
 1295 05e5 04       		.byte	0x4
ARM GAS  /tmp/cc8KUQdq.s 			page 24


 1296 05e6 93050000 		.4byte	0x593
 1297 05ea 09       		.uleb128 0x9
 1298 05eb 04       		.byte	0x4
 1299 05ec 3C030000 		.4byte	0x33c
 1300 05f0 03       		.uleb128 0x3
 1301 05f1 4D040000 		.4byte	.LASF94
 1302 05f5 0C       		.byte	0xc
 1303 05f6 C8       		.byte	0xc8
 1304 05f7 9F050000 		.4byte	0x59f
 1305 05fb 14       		.uleb128 0x14
 1306 05fc 01       		.byte	0x1
 1307 05fd 0D       		.byte	0xd
 1308 05fe 55       		.byte	0x55
 1309 05ff 28060000 		.4byte	0x628
 1310 0603 15       		.uleb128 0x15
 1311 0604 B7010000 		.4byte	.LASF95
 1312 0608 00       		.sleb128 0
 1313 0609 15       		.uleb128 0x15
 1314 060a C8030000 		.4byte	.LASF96
 1315 060e 01       		.sleb128 1
 1316 060f 15       		.uleb128 0x15
 1317 0610 31030000 		.4byte	.LASF97
 1318 0614 02       		.sleb128 2
 1319 0615 15       		.uleb128 0x15
 1320 0616 C2010000 		.4byte	.LASF98
 1321 061a 03       		.sleb128 3
 1322 061b 15       		.uleb128 0x15
 1323 061c 88060000 		.4byte	.LASF99
 1324 0620 04       		.sleb128 4
 1325 0621 15       		.uleb128 0x15
 1326 0622 C1000000 		.4byte	.LASF100
 1327 0626 05       		.sleb128 5
 1328 0627 00       		.byte	0
 1329 0628 03       		.uleb128 0x3
 1330 0629 16000000 		.4byte	.LASF101
 1331 062d 0D       		.byte	0xd
 1332 062e 5C       		.byte	0x5c
 1333 062f FB050000 		.4byte	0x5fb
 1334 0633 03       		.uleb128 0x3
 1335 0634 79010000 		.4byte	.LASF102
 1336 0638 0E       		.byte	0xe
 1337 0639 87       		.byte	0x87
 1338 063a AD000000 		.4byte	0xad
 1339 063e 03       		.uleb128 0x3
 1340 063f 9C060000 		.4byte	.LASF103
 1341 0643 0E       		.byte	0xe
 1342 0644 8C       		.byte	0x8c
 1343 0645 AD000000 		.4byte	0xad
 1344 0649 14       		.uleb128 0x14
 1345 064a 01       		.byte	0x1
 1346 064b 0E       		.byte	0xe
 1347 064c 93       		.byte	0x93
 1348 064d 58060000 		.4byte	0x658
 1349 0651 15       		.uleb128 0x15
 1350 0652 E3000000 		.4byte	.LASF104
 1351 0656 00       		.sleb128 0
 1352 0657 00       		.byte	0
ARM GAS  /tmp/cc8KUQdq.s 			page 25


 1353 0658 03       		.uleb128 0x3
 1354 0659 AF000000 		.4byte	.LASF105
 1355 065d 0E       		.byte	0xe
 1356 065e 95       		.byte	0x95
 1357 065f 49060000 		.4byte	0x649
 1358 0663 03       		.uleb128 0x3
 1359 0664 02020000 		.4byte	.LASF106
 1360 0668 0E       		.byte	0xe
 1361 0669 9A       		.byte	0x9a
 1362 066a 6E060000 		.4byte	0x66e
 1363 066e 05       		.uleb128 0x5
 1364 066f 02020000 		.4byte	.LASF106
 1365 0673 34       		.byte	0x34
 1366 0674 0E       		.byte	0xe
 1367 0675 FE       		.byte	0xfe
 1368 0676 FD060000 		.4byte	0x6fd
 1369 067a 12       		.uleb128 0x12
 1370 067b CB000000 		.4byte	.LASF107
 1371 067f 0E       		.byte	0xe
 1372 0680 0201     		.2byte	0x102
 1373 0682 28060000 		.4byte	0x628
 1374 0686 00       		.byte	0
 1375 0687 12       		.uleb128 0x12
 1376 0688 56050000 		.4byte	.LASF108
 1377 068c 0E       		.byte	0xe
 1378 068d 0601     		.2byte	0x106
 1379 068f 08080000 		.4byte	0x808
 1380 0693 04       		.byte	0x4
 1381 0694 12       		.uleb128 0x12
 1382 0695 A9030000 		.4byte	.LASF109
 1383 0699 0E       		.byte	0xe
 1384 069a 0A01     		.2byte	0x10a
 1385 069c 29070000 		.4byte	0x729
 1386 06a0 08       		.byte	0x8
 1387 06a1 12       		.uleb128 0x12
 1388 06a2 3B030000 		.4byte	.LASF110
 1389 06a6 0E       		.byte	0xe
 1390 06a7 0E01     		.2byte	0x10e
 1391 06a9 2C000000 		.4byte	0x2c
 1392 06ad 0C       		.byte	0xc
 1393 06ae 12       		.uleb128 0x12
 1394 06af 8B030000 		.4byte	.LASF111
 1395 06b3 0E       		.byte	0xe
 1396 06b4 1201     		.2byte	0x112
 1397 06b6 13080000 		.4byte	0x813
 1398 06ba 10       		.byte	0x10
 1399 06bb 12       		.uleb128 0x12
 1400 06bc 2B010000 		.4byte	.LASF112
 1401 06c0 0E       		.byte	0xe
 1402 06c1 1701     		.2byte	0x117
 1403 06c3 61020000 		.4byte	0x261
 1404 06c7 14       		.byte	0x14
 1405 06c8 12       		.uleb128 0x12
 1406 06c9 68040000 		.4byte	.LASF113
 1407 06cd 0E       		.byte	0xe
 1408 06ce 1E01     		.2byte	0x11e
 1409 06d0 E0030000 		.4byte	0x3e0
ARM GAS  /tmp/cc8KUQdq.s 			page 26


 1410 06d4 18       		.byte	0x18
 1411 06d5 0C       		.uleb128 0xc
 1412 06d6 61646300 		.ascii	"adc\000"
 1413 06da 0E       		.byte	0xe
 1414 06db 2A01     		.2byte	0x12a
 1415 06dd 1E080000 		.4byte	0x81e
 1416 06e1 28       		.byte	0x28
 1417 06e2 12       		.uleb128 0x12
 1418 06e3 BA000000 		.4byte	.LASF114
 1419 06e7 0E       		.byte	0xe
 1420 06e8 2E01     		.2byte	0x12e
 1421 06ea 24080000 		.4byte	0x824
 1422 06ee 2C       		.byte	0x2c
 1423 06ef 12       		.uleb128 0x12
 1424 06f0 0E000000 		.4byte	.LASF115
 1425 06f4 0E       		.byte	0xe
 1426 06f5 3201     		.2byte	0x132
 1427 06f7 C3000000 		.4byte	0xc3
 1428 06fb 30       		.byte	0x30
 1429 06fc 00       		.byte	0
 1430 06fd 03       		.uleb128 0x3
 1431 06fe 6B010000 		.4byte	.LASF116
 1432 0702 0E       		.byte	0xe
 1433 0703 A4       		.byte	0xa4
 1434 0704 08070000 		.4byte	0x708
 1435 0708 09       		.uleb128 0x9
 1436 0709 04       		.byte	0x4
 1437 070a 0E070000 		.4byte	0x70e
 1438 070e 16       		.uleb128 0x16
 1439 070f 23070000 		.4byte	0x723
 1440 0713 17       		.uleb128 0x17
 1441 0714 23070000 		.4byte	0x723
 1442 0718 17       		.uleb128 0x17
 1443 0719 29070000 		.4byte	0x729
 1444 071d 17       		.uleb128 0x17
 1445 071e 2C000000 		.4byte	0x2c
 1446 0722 00       		.byte	0
 1447 0723 09       		.uleb128 0x9
 1448 0724 04       		.byte	0x4
 1449 0725 63060000 		.4byte	0x663
 1450 0729 09       		.uleb128 0x9
 1451 072a 04       		.byte	0x4
 1452 072b 33060000 		.4byte	0x633
 1453 072f 03       		.uleb128 0x3
 1454 0730 0F010000 		.4byte	.LASF117
 1455 0734 0E       		.byte	0xe
 1456 0735 AD       		.byte	0xad
 1457 0736 3A070000 		.4byte	0x73a
 1458 073a 09       		.uleb128 0x9
 1459 073b 04       		.byte	0x4
 1460 073c 40070000 		.4byte	0x740
 1461 0740 16       		.uleb128 0x16
 1462 0741 50070000 		.4byte	0x750
 1463 0745 17       		.uleb128 0x17
 1464 0746 23070000 		.4byte	0x723
 1465 074a 17       		.uleb128 0x17
 1466 074b 58060000 		.4byte	0x658
ARM GAS  /tmp/cc8KUQdq.s 			page 27


 1467 074f 00       		.byte	0
 1468 0750 08       		.uleb128 0x8
 1469 0751 28       		.byte	0x28
 1470 0752 0E       		.byte	0xe
 1471 0753 B7       		.byte	0xb7
 1472 0754 DD070000 		.4byte	0x7dd
 1473 0758 06       		.uleb128 0x6
 1474 0759 D1000000 		.4byte	.LASF118
 1475 075d 0E       		.byte	0xe
 1476 075e BB       		.byte	0xbb
 1477 075f CE000000 		.4byte	0xce
 1478 0763 00       		.byte	0
 1479 0764 06       		.uleb128 0x6
 1480 0765 4F030000 		.4byte	.LASF119
 1481 0769 0E       		.byte	0xe
 1482 076a BF       		.byte	0xbf
 1483 076b 3E060000 		.4byte	0x63e
 1484 076f 02       		.byte	0x2
 1485 0770 06       		.uleb128 0x6
 1486 0771 64010000 		.4byte	.LASF120
 1487 0775 0E       		.byte	0xe
 1488 0776 C3       		.byte	0xc3
 1489 0777 FD060000 		.4byte	0x6fd
 1490 077b 04       		.byte	0x4
 1491 077c 06       		.uleb128 0x6
 1492 077d BE040000 		.4byte	.LASF121
 1493 0781 0E       		.byte	0xe
 1494 0782 C7       		.byte	0xc7
 1495 0783 2F070000 		.4byte	0x72f
 1496 0787 08       		.byte	0x8
 1497 0788 07       		.uleb128 0x7
 1498 0789 63723100 		.ascii	"cr1\000"
 1499 078d 0E       		.byte	0xe
 1500 078e CE       		.byte	0xce
 1501 078f C3000000 		.4byte	0xc3
 1502 0793 0C       		.byte	0xc
 1503 0794 07       		.uleb128 0x7
 1504 0795 63723200 		.ascii	"cr2\000"
 1505 0799 0E       		.byte	0xe
 1506 079a D5       		.byte	0xd5
 1507 079b C3000000 		.4byte	0xc3
 1508 079f 10       		.byte	0x10
 1509 07a0 06       		.uleb128 0x6
 1510 07a1 39050000 		.4byte	.LASF122
 1511 07a5 0E       		.byte	0xe
 1512 07a6 DB       		.byte	0xdb
 1513 07a7 C3000000 		.4byte	0xc3
 1514 07ab 14       		.byte	0x14
 1515 07ac 06       		.uleb128 0x6
 1516 07ad 08060000 		.4byte	.LASF123
 1517 07b1 0E       		.byte	0xe
 1518 07b2 E1       		.byte	0xe1
 1519 07b3 C3000000 		.4byte	0xc3
 1520 07b7 18       		.byte	0x18
 1521 07b8 06       		.uleb128 0x6
 1522 07b9 68050000 		.4byte	.LASF124
 1523 07bd 0E       		.byte	0xe
ARM GAS  /tmp/cc8KUQdq.s 			page 28


 1524 07be E6       		.byte	0xe6
 1525 07bf C3000000 		.4byte	0xc3
 1526 07c3 1C       		.byte	0x1c
 1527 07c4 06       		.uleb128 0x6
 1528 07c5 6D050000 		.4byte	.LASF125
 1529 07c9 0E       		.byte	0xe
 1530 07ca EB       		.byte	0xeb
 1531 07cb C3000000 		.4byte	0xc3
 1532 07cf 20       		.byte	0x20
 1533 07d0 06       		.uleb128 0x6
 1534 07d1 72050000 		.4byte	.LASF126
 1535 07d5 0E       		.byte	0xe
 1536 07d6 F0       		.byte	0xf0
 1537 07d7 C3000000 		.4byte	0xc3
 1538 07db 24       		.byte	0x24
 1539 07dc 00       		.byte	0
 1540 07dd 03       		.uleb128 0x3
 1541 07de 5A060000 		.4byte	.LASF127
 1542 07e2 0E       		.byte	0xe
 1543 07e3 F1       		.byte	0xf1
 1544 07e4 50070000 		.4byte	0x750
 1545 07e8 08       		.uleb128 0x8
 1546 07e9 04       		.byte	0x4
 1547 07ea 0E       		.byte	0xe
 1548 07eb F7       		.byte	0xf7
 1549 07ec FD070000 		.4byte	0x7fd
 1550 07f0 06       		.uleb128 0x6
 1551 07f1 AA010000 		.4byte	.LASF128
 1552 07f5 0E       		.byte	0xe
 1553 07f6 F8       		.byte	0xf8
 1554 07f7 C3000000 		.4byte	0xc3
 1555 07fb 00       		.byte	0
 1556 07fc 00       		.byte	0
 1557 07fd 03       		.uleb128 0x3
 1558 07fe 8D010000 		.4byte	.LASF129
 1559 0802 0E       		.byte	0xe
 1560 0803 F9       		.byte	0xf9
 1561 0804 E8070000 		.4byte	0x7e8
 1562 0808 09       		.uleb128 0x9
 1563 0809 04       		.byte	0x4
 1564 080a 0E080000 		.4byte	0x80e
 1565 080e 10       		.uleb128 0x10
 1566 080f FD070000 		.4byte	0x7fd
 1567 0813 09       		.uleb128 0x9
 1568 0814 04       		.byte	0x4
 1569 0815 19080000 		.4byte	0x819
 1570 0819 10       		.uleb128 0x10
 1571 081a DD070000 		.4byte	0x7dd
 1572 081e 09       		.uleb128 0x9
 1573 081f 04       		.byte	0x4
 1574 0820 49050000 		.4byte	0x549
 1575 0824 09       		.uleb128 0x9
 1576 0825 04       		.byte	0x4
 1577 0826 2A080000 		.4byte	0x82a
 1578 082a 10       		.uleb128 0x10
 1579 082b F0050000 		.4byte	0x5f0
 1580 082f 18       		.uleb128 0x18
ARM GAS  /tmp/cc8KUQdq.s 			page 29


 1581 0830 2A040000 		.4byte	.LASF142
 1582 0834 01       		.byte	0x1
 1583 0835 BB       		.byte	0xbb
 1584 0836 01       		.byte	0x1
 1585 0837 68080000 		.4byte	0x868
 1586 083b 19       		.uleb128 0x19
 1587 083c 0C020000 		.4byte	.LASF130
 1588 0840 01       		.byte	0x1
 1589 0841 BB       		.byte	0xbb
 1590 0842 23070000 		.4byte	0x723
 1591 0846 19       		.uleb128 0x19
 1592 0847 8B030000 		.4byte	.LASF111
 1593 084b 01       		.byte	0x1
 1594 084c BC       		.byte	0xbc
 1595 084d 13080000 		.4byte	0x813
 1596 0851 19       		.uleb128 0x19
 1597 0852 A9030000 		.4byte	.LASF109
 1598 0856 01       		.byte	0x1
 1599 0857 BD       		.byte	0xbd
 1600 0858 29070000 		.4byte	0x729
 1601 085c 19       		.uleb128 0x19
 1602 085d 3B030000 		.4byte	.LASF110
 1603 0861 01       		.byte	0x1
 1604 0862 BE       		.byte	0xbe
 1605 0863 2C000000 		.4byte	0x2c
 1606 0867 00       		.byte	0
 1607 0868 1A       		.uleb128 0x1a
 1608 0869 7E030000 		.4byte	.LASF131
 1609 086d 01       		.byte	0x1
 1610 086e 44       		.byte	0x44
 1611 086f 00000000 		.4byte	.LFB63
 1612 0873 04000000 		.4byte	.LFE63-.LFB63
 1613 0877 01       		.uleb128 0x1
 1614 0878 9C       		.byte	0x9c
 1615 0879 87080000 		.4byte	0x887
 1616 087d 1B       		.uleb128 0x1b
 1617 087e 04000000 		.4byte	.LVL0
 1618 0882 0E0D0000 		.4byte	0xd0e
 1619 0886 00       		.byte	0
 1620 0887 1A       		.uleb128 0x1a
 1621 0888 E4010000 		.4byte	.LASF132
 1622 088c 01       		.byte	0x1
 1623 088d 50       		.byte	0x50
 1624 088e 00000000 		.4byte	.LFB64
 1625 0892 16000000 		.4byte	.LFE64-.LFB64
 1626 0896 01       		.uleb128 0x1
 1627 0897 9C       		.byte	0x9c
 1628 0898 BF080000 		.4byte	0x8bf
 1629 089c 1C       		.uleb128 0x1c
 1630 089d 0C020000 		.4byte	.LASF130
 1631 08a1 01       		.byte	0x1
 1632 08a2 50       		.byte	0x50
 1633 08a3 23070000 		.4byte	0x723
 1634 08a7 00000000 		.4byte	.LLST0
 1635 08ab 1D       		.uleb128 0x1d
 1636 08ac 16000000 		.4byte	.LVL3
 1637 08b0 160D0000 		.4byte	0xd16
ARM GAS  /tmp/cc8KUQdq.s 			page 30


 1638 08b4 1E       		.uleb128 0x1e
 1639 08b5 01       		.uleb128 0x1
 1640 08b6 50       		.byte	0x50
 1641 08b7 05       		.uleb128 0x5
 1642 08b8 F3       		.byte	0xf3
 1643 08b9 01       		.uleb128 0x1
 1644 08ba 50       		.byte	0x50
 1645 08bb 23       		.byte	0x23
 1646 08bc 18       		.uleb128 0x18
 1647 08bd 00       		.byte	0
 1648 08be 00       		.byte	0
 1649 08bf 1A       		.uleb128 0x1a
 1650 08c0 E8050000 		.4byte	.LASF133
 1651 08c4 01       		.byte	0x1
 1652 08c5 6F       		.byte	0x6f
 1653 08c6 00000000 		.4byte	.LFB65
 1654 08ca 1C000000 		.4byte	.LFE65-.LFB65
 1655 08ce 01       		.uleb128 0x1
 1656 08cf 9C       		.byte	0x9c
 1657 08d0 35090000 		.4byte	0x935
 1658 08d4 1C       		.uleb128 0x1c
 1659 08d5 0C020000 		.4byte	.LASF130
 1660 08d9 01       		.byte	0x1
 1661 08da 6F       		.byte	0x6f
 1662 08db 23070000 		.4byte	0x723
 1663 08df 2E000000 		.4byte	.LLST1
 1664 08e3 1C       		.uleb128 0x1c
 1665 08e4 56050000 		.4byte	.LASF108
 1666 08e8 01       		.byte	0x1
 1667 08e9 6F       		.byte	0x6f
 1668 08ea 08080000 		.4byte	0x808
 1669 08ee 4C000000 		.4byte	.LLST2
 1670 08f2 1F       		.uleb128 0x1f
 1671 08f3 00000000 		.4byte	.Ldebug_ranges0+0
 1672 08f7 09090000 		.4byte	0x909
 1673 08fb 20       		.uleb128 0x20
 1674 08fc 746D7000 		.ascii	"tmp\000"
 1675 0900 01       		.byte	0x1
 1676 0901 73       		.byte	0x73
 1677 0902 C3000000 		.4byte	0xc3
 1678 0906 01       		.uleb128 0x1
 1679 0907 53       		.byte	0x53
 1680 0908 00       		.byte	0
 1681 0909 21       		.uleb128 0x21
 1682 090a 14000000 		.4byte	.LBB12
 1683 090e 08000000 		.4byte	.LBE12-.LBB12
 1684 0912 24090000 		.4byte	0x924
 1685 0916 20       		.uleb128 0x20
 1686 0917 746D7000 		.ascii	"tmp\000"
 1687 091b 01       		.byte	0x1
 1688 091c 79       		.byte	0x79
 1689 091d C3000000 		.4byte	0xc3
 1690 0921 01       		.uleb128 0x1
 1691 0922 53       		.byte	0x53
 1692 0923 00       		.byte	0
 1693 0924 22       		.uleb128 0x22
 1694 0925 10000000 		.4byte	.LVL5
ARM GAS  /tmp/cc8KUQdq.s 			page 31


 1695 0929 270D0000 		.4byte	0xd27
 1696 092d 1E       		.uleb128 0x1e
 1697 092e 01       		.uleb128 0x1
 1698 092f 50       		.byte	0x50
 1699 0930 02       		.uleb128 0x2
 1700 0931 74       		.byte	0x74
 1701 0932 00       		.sleb128 0
 1702 0933 00       		.byte	0
 1703 0934 00       		.byte	0
 1704 0935 1A       		.uleb128 0x1a
 1705 0936 2B000000 		.4byte	.LASF134
 1706 093a 01       		.byte	0x1
 1707 093b 83       		.byte	0x83
 1708 093c 00000000 		.4byte	.LFB66
 1709 0940 1A000000 		.4byte	.LFE66-.LFB66
 1710 0944 01       		.uleb128 0x1
 1711 0945 9C       		.byte	0x9c
 1712 0946 9C090000 		.4byte	0x99c
 1713 094a 1C       		.uleb128 0x1c
 1714 094b 0C020000 		.4byte	.LASF130
 1715 094f 01       		.byte	0x1
 1716 0950 83       		.byte	0x83
 1717 0951 23070000 		.4byte	0x723
 1718 0955 6D000000 		.4byte	.LLST3
 1719 0959 1F       		.uleb128 0x1f
 1720 095a 18000000 		.4byte	.Ldebug_ranges0+0x18
 1721 095e 70090000 		.4byte	0x970
 1722 0962 20       		.uleb128 0x20
 1723 0963 746D7000 		.ascii	"tmp\000"
 1724 0967 01       		.byte	0x1
 1725 0968 87       		.byte	0x87
 1726 0969 C3000000 		.4byte	0xc3
 1727 096d 01       		.uleb128 0x1
 1728 096e 53       		.byte	0x53
 1729 096f 00       		.byte	0
 1730 0970 21       		.uleb128 0x21
 1731 0971 12000000 		.4byte	.LBB15
 1732 0975 08000000 		.4byte	.LBE15-.LBB15
 1733 0979 8B090000 		.4byte	0x98b
 1734 097d 20       		.uleb128 0x20
 1735 097e 746D7000 		.ascii	"tmp\000"
 1736 0982 01       		.byte	0x1
 1737 0983 8C       		.byte	0x8c
 1738 0984 C3000000 		.4byte	0xc3
 1739 0988 01       		.uleb128 0x1
 1740 0989 53       		.byte	0x53
 1741 098a 00       		.byte	0
 1742 098b 22       		.uleb128 0x22
 1743 098c 0E000000 		.4byte	.LVL7
 1744 0990 390D0000 		.4byte	0xd39
 1745 0994 1E       		.uleb128 0x1e
 1746 0995 01       		.uleb128 0x1
 1747 0996 50       		.byte	0x50
 1748 0997 02       		.uleb128 0x2
 1749 0998 74       		.byte	0x74
 1750 0999 00       		.sleb128 0
 1751 099a 00       		.byte	0
ARM GAS  /tmp/cc8KUQdq.s 			page 32


 1752 099b 00       		.byte	0
 1753 099c 1A       		.uleb128 0x1a
 1754 099d A9050000 		.4byte	.LASF135
 1755 09a1 01       		.byte	0x1
 1756 09a2 9F       		.byte	0x9f
 1757 09a3 00000000 		.4byte	.LFB67
 1758 09a7 20000000 		.4byte	.LFE67-.LFB67
 1759 09ab 01       		.uleb128 0x1
 1760 09ac 9C       		.byte	0x9c
 1761 09ad 670A0000 		.4byte	0xa67
 1762 09b1 1C       		.uleb128 0x1c
 1763 09b2 0C020000 		.4byte	.LASF130
 1764 09b6 01       		.byte	0x1
 1765 09b7 9F       		.byte	0x9f
 1766 09b8 23070000 		.4byte	0x723
 1767 09bc 8B000000 		.4byte	.LLST4
 1768 09c0 1C       		.uleb128 0x1c
 1769 09c1 8B030000 		.4byte	.LASF111
 1770 09c5 01       		.byte	0x1
 1771 09c6 A0       		.byte	0xa0
 1772 09c7 13080000 		.4byte	0x813
 1773 09cb AC000000 		.4byte	.LLST5
 1774 09cf 1C       		.uleb128 0x1c
 1775 09d0 A9030000 		.4byte	.LASF109
 1776 09d4 01       		.byte	0x1
 1777 09d5 A1       		.byte	0xa1
 1778 09d6 29070000 		.4byte	0x729
 1779 09da CD000000 		.4byte	.LLST6
 1780 09de 1C       		.uleb128 0x1c
 1781 09df 3B030000 		.4byte	.LASF110
 1782 09e3 01       		.byte	0x1
 1783 09e4 A2       		.byte	0xa2
 1784 09e5 2C000000 		.4byte	0x2c
 1785 09e9 EE000000 		.4byte	.LLST7
 1786 09ed 21       		.uleb128 0x21
 1787 09ee 04000000 		.4byte	.LBB16
 1788 09f2 06000000 		.4byte	.LBE16-.LBB16
 1789 09f6 080A0000 		.4byte	0xa08
 1790 09fa 20       		.uleb128 0x20
 1791 09fb 746D7000 		.ascii	"tmp\000"
 1792 09ff 01       		.byte	0x1
 1793 0a00 A4       		.byte	0xa4
 1794 0a01 C3000000 		.4byte	0xc3
 1795 0a05 01       		.uleb128 0x1
 1796 0a06 53       		.byte	0x53
 1797 0a07 00       		.byte	0
 1798 0a08 23       		.uleb128 0x23
 1799 0a09 2F080000 		.4byte	0x82f
 1800 0a0d 0A000000 		.4byte	.LBB17
 1801 0a11 0E000000 		.4byte	.LBE17-.LBB17
 1802 0a15 01       		.byte	0x1
 1803 0a16 A5       		.byte	0xa5
 1804 0a17 4F0A0000 		.4byte	0xa4f
 1805 0a1b 24       		.uleb128 0x24
 1806 0a1c 5C080000 		.4byte	0x85c
 1807 0a20 01       		.uleb128 0x1
 1808 0a21 54       		.byte	0x54
ARM GAS  /tmp/cc8KUQdq.s 			page 33


 1809 0a22 25       		.uleb128 0x25
 1810 0a23 51080000 		.4byte	0x851
 1811 0a27 0C010000 		.4byte	.LLST8
 1812 0a2b 25       		.uleb128 0x25
 1813 0a2c 46080000 		.4byte	0x846
 1814 0a30 2D010000 		.4byte	.LLST9
 1815 0a34 25       		.uleb128 0x25
 1816 0a35 3B080000 		.4byte	0x83b
 1817 0a39 4E010000 		.4byte	.LLST10
 1818 0a3d 22       		.uleb128 0x22
 1819 0a3e 18000000 		.4byte	.LVL11
 1820 0a42 4B0D0000 		.4byte	0xd4b
 1821 0a46 1E       		.uleb128 0x1e
 1822 0a47 01       		.uleb128 0x1
 1823 0a48 50       		.byte	0x50
 1824 0a49 03       		.uleb128 0x3
 1825 0a4a F3       		.byte	0xf3
 1826 0a4b 01       		.uleb128 0x1
 1827 0a4c 50       		.byte	0x50
 1828 0a4d 00       		.byte	0
 1829 0a4e 00       		.byte	0
 1830 0a4f 26       		.uleb128 0x26
 1831 0a50 18000000 		.4byte	.LBB19
 1832 0a54 08000000 		.4byte	.LBE19-.LBB19
 1833 0a58 20       		.uleb128 0x20
 1834 0a59 746D7000 		.ascii	"tmp\000"
 1835 0a5d 01       		.byte	0x1
 1836 0a5e A6       		.byte	0xa6
 1837 0a5f C3000000 		.4byte	0xc3
 1838 0a63 01       		.uleb128 0x1
 1839 0a64 53       		.byte	0x53
 1840 0a65 00       		.byte	0
 1841 0a66 00       		.byte	0
 1842 0a67 27       		.uleb128 0x27
 1843 0a68 2F080000 		.4byte	0x82f
 1844 0a6c 00000000 		.4byte	.LFB68
 1845 0a70 12000000 		.4byte	.LFE68-.LFB68
 1846 0a74 01       		.uleb128 0x1
 1847 0a75 9C       		.byte	0x9c
 1848 0a76 B00A0000 		.4byte	0xab0
 1849 0a7a 25       		.uleb128 0x25
 1850 0a7b 3B080000 		.4byte	0x83b
 1851 0a7f 6F010000 		.4byte	.LLST11
 1852 0a83 25       		.uleb128 0x25
 1853 0a84 46080000 		.4byte	0x846
 1854 0a88 90010000 		.4byte	.LLST12
 1855 0a8c 25       		.uleb128 0x25
 1856 0a8d 51080000 		.4byte	0x851
 1857 0a91 B1010000 		.4byte	.LLST13
 1858 0a95 25       		.uleb128 0x25
 1859 0a96 5C080000 		.4byte	0x85c
 1860 0a9a D2010000 		.4byte	.LLST14
 1861 0a9e 1D       		.uleb128 0x1d
 1862 0a9f 12000000 		.4byte	.LVL13
 1863 0aa3 4B0D0000 		.4byte	0xd4b
 1864 0aa7 1E       		.uleb128 0x1e
 1865 0aa8 01       		.uleb128 0x1
ARM GAS  /tmp/cc8KUQdq.s 			page 34


 1866 0aa9 50       		.byte	0x50
 1867 0aaa 03       		.uleb128 0x3
 1868 0aab F3       		.byte	0xf3
 1869 0aac 01       		.uleb128 0x1
 1870 0aad 50       		.byte	0x50
 1871 0aae 00       		.byte	0
 1872 0aaf 00       		.byte	0
 1873 0ab0 1A       		.uleb128 0x1a
 1874 0ab1 C0060000 		.4byte	.LASF136
 1875 0ab5 01       		.byte	0x1
 1876 0ab6 DA       		.byte	0xda
 1877 0ab7 00000000 		.4byte	.LFB69
 1878 0abb 32000000 		.4byte	.LFE69-.LFB69
 1879 0abf 01       		.uleb128 0x1
 1880 0ac0 9C       		.byte	0x9c
 1881 0ac1 430B0000 		.4byte	0xb43
 1882 0ac5 1C       		.uleb128 0x1c
 1883 0ac6 0C020000 		.4byte	.LASF130
 1884 0aca 01       		.byte	0x1
 1885 0acb DA       		.byte	0xda
 1886 0acc 23070000 		.4byte	0x723
 1887 0ad0 F3010000 		.4byte	.LLST15
 1888 0ad4 1F       		.uleb128 0x1f
 1889 0ad5 30000000 		.4byte	.Ldebug_ranges0+0x30
 1890 0ad9 EB0A0000 		.4byte	0xaeb
 1891 0add 20       		.uleb128 0x20
 1892 0ade 746D7000 		.ascii	"tmp\000"
 1893 0ae2 01       		.byte	0x1
 1894 0ae3 DE       		.byte	0xde
 1895 0ae4 C3000000 		.4byte	0xc3
 1896 0ae8 01       		.uleb128 0x1
 1897 0ae9 53       		.byte	0x53
 1898 0aea 00       		.byte	0
 1899 0aeb 21       		.uleb128 0x21
 1900 0aec 20000000 		.4byte	.LBB22
 1901 0af0 0A000000 		.4byte	.LBE22-.LBB22
 1902 0af4 170B0000 		.4byte	0xb17
 1903 0af8 28       		.uleb128 0x28
 1904 0af9 747000   		.ascii	"tp\000"
 1905 0afc 01       		.byte	0x1
 1906 0afd E6       		.byte	0xe6
 1907 0afe 61020000 		.4byte	0x261
 1908 0b02 11020000 		.4byte	.LLST16
 1909 0b06 22       		.uleb128 0x22
 1910 0b07 2A000000 		.4byte	.LVL17
 1911 0b0b 5D0D0000 		.4byte	0xd5d
 1912 0b0f 1E       		.uleb128 0x1e
 1913 0b10 01       		.uleb128 0x1
 1914 0b11 51       		.byte	0x51
 1915 0b12 02       		.uleb128 0x2
 1916 0b13 09       		.byte	0x9
 1917 0b14 FE       		.byte	0xfe
 1918 0b15 00       		.byte	0
 1919 0b16 00       		.byte	0
 1920 0b17 21       		.uleb128 0x21
 1921 0b18 2A000000 		.4byte	.LBB23
 1922 0b1c 08000000 		.4byte	.LBE23-.LBB23
ARM GAS  /tmp/cc8KUQdq.s 			page 35


 1923 0b20 320B0000 		.4byte	0xb32
 1924 0b24 20       		.uleb128 0x20
 1925 0b25 746D7000 		.ascii	"tmp\000"
 1926 0b29 01       		.byte	0x1
 1927 0b2a E8       		.byte	0xe8
 1928 0b2b C3000000 		.4byte	0xc3
 1929 0b2f 01       		.uleb128 0x1
 1930 0b30 53       		.byte	0x53
 1931 0b31 00       		.byte	0
 1932 0b32 22       		.uleb128 0x22
 1933 0b33 14000000 		.4byte	.LVL15
 1934 0b37 730D0000 		.4byte	0xd73
 1935 0b3b 1E       		.uleb128 0x1e
 1936 0b3c 01       		.uleb128 0x1
 1937 0b3d 50       		.byte	0x50
 1938 0b3e 02       		.uleb128 0x2
 1939 0b3f 74       		.byte	0x74
 1940 0b40 00       		.sleb128 0
 1941 0b41 00       		.byte	0
 1942 0b42 00       		.byte	0
 1943 0b43 1A       		.uleb128 0x1a
 1944 0b44 47060000 		.4byte	.LASF137
 1945 0b48 01       		.byte	0x1
 1946 0b49 F5       		.byte	0xf5
 1947 0b4a 00000000 		.4byte	.LFB70
 1948 0b4e 2E000000 		.4byte	.LFE70-.LFB70
 1949 0b52 01       		.uleb128 0x1
 1950 0b53 9C       		.byte	0x9c
 1951 0b54 9A0B0000 		.4byte	0xb9a
 1952 0b58 1C       		.uleb128 0x1c
 1953 0b59 0C020000 		.4byte	.LASF130
 1954 0b5d 01       		.byte	0x1
 1955 0b5e F5       		.byte	0xf5
 1956 0b5f 23070000 		.4byte	0x723
 1957 0b63 24020000 		.4byte	.LLST17
 1958 0b67 1F       		.uleb128 0x1f
 1959 0b68 48000000 		.4byte	.Ldebug_ranges0+0x48
 1960 0b6c 890B0000 		.4byte	0xb89
 1961 0b70 29       		.uleb128 0x29
 1962 0b71 747000   		.ascii	"tp\000"
 1963 0b74 01       		.byte	0x1
 1964 0b75 0201     		.2byte	0x102
 1965 0b77 61020000 		.4byte	0x261
 1966 0b7b 5B020000 		.4byte	.LLST18
 1967 0b7f 1B       		.uleb128 0x1b
 1968 0b80 2C000000 		.4byte	.LVL22
 1969 0b84 850D0000 		.4byte	0xd85
 1970 0b88 00       		.byte	0
 1971 0b89 22       		.uleb128 0x22
 1972 0b8a 0E000000 		.4byte	.LVL19
 1973 0b8e 730D0000 		.4byte	0xd73
 1974 0b92 1E       		.uleb128 0x1e
 1975 0b93 01       		.uleb128 0x1
 1976 0b94 50       		.byte	0x50
 1977 0b95 02       		.uleb128 0x2
 1978 0b96 74       		.byte	0x74
 1979 0b97 00       		.sleb128 0
ARM GAS  /tmp/cc8KUQdq.s 			page 36


 1980 0b98 00       		.byte	0
 1981 0b99 00       		.byte	0
 1982 0b9a 2A       		.uleb128 0x2a
 1983 0b9b B5060000 		.4byte	.LASF154
 1984 0b9f 01       		.byte	0x1
 1985 0ba0 1E01     		.2byte	0x11e
 1986 0ba2 17010000 		.4byte	0x117
 1987 0ba6 00000000 		.4byte	.LFB71
 1988 0baa 38000000 		.4byte	.LFE71-.LFB71
 1989 0bae 01       		.uleb128 0x1
 1990 0baf 9C       		.byte	0x9c
 1991 0bb0 8D0C0000 		.4byte	0xc8d
 1992 0bb4 2B       		.uleb128 0x2b
 1993 0bb5 0C020000 		.4byte	.LASF130
 1994 0bb9 01       		.byte	0x1
 1995 0bba 1E01     		.2byte	0x11e
 1996 0bbc 23070000 		.4byte	0x723
 1997 0bc0 6E020000 		.4byte	.LLST19
 1998 0bc4 2B       		.uleb128 0x2b
 1999 0bc5 8B030000 		.4byte	.LASF111
 2000 0bc9 01       		.byte	0x1
 2001 0bca 1F01     		.2byte	0x11f
 2002 0bcc 13080000 		.4byte	0x813
 2003 0bd0 8C020000 		.4byte	.LLST20
 2004 0bd4 2B       		.uleb128 0x2b
 2005 0bd5 A9030000 		.4byte	.LASF109
 2006 0bd9 01       		.byte	0x1
 2007 0bda 2001     		.2byte	0x120
 2008 0bdc 29070000 		.4byte	0x729
 2009 0be0 AD020000 		.4byte	.LLST21
 2010 0be4 2B       		.uleb128 0x2b
 2011 0be5 3B030000 		.4byte	.LASF110
 2012 0be9 01       		.byte	0x1
 2013 0bea 2101     		.2byte	0x121
 2014 0bec 2C000000 		.4byte	0x2c
 2015 0bf0 CE020000 		.4byte	.LLST22
 2016 0bf4 2C       		.uleb128 0x2c
 2017 0bf5 6D736700 		.ascii	"msg\000"
 2018 0bf9 01       		.byte	0x1
 2019 0bfa 2201     		.2byte	0x122
 2020 0bfc 17010000 		.4byte	0x117
 2021 0c00 01       		.uleb128 0x1
 2022 0c01 50       		.byte	0x50
 2023 0c02 21       		.uleb128 0x21
 2024 0c03 06000000 		.4byte	.LBB26
 2025 0c07 06000000 		.4byte	.LBE26-.LBB26
 2026 0c0b 1E0C0000 		.4byte	0xc1e
 2027 0c0f 2C       		.uleb128 0x2c
 2028 0c10 746D7000 		.ascii	"tmp\000"
 2029 0c14 01       		.byte	0x1
 2030 0c15 2401     		.2byte	0x124
 2031 0c17 C3000000 		.4byte	0xc3
 2032 0c1b 01       		.uleb128 0x1
 2033 0c1c 53       		.byte	0x53
 2034 0c1d 00       		.byte	0
 2035 0c1e 2D       		.uleb128 0x2d
 2036 0c1f 2F080000 		.4byte	0x82f
ARM GAS  /tmp/cc8KUQdq.s 			page 37


 2037 0c23 0C000000 		.4byte	.LBB27
 2038 0c27 60000000 		.4byte	.Ldebug_ranges0+0x60
 2039 0c2b 01       		.byte	0x1
 2040 0c2c 2601     		.2byte	0x126
 2041 0c2e 650C0000 		.4byte	0xc65
 2042 0c32 24       		.uleb128 0x24
 2043 0c33 5C080000 		.4byte	0x85c
 2044 0c37 01       		.uleb128 0x1
 2045 0c38 56       		.byte	0x56
 2046 0c39 25       		.uleb128 0x25
 2047 0c3a 51080000 		.4byte	0x851
 2048 0c3e EC020000 		.4byte	.LLST23
 2049 0c42 25       		.uleb128 0x25
 2050 0c43 46080000 		.4byte	0x846
 2051 0c47 0D030000 		.4byte	.LLST24
 2052 0c4b 25       		.uleb128 0x25
 2053 0c4c 3B080000 		.4byte	0x83b
 2054 0c50 2E030000 		.4byte	.LLST25
 2055 0c54 22       		.uleb128 0x22
 2056 0c55 22000000 		.4byte	.LVL26
 2057 0c59 4B0D0000 		.4byte	0xd4b
 2058 0c5d 1E       		.uleb128 0x1e
 2059 0c5e 01       		.uleb128 0x1
 2060 0c5f 50       		.byte	0x50
 2061 0c60 02       		.uleb128 0x2
 2062 0c61 74       		.byte	0x74
 2063 0c62 00       		.sleb128 0
 2064 0c63 00       		.byte	0
 2065 0c64 00       		.byte	0
 2066 0c65 1F       		.uleb128 0x1f
 2067 0c66 80000000 		.4byte	.Ldebug_ranges0+0x80
 2068 0c6a 7D0C0000 		.4byte	0xc7d
 2069 0c6e 2C       		.uleb128 0x2c
 2070 0c6f 746D7000 		.ascii	"tmp\000"
 2071 0c73 01       		.byte	0x1
 2072 0c74 2A01     		.2byte	0x12a
 2073 0c76 C3000000 		.4byte	0xc3
 2074 0c7a 01       		.uleb128 0x1
 2075 0c7b 53       		.byte	0x53
 2076 0c7c 00       		.byte	0
 2077 0c7d 22       		.uleb128 0x22
 2078 0c7e 2C000000 		.4byte	.LVL27
 2079 0c82 9A0D0000 		.4byte	0xd9a
 2080 0c86 1E       		.uleb128 0x1e
 2081 0c87 01       		.uleb128 0x1
 2082 0c88 50       		.byte	0x50
 2083 0c89 01       		.uleb128 0x1
 2084 0c8a 32       		.byte	0x32
 2085 0c8b 00       		.byte	0
 2086 0c8c 00       		.byte	0
 2087 0c8d 2E       		.uleb128 0x2e
 2088 0c8e DA060000 		.4byte	.LASF138
 2089 0c92 01       		.byte	0x1
 2090 0c93 3B01     		.2byte	0x13b
 2091 0c95 00000000 		.4byte	.LFB72
 2092 0c99 06000000 		.4byte	.LFE72-.LFB72
 2093 0c9d 01       		.uleb128 0x1
ARM GAS  /tmp/cc8KUQdq.s 			page 38


 2094 0c9e 9C       		.byte	0x9c
 2095 0c9f C70C0000 		.4byte	0xcc7
 2096 0ca3 2B       		.uleb128 0x2b
 2097 0ca4 0C020000 		.4byte	.LASF130
 2098 0ca8 01       		.byte	0x1
 2099 0ca9 3B01     		.2byte	0x13b
 2100 0cab 23070000 		.4byte	0x723
 2101 0caf 4C030000 		.4byte	.LLST26
 2102 0cb3 1D       		.uleb128 0x1d
 2103 0cb4 06000000 		.4byte	.LVL31
 2104 0cb8 AB0D0000 		.4byte	0xdab
 2105 0cbc 1E       		.uleb128 0x1e
 2106 0cbd 01       		.uleb128 0x1
 2107 0cbe 50       		.byte	0x50
 2108 0cbf 05       		.uleb128 0x5
 2109 0cc0 F3       		.byte	0xf3
 2110 0cc1 01       		.uleb128 0x1
 2111 0cc2 50       		.byte	0x50
 2112 0cc3 23       		.byte	0x23
 2113 0cc4 18       		.uleb128 0x18
 2114 0cc5 00       		.byte	0
 2115 0cc6 00       		.byte	0
 2116 0cc7 2E       		.uleb128 0x2e
 2117 0cc8 1F050000 		.4byte	.LASF139
 2118 0ccc 01       		.byte	0x1
 2119 0ccd 4F01     		.2byte	0x14f
 2120 0ccf 00000000 		.4byte	.LFB73
 2121 0cd3 04000000 		.4byte	.LFE73-.LFB73
 2122 0cd7 01       		.uleb128 0x1
 2123 0cd8 9C       		.byte	0x9c
 2124 0cd9 F70C0000 		.4byte	0xcf7
 2125 0cdd 2B       		.uleb128 0x2b
 2126 0cde 0C020000 		.4byte	.LASF130
 2127 0ce2 01       		.byte	0x1
 2128 0ce3 4F01     		.2byte	0x14f
 2129 0ce5 23070000 		.4byte	0x723
 2130 0ce9 7A030000 		.4byte	.LLST27
 2131 0ced 1B       		.uleb128 0x1b
 2132 0cee 04000000 		.4byte	.LVL33
 2133 0cf2 BC0D0000 		.4byte	0xdbc
 2134 0cf6 00       		.byte	0
 2135 0cf7 2F       		.uleb128 0x2f
 2136 0cf8 39060000 		.4byte	.LASF140
 2137 0cfc 09       		.byte	0x9
 2138 0cfd 6F       		.byte	0x6f
 2139 0cfe 9E030000 		.4byte	0x39e
 2140 0d02 30       		.uleb128 0x30
 2141 0d03 67000000 		.4byte	.LASF141
 2142 0d07 0F       		.byte	0xf
 2143 0d08 0706     		.2byte	0x607
 2144 0d0a 38040000 		.4byte	0x438
 2145 0d0e 31       		.uleb128 0x31
 2146 0d0f 9C030000 		.4byte	.LASF155
 2147 0d13 0E       		.byte	0xe
 2148 0d14 7C01     		.2byte	0x17c
 2149 0d16 32       		.uleb128 0x32
 2150 0d17 DE050000 		.4byte	.LASF143
ARM GAS  /tmp/cc8KUQdq.s 			page 39


 2151 0d1b 0A       		.byte	0xa
 2152 0d1c 38       		.byte	0x38
 2153 0d1d 270D0000 		.4byte	0xd27
 2154 0d21 17       		.uleb128 0x17
 2155 0d22 32040000 		.4byte	0x432
 2156 0d26 00       		.byte	0
 2157 0d27 33       		.uleb128 0x33
 2158 0d28 C3050000 		.4byte	.LASF144
 2159 0d2c 0E       		.byte	0xe
 2160 0d2d 7D01     		.2byte	0x17d
 2161 0d2f 390D0000 		.4byte	0xd39
 2162 0d33 17       		.uleb128 0x17
 2163 0d34 23070000 		.4byte	0x723
 2164 0d38 00       		.byte	0
 2165 0d39 33       		.uleb128 0x33
 2166 0d3a 33000000 		.4byte	.LASF145
 2167 0d3e 0E       		.byte	0xe
 2168 0d3f 7E01     		.2byte	0x17e
 2169 0d41 4B0D0000 		.4byte	0xd4b
 2170 0d45 17       		.uleb128 0x17
 2171 0d46 23070000 		.4byte	0x723
 2172 0d4a 00       		.byte	0
 2173 0d4b 33       		.uleb128 0x33
 2174 0d4c F6000000 		.4byte	.LASF146
 2175 0d50 0E       		.byte	0xe
 2176 0d51 7F01     		.2byte	0x17f
 2177 0d53 5D0D0000 		.4byte	0xd5d
 2178 0d57 17       		.uleb128 0x17
 2179 0d58 23070000 		.4byte	0x723
 2180 0d5c 00       		.byte	0
 2181 0d5d 32       		.uleb128 0x32
 2182 0d5e D1050000 		.4byte	.LASF147
 2183 0d62 09       		.byte	0x9
 2184 0d63 99       		.byte	0x99
 2185 0d64 730D0000 		.4byte	0xd73
 2186 0d68 17       		.uleb128 0x17
 2187 0d69 61020000 		.4byte	0x261
 2188 0d6d 17       		.uleb128 0x17
 2189 0d6e 17010000 		.4byte	0x117
 2190 0d72 00       		.byte	0
 2191 0d73 33       		.uleb128 0x33
 2192 0d74 94040000 		.4byte	.LASF148
 2193 0d78 0E       		.byte	0xe
 2194 0d79 8001     		.2byte	0x180
 2195 0d7b 850D0000 		.4byte	0xd85
 2196 0d7f 17       		.uleb128 0x17
 2197 0d80 23070000 		.4byte	0x723
 2198 0d84 00       		.byte	0
 2199 0d85 34       		.uleb128 0x34
 2200 0d86 2D050000 		.4byte	.LASF156
 2201 0d8a 09       		.byte	0x9
 2202 0d8b 90       		.byte	0x90
 2203 0d8c 61020000 		.4byte	0x261
 2204 0d90 9A0D0000 		.4byte	0xd9a
 2205 0d94 17       		.uleb128 0x17
 2206 0d95 61020000 		.4byte	0x261
 2207 0d99 00       		.byte	0
ARM GAS  /tmp/cc8KUQdq.s 			page 40


 2208 0d9a 32       		.uleb128 0x32
 2209 0d9b F8040000 		.4byte	.LASF149
 2210 0d9f 09       		.byte	0x9
 2211 0da0 93       		.byte	0x93
 2212 0da1 AB0D0000 		.4byte	0xdab
 2213 0da5 17       		.uleb128 0x17
 2214 0da6 EB000000 		.4byte	0xeb
 2215 0daa 00       		.byte	0
 2216 0dab 32       		.uleb128 0x32
 2217 0dac D1030000 		.4byte	.LASF150
 2218 0db0 0A       		.byte	0xa
 2219 0db1 39       		.byte	0x39
 2220 0db2 BC0D0000 		.4byte	0xdbc
 2221 0db6 17       		.uleb128 0x17
 2222 0db7 32040000 		.4byte	0x432
 2223 0dbb 00       		.byte	0
 2224 0dbc 35       		.uleb128 0x35
 2225 0dbd 80000000 		.4byte	.LASF157
 2226 0dc1 0A       		.byte	0xa
 2227 0dc2 3D       		.byte	0x3d
 2228 0dc3 32040000 		.4byte	0x432
 2229 0dc7 00       		.byte	0
 2230              		.section	.debug_abbrev,"",%progbits
 2231              	.Ldebug_abbrev0:
 2232 0000 01       		.uleb128 0x1
 2233 0001 11       		.uleb128 0x11
 2234 0002 01       		.byte	0x1
 2235 0003 25       		.uleb128 0x25
 2236 0004 0E       		.uleb128 0xe
 2237 0005 13       		.uleb128 0x13
 2238 0006 0B       		.uleb128 0xb
 2239 0007 03       		.uleb128 0x3
 2240 0008 0E       		.uleb128 0xe
 2241 0009 1B       		.uleb128 0x1b
 2242 000a 0E       		.uleb128 0xe
 2243 000b 55       		.uleb128 0x55
 2244 000c 17       		.uleb128 0x17
 2245 000d 11       		.uleb128 0x11
 2246 000e 01       		.uleb128 0x1
 2247 000f 10       		.uleb128 0x10
 2248 0010 17       		.uleb128 0x17
 2249 0011 00       		.byte	0
 2250 0012 00       		.byte	0
 2251 0013 02       		.uleb128 0x2
 2252 0014 24       		.uleb128 0x24
 2253 0015 00       		.byte	0
 2254 0016 0B       		.uleb128 0xb
 2255 0017 0B       		.uleb128 0xb
 2256 0018 3E       		.uleb128 0x3e
 2257 0019 0B       		.uleb128 0xb
 2258 001a 03       		.uleb128 0x3
 2259 001b 08       		.uleb128 0x8
 2260 001c 00       		.byte	0
 2261 001d 00       		.byte	0
 2262 001e 03       		.uleb128 0x3
 2263 001f 16       		.uleb128 0x16
 2264 0020 00       		.byte	0
ARM GAS  /tmp/cc8KUQdq.s 			page 41


 2265 0021 03       		.uleb128 0x3
 2266 0022 0E       		.uleb128 0xe
 2267 0023 3A       		.uleb128 0x3a
 2268 0024 0B       		.uleb128 0xb
 2269 0025 3B       		.uleb128 0x3b
 2270 0026 0B       		.uleb128 0xb
 2271 0027 49       		.uleb128 0x49
 2272 0028 13       		.uleb128 0x13
 2273 0029 00       		.byte	0
 2274 002a 00       		.byte	0
 2275 002b 04       		.uleb128 0x4
 2276 002c 24       		.uleb128 0x24
 2277 002d 00       		.byte	0
 2278 002e 0B       		.uleb128 0xb
 2279 002f 0B       		.uleb128 0xb
 2280 0030 3E       		.uleb128 0x3e
 2281 0031 0B       		.uleb128 0xb
 2282 0032 03       		.uleb128 0x3
 2283 0033 0E       		.uleb128 0xe
 2284 0034 00       		.byte	0
 2285 0035 00       		.byte	0
 2286 0036 05       		.uleb128 0x5
 2287 0037 13       		.uleb128 0x13
 2288 0038 01       		.byte	0x1
 2289 0039 03       		.uleb128 0x3
 2290 003a 0E       		.uleb128 0xe
 2291 003b 0B       		.uleb128 0xb
 2292 003c 0B       		.uleb128 0xb
 2293 003d 3A       		.uleb128 0x3a
 2294 003e 0B       		.uleb128 0xb
 2295 003f 3B       		.uleb128 0x3b
 2296 0040 0B       		.uleb128 0xb
 2297 0041 01       		.uleb128 0x1
 2298 0042 13       		.uleb128 0x13
 2299 0043 00       		.byte	0
 2300 0044 00       		.byte	0
 2301 0045 06       		.uleb128 0x6
 2302 0046 0D       		.uleb128 0xd
 2303 0047 00       		.byte	0
 2304 0048 03       		.uleb128 0x3
 2305 0049 0E       		.uleb128 0xe
 2306 004a 3A       		.uleb128 0x3a
 2307 004b 0B       		.uleb128 0xb
 2308 004c 3B       		.uleb128 0x3b
 2309 004d 0B       		.uleb128 0xb
 2310 004e 49       		.uleb128 0x49
 2311 004f 13       		.uleb128 0x13
 2312 0050 38       		.uleb128 0x38
 2313 0051 0B       		.uleb128 0xb
 2314 0052 00       		.byte	0
 2315 0053 00       		.byte	0
 2316 0054 07       		.uleb128 0x7
 2317 0055 0D       		.uleb128 0xd
 2318 0056 00       		.byte	0
 2319 0057 03       		.uleb128 0x3
 2320 0058 08       		.uleb128 0x8
 2321 0059 3A       		.uleb128 0x3a
ARM GAS  /tmp/cc8KUQdq.s 			page 42


 2322 005a 0B       		.uleb128 0xb
 2323 005b 3B       		.uleb128 0x3b
 2324 005c 0B       		.uleb128 0xb
 2325 005d 49       		.uleb128 0x49
 2326 005e 13       		.uleb128 0x13
 2327 005f 38       		.uleb128 0x38
 2328 0060 0B       		.uleb128 0xb
 2329 0061 00       		.byte	0
 2330 0062 00       		.byte	0
 2331 0063 08       		.uleb128 0x8
 2332 0064 13       		.uleb128 0x13
 2333 0065 01       		.byte	0x1
 2334 0066 0B       		.uleb128 0xb
 2335 0067 0B       		.uleb128 0xb
 2336 0068 3A       		.uleb128 0x3a
 2337 0069 0B       		.uleb128 0xb
 2338 006a 3B       		.uleb128 0x3b
 2339 006b 0B       		.uleb128 0xb
 2340 006c 01       		.uleb128 0x1
 2341 006d 13       		.uleb128 0x13
 2342 006e 00       		.byte	0
 2343 006f 00       		.byte	0
 2344 0070 09       		.uleb128 0x9
 2345 0071 0F       		.uleb128 0xf
 2346 0072 00       		.byte	0
 2347 0073 0B       		.uleb128 0xb
 2348 0074 0B       		.uleb128 0xb
 2349 0075 49       		.uleb128 0x49
 2350 0076 13       		.uleb128 0x13
 2351 0077 00       		.byte	0
 2352 0078 00       		.byte	0
 2353 0079 0A       		.uleb128 0xa
 2354 007a 0F       		.uleb128 0xf
 2355 007b 00       		.byte	0
 2356 007c 0B       		.uleb128 0xb
 2357 007d 0B       		.uleb128 0xb
 2358 007e 00       		.byte	0
 2359 007f 00       		.byte	0
 2360 0080 0B       		.uleb128 0xb
 2361 0081 13       		.uleb128 0x13
 2362 0082 01       		.byte	0x1
 2363 0083 03       		.uleb128 0x3
 2364 0084 0E       		.uleb128 0xe
 2365 0085 0B       		.uleb128 0xb
 2366 0086 0B       		.uleb128 0xb
 2367 0087 3A       		.uleb128 0x3a
 2368 0088 0B       		.uleb128 0xb
 2369 0089 3B       		.uleb128 0x3b
 2370 008a 05       		.uleb128 0x5
 2371 008b 01       		.uleb128 0x1
 2372 008c 13       		.uleb128 0x13
 2373 008d 00       		.byte	0
 2374 008e 00       		.byte	0
 2375 008f 0C       		.uleb128 0xc
 2376 0090 0D       		.uleb128 0xd
 2377 0091 00       		.byte	0
 2378 0092 03       		.uleb128 0x3
ARM GAS  /tmp/cc8KUQdq.s 			page 43


 2379 0093 08       		.uleb128 0x8
 2380 0094 3A       		.uleb128 0x3a
 2381 0095 0B       		.uleb128 0xb
 2382 0096 3B       		.uleb128 0x3b
 2383 0097 05       		.uleb128 0x5
 2384 0098 49       		.uleb128 0x49
 2385 0099 13       		.uleb128 0x13
 2386 009a 38       		.uleb128 0x38
 2387 009b 0B       		.uleb128 0xb
 2388 009c 00       		.byte	0
 2389 009d 00       		.byte	0
 2390 009e 0D       		.uleb128 0xd
 2391 009f 35       		.uleb128 0x35
 2392 00a0 00       		.byte	0
 2393 00a1 49       		.uleb128 0x49
 2394 00a2 13       		.uleb128 0x13
 2395 00a3 00       		.byte	0
 2396 00a4 00       		.byte	0
 2397 00a5 0E       		.uleb128 0xe
 2398 00a6 17       		.uleb128 0x17
 2399 00a7 01       		.byte	0x1
 2400 00a8 0B       		.uleb128 0xb
 2401 00a9 0B       		.uleb128 0xb
 2402 00aa 3A       		.uleb128 0x3a
 2403 00ab 0B       		.uleb128 0xb
 2404 00ac 3B       		.uleb128 0x3b
 2405 00ad 0B       		.uleb128 0xb
 2406 00ae 01       		.uleb128 0x1
 2407 00af 13       		.uleb128 0x13
 2408 00b0 00       		.byte	0
 2409 00b1 00       		.byte	0
 2410 00b2 0F       		.uleb128 0xf
 2411 00b3 0D       		.uleb128 0xd
 2412 00b4 00       		.byte	0
 2413 00b5 03       		.uleb128 0x3
 2414 00b6 0E       		.uleb128 0xe
 2415 00b7 3A       		.uleb128 0x3a
 2416 00b8 0B       		.uleb128 0xb
 2417 00b9 3B       		.uleb128 0x3b
 2418 00ba 0B       		.uleb128 0xb
 2419 00bb 49       		.uleb128 0x49
 2420 00bc 13       		.uleb128 0x13
 2421 00bd 00       		.byte	0
 2422 00be 00       		.byte	0
 2423 00bf 10       		.uleb128 0x10
 2424 00c0 26       		.uleb128 0x26
 2425 00c1 00       		.byte	0
 2426 00c2 49       		.uleb128 0x49
 2427 00c3 13       		.uleb128 0x13
 2428 00c4 00       		.byte	0
 2429 00c5 00       		.byte	0
 2430 00c6 11       		.uleb128 0x11
 2431 00c7 13       		.uleb128 0x13
 2432 00c8 01       		.byte	0x1
 2433 00c9 0B       		.uleb128 0xb
 2434 00ca 0B       		.uleb128 0xb
 2435 00cb 3A       		.uleb128 0x3a
ARM GAS  /tmp/cc8KUQdq.s 			page 44


 2436 00cc 0B       		.uleb128 0xb
 2437 00cd 3B       		.uleb128 0x3b
 2438 00ce 05       		.uleb128 0x5
 2439 00cf 01       		.uleb128 0x1
 2440 00d0 13       		.uleb128 0x13
 2441 00d1 00       		.byte	0
 2442 00d2 00       		.byte	0
 2443 00d3 12       		.uleb128 0x12
 2444 00d4 0D       		.uleb128 0xd
 2445 00d5 00       		.byte	0
 2446 00d6 03       		.uleb128 0x3
 2447 00d7 0E       		.uleb128 0xe
 2448 00d8 3A       		.uleb128 0x3a
 2449 00d9 0B       		.uleb128 0xb
 2450 00da 3B       		.uleb128 0x3b
 2451 00db 05       		.uleb128 0x5
 2452 00dc 49       		.uleb128 0x49
 2453 00dd 13       		.uleb128 0x13
 2454 00de 38       		.uleb128 0x38
 2455 00df 0B       		.uleb128 0xb
 2456 00e0 00       		.byte	0
 2457 00e1 00       		.byte	0
 2458 00e2 13       		.uleb128 0x13
 2459 00e3 16       		.uleb128 0x16
 2460 00e4 00       		.byte	0
 2461 00e5 03       		.uleb128 0x3
 2462 00e6 0E       		.uleb128 0xe
 2463 00e7 3A       		.uleb128 0x3a
 2464 00e8 0B       		.uleb128 0xb
 2465 00e9 3B       		.uleb128 0x3b
 2466 00ea 05       		.uleb128 0x5
 2467 00eb 49       		.uleb128 0x49
 2468 00ec 13       		.uleb128 0x13
 2469 00ed 00       		.byte	0
 2470 00ee 00       		.byte	0
 2471 00ef 14       		.uleb128 0x14
 2472 00f0 04       		.uleb128 0x4
 2473 00f1 01       		.byte	0x1
 2474 00f2 0B       		.uleb128 0xb
 2475 00f3 0B       		.uleb128 0xb
 2476 00f4 3A       		.uleb128 0x3a
 2477 00f5 0B       		.uleb128 0xb
 2478 00f6 3B       		.uleb128 0x3b
 2479 00f7 0B       		.uleb128 0xb
 2480 00f8 01       		.uleb128 0x1
 2481 00f9 13       		.uleb128 0x13
 2482 00fa 00       		.byte	0
 2483 00fb 00       		.byte	0
 2484 00fc 15       		.uleb128 0x15
 2485 00fd 28       		.uleb128 0x28
 2486 00fe 00       		.byte	0
 2487 00ff 03       		.uleb128 0x3
 2488 0100 0E       		.uleb128 0xe
 2489 0101 1C       		.uleb128 0x1c
 2490 0102 0D       		.uleb128 0xd
 2491 0103 00       		.byte	0
 2492 0104 00       		.byte	0
ARM GAS  /tmp/cc8KUQdq.s 			page 45


 2493 0105 16       		.uleb128 0x16
 2494 0106 15       		.uleb128 0x15
 2495 0107 01       		.byte	0x1
 2496 0108 27       		.uleb128 0x27
 2497 0109 19       		.uleb128 0x19
 2498 010a 01       		.uleb128 0x1
 2499 010b 13       		.uleb128 0x13
 2500 010c 00       		.byte	0
 2501 010d 00       		.byte	0
 2502 010e 17       		.uleb128 0x17
 2503 010f 05       		.uleb128 0x5
 2504 0110 00       		.byte	0
 2505 0111 49       		.uleb128 0x49
 2506 0112 13       		.uleb128 0x13
 2507 0113 00       		.byte	0
 2508 0114 00       		.byte	0
 2509 0115 18       		.uleb128 0x18
 2510 0116 2E       		.uleb128 0x2e
 2511 0117 01       		.byte	0x1
 2512 0118 3F       		.uleb128 0x3f
 2513 0119 19       		.uleb128 0x19
 2514 011a 03       		.uleb128 0x3
 2515 011b 0E       		.uleb128 0xe
 2516 011c 3A       		.uleb128 0x3a
 2517 011d 0B       		.uleb128 0xb
 2518 011e 3B       		.uleb128 0x3b
 2519 011f 0B       		.uleb128 0xb
 2520 0120 27       		.uleb128 0x27
 2521 0121 19       		.uleb128 0x19
 2522 0122 20       		.uleb128 0x20
 2523 0123 0B       		.uleb128 0xb
 2524 0124 01       		.uleb128 0x1
 2525 0125 13       		.uleb128 0x13
 2526 0126 00       		.byte	0
 2527 0127 00       		.byte	0
 2528 0128 19       		.uleb128 0x19
 2529 0129 05       		.uleb128 0x5
 2530 012a 00       		.byte	0
 2531 012b 03       		.uleb128 0x3
 2532 012c 0E       		.uleb128 0xe
 2533 012d 3A       		.uleb128 0x3a
 2534 012e 0B       		.uleb128 0xb
 2535 012f 3B       		.uleb128 0x3b
 2536 0130 0B       		.uleb128 0xb
 2537 0131 49       		.uleb128 0x49
 2538 0132 13       		.uleb128 0x13
 2539 0133 00       		.byte	0
 2540 0134 00       		.byte	0
 2541 0135 1A       		.uleb128 0x1a
 2542 0136 2E       		.uleb128 0x2e
 2543 0137 01       		.byte	0x1
 2544 0138 3F       		.uleb128 0x3f
 2545 0139 19       		.uleb128 0x19
 2546 013a 03       		.uleb128 0x3
 2547 013b 0E       		.uleb128 0xe
 2548 013c 3A       		.uleb128 0x3a
 2549 013d 0B       		.uleb128 0xb
ARM GAS  /tmp/cc8KUQdq.s 			page 46


 2550 013e 3B       		.uleb128 0x3b
 2551 013f 0B       		.uleb128 0xb
 2552 0140 27       		.uleb128 0x27
 2553 0141 19       		.uleb128 0x19
 2554 0142 11       		.uleb128 0x11
 2555 0143 01       		.uleb128 0x1
 2556 0144 12       		.uleb128 0x12
 2557 0145 06       		.uleb128 0x6
 2558 0146 40       		.uleb128 0x40
 2559 0147 18       		.uleb128 0x18
 2560 0148 9742     		.uleb128 0x2117
 2561 014a 19       		.uleb128 0x19
 2562 014b 01       		.uleb128 0x1
 2563 014c 13       		.uleb128 0x13
 2564 014d 00       		.byte	0
 2565 014e 00       		.byte	0
 2566 014f 1B       		.uleb128 0x1b
 2567 0150 898201   		.uleb128 0x4109
 2568 0153 00       		.byte	0
 2569 0154 11       		.uleb128 0x11
 2570 0155 01       		.uleb128 0x1
 2571 0156 9542     		.uleb128 0x2115
 2572 0158 19       		.uleb128 0x19
 2573 0159 31       		.uleb128 0x31
 2574 015a 13       		.uleb128 0x13
 2575 015b 00       		.byte	0
 2576 015c 00       		.byte	0
 2577 015d 1C       		.uleb128 0x1c
 2578 015e 05       		.uleb128 0x5
 2579 015f 00       		.byte	0
 2580 0160 03       		.uleb128 0x3
 2581 0161 0E       		.uleb128 0xe
 2582 0162 3A       		.uleb128 0x3a
 2583 0163 0B       		.uleb128 0xb
 2584 0164 3B       		.uleb128 0x3b
 2585 0165 0B       		.uleb128 0xb
 2586 0166 49       		.uleb128 0x49
 2587 0167 13       		.uleb128 0x13
 2588 0168 02       		.uleb128 0x2
 2589 0169 17       		.uleb128 0x17
 2590 016a 00       		.byte	0
 2591 016b 00       		.byte	0
 2592 016c 1D       		.uleb128 0x1d
 2593 016d 898201   		.uleb128 0x4109
 2594 0170 01       		.byte	0x1
 2595 0171 11       		.uleb128 0x11
 2596 0172 01       		.uleb128 0x1
 2597 0173 9542     		.uleb128 0x2115
 2598 0175 19       		.uleb128 0x19
 2599 0176 31       		.uleb128 0x31
 2600 0177 13       		.uleb128 0x13
 2601 0178 00       		.byte	0
 2602 0179 00       		.byte	0
 2603 017a 1E       		.uleb128 0x1e
 2604 017b 8A8201   		.uleb128 0x410a
 2605 017e 00       		.byte	0
 2606 017f 02       		.uleb128 0x2
ARM GAS  /tmp/cc8KUQdq.s 			page 47


 2607 0180 18       		.uleb128 0x18
 2608 0181 9142     		.uleb128 0x2111
 2609 0183 18       		.uleb128 0x18
 2610 0184 00       		.byte	0
 2611 0185 00       		.byte	0
 2612 0186 1F       		.uleb128 0x1f
 2613 0187 0B       		.uleb128 0xb
 2614 0188 01       		.byte	0x1
 2615 0189 55       		.uleb128 0x55
 2616 018a 17       		.uleb128 0x17
 2617 018b 01       		.uleb128 0x1
 2618 018c 13       		.uleb128 0x13
 2619 018d 00       		.byte	0
 2620 018e 00       		.byte	0
 2621 018f 20       		.uleb128 0x20
 2622 0190 34       		.uleb128 0x34
 2623 0191 00       		.byte	0
 2624 0192 03       		.uleb128 0x3
 2625 0193 08       		.uleb128 0x8
 2626 0194 3A       		.uleb128 0x3a
 2627 0195 0B       		.uleb128 0xb
 2628 0196 3B       		.uleb128 0x3b
 2629 0197 0B       		.uleb128 0xb
 2630 0198 49       		.uleb128 0x49
 2631 0199 13       		.uleb128 0x13
 2632 019a 02       		.uleb128 0x2
 2633 019b 18       		.uleb128 0x18
 2634 019c 00       		.byte	0
 2635 019d 00       		.byte	0
 2636 019e 21       		.uleb128 0x21
 2637 019f 0B       		.uleb128 0xb
 2638 01a0 01       		.byte	0x1
 2639 01a1 11       		.uleb128 0x11
 2640 01a2 01       		.uleb128 0x1
 2641 01a3 12       		.uleb128 0x12
 2642 01a4 06       		.uleb128 0x6
 2643 01a5 01       		.uleb128 0x1
 2644 01a6 13       		.uleb128 0x13
 2645 01a7 00       		.byte	0
 2646 01a8 00       		.byte	0
 2647 01a9 22       		.uleb128 0x22
 2648 01aa 898201   		.uleb128 0x4109
 2649 01ad 01       		.byte	0x1
 2650 01ae 11       		.uleb128 0x11
 2651 01af 01       		.uleb128 0x1
 2652 01b0 31       		.uleb128 0x31
 2653 01b1 13       		.uleb128 0x13
 2654 01b2 00       		.byte	0
 2655 01b3 00       		.byte	0
 2656 01b4 23       		.uleb128 0x23
 2657 01b5 1D       		.uleb128 0x1d
 2658 01b6 01       		.byte	0x1
 2659 01b7 31       		.uleb128 0x31
 2660 01b8 13       		.uleb128 0x13
 2661 01b9 11       		.uleb128 0x11
 2662 01ba 01       		.uleb128 0x1
 2663 01bb 12       		.uleb128 0x12
ARM GAS  /tmp/cc8KUQdq.s 			page 48


 2664 01bc 06       		.uleb128 0x6
 2665 01bd 58       		.uleb128 0x58
 2666 01be 0B       		.uleb128 0xb
 2667 01bf 59       		.uleb128 0x59
 2668 01c0 0B       		.uleb128 0xb
 2669 01c1 01       		.uleb128 0x1
 2670 01c2 13       		.uleb128 0x13
 2671 01c3 00       		.byte	0
 2672 01c4 00       		.byte	0
 2673 01c5 24       		.uleb128 0x24
 2674 01c6 05       		.uleb128 0x5
 2675 01c7 00       		.byte	0
 2676 01c8 31       		.uleb128 0x31
 2677 01c9 13       		.uleb128 0x13
 2678 01ca 02       		.uleb128 0x2
 2679 01cb 18       		.uleb128 0x18
 2680 01cc 00       		.byte	0
 2681 01cd 00       		.byte	0
 2682 01ce 25       		.uleb128 0x25
 2683 01cf 05       		.uleb128 0x5
 2684 01d0 00       		.byte	0
 2685 01d1 31       		.uleb128 0x31
 2686 01d2 13       		.uleb128 0x13
 2687 01d3 02       		.uleb128 0x2
 2688 01d4 17       		.uleb128 0x17
 2689 01d5 00       		.byte	0
 2690 01d6 00       		.byte	0
 2691 01d7 26       		.uleb128 0x26
 2692 01d8 0B       		.uleb128 0xb
 2693 01d9 01       		.byte	0x1
 2694 01da 11       		.uleb128 0x11
 2695 01db 01       		.uleb128 0x1
 2696 01dc 12       		.uleb128 0x12
 2697 01dd 06       		.uleb128 0x6
 2698 01de 00       		.byte	0
 2699 01df 00       		.byte	0
 2700 01e0 27       		.uleb128 0x27
 2701 01e1 2E       		.uleb128 0x2e
 2702 01e2 01       		.byte	0x1
 2703 01e3 31       		.uleb128 0x31
 2704 01e4 13       		.uleb128 0x13
 2705 01e5 11       		.uleb128 0x11
 2706 01e6 01       		.uleb128 0x1
 2707 01e7 12       		.uleb128 0x12
 2708 01e8 06       		.uleb128 0x6
 2709 01e9 40       		.uleb128 0x40
 2710 01ea 18       		.uleb128 0x18
 2711 01eb 9742     		.uleb128 0x2117
 2712 01ed 19       		.uleb128 0x19
 2713 01ee 01       		.uleb128 0x1
 2714 01ef 13       		.uleb128 0x13
 2715 01f0 00       		.byte	0
 2716 01f1 00       		.byte	0
 2717 01f2 28       		.uleb128 0x28
 2718 01f3 34       		.uleb128 0x34
 2719 01f4 00       		.byte	0
 2720 01f5 03       		.uleb128 0x3
ARM GAS  /tmp/cc8KUQdq.s 			page 49


 2721 01f6 08       		.uleb128 0x8
 2722 01f7 3A       		.uleb128 0x3a
 2723 01f8 0B       		.uleb128 0xb
 2724 01f9 3B       		.uleb128 0x3b
 2725 01fa 0B       		.uleb128 0xb
 2726 01fb 49       		.uleb128 0x49
 2727 01fc 13       		.uleb128 0x13
 2728 01fd 02       		.uleb128 0x2
 2729 01fe 17       		.uleb128 0x17
 2730 01ff 00       		.byte	0
 2731 0200 00       		.byte	0
 2732 0201 29       		.uleb128 0x29
 2733 0202 34       		.uleb128 0x34
 2734 0203 00       		.byte	0
 2735 0204 03       		.uleb128 0x3
 2736 0205 08       		.uleb128 0x8
 2737 0206 3A       		.uleb128 0x3a
 2738 0207 0B       		.uleb128 0xb
 2739 0208 3B       		.uleb128 0x3b
 2740 0209 05       		.uleb128 0x5
 2741 020a 49       		.uleb128 0x49
 2742 020b 13       		.uleb128 0x13
 2743 020c 02       		.uleb128 0x2
 2744 020d 17       		.uleb128 0x17
 2745 020e 00       		.byte	0
 2746 020f 00       		.byte	0
 2747 0210 2A       		.uleb128 0x2a
 2748 0211 2E       		.uleb128 0x2e
 2749 0212 01       		.byte	0x1
 2750 0213 3F       		.uleb128 0x3f
 2751 0214 19       		.uleb128 0x19
 2752 0215 03       		.uleb128 0x3
 2753 0216 0E       		.uleb128 0xe
 2754 0217 3A       		.uleb128 0x3a
 2755 0218 0B       		.uleb128 0xb
 2756 0219 3B       		.uleb128 0x3b
 2757 021a 05       		.uleb128 0x5
 2758 021b 27       		.uleb128 0x27
 2759 021c 19       		.uleb128 0x19
 2760 021d 49       		.uleb128 0x49
 2761 021e 13       		.uleb128 0x13
 2762 021f 11       		.uleb128 0x11
 2763 0220 01       		.uleb128 0x1
 2764 0221 12       		.uleb128 0x12
 2765 0222 06       		.uleb128 0x6
 2766 0223 40       		.uleb128 0x40
 2767 0224 18       		.uleb128 0x18
 2768 0225 9742     		.uleb128 0x2117
 2769 0227 19       		.uleb128 0x19
 2770 0228 01       		.uleb128 0x1
 2771 0229 13       		.uleb128 0x13
 2772 022a 00       		.byte	0
 2773 022b 00       		.byte	0
 2774 022c 2B       		.uleb128 0x2b
 2775 022d 05       		.uleb128 0x5
 2776 022e 00       		.byte	0
 2777 022f 03       		.uleb128 0x3
ARM GAS  /tmp/cc8KUQdq.s 			page 50


 2778 0230 0E       		.uleb128 0xe
 2779 0231 3A       		.uleb128 0x3a
 2780 0232 0B       		.uleb128 0xb
 2781 0233 3B       		.uleb128 0x3b
 2782 0234 05       		.uleb128 0x5
 2783 0235 49       		.uleb128 0x49
 2784 0236 13       		.uleb128 0x13
 2785 0237 02       		.uleb128 0x2
 2786 0238 17       		.uleb128 0x17
 2787 0239 00       		.byte	0
 2788 023a 00       		.byte	0
 2789 023b 2C       		.uleb128 0x2c
 2790 023c 34       		.uleb128 0x34
 2791 023d 00       		.byte	0
 2792 023e 03       		.uleb128 0x3
 2793 023f 08       		.uleb128 0x8
 2794 0240 3A       		.uleb128 0x3a
 2795 0241 0B       		.uleb128 0xb
 2796 0242 3B       		.uleb128 0x3b
 2797 0243 05       		.uleb128 0x5
 2798 0244 49       		.uleb128 0x49
 2799 0245 13       		.uleb128 0x13
 2800 0246 02       		.uleb128 0x2
 2801 0247 18       		.uleb128 0x18
 2802 0248 00       		.byte	0
 2803 0249 00       		.byte	0
 2804 024a 2D       		.uleb128 0x2d
 2805 024b 1D       		.uleb128 0x1d
 2806 024c 01       		.byte	0x1
 2807 024d 31       		.uleb128 0x31
 2808 024e 13       		.uleb128 0x13
 2809 024f 52       		.uleb128 0x52
 2810 0250 01       		.uleb128 0x1
 2811 0251 55       		.uleb128 0x55
 2812 0252 17       		.uleb128 0x17
 2813 0253 58       		.uleb128 0x58
 2814 0254 0B       		.uleb128 0xb
 2815 0255 59       		.uleb128 0x59
 2816 0256 05       		.uleb128 0x5
 2817 0257 01       		.uleb128 0x1
 2818 0258 13       		.uleb128 0x13
 2819 0259 00       		.byte	0
 2820 025a 00       		.byte	0
 2821 025b 2E       		.uleb128 0x2e
 2822 025c 2E       		.uleb128 0x2e
 2823 025d 01       		.byte	0x1
 2824 025e 3F       		.uleb128 0x3f
 2825 025f 19       		.uleb128 0x19
 2826 0260 03       		.uleb128 0x3
 2827 0261 0E       		.uleb128 0xe
 2828 0262 3A       		.uleb128 0x3a
 2829 0263 0B       		.uleb128 0xb
 2830 0264 3B       		.uleb128 0x3b
 2831 0265 05       		.uleb128 0x5
 2832 0266 27       		.uleb128 0x27
 2833 0267 19       		.uleb128 0x19
 2834 0268 11       		.uleb128 0x11
ARM GAS  /tmp/cc8KUQdq.s 			page 51


 2835 0269 01       		.uleb128 0x1
 2836 026a 12       		.uleb128 0x12
 2837 026b 06       		.uleb128 0x6
 2838 026c 40       		.uleb128 0x40
 2839 026d 18       		.uleb128 0x18
 2840 026e 9742     		.uleb128 0x2117
 2841 0270 19       		.uleb128 0x19
 2842 0271 01       		.uleb128 0x1
 2843 0272 13       		.uleb128 0x13
 2844 0273 00       		.byte	0
 2845 0274 00       		.byte	0
 2846 0275 2F       		.uleb128 0x2f
 2847 0276 34       		.uleb128 0x34
 2848 0277 00       		.byte	0
 2849 0278 03       		.uleb128 0x3
 2850 0279 0E       		.uleb128 0xe
 2851 027a 3A       		.uleb128 0x3a
 2852 027b 0B       		.uleb128 0xb
 2853 027c 3B       		.uleb128 0x3b
 2854 027d 0B       		.uleb128 0xb
 2855 027e 49       		.uleb128 0x49
 2856 027f 13       		.uleb128 0x13
 2857 0280 3F       		.uleb128 0x3f
 2858 0281 19       		.uleb128 0x19
 2859 0282 3C       		.uleb128 0x3c
 2860 0283 19       		.uleb128 0x19
 2861 0284 00       		.byte	0
 2862 0285 00       		.byte	0
 2863 0286 30       		.uleb128 0x30
 2864 0287 34       		.uleb128 0x34
 2865 0288 00       		.byte	0
 2866 0289 03       		.uleb128 0x3
 2867 028a 0E       		.uleb128 0xe
 2868 028b 3A       		.uleb128 0x3a
 2869 028c 0B       		.uleb128 0xb
 2870 028d 3B       		.uleb128 0x3b
 2871 028e 05       		.uleb128 0x5
 2872 028f 49       		.uleb128 0x49
 2873 0290 13       		.uleb128 0x13
 2874 0291 3F       		.uleb128 0x3f
 2875 0292 19       		.uleb128 0x19
 2876 0293 3C       		.uleb128 0x3c
 2877 0294 19       		.uleb128 0x19
 2878 0295 00       		.byte	0
 2879 0296 00       		.byte	0
 2880 0297 31       		.uleb128 0x31
 2881 0298 2E       		.uleb128 0x2e
 2882 0299 00       		.byte	0
 2883 029a 3F       		.uleb128 0x3f
 2884 029b 19       		.uleb128 0x19
 2885 029c 03       		.uleb128 0x3
 2886 029d 0E       		.uleb128 0xe
 2887 029e 3A       		.uleb128 0x3a
 2888 029f 0B       		.uleb128 0xb
 2889 02a0 3B       		.uleb128 0x3b
 2890 02a1 05       		.uleb128 0x5
 2891 02a2 27       		.uleb128 0x27
ARM GAS  /tmp/cc8KUQdq.s 			page 52


 2892 02a3 19       		.uleb128 0x19
 2893 02a4 3C       		.uleb128 0x3c
 2894 02a5 19       		.uleb128 0x19
 2895 02a6 00       		.byte	0
 2896 02a7 00       		.byte	0
 2897 02a8 32       		.uleb128 0x32
 2898 02a9 2E       		.uleb128 0x2e
 2899 02aa 01       		.byte	0x1
 2900 02ab 3F       		.uleb128 0x3f
 2901 02ac 19       		.uleb128 0x19
 2902 02ad 03       		.uleb128 0x3
 2903 02ae 0E       		.uleb128 0xe
 2904 02af 3A       		.uleb128 0x3a
 2905 02b0 0B       		.uleb128 0xb
 2906 02b1 3B       		.uleb128 0x3b
 2907 02b2 0B       		.uleb128 0xb
 2908 02b3 27       		.uleb128 0x27
 2909 02b4 19       		.uleb128 0x19
 2910 02b5 3C       		.uleb128 0x3c
 2911 02b6 19       		.uleb128 0x19
 2912 02b7 01       		.uleb128 0x1
 2913 02b8 13       		.uleb128 0x13
 2914 02b9 00       		.byte	0
 2915 02ba 00       		.byte	0
 2916 02bb 33       		.uleb128 0x33
 2917 02bc 2E       		.uleb128 0x2e
 2918 02bd 01       		.byte	0x1
 2919 02be 3F       		.uleb128 0x3f
 2920 02bf 19       		.uleb128 0x19
 2921 02c0 03       		.uleb128 0x3
 2922 02c1 0E       		.uleb128 0xe
 2923 02c2 3A       		.uleb128 0x3a
 2924 02c3 0B       		.uleb128 0xb
 2925 02c4 3B       		.uleb128 0x3b
 2926 02c5 05       		.uleb128 0x5
 2927 02c6 27       		.uleb128 0x27
 2928 02c7 19       		.uleb128 0x19
 2929 02c8 3C       		.uleb128 0x3c
 2930 02c9 19       		.uleb128 0x19
 2931 02ca 01       		.uleb128 0x1
 2932 02cb 13       		.uleb128 0x13
 2933 02cc 00       		.byte	0
 2934 02cd 00       		.byte	0
 2935 02ce 34       		.uleb128 0x34
 2936 02cf 2E       		.uleb128 0x2e
 2937 02d0 01       		.byte	0x1
 2938 02d1 3F       		.uleb128 0x3f
 2939 02d2 19       		.uleb128 0x19
 2940 02d3 03       		.uleb128 0x3
 2941 02d4 0E       		.uleb128 0xe
 2942 02d5 3A       		.uleb128 0x3a
 2943 02d6 0B       		.uleb128 0xb
 2944 02d7 3B       		.uleb128 0x3b
 2945 02d8 0B       		.uleb128 0xb
 2946 02d9 27       		.uleb128 0x27
 2947 02da 19       		.uleb128 0x19
 2948 02db 49       		.uleb128 0x49
ARM GAS  /tmp/cc8KUQdq.s 			page 53


 2949 02dc 13       		.uleb128 0x13
 2950 02dd 3C       		.uleb128 0x3c
 2951 02de 19       		.uleb128 0x19
 2952 02df 01       		.uleb128 0x1
 2953 02e0 13       		.uleb128 0x13
 2954 02e1 00       		.byte	0
 2955 02e2 00       		.byte	0
 2956 02e3 35       		.uleb128 0x35
 2957 02e4 2E       		.uleb128 0x2e
 2958 02e5 00       		.byte	0
 2959 02e6 3F       		.uleb128 0x3f
 2960 02e7 19       		.uleb128 0x19
 2961 02e8 03       		.uleb128 0x3
 2962 02e9 0E       		.uleb128 0xe
 2963 02ea 3A       		.uleb128 0x3a
 2964 02eb 0B       		.uleb128 0xb
 2965 02ec 3B       		.uleb128 0x3b
 2966 02ed 0B       		.uleb128 0xb
 2967 02ee 27       		.uleb128 0x27
 2968 02ef 19       		.uleb128 0x19
 2969 02f0 49       		.uleb128 0x49
 2970 02f1 13       		.uleb128 0x13
 2971 02f2 3C       		.uleb128 0x3c
 2972 02f3 19       		.uleb128 0x19
 2973 02f4 00       		.byte	0
 2974 02f5 00       		.byte	0
 2975 02f6 00       		.byte	0
 2976              		.section	.debug_loc,"",%progbits
 2977              	.Ldebug_loc0:
 2978              	.LLST0:
 2979 0000 00000000 		.4byte	.LVL1
 2980 0004 12000000 		.4byte	.LVL2
 2981 0008 0100     		.2byte	0x1
 2982 000a 50       		.byte	0x50
 2983 000b 12000000 		.4byte	.LVL2
 2984 000f 15000000 		.4byte	.LVL3-1
 2985 0013 0300     		.2byte	0x3
 2986 0015 70       		.byte	0x70
 2987 0016 68       		.sleb128 -24
 2988 0017 9F       		.byte	0x9f
 2989 0018 15000000 		.4byte	.LVL3-1
 2990 001c 16000000 		.4byte	.LFE64
 2991 0020 0400     		.2byte	0x4
 2992 0022 F3       		.byte	0xf3
 2993 0023 01       		.uleb128 0x1
 2994 0024 50       		.byte	0x50
 2995 0025 9F       		.byte	0x9f
 2996 0026 00000000 		.4byte	0
 2997 002a 00000000 		.4byte	0
 2998              	.LLST1:
 2999 002e 00000000 		.4byte	.LVL4
 3000 0032 0F000000 		.4byte	.LVL5-1
 3001 0036 0100     		.2byte	0x1
 3002 0038 50       		.byte	0x50
 3003 0039 0F000000 		.4byte	.LVL5-1
 3004 003d 1C000000 		.4byte	.LFE65
 3005 0041 0100     		.2byte	0x1
ARM GAS  /tmp/cc8KUQdq.s 			page 54


 3006 0043 54       		.byte	0x54
 3007 0044 00000000 		.4byte	0
 3008 0048 00000000 		.4byte	0
 3009              	.LLST2:
 3010 004c 00000000 		.4byte	.LVL4
 3011 0050 0F000000 		.4byte	.LVL5-1
 3012 0054 0100     		.2byte	0x1
 3013 0056 51       		.byte	0x51
 3014 0057 0F000000 		.4byte	.LVL5-1
 3015 005b 1C000000 		.4byte	.LFE65
 3016 005f 0400     		.2byte	0x4
 3017 0061 F3       		.byte	0xf3
 3018 0062 01       		.uleb128 0x1
 3019 0063 51       		.byte	0x51
 3020 0064 9F       		.byte	0x9f
 3021 0065 00000000 		.4byte	0
 3022 0069 00000000 		.4byte	0
 3023              	.LLST3:
 3024 006d 00000000 		.4byte	.LVL6
 3025 0071 0D000000 		.4byte	.LVL7-1
 3026 0075 0100     		.2byte	0x1
 3027 0077 50       		.byte	0x50
 3028 0078 0D000000 		.4byte	.LVL7-1
 3029 007c 1A000000 		.4byte	.LFE66
 3030 0080 0100     		.2byte	0x1
 3031 0082 54       		.byte	0x54
 3032 0083 00000000 		.4byte	0
 3033 0087 00000000 		.4byte	0
 3034              	.LLST4:
 3035 008b 00000000 		.4byte	.LVL8
 3036 008f 17000000 		.4byte	.LVL11-1
 3037 0093 0100     		.2byte	0x1
 3038 0095 50       		.byte	0x50
 3039 0096 17000000 		.4byte	.LVL11-1
 3040 009a 20000000 		.4byte	.LFE67
 3041 009e 0400     		.2byte	0x4
 3042 00a0 F3       		.byte	0xf3
 3043 00a1 01       		.uleb128 0x1
 3044 00a2 50       		.byte	0x50
 3045 00a3 9F       		.byte	0x9f
 3046 00a4 00000000 		.4byte	0
 3047 00a8 00000000 		.4byte	0
 3048              	.LLST5:
 3049 00ac 00000000 		.4byte	.LVL8
 3050 00b0 17000000 		.4byte	.LVL11-1
 3051 00b4 0100     		.2byte	0x1
 3052 00b6 51       		.byte	0x51
 3053 00b7 17000000 		.4byte	.LVL11-1
 3054 00bb 20000000 		.4byte	.LFE67
 3055 00bf 0400     		.2byte	0x4
 3056 00c1 F3       		.byte	0xf3
 3057 00c2 01       		.uleb128 0x1
 3058 00c3 51       		.byte	0x51
 3059 00c4 9F       		.byte	0x9f
 3060 00c5 00000000 		.4byte	0
 3061 00c9 00000000 		.4byte	0
 3062              	.LLST6:
ARM GAS  /tmp/cc8KUQdq.s 			page 55


 3063 00cd 00000000 		.4byte	.LVL8
 3064 00d1 17000000 		.4byte	.LVL11-1
 3065 00d5 0100     		.2byte	0x1
 3066 00d7 52       		.byte	0x52
 3067 00d8 17000000 		.4byte	.LVL11-1
 3068 00dc 20000000 		.4byte	.LFE67
 3069 00e0 0400     		.2byte	0x4
 3070 00e2 F3       		.byte	0xf3
 3071 00e3 01       		.uleb128 0x1
 3072 00e4 52       		.byte	0x52
 3073 00e5 9F       		.byte	0x9f
 3074 00e6 00000000 		.4byte	0
 3075 00ea 00000000 		.4byte	0
 3076              	.LLST7:
 3077 00ee 00000000 		.4byte	.LVL8
 3078 00f2 06000000 		.4byte	.LVL9
 3079 00f6 0100     		.2byte	0x1
 3080 00f8 53       		.byte	0x53
 3081 00f9 06000000 		.4byte	.LVL9
 3082 00fd 20000000 		.4byte	.LFE67
 3083 0101 0100     		.2byte	0x1
 3084 0103 54       		.byte	0x54
 3085 0104 00000000 		.4byte	0
 3086 0108 00000000 		.4byte	0
 3087              	.LLST8:
 3088 010c 0A000000 		.4byte	.LVL10
 3089 0110 17000000 		.4byte	.LVL11-1
 3090 0114 0100     		.2byte	0x1
 3091 0116 52       		.byte	0x52
 3092 0117 17000000 		.4byte	.LVL11-1
 3093 011b 20000000 		.4byte	.LFE67
 3094 011f 0400     		.2byte	0x4
 3095 0121 F3       		.byte	0xf3
 3096 0122 01       		.uleb128 0x1
 3097 0123 52       		.byte	0x52
 3098 0124 9F       		.byte	0x9f
 3099 0125 00000000 		.4byte	0
 3100 0129 00000000 		.4byte	0
 3101              	.LLST9:
 3102 012d 0A000000 		.4byte	.LVL10
 3103 0131 17000000 		.4byte	.LVL11-1
 3104 0135 0100     		.2byte	0x1
 3105 0137 51       		.byte	0x51
 3106 0138 17000000 		.4byte	.LVL11-1
 3107 013c 20000000 		.4byte	.LFE67
 3108 0140 0400     		.2byte	0x4
 3109 0142 F3       		.byte	0xf3
 3110 0143 01       		.uleb128 0x1
 3111 0144 51       		.byte	0x51
 3112 0145 9F       		.byte	0x9f
 3113 0146 00000000 		.4byte	0
 3114 014a 00000000 		.4byte	0
 3115              	.LLST10:
 3116 014e 0A000000 		.4byte	.LVL10
 3117 0152 17000000 		.4byte	.LVL11-1
 3118 0156 0100     		.2byte	0x1
 3119 0158 50       		.byte	0x50
ARM GAS  /tmp/cc8KUQdq.s 			page 56


 3120 0159 17000000 		.4byte	.LVL11-1
 3121 015d 20000000 		.4byte	.LFE67
 3122 0161 0400     		.2byte	0x4
 3123 0163 F3       		.byte	0xf3
 3124 0164 01       		.uleb128 0x1
 3125 0165 50       		.byte	0x50
 3126 0166 9F       		.byte	0x9f
 3127 0167 00000000 		.4byte	0
 3128 016b 00000000 		.4byte	0
 3129              	.LLST11:
 3130 016f 00000000 		.4byte	.LVL12
 3131 0173 11000000 		.4byte	.LVL13-1
 3132 0177 0100     		.2byte	0x1
 3133 0179 50       		.byte	0x50
 3134 017a 11000000 		.4byte	.LVL13-1
 3135 017e 12000000 		.4byte	.LFE68
 3136 0182 0400     		.2byte	0x4
 3137 0184 F3       		.byte	0xf3
 3138 0185 01       		.uleb128 0x1
 3139 0186 50       		.byte	0x50
 3140 0187 9F       		.byte	0x9f
 3141 0188 00000000 		.4byte	0
 3142 018c 00000000 		.4byte	0
 3143              	.LLST12:
 3144 0190 00000000 		.4byte	.LVL12
 3145 0194 11000000 		.4byte	.LVL13-1
 3146 0198 0100     		.2byte	0x1
 3147 019a 51       		.byte	0x51
 3148 019b 11000000 		.4byte	.LVL13-1
 3149 019f 12000000 		.4byte	.LFE68
 3150 01a3 0400     		.2byte	0x4
 3151 01a5 F3       		.byte	0xf3
 3152 01a6 01       		.uleb128 0x1
 3153 01a7 51       		.byte	0x51
 3154 01a8 9F       		.byte	0x9f
 3155 01a9 00000000 		.4byte	0
 3156 01ad 00000000 		.4byte	0
 3157              	.LLST13:
 3158 01b1 00000000 		.4byte	.LVL12
 3159 01b5 11000000 		.4byte	.LVL13-1
 3160 01b9 0100     		.2byte	0x1
 3161 01bb 52       		.byte	0x52
 3162 01bc 11000000 		.4byte	.LVL13-1
 3163 01c0 12000000 		.4byte	.LFE68
 3164 01c4 0400     		.2byte	0x4
 3165 01c6 F3       		.byte	0xf3
 3166 01c7 01       		.uleb128 0x1
 3167 01c8 52       		.byte	0x52
 3168 01c9 9F       		.byte	0x9f
 3169 01ca 00000000 		.4byte	0
 3170 01ce 00000000 		.4byte	0
 3171              	.LLST14:
 3172 01d2 00000000 		.4byte	.LVL12
 3173 01d6 11000000 		.4byte	.LVL13-1
 3174 01da 0100     		.2byte	0x1
 3175 01dc 53       		.byte	0x53
 3176 01dd 11000000 		.4byte	.LVL13-1
ARM GAS  /tmp/cc8KUQdq.s 			page 57


 3177 01e1 12000000 		.4byte	.LFE68
 3178 01e5 0400     		.2byte	0x4
 3179 01e7 F3       		.byte	0xf3
 3180 01e8 01       		.uleb128 0x1
 3181 01e9 53       		.byte	0x53
 3182 01ea 9F       		.byte	0x9f
 3183 01eb 00000000 		.4byte	0
 3184 01ef 00000000 		.4byte	0
 3185              	.LLST15:
 3186 01f3 00000000 		.4byte	.LVL14
 3187 01f7 13000000 		.4byte	.LVL15-1
 3188 01fb 0100     		.2byte	0x1
 3189 01fd 50       		.byte	0x50
 3190 01fe 13000000 		.4byte	.LVL15-1
 3191 0202 32000000 		.4byte	.LFE69
 3192 0206 0100     		.2byte	0x1
 3193 0208 54       		.byte	0x54
 3194 0209 00000000 		.4byte	0
 3195 020d 00000000 		.4byte	0
 3196              	.LLST16:
 3197 0211 20000000 		.4byte	.LVL16
 3198 0215 29000000 		.4byte	.LVL17-1
 3199 0219 0100     		.2byte	0x1
 3200 021b 50       		.byte	0x50
 3201 021c 00000000 		.4byte	0
 3202 0220 00000000 		.4byte	0
 3203              	.LLST17:
 3204 0224 00000000 		.4byte	.LVL18
 3205 0228 0D000000 		.4byte	.LVL19-1
 3206 022c 0100     		.2byte	0x1
 3207 022e 50       		.byte	0x50
 3208 022f 0D000000 		.4byte	.LVL19-1
 3209 0233 28000000 		.4byte	.LVL21
 3210 0237 0100     		.2byte	0x1
 3211 0239 54       		.byte	0x54
 3212 023a 28000000 		.4byte	.LVL21
 3213 023e 2C000000 		.4byte	.LVL22
 3214 0242 0400     		.2byte	0x4
 3215 0244 F3       		.byte	0xf3
 3216 0245 01       		.uleb128 0x1
 3217 0246 50       		.byte	0x50
 3218 0247 9F       		.byte	0x9f
 3219 0248 2C000000 		.4byte	.LVL22
 3220 024c 2E000000 		.4byte	.LFE70
 3221 0250 0100     		.2byte	0x1
 3222 0252 54       		.byte	0x54
 3223 0253 00000000 		.4byte	0
 3224 0257 00000000 		.4byte	0
 3225              	.LLST18:
 3226 025b 1A000000 		.4byte	.LVL20
 3227 025f 2B000000 		.4byte	.LVL22-1
 3228 0263 0100     		.2byte	0x1
 3229 0265 53       		.byte	0x53
 3230 0266 00000000 		.4byte	0
 3231 026a 00000000 		.4byte	0
 3232              	.LLST19:
 3233 026e 00000000 		.4byte	.LVL23
ARM GAS  /tmp/cc8KUQdq.s 			page 58


 3234 0272 21000000 		.4byte	.LVL26-1
 3235 0276 0100     		.2byte	0x1
 3236 0278 50       		.byte	0x50
 3237 0279 21000000 		.4byte	.LVL26-1
 3238 027d 38000000 		.4byte	.LFE71
 3239 0281 0100     		.2byte	0x1
 3240 0283 54       		.byte	0x54
 3241 0284 00000000 		.4byte	0
 3242 0288 00000000 		.4byte	0
 3243              	.LLST20:
 3244 028c 00000000 		.4byte	.LVL23
 3245 0290 21000000 		.4byte	.LVL26-1
 3246 0294 0100     		.2byte	0x1
 3247 0296 51       		.byte	0x51
 3248 0297 21000000 		.4byte	.LVL26-1
 3249 029b 38000000 		.4byte	.LFE71
 3250 029f 0400     		.2byte	0x4
 3251 02a1 F3       		.byte	0xf3
 3252 02a2 01       		.uleb128 0x1
 3253 02a3 51       		.byte	0x51
 3254 02a4 9F       		.byte	0x9f
 3255 02a5 00000000 		.4byte	0
 3256 02a9 00000000 		.4byte	0
 3257              	.LLST21:
 3258 02ad 00000000 		.4byte	.LVL23
 3259 02b1 21000000 		.4byte	.LVL26-1
 3260 02b5 0100     		.2byte	0x1
 3261 02b7 52       		.byte	0x52
 3262 02b8 21000000 		.4byte	.LVL26-1
 3263 02bc 38000000 		.4byte	.LFE71
 3264 02c0 0400     		.2byte	0x4
 3265 02c2 F3       		.byte	0xf3
 3266 02c3 01       		.uleb128 0x1
 3267 02c4 52       		.byte	0x52
 3268 02c5 9F       		.byte	0x9f
 3269 02c6 00000000 		.4byte	0
 3270 02ca 00000000 		.4byte	0
 3271              	.LLST22:
 3272 02ce 00000000 		.4byte	.LVL23
 3273 02d2 08000000 		.4byte	.LVL24
 3274 02d6 0100     		.2byte	0x1
 3275 02d8 53       		.byte	0x53
 3276 02d9 08000000 		.4byte	.LVL24
 3277 02dd 38000000 		.4byte	.LFE71
 3278 02e1 0100     		.2byte	0x1
 3279 02e3 56       		.byte	0x56
 3280 02e4 00000000 		.4byte	0
 3281 02e8 00000000 		.4byte	0
 3282              	.LLST23:
 3283 02ec 0C000000 		.4byte	.LVL25
 3284 02f0 21000000 		.4byte	.LVL26-1
 3285 02f4 0100     		.2byte	0x1
 3286 02f6 52       		.byte	0x52
 3287 02f7 21000000 		.4byte	.LVL26-1
 3288 02fb 38000000 		.4byte	.LFE71
 3289 02ff 0400     		.2byte	0x4
 3290 0301 F3       		.byte	0xf3
ARM GAS  /tmp/cc8KUQdq.s 			page 59


 3291 0302 01       		.uleb128 0x1
 3292 0303 52       		.byte	0x52
 3293 0304 9F       		.byte	0x9f
 3294 0305 00000000 		.4byte	0
 3295 0309 00000000 		.4byte	0
 3296              	.LLST24:
 3297 030d 0C000000 		.4byte	.LVL25
 3298 0311 21000000 		.4byte	.LVL26-1
 3299 0315 0100     		.2byte	0x1
 3300 0317 51       		.byte	0x51
 3301 0318 21000000 		.4byte	.LVL26-1
 3302 031c 38000000 		.4byte	.LFE71
 3303 0320 0400     		.2byte	0x4
 3304 0322 F3       		.byte	0xf3
 3305 0323 01       		.uleb128 0x1
 3306 0324 51       		.byte	0x51
 3307 0325 9F       		.byte	0x9f
 3308 0326 00000000 		.4byte	0
 3309 032a 00000000 		.4byte	0
 3310              	.LLST25:
 3311 032e 0C000000 		.4byte	.LVL25
 3312 0332 21000000 		.4byte	.LVL26-1
 3313 0336 0100     		.2byte	0x1
 3314 0338 50       		.byte	0x50
 3315 0339 21000000 		.4byte	.LVL26-1
 3316 033d 38000000 		.4byte	.LFE71
 3317 0341 0100     		.2byte	0x1
 3318 0343 54       		.byte	0x54
 3319 0344 00000000 		.4byte	0
 3320 0348 00000000 		.4byte	0
 3321              	.LLST26:
 3322 034c 00000000 		.4byte	.LVL29
 3323 0350 02000000 		.4byte	.LVL30
 3324 0354 0100     		.2byte	0x1
 3325 0356 50       		.byte	0x50
 3326 0357 02000000 		.4byte	.LVL30
 3327 035b 05000000 		.4byte	.LVL31-1
 3328 035f 0300     		.2byte	0x3
 3329 0361 70       		.byte	0x70
 3330 0362 68       		.sleb128 -24
 3331 0363 9F       		.byte	0x9f
 3332 0364 05000000 		.4byte	.LVL31-1
 3333 0368 06000000 		.4byte	.LFE72
 3334 036c 0400     		.2byte	0x4
 3335 036e F3       		.byte	0xf3
 3336 036f 01       		.uleb128 0x1
 3337 0370 50       		.byte	0x50
 3338 0371 9F       		.byte	0x9f
 3339 0372 00000000 		.4byte	0
 3340 0376 00000000 		.4byte	0
 3341              	.LLST27:
 3342 037a 00000000 		.4byte	.LVL32
 3343 037e 03000000 		.4byte	.LVL33-1
 3344 0382 0100     		.2byte	0x1
 3345 0384 50       		.byte	0x50
 3346 0385 03000000 		.4byte	.LVL33-1
 3347 0389 04000000 		.4byte	.LFE73
ARM GAS  /tmp/cc8KUQdq.s 			page 60


 3348 038d 0400     		.2byte	0x4
 3349 038f F3       		.byte	0xf3
 3350 0390 01       		.uleb128 0x1
 3351 0391 50       		.byte	0x50
 3352 0392 9F       		.byte	0x9f
 3353 0393 00000000 		.4byte	0
 3354 0397 00000000 		.4byte	0
 3355              		.section	.debug_aranges,"",%progbits
 3356 0000 6C000000 		.4byte	0x6c
 3357 0004 0200     		.2byte	0x2
 3358 0006 00000000 		.4byte	.Ldebug_info0
 3359 000a 04       		.byte	0x4
 3360 000b 00       		.byte	0
 3361 000c 0000     		.2byte	0
 3362 000e 0000     		.2byte	0
 3363 0010 00000000 		.4byte	.LFB63
 3364 0014 04000000 		.4byte	.LFE63-.LFB63
 3365 0018 00000000 		.4byte	.LFB64
 3366 001c 16000000 		.4byte	.LFE64-.LFB64
 3367 0020 00000000 		.4byte	.LFB65
 3368 0024 1C000000 		.4byte	.LFE65-.LFB65
 3369 0028 00000000 		.4byte	.LFB66
 3370 002c 1A000000 		.4byte	.LFE66-.LFB66
 3371 0030 00000000 		.4byte	.LFB67
 3372 0034 20000000 		.4byte	.LFE67-.LFB67
 3373 0038 00000000 		.4byte	.LFB68
 3374 003c 12000000 		.4byte	.LFE68-.LFB68
 3375 0040 00000000 		.4byte	.LFB69
 3376 0044 32000000 		.4byte	.LFE69-.LFB69
 3377 0048 00000000 		.4byte	.LFB70
 3378 004c 2E000000 		.4byte	.LFE70-.LFB70
 3379 0050 00000000 		.4byte	.LFB71
 3380 0054 38000000 		.4byte	.LFE71-.LFB71
 3381 0058 00000000 		.4byte	.LFB72
 3382 005c 06000000 		.4byte	.LFE72-.LFB72
 3383 0060 00000000 		.4byte	.LFB73
 3384 0064 04000000 		.4byte	.LFE73-.LFB73
 3385 0068 00000000 		.4byte	0
 3386 006c 00000000 		.4byte	0
 3387              		.section	.debug_ranges,"",%progbits
 3388              	.Ldebug_ranges0:
 3389 0000 02000000 		.4byte	.LBB10
 3390 0004 04000000 		.4byte	.LBE10
 3391 0008 06000000 		.4byte	.LBB11
 3392 000c 0A000000 		.4byte	.LBE11
 3393 0010 00000000 		.4byte	0
 3394 0014 00000000 		.4byte	0
 3395 0018 02000000 		.4byte	.LBB13
 3396 001c 04000000 		.4byte	.LBE13
 3397 0020 06000000 		.4byte	.LBB14
 3398 0024 0A000000 		.4byte	.LBE14
 3399 0028 00000000 		.4byte	0
 3400 002c 00000000 		.4byte	0
 3401 0030 02000000 		.4byte	.LBB20
 3402 0034 04000000 		.4byte	.LBE20
 3403 0038 06000000 		.4byte	.LBB21
 3404 003c 0A000000 		.4byte	.LBE21
ARM GAS  /tmp/cc8KUQdq.s 			page 61


 3405 0040 00000000 		.4byte	0
 3406 0044 00000000 		.4byte	0
 3407 0048 1A000000 		.4byte	.LBB24
 3408 004c 24000000 		.4byte	.LBE24
 3409 0050 28000000 		.4byte	.LBB25
 3410 0054 2E000000 		.4byte	.LBE25
 3411 0058 00000000 		.4byte	0
 3412 005c 00000000 		.4byte	0
 3413 0060 0C000000 		.4byte	.LBB27
 3414 0064 0E000000 		.4byte	.LBE27
 3415 0068 12000000 		.4byte	.LBB31
 3416 006c 1A000000 		.4byte	.LBE31
 3417 0070 1E000000 		.4byte	.LBB32
 3418 0074 22000000 		.4byte	.LBE32
 3419 0078 00000000 		.4byte	0
 3420 007c 00000000 		.4byte	0
 3421 0080 2E000000 		.4byte	.LBB33
 3422 0084 30000000 		.4byte	.LBE33
 3423 0088 32000000 		.4byte	.LBB34
 3424 008c 36000000 		.4byte	.LBE34
 3425 0090 00000000 		.4byte	0
 3426 0094 00000000 		.4byte	0
 3427 0098 00000000 		.4byte	.LFB63
 3428 009c 04000000 		.4byte	.LFE63
 3429 00a0 00000000 		.4byte	.LFB64
 3430 00a4 16000000 		.4byte	.LFE64
 3431 00a8 00000000 		.4byte	.LFB65
 3432 00ac 1C000000 		.4byte	.LFE65
 3433 00b0 00000000 		.4byte	.LFB66
 3434 00b4 1A000000 		.4byte	.LFE66
 3435 00b8 00000000 		.4byte	.LFB67
 3436 00bc 20000000 		.4byte	.LFE67
 3437 00c0 00000000 		.4byte	.LFB68
 3438 00c4 12000000 		.4byte	.LFE68
 3439 00c8 00000000 		.4byte	.LFB69
 3440 00cc 32000000 		.4byte	.LFE69
 3441 00d0 00000000 		.4byte	.LFB70
 3442 00d4 2E000000 		.4byte	.LFE70
 3443 00d8 00000000 		.4byte	.LFB71
 3444 00dc 38000000 		.4byte	.LFE71
 3445 00e0 00000000 		.4byte	.LFB72
 3446 00e4 06000000 		.4byte	.LFE72
 3447 00e8 00000000 		.4byte	.LFB73
 3448 00ec 04000000 		.4byte	.LFE73
 3449 00f0 00000000 		.4byte	0
 3450 00f4 00000000 		.4byte	0
 3451              		.section	.debug_line,"",%progbits
 3452              	.Ldebug_line0:
 3453 0000 90030000 		.section	.debug_str,"MS",%progbits,1
 3453      02004F02 
 3453      00000201 
 3453      FB0E0D00 
 3453      01010101 
 3454              	.LASF2:
 3455 0000 73697A65 		.ascii	"size_t\000"
 3455      5F7400
 3456              	.LASF65:
ARM GAS  /tmp/cc8KUQdq.s 			page 62


 3457 0007 7264796D 		.ascii	"rdymsg\000"
 3457      736700
 3458              	.LASF115:
 3459 000e 646D616D 		.ascii	"dmamode\000"
 3459      6F646500 
 3460              	.LASF101:
 3461 0016 61646373 		.ascii	"adcstate_t\000"
 3461      74617465 
 3461      5F7400
 3462              	.LASF3:
 3463 0021 5F5F7569 		.ascii	"__uint8_t\000"
 3463      6E74385F 
 3463      7400
 3464              	.LASF134:
 3465 002b 61646353 		.ascii	"adcStop\000"
 3465      746F7000 
 3466              	.LASF145:
 3467 0033 6164635F 		.ascii	"adc_lld_stop\000"
 3467      6C6C645F 
 3467      73746F70 
 3467      00
 3468              	.LASF13:
 3469 0040 6C6F6E67 		.ascii	"long long unsigned int\000"
 3469      206C6F6E 
 3469      6720756E 
 3469      7369676E 
 3469      65642069 
 3470              	.LASF66:
 3471 0057 65786974 		.ascii	"exitcode\000"
 3471      636F6465 
 3471      00
 3472              	.LASF93:
 3473 0060 76656374 		.ascii	"vector\000"
 3473      6F7200
 3474              	.LASF141:
 3475 0067 49544D5F 		.ascii	"ITM_RxBuffer\000"
 3475      52784275 
 3475      66666572 
 3475      00
 3476              	.LASF31:
 3477 0074 705F7072 		.ascii	"p_prio\000"
 3477      696F00
 3478              	.LASF79:
 3479 007b 4A535152 		.ascii	"JSQR\000"
 3479      00
 3480              	.LASF157:
 3481 0080 63684D74 		.ascii	"chMtxUnlock\000"
 3481      78556E6C 
 3481      6F636B00 
 3482              	.LASF1:
 3483 008c 7369676E 		.ascii	"signed char\000"
 3483      65642063 
 3483      68617200 
 3484              	.LASF47:
 3485 0098 705F6D70 		.ascii	"p_mpool\000"
 3485      6F6F6C00 
 3486              	.LASF18:
ARM GAS  /tmp/cc8KUQdq.s 			page 63


 3487 00a0 626F6F6C 		.ascii	"bool_t\000"
 3487      5F7400
 3488              	.LASF62:
 3489 00a7 6D5F7175 		.ascii	"m_queue\000"
 3489      65756500 
 3490              	.LASF105:
 3491 00af 61646365 		.ascii	"adcerror_t\000"
 3491      72726F72 
 3491      5F7400
 3492              	.LASF114:
 3493 00ba 646D6173 		.ascii	"dmastp\000"
 3493      747000
 3494              	.LASF100:
 3495 00c1 4144435F 		.ascii	"ADC_ERROR\000"
 3495      4552524F 
 3495      5200
 3496              	.LASF107:
 3497 00cb 73746174 		.ascii	"state\000"
 3497      6500
 3498              	.LASF118:
 3499 00d1 63697263 		.ascii	"circular\000"
 3499      756C6172 
 3499      00
 3500              	.LASF9:
 3501 00da 6C6F6E67 		.ascii	"long int\000"
 3501      20696E74 
 3501      00
 3502              	.LASF104:
 3503 00e3 4144435F 		.ascii	"ADC_ERR_DMAFAILURE\000"
 3503      4552525F 
 3503      444D4146 
 3503      41494C55 
 3503      524500
 3504              	.LASF146:
 3505 00f6 6164635F 		.ascii	"adc_lld_start_conversion\000"
 3505      6C6C645F 
 3505      73746172 
 3505      745F636F 
 3505      6E766572 
 3506              	.LASF117:
 3507 010f 61646365 		.ascii	"adcerrorcallback_t\000"
 3507      72726F72 
 3507      63616C6C 
 3507      6261636B 
 3507      5F7400
 3508              	.LASF21:
 3509 0122 74737461 		.ascii	"tstate_t\000"
 3509      74655F74 
 3509      00
 3510              	.LASF112:
 3511 012b 74687265 		.ascii	"thread\000"
 3511      616400
 3512              	.LASF12:
 3513 0132 6C6F6E67 		.ascii	"long long int\000"
 3513      206C6F6E 
 3513      6720696E 
 3513      7400
ARM GAS  /tmp/cc8KUQdq.s 			page 64


 3514              	.LASF15:
 3515 0140 75696E74 		.ascii	"uint16_t\000"
 3515      31365F74 
 3515      00
 3516              	.LASF40:
 3517 0149 705F7469 		.ascii	"p_time\000"
 3517      6D6500
 3518              	.LASF84:
 3519 0150 4144435F 		.ascii	"ADC_TypeDef\000"
 3519      54797065 
 3519      44656600 
 3520              	.LASF33:
 3521 015c 705F6E65 		.ascii	"p_newer\000"
 3521      77657200 
 3522              	.LASF120:
 3523 0164 656E645F 		.ascii	"end_cb\000"
 3523      636200
 3524              	.LASF116:
 3525 016b 61646363 		.ascii	"adccallback_t\000"
 3525      616C6C62 
 3525      61636B5F 
 3525      7400
 3526              	.LASF102:
 3527 0179 61646373 		.ascii	"adcsample_t\000"
 3527      616D706C 
 3527      655F7400 
 3528              	.LASF57:
 3529 0185 725F6E65 		.ascii	"r_newer\000"
 3529      77657200 
 3530              	.LASF129:
 3531 018d 41444343 		.ascii	"ADCConfig\000"
 3531      6F6E6669 
 3531      6700
 3532              	.LASF50:
 3533 0197 72656761 		.ascii	"regarm_t\000"
 3533      726D5F74 
 3533      00
 3534              	.LASF92:
 3535 01a0 73656C66 		.ascii	"selfindex\000"
 3535      696E6465 
 3535      7800
 3536              	.LASF128:
 3537 01aa 64756D6D 		.ascii	"dummy\000"
 3537      7900
 3538              	.LASF28:
 3539 01b0 54687265 		.ascii	"Thread\000"
 3539      616400
 3540              	.LASF95:
 3541 01b7 4144435F 		.ascii	"ADC_UNINIT\000"
 3541      554E494E 
 3541      495400
 3542              	.LASF98:
 3543 01c2 4144435F 		.ascii	"ADC_ACTIVE\000"
 3543      41435449 
 3543      564500
 3544              	.LASF23:
 3545 01cd 74736C69 		.ascii	"tslices_t\000"
ARM GAS  /tmp/cc8KUQdq.s 			page 65


 3545      6365735F 
 3545      7400
 3546              	.LASF0:
 3547 01d7 756E7369 		.ascii	"unsigned int\000"
 3547      676E6564 
 3547      20696E74 
 3547      00
 3548              	.LASF132:
 3549 01e4 6164634F 		.ascii	"adcObjectInit\000"
 3549      626A6563 
 3549      74496E69 
 3549      7400
 3550              	.LASF86:
 3551 01f2 43504152 		.ascii	"CPAR\000"
 3551      00
 3552              	.LASF42:
 3553 01f7 705F6D73 		.ascii	"p_msgqueue\000"
 3553      67717565 
 3553      756500
 3554              	.LASF106:
 3555 0202 41444344 		.ascii	"ADCDriver\000"
 3555      72697665 
 3555      7200
 3556              	.LASF130:
 3557 020c 61646370 		.ascii	"adcp\000"
 3557      00
 3558              	.LASF88:
 3559 0211 444D415F 		.ascii	"DMA_Channel_TypeDef\000"
 3559      4368616E 
 3559      6E656C5F 
 3559      54797065 
 3559      44656600 
 3560              	.LASF91:
 3561 0225 69736869 		.ascii	"ishift\000"
 3561      667400
 3562              	.LASF153:
 3563 022c 2F6D6E74 		.ascii	"/mnt/c/Users/DQ Sullivan/Downloads/Convex/convex/co"
 3563      2F632F55 
 3563      73657273 
 3563      2F445120 
 3563      53756C6C 
 3564 025f 72746578 		.ascii	"rtex/projects/Vex2016 CyberBrains\000"
 3564      2F70726F 
 3564      6A656374 
 3564      732F5665 
 3564      78323031 
 3565              	.LASF151:
 3566 0281 474E5520 		.ascii	"GNU C 4.8.2 -mcpu=cortex-m3 -mno-thumb-interwork -m"
 3566      4320342E 
 3566      382E3220 
 3566      2D6D6370 
 3566      753D636F 
 3567 02b4 7468756D 		.ascii	"thumb -ggdb -O2 -fomit-frame-pointer -falign-functi"
 3567      62202D67 
 3567      67646220 
 3567      2D4F3220 
 3567      2D666F6D 
ARM GAS  /tmp/cc8KUQdq.s 			page 66


 3568 02e7 6F6E733D 		.ascii	"ons=16 -ffunction-sections -fdata-sections -fno-com"
 3568      3136202D 
 3568      6666756E 
 3568      6374696F 
 3568      6E2D7365 
 3569 031a 6D6F6E00 		.ascii	"mon\000"
 3570              	.LASF7:
 3571 031e 73686F72 		.ascii	"short unsigned int\000"
 3571      7420756E 
 3571      7369676E 
 3571      65642069 
 3571      6E7400
 3572              	.LASF97:
 3573 0331 4144435F 		.ascii	"ADC_READY\000"
 3573      52454144 
 3573      5900
 3574              	.LASF110:
 3575 033b 64657074 		.ascii	"depth\000"
 3575      6800
 3576              	.LASF25:
 3577 0341 6D73675F 		.ascii	"msg_t\000"
 3577      7400
 3578              	.LASF20:
 3579 0347 746D6F64 		.ascii	"tmode_t\000"
 3579      655F7400 
 3580              	.LASF119:
 3581 034f 6E756D5F 		.ascii	"num_channels\000"
 3581      6368616E 
 3581      6E656C73 
 3581      00
 3582              	.LASF49:
 3583 035c 54687265 		.ascii	"ThreadsList\000"
 3583      6164734C 
 3583      69737400 
 3584              	.LASF26:
 3585 0368 6576656E 		.ascii	"eventmask_t\000"
 3585      746D6173 
 3585      6B5F7400 
 3586              	.LASF5:
 3587 0374 73686F72 		.ascii	"short int\000"
 3587      7420696E 
 3587      7400
 3588              	.LASF131:
 3589 037e 61646349 		.ascii	"adcInit\000"
 3589      6E697400 
 3590              	.LASF87:
 3591 0386 434D4152 		.ascii	"CMAR\000"
 3591      00
 3592              	.LASF111:
 3593 038b 67727070 		.ascii	"grpp\000"
 3593      00
 3594              	.LASF72:
 3595 0390 4A4F4652 		.ascii	"JOFR1\000"
 3595      3100
 3596              	.LASF73:
 3597 0396 4A4F4652 		.ascii	"JOFR2\000"
 3597      3200
ARM GAS  /tmp/cc8KUQdq.s 			page 67


 3598              	.LASF155:
 3599 039c 6164635F 		.ascii	"adc_lld_init\000"
 3599      6C6C645F 
 3599      696E6974 
 3599      00
 3600              	.LASF109:
 3601 03a9 73616D70 		.ascii	"samples\000"
 3601      6C657300 
 3602              	.LASF53:
 3603 03b1 73697A65 		.ascii	"sizetype\000"
 3603      74797065 
 3603      00
 3604              	.LASF61:
 3605 03ba 4D757465 		.ascii	"Mutex\000"
 3605      7800
 3606              	.LASF54:
 3607 03c0 725F7175 		.ascii	"r_queue\000"
 3607      65756500 
 3608              	.LASF96:
 3609 03c8 4144435F 		.ascii	"ADC_STOP\000"
 3609      53544F50 
 3609      00
 3610              	.LASF150:
 3611 03d1 63684D74 		.ascii	"chMtxLock\000"
 3611      784C6F63 
 3611      6B00
 3612              	.LASF34:
 3613 03db 705F6F6C 		.ascii	"p_older\000"
 3613      64657200 
 3614              	.LASF56:
 3615 03e3 725F6374 		.ascii	"r_ctx\000"
 3615      7800
 3616              	.LASF48:
 3617 03e9 54687265 		.ascii	"ThreadsQueue\000"
 3617      61647351 
 3617      75657565 
 3617      00
 3618              	.LASF70:
 3619 03f6 534D5052 		.ascii	"SMPR1\000"
 3619      3100
 3620              	.LASF71:
 3621 03fc 534D5052 		.ascii	"SMPR2\000"
 3621      3200
 3622              	.LASF64:
 3623 0402 6D5F6E65 		.ascii	"m_next\000"
 3623      787400
 3624              	.LASF59:
 3625 0409 725F6375 		.ascii	"r_current\000"
 3625      7272656E 
 3625      7400
 3626              	.LASF58:
 3627 0413 725F6F6C 		.ascii	"r_older\000"
 3627      64657200 
 3628              	.LASF76:
 3629 041b 53515231 		.ascii	"SQR1\000"
 3629      00
 3630              	.LASF77:
ARM GAS  /tmp/cc8KUQdq.s 			page 68


 3631 0420 53515232 		.ascii	"SQR2\000"
 3631      00
 3632              	.LASF78:
 3633 0425 53515233 		.ascii	"SQR3\000"
 3633      00
 3634              	.LASF142:
 3635 042a 61646353 		.ascii	"adcStartConversionI\000"
 3635      74617274 
 3635      436F6E76 
 3635      65727369 
 3635      6F6E4900 
 3636              	.LASF22:
 3637 043e 74726566 		.ascii	"trefs_t\000"
 3637      735F7400 
 3638              	.LASF30:
 3639 0446 705F7072 		.ascii	"p_prev\000"
 3639      657600
 3640              	.LASF94:
 3641 044d 73746D33 		.ascii	"stm32_dma_stream_t\000"
 3641      325F646D 
 3641      615F7374 
 3641      7265616D 
 3641      5F7400
 3642              	.LASF24:
 3643 0460 74707269 		.ascii	"tprio_t\000"
 3643      6F5F7400 
 3644              	.LASF113:
 3645 0468 6D757465 		.ascii	"mutex\000"
 3645      7800
 3646              	.LASF19:
 3647 046e 5F426F6F 		.ascii	"_Bool\000"
 3647      6C00
 3648              	.LASF16:
 3649 0474 696E7433 		.ascii	"int32_t\000"
 3649      325F7400 
 3650              	.LASF4:
 3651 047c 756E7369 		.ascii	"unsigned char\000"
 3651      676E6564 
 3651      20636861 
 3651      7200
 3652              	.LASF45:
 3653 048a 705F6D74 		.ascii	"p_mtxlist\000"
 3653      786C6973 
 3653      7400
 3654              	.LASF148:
 3655 0494 6164635F 		.ascii	"adc_lld_stop_conversion\000"
 3655      6C6C645F 
 3655      73746F70 
 3655      5F636F6E 
 3655      76657273 
 3656              	.LASF36:
 3657 04ac 705F7374 		.ascii	"p_state\000"
 3657      61746500 
 3658              	.LASF39:
 3659 04b4 705F7072 		.ascii	"p_preempt\000"
 3659      65656D70 
 3659      7400
ARM GAS  /tmp/cc8KUQdq.s 			page 69


 3660              	.LASF121:
 3661 04be 6572726F 		.ascii	"error_cb\000"
 3661      725F6362 
 3661      00
 3662              	.LASF55:
 3663 04c7 725F7072 		.ascii	"r_prio\000"
 3663      696F00
 3664              	.LASF68:
 3665 04ce 65776D61 		.ascii	"ewmask\000"
 3665      736B00
 3666              	.LASF29:
 3667 04d5 705F6E65 		.ascii	"p_next\000"
 3667      787400
 3668              	.LASF37:
 3669 04dc 705F666C 		.ascii	"p_flags\000"
 3669      61677300 
 3670              	.LASF74:
 3671 04e4 4A4F4652 		.ascii	"JOFR3\000"
 3671      3300
 3672              	.LASF75:
 3673 04ea 4A4F4652 		.ascii	"JOFR4\000"
 3673      3400
 3674              	.LASF89:
 3675 04f0 6368616E 		.ascii	"channel\000"
 3675      6E656C00 
 3676              	.LASF149:
 3677 04f8 63685363 		.ascii	"chSchGoSleepS\000"
 3677      68476F53 
 3677      6C656570 
 3677      5300
 3678              	.LASF44:
 3679 0506 705F6570 		.ascii	"p_epending\000"
 3679      656E6469 
 3679      6E6700
 3680              	.LASF90:
 3681 0511 69666372 		.ascii	"ifcr\000"
 3681      00
 3682              	.LASF17:
 3683 0516 75696E74 		.ascii	"uint32_t\000"
 3683      33325F74 
 3683      00
 3684              	.LASF139:
 3685 051f 61646352 		.ascii	"adcReleaseBus\000"
 3685      656C6561 
 3685      73654275 
 3685      7300
 3686              	.LASF156:
 3687 052d 63685363 		.ascii	"chSchReadyI\000"
 3687      68526561 
 3687      64794900 
 3688              	.LASF122:
 3689 0539 736D7072 		.ascii	"smpr1\000"
 3689      3100
 3690              	.LASF11:
 3691 053f 6C6F6E67 		.ascii	"long unsigned int\000"
 3691      20756E73 
 3691      69676E65 
ARM GAS  /tmp/cc8KUQdq.s 			page 70


 3691      6420696E 
 3691      7400
 3692              	.LASF69:
 3693 0551 63686172 		.ascii	"char\000"
 3693      00
 3694              	.LASF108:
 3695 0556 636F6E66 		.ascii	"config\000"
 3695      696700
 3696              	.LASF6:
 3697 055d 5F5F7569 		.ascii	"__uint16_t\000"
 3697      6E743136 
 3697      5F7400
 3698              	.LASF124:
 3699 0568 73717231 		.ascii	"sqr1\000"
 3699      00
 3700              	.LASF125:
 3701 056d 73717232 		.ascii	"sqr2\000"
 3701      00
 3702              	.LASF126:
 3703 0572 73717233 		.ascii	"sqr3\000"
 3703      00
 3704              	.LASF27:
 3705 0577 73797374 		.ascii	"systime_t\000"
 3705      696D655F 
 3705      7400
 3706              	.LASF46:
 3707 0581 705F7265 		.ascii	"p_realprio\000"
 3707      616C7072 
 3707      696F00
 3708              	.LASF8:
 3709 058c 5F5F696E 		.ascii	"__int32_t\000"
 3709      7433325F 
 3709      7400
 3710              	.LASF10:
 3711 0596 5F5F7569 		.ascii	"__uint32_t\000"
 3711      6E743332 
 3711      5F7400
 3712              	.LASF52:
 3713 05a1 636F6E74 		.ascii	"context\000"
 3713      65787400 
 3714              	.LASF135:
 3715 05a9 61646353 		.ascii	"adcStartConversion\000"
 3715      74617274 
 3715      436F6E76 
 3715      65727369 
 3715      6F6E00
 3716              	.LASF51:
 3717 05bc 696E7463 		.ascii	"intctx\000"
 3717      747800
 3718              	.LASF144:
 3719 05c3 6164635F 		.ascii	"adc_lld_start\000"
 3719      6C6C645F 
 3719      73746172 
 3719      7400
 3720              	.LASF147:
 3721 05d1 63685363 		.ascii	"chSchWakeupS\000"
 3721      6857616B 
ARM GAS  /tmp/cc8KUQdq.s 			page 71


 3721      65757053 
 3721      00
 3722              	.LASF143:
 3723 05de 63684D74 		.ascii	"chMtxInit\000"
 3723      78496E69 
 3723      7400
 3724              	.LASF133:
 3725 05e8 61646353 		.ascii	"adcStart\000"
 3725      74617274 
 3725      00
 3726              	.LASF38:
 3727 05f1 705F7265 		.ascii	"p_refs\000"
 3727      667300
 3728              	.LASF60:
 3729 05f8 52656164 		.ascii	"ReadyList\000"
 3729      794C6973 
 3729      7400
 3730              	.LASF85:
 3731 0602 434E4454 		.ascii	"CNDTR\000"
 3731      5200
 3732              	.LASF123:
 3733 0608 736D7072 		.ascii	"smpr2\000"
 3733      3200
 3734              	.LASF152:
 3735 060e 2E2E2F2E 		.ascii	"../../../../ChibiOS_2.6.2/os/hal/src/adc.c\000"
 3735      2E2F2E2E 
 3735      2F2E2E2F 
 3735      43686962 
 3735      694F535F 
 3736              	.LASF140:
 3737 0639 726C6973 		.ascii	"rlist\000"
 3737      7400
 3738              	.LASF14:
 3739 063f 75696E74 		.ascii	"uint8_t\000"
 3739      385F7400 
 3740              	.LASF137:
 3741 0647 61646353 		.ascii	"adcStopConversionI\000"
 3741      746F7043 
 3741      6F6E7665 
 3741      7273696F 
 3741      6E4900
 3742              	.LASF127:
 3743 065a 41444343 		.ascii	"ADCConversionGroup\000"
 3743      6F6E7665 
 3743      7273696F 
 3743      6E47726F 
 3743      757000
 3744              	.LASF80:
 3745 066d 4A445231 		.ascii	"JDR1\000"
 3745      00
 3746              	.LASF81:
 3747 0672 4A445232 		.ascii	"JDR2\000"
 3747      00
 3748              	.LASF82:
 3749 0677 4A445233 		.ascii	"JDR3\000"
 3749      00
 3750              	.LASF83:
ARM GAS  /tmp/cc8KUQdq.s 			page 72


 3751 067c 4A445234 		.ascii	"JDR4\000"
 3751      00
 3752              	.LASF67:
 3753 0681 77746F62 		.ascii	"wtobjp\000"
 3753      6A7000
 3754              	.LASF99:
 3755 0688 4144435F 		.ascii	"ADC_COMPLETE\000"
 3755      434F4D50 
 3755      4C455445 
 3755      00
 3756              	.LASF35:
 3757 0695 705F6E61 		.ascii	"p_name\000"
 3757      6D6500
 3758              	.LASF103:
 3759 069c 6164635F 		.ascii	"adc_channels_num_t\000"
 3759      6368616E 
 3759      6E656C73 
 3759      5F6E756D 
 3759      5F7400
 3760              	.LASF43:
 3761 06af 705F6D73 		.ascii	"p_msg\000"
 3761      6700
 3762              	.LASF154:
 3763 06b5 61646343 		.ascii	"adcConvert\000"
 3763      6F6E7665 
 3763      727400
 3764              	.LASF136:
 3765 06c0 61646353 		.ascii	"adcStopConversion\000"
 3765      746F7043 
 3765      6F6E7665 
 3765      7273696F 
 3765      6E00
 3766              	.LASF63:
 3767 06d2 6D5F6F77 		.ascii	"m_owner\000"
 3767      6E657200 
 3768              	.LASF138:
 3769 06da 61646341 		.ascii	"adcAcquireBus\000"
 3769      63717569 
 3769      72654275 
 3769      7300
 3770              	.LASF32:
 3771 06e8 705F6374 		.ascii	"p_ctx\000"
 3771      7800
 3772              	.LASF41:
 3773 06ee 705F7761 		.ascii	"p_waiting\000"
 3773      6974696E 
 3773      6700
 3774              		.ident	"GCC: (4.8.2-14ubuntu1+6) 4.8.2"
ARM GAS  /tmp/cc8KUQdq.s 			page 73


DEFINED SYMBOLS
                            *ABS*:0000000000000000 adc.c
     /tmp/cc8KUQdq.s:19     .text.adcInit:0000000000000000 $t
     /tmp/cc8KUQdq.s:25     .text.adcInit:0000000000000000 adcInit
     /tmp/cc8KUQdq.s:40     .text.adcObjectInit:0000000000000000 $t
     /tmp/cc8KUQdq.s:46     .text.adcObjectInit:0000000000000000 adcObjectInit
     /tmp/cc8KUQdq.s:78     .text.adcStart:0000000000000000 $t
     /tmp/cc8KUQdq.s:84     .text.adcStart:0000000000000000 adcStart
     /tmp/cc8KUQdq.s:129    .text.adcStop:0000000000000000 $t
     /tmp/cc8KUQdq.s:135    .text.adcStop:0000000000000000 adcStop
     /tmp/cc8KUQdq.s:178    .text.adcStartConversion:0000000000000000 $t
     /tmp/cc8KUQdq.s:184    .text.adcStartConversion:0000000000000000 adcStartConversion
     /tmp/cc8KUQdq.s:236    .text.adcStartConversionI:0000000000000000 $t
     /tmp/cc8KUQdq.s:242    .text.adcStartConversionI:0000000000000000 adcStartConversionI
     /tmp/cc8KUQdq.s:272    .text.adcStopConversion:0000000000000000 $t
     /tmp/cc8KUQdq.s:278    .text.adcStopConversion:0000000000000000 adcStopConversion
     /tmp/cc8KUQdq.s:343    .text.adcStopConversionI:0000000000000000 $t
     /tmp/cc8KUQdq.s:349    .text.adcStopConversionI:0000000000000000 adcStopConversionI
     /tmp/cc8KUQdq.s:406    .text.adcConvert:0000000000000000 $t
     /tmp/cc8KUQdq.s:412    .text.adcConvert:0000000000000000 adcConvert
     /tmp/cc8KUQdq.s:498    .text.adcAcquireBus:0000000000000000 $t
     /tmp/cc8KUQdq.s:504    .text.adcAcquireBus:0000000000000000 adcAcquireBus
     /tmp/cc8KUQdq.s:521    .text.adcReleaseBus:0000000000000000 $t
     /tmp/cc8KUQdq.s:527    .text.adcReleaseBus:0000000000000000 adcReleaseBus
                     .debug_frame:0000000000000010 $d

UNDEFINED SYMBOLS
adc_lld_init
chMtxInit
adc_lld_start
adc_lld_stop
adc_lld_start_conversion
adc_lld_stop_conversion
chSchWakeupS
chSchReadyI
rlist
chSchGoSleepS
chMtxLock
chMtxUnlock
