ARM GAS  /tmp/cc8KUQdq.s 			page 1


   1              		.syntax unified
   2              		.cpu cortex-m3
   3              		.fpu softvfp
   4              		.eabi_attribute 20, 1
   5              		.eabi_attribute 21, 1
   6              		.eabi_attribute 23, 3
   7              		.eabi_attribute 24, 1
   8              		.eabi_attribute 25, 1
   9              		.eabi_attribute 26, 1
  10              		.eabi_attribute 30, 2
  11              		.eabi_attribute 34, 1
  12              		.eabi_attribute 18, 4
  13              		.thumb
  14              		.file	"adc.c"
  15              		.text
  16              	.Ltext0:
  17              		.cfi_sections	.debug_frame
  18              		.section	.text.adcInit,"ax",%progbits
  19              		.align	2
  20              		.p2align 4,,15
  21              		.global	adcInit
  22              		.thumb
  23              		.thumb_func
  24              		.type	adcInit, %function
  25              	adcInit:
  26              	.LFB63:
  27              		.file 1 "../../../../ChibiOS_2.6.2/os/hal/src/adc.c"
  28              		.loc 1 68 0
  29              		.cfi_startproc
  30              		@ args = 0, pretend = 0, frame = 0
  31              		@ frame_needed = 0, uses_anonymous_args = 0
  32              		@ link register save eliminated.
  33              		.loc 1 70 0
  34 0000 FFF7FEBF 		b	adc_lld_init
  35              	.LVL0:
  36              		.cfi_endproc
  37              	.LFE63:
  38              		.size	adcInit, .-adcInit
  39 0004 AFF30080 		.section	.text.adcObjectInit,"ax",%progbits
  39      AFF30080 
  39      AFF30080 
  40              		.align	2
  41              		.p2align 4,,15
  42              		.global	adcObjectInit
  43              		.thumb
  44              		.thumb_func
  45              		.type	adcObjectInit, %function
  46              	adcObjectInit:
  47              	.LFB64:
  48              		.loc 1 80 0
  49              		.cfi_startproc
  50              		@ args = 0, pretend = 0, frame = 0
  51              		@ frame_needed = 0, uses_anonymous_args = 0
  52              		@ link register save eliminated.
  53              	.LVL1:
  54              		.loc 1 83 0
  55 0000 0023     		movs	r3, #0
ARM GAS  /tmp/cc8KUQdq.s 			page 2


  56              		.loc 1 82 0
  57 0002 0122     		movs	r2, #1
  58 0004 0270     		strb	r2, [r0]
  59              		.loc 1 83 0
  60 0006 4360     		str	r3, [r0, #4]
  61              		.loc 1 84 0
  62 0008 8360     		str	r3, [r0, #8]
  63              		.loc 1 85 0
  64 000a C360     		str	r3, [r0, #12]
  65              		.loc 1 86 0
  66 000c 0361     		str	r3, [r0, #16]
  67              		.loc 1 88 0
  68 000e 4361     		str	r3, [r0, #20]
  69              		.loc 1 92 0
  70 0010 1830     		adds	r0, r0, #24
  71              	.LVL2:
  72 0012 FFF7FEBF 		b	chMtxInit
  73              	.LVL3:
  74              		.cfi_endproc
  75              	.LFE64:
  76              		.size	adcObjectInit, .-adcObjectInit
  77 0016 00BFAFF3 		.section	.text.adcStart,"ax",%progbits
  77      0080AFF3 
  77      0080
  78              		.align	2
  79              		.p2align 4,,15
  80              		.global	adcStart
  81              		.thumb
  82              		.thumb_func
  83              		.type	adcStart, %function
  84              	adcStart:
  85              	.LFB65:
  86              		.loc 1 111 0
  87              		.cfi_startproc
  88              		@ args = 0, pretend = 0, frame = 0
  89              		@ frame_needed = 0, uses_anonymous_args = 0
  90              	.LVL4:
  91 0000 10B5     		push	{r4, lr}
  92              		.cfi_def_cfa_offset 8
  93              		.cfi_offset 4, -8
  94              		.cfi_offset 14, -4
  95              	.LBB10:
  96              		.loc 1 115 0
  97 0002 2023     		movs	r3, #32
  98              	.LBE10:
  99              		.loc 1 111 0
 100 0004 0446     		mov	r4, r0
 101              	.LBB11:
 102              		.loc 1 115 0
 103              	@ 115 "../../../../ChibiOS_2.6.2/os/hal/src/adc.c" 1
 104 0006 83F31188 		msr     BASEPRI, r3
 105              	@ 0 "" 2
 106              		.thumb
 107              	.LBE11:
 108              		.loc 1 118 0
 109 000a 4160     		str	r1, [r0, #4]
 110              		.loc 1 119 0
ARM GAS  /tmp/cc8KUQdq.s 			page 3


 111 000c FFF7FEFF 		bl	adc_lld_start
 112              	.LVL5:
 113              		.loc 1 120 0
 114 0010 0223     		movs	r3, #2
 115 0012 2370     		strb	r3, [r4]
 116              	.LBB12:
 117              		.loc 1 121 0
 118 0014 0023     		movs	r3, #0
 119              	@ 121 "../../../../ChibiOS_2.6.2/os/hal/src/adc.c" 1
 120 0016 83F31188 		msr     BASEPRI, r3
 121              	@ 0 "" 2
 122              		.thumb
 123 001a 10BD     		pop	{r4, pc}
 124              	.LBE12:
 125              		.cfi_endproc
 126              	.LFE65:
 127              		.size	adcStart, .-adcStart
 128 001c AFF30080 		.section	.text.adcStop,"ax",%progbits
 129              		.align	2
 130              		.p2align 4,,15
 131              		.global	adcStop
 132              		.thumb
 133              		.thumb_func
 134              		.type	adcStop, %function
 135              	adcStop:
 136              	.LFB66:
 137              		.loc 1 131 0
 138              		.cfi_startproc
 139              		@ args = 0, pretend = 0, frame = 0
 140              		@ frame_needed = 0, uses_anonymous_args = 0
 141              	.LVL6:
 142 0000 10B5     		push	{r4, lr}
 143              		.cfi_def_cfa_offset 8
 144              		.cfi_offset 4, -8
 145              		.cfi_offset 14, -4
 146              	.LBB13:
 147              		.loc 1 135 0
 148 0002 2023     		movs	r3, #32
 149              	.LBE13:
 150              		.loc 1 131 0
 151 0004 0446     		mov	r4, r0
 152              	.LBB14:
 153              		.loc 1 135 0
 154              	@ 135 "../../../../ChibiOS_2.6.2/os/hal/src/adc.c" 1
 155 0006 83F31188 		msr     BASEPRI, r3
 156              	@ 0 "" 2
 157              		.thumb
 158              	.LBE14:
 159              		.loc 1 138 0
 160 000a FFF7FEFF 		bl	adc_lld_stop
 161              	.LVL7:
 162              		.loc 1 139 0
 163 000e 0123     		movs	r3, #1
 164 0010 2370     		strb	r3, [r4]
 165              	.LBB15:
 166              		.loc 1 140 0
 167 0012 0023     		movs	r3, #0
ARM GAS  /tmp/cc8KUQdq.s 			page 4


 168              	@ 140 "../../../../ChibiOS_2.6.2/os/hal/src/adc.c" 1
 169 0014 83F31188 		msr     BASEPRI, r3
 170              	@ 0 "" 2
 171              		.thumb
 172 0018 10BD     		pop	{r4, pc}
 173              	.LBE15:
 174              		.cfi_endproc
 175              	.LFE66:
 176              		.size	adcStop, .-adcStop
 177 001a 00BFAFF3 		.section	.text.adcStartConversion,"ax",%progbits
 177      0080
 178              		.align	2
 179              		.p2align 4,,15
 180              		.global	adcStartConversion
 181              		.thumb
 182              		.thumb_func
 183              		.type	adcStartConversion, %function
 184              	adcStartConversion:
 185              	.LFB67:
 186              		.loc 1 162 0
 187              		.cfi_startproc
 188              		@ args = 0, pretend = 0, frame = 0
 189              		@ frame_needed = 0, uses_anonymous_args = 0
 190              	.LVL8:
 191 0000 10B5     		push	{r4, lr}
 192              		.cfi_def_cfa_offset 8
 193              		.cfi_offset 4, -8
 194              		.cfi_offset 14, -4
 195              		.loc 1 162 0
 196 0002 1C46     		mov	r4, r3
 197              	.LBB16:
 198              		.loc 1 164 0
 199 0004 2023     		movs	r3, #32
 200              	.LVL9:
 201              	@ 164 "../../../../ChibiOS_2.6.2/os/hal/src/adc.c" 1
 202 0006 83F31188 		msr     BASEPRI, r3
 203              	@ 0 "" 2
 204              	.LVL10:
 205              		.thumb
 206              	.LBE16:
 207              	.LBB17:
 208              	.LBB18:
 209              		.loc 1 204 0
 210 000a 0323     		movs	r3, #3
 211 000c 0370     		strb	r3, [r0]
 212              		.loc 1 201 0
 213 000e 8260     		str	r2, [r0, #8]
 214              		.loc 1 202 0
 215 0010 C460     		str	r4, [r0, #12]
 216              		.loc 1 203 0
 217 0012 0161     		str	r1, [r0, #16]
 218              		.loc 1 205 0
 219 0014 FFF7FEFF 		bl	adc_lld_start_conversion
 220              	.LVL11:
 221              	.LBE18:
 222              	.LBE17:
 223              	.LBB19:
ARM GAS  /tmp/cc8KUQdq.s 			page 5


 224              		.loc 1 166 0
 225 0018 0023     		movs	r3, #0
 226              	@ 166 "../../../../ChibiOS_2.6.2/os/hal/src/adc.c" 1
 227 001a 83F31188 		msr     BASEPRI, r3
 228              	@ 0 "" 2
 229              		.thumb
 230 001e 10BD     		pop	{r4, pc}
 231              	.LBE19:
 232              		.cfi_endproc
 233              	.LFE67:
 234              		.size	adcStartConversion, .-adcStartConversion
 235              		.section	.text.adcStartConversionI,"ax",%progbits
 236              		.align	2
 237              		.p2align 4,,15
 238              		.global	adcStartConversionI
 239              		.thumb
 240              		.thumb_func
 241              		.type	adcStartConversionI, %function
 242              	adcStartConversionI:
 243              	.LFB68:
 244              		.loc 1 190 0
 245              		.cfi_startproc
 246              		@ args = 0, pretend = 0, frame = 0
 247              		@ frame_needed = 0, uses_anonymous_args = 0
 248              		@ link register save eliminated.
 249              	.LVL12:
 250 0000 30B4     		push	{r4, r5}
 251              		.cfi_def_cfa_offset 8
 252              		.cfi_offset 4, -8
 253              		.cfi_offset 5, -4
 254              		.loc 1 204 0
 255 0002 0325     		movs	r5, #3
 256 0004 0570     		strb	r5, [r0]
 257              		.loc 1 201 0
 258 0006 8260     		str	r2, [r0, #8]
 259              		.loc 1 202 0
 260 0008 C360     		str	r3, [r0, #12]
 261              		.loc 1 203 0
 262 000a 0161     		str	r1, [r0, #16]
 263              		.loc 1 206 0
 264 000c 30BC     		pop	{r4, r5}
 265              		.loc 1 205 0
 266 000e FFF7FEBF 		b	adc_lld_start_conversion
 267              	.LVL13:
 268              		.cfi_endproc
 269              	.LFE68:
 270              		.size	adcStartConversionI, .-adcStartConversionI
 271 0012 00BFAFF3 		.section	.text.adcStopConversion,"ax",%progbits
 271      0080AFF3 
 271      0080AFF3 
 271      0080
 272              		.align	2
 273              		.p2align 4,,15
 274              		.global	adcStopConversion
 275              		.thumb
 276              		.thumb_func
 277              		.type	adcStopConversion, %function
ARM GAS  /tmp/cc8KUQdq.s 			page 6


 278              	adcStopConversion:
 279              	.LFB69:
 280              		.loc 1 218 0
 281              		.cfi_startproc
 282              		@ args = 0, pretend = 0, frame = 0
 283              		@ frame_needed = 0, uses_anonymous_args = 0
 284              	.LVL14:
 285 0000 10B5     		push	{r4, lr}
 286              		.cfi_def_cfa_offset 8
 287              		.cfi_offset 4, -8
 288              		.cfi_offset 14, -4
 289              	.LBB20:
 290              		.loc 1 222 0
 291 0002 2023     		movs	r3, #32
 292              	.LBE20:
 293              		.loc 1 218 0
 294 0004 0446     		mov	r4, r0
 295              	.LBB21:
 296              		.loc 1 222 0
 297              	@ 222 "../../../../ChibiOS_2.6.2/os/hal/src/adc.c" 1
 298 0006 83F31188 		msr     BASEPRI, r3
 299              	@ 0 "" 2
 300              		.thumb
 301              	.LBE21:
 302              		.loc 1 226 0
 303 000a 0378     		ldrb	r3, [r0]	@ zero_extendqisi2
 304 000c 022B     		cmp	r3, #2
 305 000e 0CD0     		beq	.L9
 306              		.loc 1 227 0
 307 0010 FFF7FEFF 		bl	adc_lld_stop_conversion
 308              	.LVL15:
 309              		.loc 1 230 0
 310 0014 6069     		ldr	r0, [r4, #20]
 311              		.loc 1 228 0
 312 0016 0023     		movs	r3, #0
 313              		.loc 1 229 0
 314 0018 0222     		movs	r2, #2
 315              		.loc 1 228 0
 316 001a 2361     		str	r3, [r4, #16]
 317              		.loc 1 229 0
 318 001c 2270     		strb	r2, [r4]
 319              		.loc 1 230 0
 320 001e 20B1     		cbz	r0, .L9
 321              	.LVL16:
 322              	.LBB22:
 323              		.loc 1 230 0 is_stmt 0 discriminator 1
 324 0020 6361     		str	r3, [r4, #20]
 325 0022 6FF00101 		mvn	r1, #1
 326 0026 FFF7FEFF 		bl	chSchWakeupS
 327              	.LVL17:
 328              	.L9:
 329              	.LBE22:
 330              	.LBB23:
 331              		.loc 1 232 0 is_stmt 1
 332 002a 0023     		movs	r3, #0
 333              	@ 232 "../../../../ChibiOS_2.6.2/os/hal/src/adc.c" 1
 334 002c 83F31188 		msr     BASEPRI, r3
ARM GAS  /tmp/cc8KUQdq.s 			page 7


 335              	@ 0 "" 2
 336              		.thumb
 337 0030 10BD     		pop	{r4, pc}
 338              	.LBE23:
 339              		.cfi_endproc
 340              	.LFE69:
 341              		.size	adcStopConversion, .-adcStopConversion
 342 0032 00BFAFF3 		.section	.text.adcStopConversionI,"ax",%progbits
 342      0080AFF3 
 342      0080AFF3 
 342      0080
 343              		.align	2
 344              		.p2align 4,,15
 345              		.global	adcStopConversionI
 346              		.thumb
 347              		.thumb_func
 348              		.type	adcStopConversionI, %function
 349              	adcStopConversionI:
 350              	.LFB70:
 351              		.loc 1 245 0
 352              		.cfi_startproc
 353              		@ args = 0, pretend = 0, frame = 0
 354              		@ frame_needed = 0, uses_anonymous_args = 0
 355              	.LVL18:
 356              		.loc 1 254 0
 357 0000 0378     		ldrb	r3, [r0]	@ zero_extendqisi2
 358              		.loc 1 245 0
 359 0002 10B5     		push	{r4, lr}
 360              		.cfi_def_cfa_offset 8
 361              		.cfi_offset 4, -8
 362              		.cfi_offset 14, -4
 363              		.loc 1 254 0
 364 0004 022B     		cmp	r3, #2
 365              		.loc 1 245 0
 366 0006 0446     		mov	r4, r0
 367              		.loc 1 254 0
 368 0008 10D0     		beq	.L15
 369              		.loc 1 255 0
 370 000a FFF7FEFF 		bl	adc_lld_stop_conversion
 371              	.LVL19:
 372              		.loc 1 258 0
 373 000e 6369     		ldr	r3, [r4, #20]
 374              		.loc 1 256 0
 375 0010 0022     		movs	r2, #0
 376              		.loc 1 257 0
 377 0012 0221     		movs	r1, #2
 378              		.loc 1 256 0
 379 0014 2261     		str	r2, [r4, #16]
 380              		.loc 1 257 0
 381 0016 2170     		strb	r1, [r4]
 382              		.loc 1 258 0
 383 0018 43B1     		cbz	r3, .L15
 384              	.LVL20:
 385              	.LBB24:
 386              		.loc 1 258 0 is_stmt 0 discriminator 1
 387 001a 6FF00101 		mvn	r1, #1
 388 001e 6261     		str	r2, [r4, #20]
ARM GAS  /tmp/cc8KUQdq.s 			page 8


 389 0020 5962     		str	r1, [r3, #36]
 390 0022 1846     		mov	r0, r3
 391              	.LBE24:
 392              		.loc 1 260 0 is_stmt 1 discriminator 1
 393 0024 BDE81040 		pop	{r4, lr}
 394              	.LVL21:
 395              	.LBB25:
 396              		.loc 1 258 0 discriminator 1
 397 0028 FFF7FEBF 		b	chSchReadyI
 398              	.LVL22:
 399              	.L15:
 400 002c 10BD     		pop	{r4, pc}
 401              	.LBE25:
 402              		.cfi_endproc
 403              	.LFE70:
 404              		.size	adcStopConversionI, .-adcStopConversionI
 405 002e 00BF     		.section	.text.adcConvert,"ax",%progbits
 406              		.align	2
 407              		.p2align 4,,15
 408              		.global	adcConvert
 409              		.thumb
 410              		.thumb_func
 411              		.type	adcConvert, %function
 412              	adcConvert:
 413              	.LFB71:
 414              		.loc 1 289 0
 415              		.cfi_startproc
 416              		@ args = 0, pretend = 0, frame = 0
 417              		@ frame_needed = 0, uses_anonymous_args = 0
 418              	.LVL23:
 419 0000 70B5     		push	{r4, r5, r6, lr}
 420              		.cfi_def_cfa_offset 16
 421              		.cfi_offset 4, -16
 422              		.cfi_offset 5, -12
 423              		.cfi_offset 6, -8
 424              		.cfi_offset 14, -4
 425              		.loc 1 289 0
 426 0002 1E46     		mov	r6, r3
 427 0004 0446     		mov	r4, r0
 428              	.LBB26:
 429              		.loc 1 292 0
 430 0006 2023     		movs	r3, #32
 431              	.LVL24:
 432              	@ 292 "../../../../ChibiOS_2.6.2/os/hal/src/adc.c" 1
 433 0008 83F31188 		msr     BASEPRI, r3
 434              	@ 0 "" 2
 435              	.LVL25:
 436              		.thumb
 437              	.LBE26:
 438              	.LBB27:
 439              	.LBB28:
 440              		.loc 1 204 0
 441 000c 0323     		movs	r3, #3
 442              	.LBE28:
 443              	.LBE27:
 444              		.loc 1 295 0
 445 000e 40F20005 		movw	r5, #:lower16:rlist
ARM GAS  /tmp/cc8KUQdq.s 			page 9


 446              	.LBB31:
 447              	.LBB29:
 448              		.loc 1 201 0
 449 0012 8260     		str	r2, [r0, #8]
 450              		.loc 1 203 0
 451 0014 0161     		str	r1, [r0, #16]
 452              		.loc 1 202 0
 453 0016 C660     		str	r6, [r0, #12]
 454              		.loc 1 204 0
 455 0018 0370     		strb	r3, [r0]
 456              	.LBE29:
 457              	.LBE31:
 458              		.loc 1 295 0
 459 001a C0F20005 		movt	r5, #:upper16:rlist
 460              	.LBB32:
 461              	.LBB30:
 462              		.loc 1 205 0
 463 001e FFF7FEFF 		bl	adc_lld_start_conversion
 464              	.LVL26:
 465              	.LBE30:
 466              	.LBE32:
 467              		.loc 1 295 0
 468 0022 AB69     		ldr	r3, [r5, #24]
 469              		.loc 1 296 0
 470 0024 0220     		movs	r0, #2
 471              		.loc 1 295 0
 472 0026 6361     		str	r3, [r4, #20]
 473              		.loc 1 296 0
 474 0028 FFF7FEFF 		bl	chSchGoSleepS
 475              	.LVL27:
 476              		.loc 1 297 0
 477 002c AA69     		ldr	r2, [r5, #24]
 478              	.LBB33:
 479              		.loc 1 298 0
 480 002e 0023     		movs	r3, #0
 481              	.LBE33:
 482              		.loc 1 297 0
 483 0030 506A     		ldr	r0, [r2, #36]
 484              	.LVL28:
 485              	.LBB34:
 486              		.loc 1 298 0
 487              	@ 298 "../../../../ChibiOS_2.6.2/os/hal/src/adc.c" 1
 488 0032 83F31188 		msr     BASEPRI, r3
 489              	@ 0 "" 2
 490              		.thumb
 491              	.LBE34:
 492              		.loc 1 300 0
 493 0036 70BD     		pop	{r4, r5, r6, pc}
 494              		.cfi_endproc
 495              	.LFE71:
 496              		.size	adcConvert, .-adcConvert
 497 0038 AFF30080 		.section	.text.adcAcquireBus,"ax",%progbits
 497      AFF30080 
 498              		.align	2
 499              		.p2align 4,,15
 500              		.global	adcAcquireBus
 501              		.thumb
ARM GAS  /tmp/cc8KUQdq.s 			page 10


 502              		.thumb_func
 503              		.type	adcAcquireBus, %function
 504              	adcAcquireBus:
 505              	.LFB72:
 506              		.loc 1 315 0
 507              		.cfi_startproc
 508              		@ args = 0, pretend = 0, frame = 0
 509              		@ frame_needed = 0, uses_anonymous_args = 0
 510              		@ link register save eliminated.
 511              	.LVL29:
 512              		.loc 1 320 0
 513 0000 1830     		adds	r0, r0, #24
 514              	.LVL30:
 515 0002 FFF7FEBF 		b	chMtxLock
 516              	.LVL31:
 517              		.cfi_endproc
 518              	.LFE72:
 519              		.size	adcAcquireBus, .-adcAcquireBus
 520 0006 00BFAFF3 		.section	.text.adcReleaseBus,"ax",%progbits
 520      0080AFF3 
 520      0080
 521              		.align	2
 522              		.p2align 4,,15
 523              		.global	adcReleaseBus
 524              		.thumb
 525              		.thumb_func
 526              		.type	adcReleaseBus, %function
 527              	adcReleaseBus:
 528              	.LFB73:
 529              		.loc 1 335 0
 530              		.cfi_startproc
 531              		@ args = 0, pretend = 0, frame = 0
 532              		@ frame_needed = 0, uses_anonymous_args = 0
 533              		@ link register save eliminated.
 534              	.LVL32:
 535              		.loc 1 341 0
 536 0000 FFF7FEBF 		b	chMtxUnlock
 537              	.LVL33:
 538              		.cfi_endproc
 539              	.LFE73:
 540              		.size	adcReleaseBus, .-adcReleaseBus
 541 0004 AFF30080 		.text
 541      AFF30080 
 541      AFF30080 
 542              	.Letext0:
 543              		.file 2 "/usr/lib/gcc/arm-none-eabi/4.8.2/include/stddef.h"
 544              		.file 3 "/usr/include/newlib/machine/_default_types.h"
 545              		.file 4 "/usr/include/newlib/stdint.h"
 546              		.file 5 "../../../../ChibiOS_2.6.2/os/ports/GCC/ARMCMx/chtypes.h"
 547              		.file 6 "../../../../ChibiOS_2.6.2/os/kernel/include/chlists.h"
 548              		.file 7 "../../../../ChibiOS_2.6.2/os/kernel/include/chthreads.h"
 549              		.file 8 "../../../../ChibiOS_2.6.2/os/ports/GCC/ARMCMx/chcore_v7m.h"
 550              		.file 9 "../../../../ChibiOS_2.6.2/os/kernel/include/chschd.h"
 551              		.file 10 "../../../../ChibiOS_2.6.2/os/kernel/include/chmtx.h"
 552              		.file 11 "../../../../ChibiOS_2.6.2/os/hal/platforms/STM32F1xx/stm32f10x.h"
 553              		.file 12 "../../../../ChibiOS_2.6.2/os/hal/platforms/STM32F1xx/stm32_dma.h"
 554              		.file 13 "../../../../ChibiOS_2.6.2/os/hal/include/adc.h"
ARM GAS  /tmp/cc8KUQdq.s 			page 11


 555              		.file 14 "../../../../ChibiOS_2.6.2/os/hal/platforms/STM32F1xx/adc_lld.h"
 556              		.file 15 "../../../../ChibiOS_2.6.2/os/ports/common/ARMCMx/CMSIS/include/core_cm3.h"