ARM GAS  /tmp/ccufHsaA.s 			page 1


   1              		.syntax unified
   2              		.cpu cortex-m3
   3              		.fpu softvfp
   4              		.eabi_attribute 20, 1
   5              		.eabi_attribute 21, 1
   6              		.eabi_attribute 23, 3
   7              		.eabi_attribute 24, 1
   8              		.eabi_attribute 25, 1
   9              		.eabi_attribute 26, 1
  10              		.eabi_attribute 30, 2
  11              		.eabi_attribute 34, 1
  12              		.eabi_attribute 18, 4
  13              		.thumb
  14              		.file	"adc_lld.c"
  15              		.text
  16              	.Ltext0:
  17              		.cfi_sections	.debug_frame
  18              		.section	.text.adc_lld_serve_rx_interrupt,"ax",%progbits
  19              		.align	2
  20              		.p2align 4,,15
  21              		.thumb
  22              		.thumb_func
  23              		.type	adc_lld_serve_rx_interrupt, %function
  24              	adc_lld_serve_rx_interrupt:
  25              	.LFB63:
  26              		.file 1 "../../../../ChibiOS_2.6.2/os/hal/platforms/STM32F1xx/adc_lld.c"
  27              		.loc 1 57 0
  28              		.cfi_startproc
  29              		@ args = 0, pretend = 0, frame = 0
  30              		@ frame_needed = 0, uses_anonymous_args = 0
  31              	.LVL0:
  32 0000 F8B5     		push	{r3, r4, r5, r6, r7, lr}
  33              		.cfi_def_cfa_offset 24
  34              		.cfi_offset 3, -24
  35              		.cfi_offset 4, -20
  36              		.cfi_offset 5, -16
  37              		.cfi_offset 6, -12
  38              		.cfi_offset 7, -8
  39              		.cfi_offset 14, -4
  40              		.loc 1 60 0
  41 0002 0D07     		lsls	r5, r1, #28
  42              		.loc 1 57 0
  43 0004 0446     		mov	r4, r0
  44              		.loc 1 60 0
  45 0006 2BD5     		bpl	.L2
  46              	.LVL1:
  47              	.LBB13:
  48              	.LBB14:
  49              		.loc 1 228 0
  50 0008 C36A     		ldr	r3, [r0, #44]
  51              	.LBE14:
  52              	.LBE13:
  53              		.loc 1 63 0
  54 000a 0169     		ldr	r1, [r0, #16]
  55              	.LVL2:
  56              	.LBB17:
  57              	.LBB15:
ARM GAS  /tmp/ccufHsaA.s 			page 2


  58              		.loc 1 228 0
  59 000c 1A68     		ldr	r2, [r3]
  60 000e 5D68     		ldr	r5, [r3, #4]
  61 0010 1768     		ldr	r7, [r2]
  62 0012 0F26     		movs	r6, #15
  63 0014 27F00F07 		bic	r7, r7, #15
  64 0018 1760     		str	r7, [r2]
  65 001a 1A7A     		ldrb	r2, [r3, #8]	@ zero_extendqisi2
  66              	.LBE15:
  67              	.LBE17:
  68              		.loc 1 63 0
  69 001c 8B68     		ldr	r3, [r1, #8]
  70              	.LBB18:
  71              	.LBB16:
  72              		.loc 1 228 0
  73 001e 9640     		lsls	r6, r6, r2
  74              		.loc 1 229 0
  75 0020 826A     		ldr	r2, [r0, #40]
  76 0022 0021     		movs	r1, #0
  77              		.loc 1 228 0
  78 0024 2E60     		str	r6, [r5]
  79              		.loc 1 229 0
  80 0026 9160     		str	r1, [r2, #8]
  81              	.LBE16:
  82              	.LBE18:
  83              		.loc 1 63 0
  84 0028 3BB1     		cbz	r3, .L4
  85              		.loc 1 63 0 is_stmt 0 discriminator 1
  86 002a 0522     		movs	r2, #5
  87 002c 0270     		strb	r2, [r0]
  88 002e 9847     		blx	r3
  89              	.LVL3:
  90 0030 2378     		ldrb	r3, [r4]	@ zero_extendqisi2
  91 0032 052B     		cmp	r3, #5
  92 0034 04BF     		itt	eq
  93 0036 0223     		moveq	r3, #2
  94 0038 2370     		strbeq	r3, [r4]
  95              	.L4:
  96              		.loc 1 63 0 discriminator 2
  97 003a 0023     		movs	r3, #0
  98 003c 2361     		str	r3, [r4, #16]
  99              	.LBB19:
 100 003e 2023     		movs	r3, #32
 101              	@ 63 "../../../../ChibiOS_2.6.2/os/hal/platforms/STM32F1xx/adc_lld.c" 1
 102 0040 83F31188 		msr     BASEPRI, r3
 103              	@ 0 "" 2
 104              		.thumb
 105              	.LBE19:
 106 0044 6369     		ldr	r3, [r4, #20]
 107 0046 3BB1     		cbz	r3, .L13
 108              	.LVL4:
 109              	.LBB20:
 110              		.loc 1 63 0 discriminator 1
 111 0048 0021     		movs	r1, #0
 112 004a 4FF0FF32 		mov	r2, #-1
 113 004e 6161     		str	r1, [r4, #20]
 114 0050 1846     		mov	r0, r3
ARM GAS  /tmp/ccufHsaA.s 			page 3


 115 0052 5A62     		str	r2, [r3, #36]
 116 0054 FFF7FEFF 		bl	chSchReadyI
 117              	.LVL5:
 118              	.L13:
 119              	.LBE20:
 120              	.LBB21:
 121              		.loc 1 68 0 is_stmt 1 discriminator 2
 122 0058 0023     		movs	r3, #0
 123              	@ 68 "../../../../ChibiOS_2.6.2/os/hal/platforms/STM32F1xx/adc_lld.c" 1
 124 005a 83F31188 		msr     BASEPRI, r3
 125              	@ 0 "" 2
 126              		.thumb
 127 005e F8BD     		pop	{r3, r4, r5, r6, r7, pc}
 128              	.LVL6:
 129              	.L2:
 130              	.LBE21:
 131              		.loc 1 66 0
 132 0060 8A07     		lsls	r2, r1, #30
 133 0062 2ED5     		bpl	.L8
 134              		.loc 1 68 0
 135 0064 0369     		ldr	r3, [r0, #16]
 136 0066 1D78     		ldrb	r5, [r3]	@ zero_extendqisi2
 137 0068 002D     		cmp	r5, #0
 138 006a 34D1     		bne	.L30
 139              	.LVL7:
 140              	.LBB22:
 141              	.LBB23:
 142              		.loc 1 228 0
 143 006c C26A     		ldr	r2, [r0, #44]
 144              	.LBE23:
 145              	.LBE22:
 146              		.loc 1 68 0
 147 006e 5B68     		ldr	r3, [r3, #4]
 148              	.LBB25:
 149              	.LBB24:
 150              		.loc 1 228 0
 151 0070 1168     		ldr	r1, [r2]
 152              	.LVL8:
 153 0072 5668     		ldr	r6, [r2, #4]
 154 0074 D1F800C0 		ldr	ip, [r1]
 155 0078 0F27     		movs	r7, #15
 156 007a 2CF00F0C 		bic	ip, ip, #15
 157 007e C1F800C0 		str	ip, [r1]
 158 0082 117A     		ldrb	r1, [r2, #8]	@ zero_extendqisi2
 159              		.loc 1 229 0
 160 0084 826A     		ldr	r2, [r0, #40]
 161              		.loc 1 228 0
 162 0086 07FA01F1 		lsl	r1, r7, r1
 163 008a 3160     		str	r1, [r6]
 164              		.loc 1 229 0
 165 008c 9560     		str	r5, [r2, #8]
 166              	.LBE24:
 167              	.LBE25:
 168              		.loc 1 68 0
 169 008e 002B     		cmp	r3, #0
 170 0090 31D0     		beq	.L11
 171              		.loc 1 68 0 is_stmt 0 discriminator 1
ARM GAS  /tmp/ccufHsaA.s 			page 4


 172 0092 0422     		movs	r2, #4
 173 0094 0270     		strb	r2, [r0]
 174 0096 8168     		ldr	r1, [r0, #8]
 175 0098 C268     		ldr	r2, [r0, #12]
 176 009a 9847     		blx	r3
 177              	.LVL9:
 178 009c 2378     		ldrb	r3, [r4]	@ zero_extendqisi2
 179 009e 042B     		cmp	r3, #4
 180 00a0 02BF     		ittt	eq
 181 00a2 0223     		moveq	r3, #2
 182 00a4 2561     		streq	r5, [r4, #16]
 183 00a6 2370     		strbeq	r3, [r4]
 184              	.L12:
 185              	.LBB26:
 186 00a8 2023     		movs	r3, #32
 187              	@ 68 "../../../../ChibiOS_2.6.2/os/hal/platforms/STM32F1xx/adc_lld.c" 1
 188 00aa 83F31188 		msr     BASEPRI, r3
 189              	@ 0 "" 2
 190              		.thumb
 191              	.LBE26:
 192 00ae 6369     		ldr	r3, [r4, #20]
 193 00b0 002B     		cmp	r3, #0
 194 00b2 D1D0     		beq	.L13
 195              	.LVL10:
 196              	.LBB27:
 197 00b4 0022     		movs	r2, #0
 198 00b6 6261     		str	r2, [r4, #20]
 199 00b8 1846     		mov	r0, r3
 200 00ba 5A62     		str	r2, [r3, #36]
 201 00bc FFF7FEFF 		bl	chSchReadyI
 202              	.LVL11:
 203 00c0 CAE7     		b	.L13
 204              	.LVL12:
 205              	.L8:
 206              	.LBE27:
 207              		.loc 1 70 0 is_stmt 1
 208 00c2 4B07     		lsls	r3, r1, #29
 209 00c4 06D5     		bpl	.L1
 210              		.loc 1 72 0
 211 00c6 0369     		ldr	r3, [r0, #16]
 212 00c8 5B68     		ldr	r3, [r3, #4]
 213 00ca 1BB1     		cbz	r3, .L1
 214              		.loc 1 72 0 is_stmt 0 discriminator 1
 215 00cc C268     		ldr	r2, [r0, #12]
 216 00ce 8168     		ldr	r1, [r0, #8]
 217              	.LVL13:
 218 00d0 5208     		lsrs	r2, r2, #1
 219 00d2 9847     		blx	r3
 220              	.LVL14:
 221              	.L1:
 222 00d4 F8BD     		pop	{r3, r4, r5, r6, r7, pc}
 223              	.LVL15:
 224              	.L30:
 225              		.loc 1 68 0 is_stmt 1 discriminator 1
 226 00d6 5D68     		ldr	r5, [r3, #4]
 227 00d8 002D     		cmp	r5, #0
 228 00da FBD0     		beq	.L1
ARM GAS  /tmp/ccufHsaA.s 			page 5


 229 00dc C268     		ldr	r2, [r0, #12]
 230 00de 012A     		cmp	r2, #1
 231              	.LBB28:
 232 00e0 81BF     		itttt	hi
 233 00e2 5988     		ldrhhi	r1, [r3, #2]
 234              	.LVL16:
 235 00e4 5208     		lsrhi	r2, r2, #1
 236              	.LVL17:
 237 00e6 5143     		mulhi	r1, r1, r2
 238 00e8 8368     		ldrhi	r3, [r0, #8]
 239              	.LVL18:
 240              	.LBE28:
 241 00ea 94BF     		ite	ls
 242 00ec 8168     		ldrls	r1, [r0, #8]
 243              	.LBB29:
 244 00ee 03EB4101 		addhi	r1, r3, r1, lsl #1
 245              	.LBE29:
 246 00f2 A847     		blx	r5
 247              	.LVL19:
 248 00f4 F8BD     		pop	{r3, r4, r5, r6, r7, pc}
 249              	.LVL20:
 250              	.L11:
 251              		.loc 1 68 0 is_stmt 0 discriminator 2
 252 00f6 0222     		movs	r2, #2
 253 00f8 0361     		str	r3, [r0, #16]
 254 00fa 0270     		strb	r2, [r0]
 255 00fc D4E7     		b	.L12
 256              		.cfi_endproc
 257              	.LFE63:
 258              		.size	adc_lld_serve_rx_interrupt, .-adc_lld_serve_rx_interrupt
 259 00fe 00BF     		.section	.text.adc_lld_init,"ax",%progbits
 260              		.align	2
 261              		.p2align 4,,15
 262              		.global	adc_lld_init
 263              		.thumb
 264              		.thumb_func
 265              		.type	adc_lld_init, %function
 266              	adc_lld_init:
 267              	.LFB64:
 268              		.loc 1 90 0 is_stmt 1
 269              		.cfi_startproc
 270              		@ args = 0, pretend = 0, frame = 0
 271              		@ frame_needed = 0, uses_anonymous_args = 0
 272 0000 F8B5     		push	{r3, r4, r5, r6, r7, lr}
 273              		.cfi_def_cfa_offset 24
 274              		.cfi_offset 3, -24
 275              		.cfi_offset 4, -20
 276              		.cfi_offset 5, -16
 277              		.cfi_offset 6, -12
 278              		.cfi_offset 7, -8
 279              		.cfi_offset 14, -4
 280              		.loc 1 94 0
 281 0002 40F20004 		movw	r4, #:lower16:.LANCHOR0
 282 0006 C0F20004 		movt	r4, #:upper16:.LANCHOR0
 283 000a 2046     		mov	r0, r4
 284 000c FFF7FEFF 		bl	adcObjectInit
 285              	.LVL21:
ARM GAS  /tmp/ccufHsaA.s 			page 6


 286              		.loc 1 97 0
 287 0010 42F28A53 		movw	r3, #9610
 288              		.loc 1 103 0
 289 0014 4FF48052 		mov	r2, #4096
 290              		.loc 1 97 0
 291 0018 2363     		str	r3, [r4, #48]
 292              		.loc 1 103 0
 293 001a C4F20202 		movt	r2, 16386
 294 001e 9769     		ldr	r7, [r2, #24]
 295              		.loc 1 96 0
 296 0020 40F20001 		movw	r1, #:lower16:_stm32_dma_streams
 297              		.loc 1 95 0
 298 0024 4FF41053 		mov	r3, #9216
 299 0028 C4F20103 		movt	r3, 16385
 300              		.loc 1 96 0
 301 002c C0F20001 		movt	r1, #:upper16:_stm32_dma_streams
 302              		.loc 1 103 0
 303 0030 47F40077 		orr	r7, r7, #512
 304              		.loc 1 104 0
 305 0034 0026     		movs	r6, #0
 306              		.loc 1 105 0
 307 0036 0125     		movs	r5, #1
 308              		.loc 1 108 0
 309 0038 0920     		movs	r0, #9
 310              		.loc 1 96 0
 311 003a E162     		str	r1, [r4, #44]
 312              		.loc 1 95 0
 313 003c A362     		str	r3, [r4, #40]
 314              		.loc 1 109 0
 315 003e 1946     		mov	r1, r3
 316              		.loc 1 103 0
 317 0040 9761     		str	r7, [r2, #24]
 318              		.loc 1 104 0
 319 0042 5E60     		str	r6, [r3, #4]
 320              		.loc 1 105 0
 321 0044 9D60     		str	r5, [r3, #8]
 322              		.loc 1 108 0
 323 0046 9860     		str	r0, [r3, #8]
 324              	.L33:
 325              		.loc 1 109 0 discriminator 1
 326 0048 8A68     		ldr	r2, [r1, #8]
 327 004a 4FF41053 		mov	r3, #9216
 328 004e 1607     		lsls	r6, r2, #28
 329 0050 C4F20103 		movt	r3, 16385
 330 0054 F8D4     		bmi	.L33
 331              		.loc 1 113 0
 332 0056 0522     		movs	r2, #5
 333 0058 9A60     		str	r2, [r3, #8]
 334              		.loc 1 114 0
 335 005a 1946     		mov	r1, r3
 336              	.L35:
 337              		.loc 1 114 0 is_stmt 0 discriminator 1
 338 005c 8B68     		ldr	r3, [r1, #8]
 339 005e 4FF41052 		mov	r2, #9216
 340 0062 13F00403 		ands	r3, r3, #4
 341 0066 C4F20102 		movt	r2, 16385
 342 006a F7D1     		bne	.L35
ARM GAS  /tmp/ccufHsaA.s 			page 7


 343              		.loc 1 119 0 is_stmt 1
 344 006c 4FF48051 		mov	r1, #4096
 345              		.loc 1 118 0
 346 0070 9360     		str	r3, [r2, #8]
 347              		.loc 1 119 0
 348 0072 C4F20201 		movt	r1, 16386
 349 0076 8B69     		ldr	r3, [r1, #24]
 350 0078 23F40073 		bic	r3, r3, #512
 351 007c 8B61     		str	r3, [r1, #24]
 352 007e F8BD     		pop	{r3, r4, r5, r6, r7, pc}
 353              		.cfi_endproc
 354              	.LFE64:
 355              		.size	adc_lld_init, .-adc_lld_init
 356              		.section	.text.adc_lld_start,"ax",%progbits
 357              		.align	2
 358              		.p2align 4,,15
 359              		.global	adc_lld_start
 360              		.thumb
 361              		.thumb_func
 362              		.type	adc_lld_start, %function
 363              	adc_lld_start:
 364              	.LFB65:
 365              		.loc 1 130 0
 366              		.cfi_startproc
 367              		@ args = 0, pretend = 0, frame = 0
 368              		@ frame_needed = 0, uses_anonymous_args = 0
 369              	.LVL22:
 370              		.loc 1 133 0
 371 0000 0378     		ldrb	r3, [r0]	@ zero_extendqisi2
 372              		.loc 1 130 0
 373 0002 10B5     		push	{r4, lr}
 374              		.cfi_def_cfa_offset 8
 375              		.cfi_offset 4, -8
 376              		.cfi_offset 14, -4
 377              		.loc 1 133 0
 378 0004 012B     		cmp	r3, #1
 379              		.loc 1 130 0
 380 0006 0446     		mov	r4, r0
 381              		.loc 1 133 0
 382 0008 00D0     		beq	.L39
 383 000a 10BD     		pop	{r4, pc}
 384              	.L39:
 385              		.loc 1 135 0
 386 000c 40F20003 		movw	r3, #:lower16:.LANCHOR0
 387 0010 C0F20003 		movt	r3, #:upper16:.LANCHOR0
 388 0014 9842     		cmp	r0, r3
 389 0016 04D0     		beq	.L40
 390              	.LVL23:
 391              	.L38:
 392              		.loc 1 149 0
 393 0018 A36A     		ldr	r3, [r4, #40]
 394 001a 0022     		movs	r2, #0
 395 001c 5A60     		str	r2, [r3, #4]
 396              		.loc 1 150 0
 397 001e 9A60     		str	r2, [r3, #8]
 398 0020 10BD     		pop	{r4, pc}
 399              	.LVL24:
ARM GAS  /tmp/ccufHsaA.s 			page 8


 400              	.L40:
 401              	.LBB30:
 402              		.loc 1 137 0
 403 0022 40F20002 		movw	r2, #:lower16:adc_lld_serve_rx_interrupt
 404 0026 C0F20002 		movt	r2, #:upper16:adc_lld_serve_rx_interrupt
 405 002a 0521     		movs	r1, #5
 406 002c 2346     		mov	r3, r4
 407 002e C06A     		ldr	r0, [r0, #44]
 408              	.LVL25:
 409 0030 FFF7FEFF 		bl	dmaStreamAllocate
 410              	.LVL26:
 411              		.loc 1 142 0
 412 0034 E36A     		ldr	r3, [r4, #44]
 413 0036 42F24C42 		movw	r2, #9292
 414 003a 1968     		ldr	r1, [r3]
 415 003c C4F20102 		movt	r2, 16385
 416              		.loc 1 143 0
 417 0040 4FF48053 		mov	r3, #4096
 418              		.loc 1 142 0
 419 0044 8A60     		str	r2, [r1, #8]
 420              		.loc 1 143 0
 421 0046 C4F20203 		movt	r3, 16386
 422 004a 9A69     		ldr	r2, [r3, #24]
 423 004c 42F40072 		orr	r2, r2, #512
 424 0050 9A61     		str	r2, [r3, #24]
 425 0052 E1E7     		b	.L38
 426              	.LBE30:
 427              		.cfi_endproc
 428              	.LFE65:
 429              		.size	adc_lld_start, .-adc_lld_start
 430 0054 AFF30080 		.section	.text.adc_lld_stop,"ax",%progbits
 430      AFF30080 
 430      AFF30080 
 431              		.align	2
 432              		.p2align 4,,15
 433              		.global	adc_lld_stop
 434              		.thumb
 435              		.thumb_func
 436              		.type	adc_lld_stop, %function
 437              	adc_lld_stop:
 438              	.LFB66:
 439              		.loc 1 161 0
 440              		.cfi_startproc
 441              		@ args = 0, pretend = 0, frame = 0
 442              		@ frame_needed = 0, uses_anonymous_args = 0
 443              	.LVL27:
 444 0000 08B5     		push	{r3, lr}
 445              		.cfi_def_cfa_offset 8
 446              		.cfi_offset 3, -8
 447              		.cfi_offset 14, -4
 448              		.loc 1 164 0
 449 0002 0378     		ldrb	r3, [r0]	@ zero_extendqisi2
 450 0004 022B     		cmp	r3, #2
 451 0006 00D0     		beq	.L43
 452              	.LVL28:
 453              	.L41:
 454 0008 08BD     		pop	{r3, pc}
ARM GAS  /tmp/ccufHsaA.s 			page 9


 455              	.LVL29:
 456              	.L43:
 457              		.loc 1 166 0
 458 000a 40F20003 		movw	r3, #:lower16:.LANCHOR0
 459 000e C0F20003 		movt	r3, #:upper16:.LANCHOR0
 460 0012 9842     		cmp	r0, r3
 461 0014 F8D1     		bne	.L41
 462              		.loc 1 167 0
 463 0016 4FF41053 		mov	r3, #9216
 464 001a C4F20103 		movt	r3, 16385
 465 001e 0022     		movs	r2, #0
 466              		.loc 1 169 0
 467 0020 C06A     		ldr	r0, [r0, #44]
 468              	.LVL30:
 469              		.loc 1 167 0
 470 0022 5A60     		str	r2, [r3, #4]
 471              		.loc 1 168 0
 472 0024 9A60     		str	r2, [r3, #8]
 473              		.loc 1 169 0
 474 0026 FFF7FEFF 		bl	dmaStreamRelease
 475              	.LVL31:
 476              		.loc 1 170 0
 477 002a 4FF48053 		mov	r3, #4096
 478 002e C4F20203 		movt	r3, 16386
 479 0032 9A69     		ldr	r2, [r3, #24]
 480 0034 22F40072 		bic	r2, r2, #512
 481 0038 9A61     		str	r2, [r3, #24]
 482 003a E5E7     		b	.L41
 483              		.cfi_endproc
 484              	.LFE66:
 485              		.size	adc_lld_stop, .-adc_lld_stop
 486 003c AFF30080 		.section	.text.adc_lld_start_conversion,"ax",%progbits
 487              		.align	2
 488              		.p2align 4,,15
 489              		.global	adc_lld_start_conversion
 490              		.thumb
 491              		.thumb_func
 492              		.type	adc_lld_start_conversion, %function
 493              	adc_lld_start_conversion:
 494              	.LFB67:
 495              		.loc 1 183 0
 496              		.cfi_startproc
 497              		@ args = 0, pretend = 0, frame = 0
 498              		@ frame_needed = 0, uses_anonymous_args = 0
 499              		@ link register save eliminated.
 500              	.LVL32:
 501              		.loc 1 185 0
 502 0000 0369     		ldr	r3, [r0, #16]
 503              	.LVL33:
 504              		.loc 1 183 0
 505 0002 F0B4     		push	{r4, r5, r6, r7}
 506              		.cfi_def_cfa_offset 16
 507              		.cfi_offset 4, -16
 508              		.cfi_offset 5, -12
 509              		.cfi_offset 6, -8
 510              		.cfi_offset 7, -4
 511              		.loc 1 189 0
ARM GAS  /tmp/ccufHsaA.s 			page 10


 512 0004 1978     		ldrb	r1, [r3]	@ zero_extendqisi2
 513              		.loc 1 188 0
 514 0006 026B     		ldr	r2, [r0, #48]
 515              	.LVL34:
 516              		.loc 1 191 0
 517 0008 C568     		ldr	r5, [r0, #12]
 518              		.loc 1 189 0
 519 000a 29B1     		cbz	r1, .L46
 520              	.LVL35:
 521              		.loc 1 191 0
 522 000c 012D     		cmp	r5, #1
 523              		.loc 1 190 0
 524 000e 94BF     		ite	ls
 525 0010 42F02002 		orrls	r2, r2, #32
 526              	.LVL36:
 527              		.loc 1 194 0
 528 0014 42F02402 		orrhi	r2, r2, #36
 529              	.LVL37:
 530              	.L46:
 531              		.loc 1 198 0
 532 0018 5C88     		ldrh	r4, [r3, #2]
 533              		.loc 1 197 0
 534 001a C16A     		ldr	r1, [r0, #44]
 535              		.loc 1 198 0
 536 001c 04FB05F5 		mul	r5, r4, r5
 537              		.loc 1 197 0
 538 0020 0968     		ldr	r1, [r1]
 539 0022 8468     		ldr	r4, [r0, #8]
 540              		.loc 1 204 0
 541 0024 DE68     		ldr	r6, [r3, #12]
 542              		.loc 1 197 0
 543 0026 CC60     		str	r4, [r1, #12]
 544              		.loc 1 198 0
 545 0028 4D60     		str	r5, [r1, #4]
 546              		.loc 1 200 0
 547 002a 0A60     		str	r2, [r1]
 548              		.loc 1 201 0
 549 002c 0D68     		ldr	r5, [r1]
 550              		.loc 1 204 0
 551 002e 826A     		ldr	r2, [r0, #40]
 552              	.LVL38:
 553              		.loc 1 205 0
 554 0030 1869     		ldr	r0, [r3, #16]
 555              	.LVL39:
 556              		.loc 1 201 0
 557 0032 45F00105 		orr	r5, r5, #1
 558              		.loc 1 206 0
 559 0036 10F4841F 		tst	r0, #1081344
 560              		.loc 1 201 0
 561 003a 0D60     		str	r5, [r1]
 562              	.LVL40:
 563              		.loc 1 204 0
 564 003c 46F48074 		orr	r4, r6, #256
 565              		.loc 1 205 0
 566 0040 14BF     		ite	ne
 567 0042 40F48071 		orrne	r1, r0, #256
 568              		.loc 1 207 0
ARM GAS  /tmp/ccufHsaA.s 			page 11


 569 0046 40F48171 		orreq	r1, r0, #258
 570              		.loc 1 209 0
 571 004a 5F69     		ldr	r7, [r3, #20]
 572              		.loc 1 210 0
 573 004c 9E69     		ldr	r6, [r3, #24]
 574              		.loc 1 211 0
 575 004e DD69     		ldr	r5, [r3, #28]
 576              		.loc 1 204 0
 577 0050 5460     		str	r4, [r2, #4]
 578              		.loc 1 207 0
 579 0052 41F00101 		orr	r1, r1, #1
 580              	.LVL41:
 581              		.loc 1 212 0
 582 0056 1C6A     		ldr	r4, [r3, #32]
 583              		.loc 1 213 0
 584 0058 5B6A     		ldr	r3, [r3, #36]
 585              	.LVL42:
 586              		.loc 1 208 0
 587 005a 0843     		orrs	r0, r0, r1
 588 005c 9060     		str	r0, [r2, #8]
 589              		.loc 1 209 0
 590 005e D760     		str	r7, [r2, #12]
 591              		.loc 1 210 0
 592 0060 1661     		str	r6, [r2, #16]
 593              		.loc 1 211 0
 594 0062 D562     		str	r5, [r2, #44]
 595              		.loc 1 212 0
 596 0064 1463     		str	r4, [r2, #48]
 597              		.loc 1 213 0
 598 0066 5363     		str	r3, [r2, #52]
 599              		.loc 1 217 0
 600 0068 F0BC     		pop	{r4, r5, r6, r7}
 601              		.loc 1 216 0
 602 006a 9160     		str	r1, [r2, #8]
 603              		.loc 1 217 0
 604 006c 7047     		bx	lr
 605              		.cfi_endproc
 606              	.LFE67:
 607              		.size	adc_lld_start_conversion, .-adc_lld_start_conversion
 608 006e 00BF     		.section	.text.adc_lld_stop_conversion,"ax",%progbits
 609              		.align	2
 610              		.p2align 4,,15
 611              		.global	adc_lld_stop_conversion
 612              		.thumb
 613              		.thumb_func
 614              		.type	adc_lld_stop_conversion, %function
 615              	adc_lld_stop_conversion:
 616              	.LFB68:
 617              		.loc 1 226 0
 618              		.cfi_startproc
 619              		@ args = 0, pretend = 0, frame = 0
 620              		@ frame_needed = 0, uses_anonymous_args = 0
 621              		@ link register save eliminated.
 622              	.LVL43:
 623              		.loc 1 228 0
 624 0000 C36A     		ldr	r3, [r0, #44]
 625              		.loc 1 226 0
ARM GAS  /tmp/ccufHsaA.s 			page 12


 626 0002 30B4     		push	{r4, r5}
 627              		.cfi_def_cfa_offset 8
 628              		.cfi_offset 4, -8
 629              		.cfi_offset 5, -4
 630              		.loc 1 228 0
 631 0004 1A68     		ldr	r2, [r3]
 632              		.loc 1 229 0
 633 0006 816A     		ldr	r1, [r0, #40]
 634              		.loc 1 228 0
 635 0008 1568     		ldr	r5, [r2]
 636 000a 5868     		ldr	r0, [r3, #4]
 637              	.LVL44:
 638 000c 25F00F05 		bic	r5, r5, #15
 639 0010 1560     		str	r5, [r2]
 640 0012 1A7A     		ldrb	r2, [r3, #8]	@ zero_extendqisi2
 641 0014 0F24     		movs	r4, #15
 642 0016 04FA02F2 		lsl	r2, r4, r2
 643              		.loc 1 230 0
 644 001a 30BC     		pop	{r4, r5}
 645              		.loc 1 229 0
 646 001c 0023     		movs	r3, #0
 647              		.loc 1 228 0
 648 001e 0260     		str	r2, [r0]
 649              		.loc 1 229 0
 650 0020 8B60     		str	r3, [r1, #8]
 651              		.loc 1 230 0
 652 0022 7047     		bx	lr
 653              		.cfi_endproc
 654              	.LFE68:
 655              		.size	adc_lld_stop_conversion, .-adc_lld_stop_conversion
 656              		.global	ADCD1
 657 0024 AFF30080 		.section	.bss.ADCD1,"aw",%nobits
 657      AFF30080 
 657      AFF30080 
 658              		.align	2
 659              		.set	.LANCHOR0,. + 0
 660              		.type	ADCD1, %object
 661              		.size	ADCD1, 52
 662              	ADCD1:
 663 0000 00000000 		.space	52
 663      00000000 
 663      00000000 
 663      00000000 
 663      00000000 
 664              		.text
 665              	.Letext0:
 666              		.file 2 "/usr/lib/gcc/arm-none-eabi/4.8.2/include/stddef.h"
 667              		.file 3 "/usr/include/newlib/machine/_default_types.h"
 668              		.file 4 "/usr/include/newlib/stdint.h"
 669              		.file 5 "../../../../ChibiOS_2.6.2/os/ports/GCC/ARMCMx/chtypes.h"
 670              		.file 6 "../../../../ChibiOS_2.6.2/os/kernel/include/chlists.h"
 671              		.file 7 "../../../../ChibiOS_2.6.2/os/kernel/include/chthreads.h"
 672              		.file 8 "../../../../ChibiOS_2.6.2/os/ports/GCC/ARMCMx/chcore_v7m.h"
 673              		.file 9 "../../../../ChibiOS_2.6.2/os/kernel/include/chmtx.h"
 674              		.file 10 "../../../../ChibiOS_2.6.2/os/hal/platforms/STM32F1xx/stm32f10x.h"
 675              		.file 11 "../../../../ChibiOS_2.6.2/os/hal/platforms/STM32F1xx/stm32_dma.h"
 676              		.file 12 "../../../../ChibiOS_2.6.2/os/hal/include/adc.h"
ARM GAS  /tmp/ccufHsaA.s 			page 13


 677              		.file 13 "../../../../ChibiOS_2.6.2/os/hal/platforms/STM32F1xx/adc_lld.h"
 678              		.file 14 "../../../../ChibiOS_2.6.2/os/ports/common/ARMCMx/CMSIS/include/core_cm3.h"
 679              		.file 15 "../../../../ChibiOS_2.6.2/os/kernel/include/chschd.h"