ARM GAS  /tmp/ccT3l4bx.s 			page 1


   1              		.syntax unified
   2              		.cpu cortex-m3
   3              		.fpu softvfp
   4              		.eabi_attribute 20, 1
   5              		.eabi_attribute 21, 1
   6              		.eabi_attribute 23, 3
   7              		.eabi_attribute 24, 1
   8              		.eabi_attribute 25, 1
   9              		.eabi_attribute 26, 1
  10              		.eabi_attribute 30, 2
  11              		.eabi_attribute 34, 1
  12              		.eabi_attribute 18, 4
  13              		.thumb
  14              		.file	"chprintf.c"
  15              		.text
  16              	.Ltext0:
  17              		.cfi_sections	.debug_frame
  18              		.section	.text.long_to_string_with_divisor.constprop.0,"ax",%progbits
  19              		.align	2
  20              		.p2align 4,,15
  21              		.thumb
  22              		.thumb_func
  23              		.type	long_to_string_with_divisor.constprop.0, %function
  24              	long_to_string_with_divisor.constprop.0:
  25              	.LFB12:
  26              		.file 1 "../../../../ChibiOS_2.6.2/os/various/chprintf.c"
  27              		.loc 1 37 0
  28              		.cfi_startproc
  29              		@ args = 0, pretend = 0, frame = 0
  30              		@ frame_needed = 0, uses_anonymous_args = 0
  31              		@ link register save eliminated.
  32              	.LVL0:
  33 0000 F0B4     		push	{r4, r5, r6, r7}
  34              		.cfi_def_cfa_offset 16
  35              		.cfi_offset 4, -16
  36              		.cfi_offset 5, -12
  37              		.cfi_offset 6, -8
  38              		.cfi_offset 7, -4
  39              		.loc 1 52 0
  40 0002 00F10B07 		add	r7, r0, #11
  41              	.LVL1:
  42 0006 00F10A05 		add	r5, r0, #10
  43 000a 0C46     		mov	r4, r1
  44              	.LVL2:
  45              	.L4:
  46              		.loc 1 54 0
  47 000c B1FBF2F6 		udiv	r6, r1, r2
  48 0010 02FB1611 		mls	r1, r2, r6, r1
  49              	.LVL3:
  50              		.loc 1 55 0
  51 0014 01F13003 		add	r3, r1, #48
  52              	.LVL4:
  53              		.loc 1 56 0
  54 0018 392B     		cmp	r3, #57
  55              		.loc 1 57 0
  56 001a C8BF     		it	gt
  57 001c 01F13703 		addgt	r3, r1, #55
ARM GAS  /tmp/ccT3l4bx.s 			page 2


  58              	.LVL5:
  59              		.loc 1 58 0
  60 0020 DBB2     		uxtb	r3, r3
  61              	.LVL6:
  62              		.loc 1 60 0
  63 0022 B4FBF2F4 		udiv	r4, r4, r2
  64              	.LVL7:
  65              		.loc 1 59 0
  66 0026 3146     		mov	r1, r6
  67              	.LVL8:
  68              		.loc 1 58 0
  69 0028 2E46     		mov	r6, r5
  70              	.LVL9:
  71 002a 05F80139 		strb	r3, [r5], #-1
  72              	.LVL10:
  73              		.loc 1 60 0
  74 002e 002C     		cmp	r4, #0
  75 0030 ECD1     		bne	.L4
  76              	.LVL11:
  77              		.loc 1 62 0
  78 0032 B91B     		subs	r1, r7, r6
  79              	.LVL12:
  80 0034 3246     		mov	r2, r6
  81              	.LVL13:
  82 0036 0144     		add	r1, r1, r0
  83 0038 01E0     		b	.L6
  84              	.LVL14:
  85              	.L9:
  86 003a 12F8013F 		ldrb	r3, [r2, #1]!	@ zero_extendqisi2
  87              	.LVL15:
  88              	.L6:
  89              		.loc 1 64 0
  90 003e 00F8013B 		strb	r3, [r0], #1
  91              	.LVL16:
  92              		.loc 1 65 0
  93 0042 8842     		cmp	r0, r1
  94 0044 F9D1     		bne	.L9
  95              		.loc 1 68 0
  96 0046 F0BC     		pop	{r4, r5, r6, r7}
  97              	.LVL17:
  98 0048 7047     		bx	lr
  99              		.cfi_endproc
 100              	.LFE12:
 101              		.size	long_to_string_with_divisor.constprop.0, .-long_to_string_with_divisor.constprop.0
 102 004a 00BFAFF3 		.section	.text.chvprintf,"ax",%progbits
 102      0080
 103              		.align	2
 104              		.p2align 4,,15
 105              		.global	chvprintf
 106              		.thumb
 107              		.thumb_func
 108              		.type	chvprintf, %function
 109              	chvprintf:
 110              	.LFB10:
 111              		.loc 1 112 0
 112              		.cfi_startproc
 113              		@ args = 0, pretend = 0, frame = 32
ARM GAS  /tmp/ccT3l4bx.s 			page 3


 114              		@ frame_needed = 0, uses_anonymous_args = 0
 115              	.LVL18:
 116 0000 2DE9F04F 		push	{r4, r5, r6, r7, r8, r9, r10, fp, lr}
 117              		.cfi_def_cfa_offset 36
 118              		.cfi_offset 4, -36
 119              		.cfi_offset 5, -32
 120              		.cfi_offset 6, -28
 121              		.cfi_offset 7, -24
 122              		.cfi_offset 8, -20
 123              		.cfi_offset 9, -16
 124              		.cfi_offset 10, -12
 125              		.cfi_offset 11, -8
 126              		.cfi_offset 14, -4
 127 0004 89B0     		sub	sp, sp, #36
 128              		.cfi_def_cfa_offset 72
 129 0006 0DF11503 		add	r3, sp, #21
 130 000a 0DF1140A 		add	r10, sp, #20
 131              		.loc 1 187 0
 132 000e 40F20008 		movw	r8, #:lower16:.LC0
 133 0012 0193     		str	r3, [sp, #4]
 134 0014 C0F20008 		movt	r8, #:upper16:.LC0
 135 0018 CAEB0303 		rsb	r3, r10, r3
 136              		.loc 1 112 0
 137 001c 8346     		mov	fp, r0
 138 001e 0C46     		mov	r4, r1
 139 0020 1646     		mov	r6, r2
 140              	.LVL19:
 141 0022 0293     		str	r3, [sp, #8]
 142              		.loc 1 187 0
 143 0024 CDF80C80 		str	r8, [sp, #12]
 144              	.LVL20:
 145              	.L11:
 146              		.loc 1 125 0
 147 0028 2178     		ldrb	r1, [r4]	@ zero_extendqisi2
 148 002a 631C     		adds	r3, r4, #1
 149              	.LVL21:
 150              		.loc 1 126 0
 151 002c 59B1     		cbz	r1, .L10
 152              	.LVL22:
 153              	.L76:
 154              		.loc 1 128 0
 155 002e 2529     		cmp	r1, #37
 156 0030 0CD0     		beq	.L13
 157              		.loc 1 129 0
 158 0032 DBF80020 		ldr	r2, [fp]
 159              	.LVL23:
 160              		.loc 1 125 0
 161 0036 1C46     		mov	r4, r3
 162              		.loc 1 129 0
 163 0038 9268     		ldr	r2, [r2, #8]
 164 003a 5846     		mov	r0, fp
 165 003c 9047     		blx	r2
 166              	.LVL24:
 167              		.loc 1 125 0
 168 003e 2178     		ldrb	r1, [r4]	@ zero_extendqisi2
 169 0040 631C     		adds	r3, r4, #1
 170              	.LVL25:
ARM GAS  /tmp/ccT3l4bx.s 			page 4


 171              		.loc 1 126 0
 172 0042 0029     		cmp	r1, #0
 173 0044 F3D1     		bne	.L76
 174              	.LVL26:
 175              	.L10:
 176              		.loc 1 261 0
 177 0046 09B0     		add	sp, sp, #36
 178              		@ sp needed
 179 0048 BDE8F08F 		pop	{r4, r5, r6, r7, r8, r9, r10, fp, pc}
 180              	.LVL27:
 181              	.L13:
 182              		.loc 1 135 0
 183 004c 6278     		ldrb	r2, [r4, #1]	@ zero_extendqisi2
 184              	.LVL28:
 185              		.loc 1 144 0
 186 004e 0025     		movs	r5, #0
 187              		.loc 1 135 0
 188 0050 2D2A     		cmp	r2, #45
 189 0052 03BF     		ittte	eq
 190 0054 A278     		ldrbeq	r2, [r4, #2]	@ zero_extendqisi2
 191              		.loc 1 136 0
 192 0056 A31C     		addeq	r3, r4, #2
 193              	.LVL29:
 194              		.loc 1 137 0
 195 0058 4FF0010C 		moveq	ip, #1
 196              		.loc 1 134 0
 197 005c 4FF0000C 		movne	ip, #0
 198              	.LVL30:
 199              		.loc 1 140 0
 200 0060 2E2A     		cmp	r2, #46
 201 0062 18BF     		it	ne
 202 0064 302A     		cmpne	r2, #48
 203 0066 03BF     		ittte	eq
 204 0068 5A78     		ldrbeq	r2, [r3, #1]	@ zero_extendqisi2
 205              		.loc 1 141 0
 206 006a 0133     		addeq	r3, r3, #1
 207              	.LVL31:
 208              		.loc 1 142 0
 209 006c 3027     		moveq	r7, #48
 210              		.loc 1 139 0
 211 006e 2027     		movne	r7, #32
 212              	.LVL32:
 213              		.loc 1 142 0
 214 0070 1C46     		mov	r4, r3
 215 0072 06E0     		b	.L19
 216              	.LVL33:
 217              	.L77:
 218              		.loc 1 150 0
 219 0074 3378     		ldrb	r3, [r6]	@ zero_extendqisi2
 220              	.LVL34:
 221 0076 0436     		adds	r6, r6, #4
 222              	.LVL35:
 223              	.L17:
 224              		.loc 1 153 0
 225 0078 05EB8505 		add	r5, r5, r5, lsl #2
 226              	.LVL36:
 227 007c 2278     		ldrb	r2, [r4]	@ zero_extendqisi2
ARM GAS  /tmp/ccT3l4bx.s 			page 5


 228 007e 03EB4505 		add	r5, r3, r5, lsl #1
 229              	.LVL37:
 230              	.L19:
 231              		.loc 1 147 0
 232 0082 A2F13003 		sub	r3, r2, #48
 233 0086 DBB2     		uxtb	r3, r3
 234 0088 092B     		cmp	r3, #9
 235              		.loc 1 146 0
 236 008a 04F10104 		add	r4, r4, #1
 237              	.LVL38:
 238              		.loc 1 147 0
 239 008e F3D9     		bls	.L17
 240              		.loc 1 149 0
 241 0090 2A2A     		cmp	r2, #42
 242 0092 EFD0     		beq	.L77
 243              	.LVL39:
 244              		.loc 1 156 0
 245 0094 2E2A     		cmp	r2, #46
 246 0096 4FF00001 		mov	r1, #0
 247 009a 2FD0     		beq	.L22
 248              	.LVL40:
 249              		.loc 1 170 0
 250 009c 02F0DF03 		and	r3, r2, #223
 251 00a0 4C2B     		cmp	r3, #76
 252 00a2 3AD1     		bne	.L23
 253              	.LVL41:
 254              	.L79:
 255              		.loc 1 172 0
 256 00a4 2378     		ldrb	r3, [r4]	@ zero_extendqisi2
 257              		.loc 1 171 0
 258 00a6 0120     		movs	r0, #1
 259              		.loc 1 172 0
 260 00a8 13B1     		cbz	r3, .L24
 261              		.loc 1 173 0
 262 00aa 0134     		adds	r4, r4, #1
 263              	.LVL42:
 264 00ac 1A46     		mov	r2, r3
 265              		.loc 1 171 0
 266 00ae 0120     		movs	r0, #1
 267              	.LVL43:
 268              	.L24:
 269              		.loc 1 179 0
 270 00b0 A2F14403 		sub	r3, r2, #68
 271 00b4 342B     		cmp	r3, #52
 272 00b6 00F2B480 		bhi	.L25
 273 00ba DFE803F0 		tbb	[pc, r3]
 274              	.L27:
 275 00be 77       		.byte	(.L26-.L27)/2
 276 00bf B2       		.byte	(.L25-.L27)/2
 277 00c0 B2       		.byte	(.L25-.L27)/2
 278 00c1 B2       		.byte	(.L25-.L27)/2
 279 00c2 B2       		.byte	(.L25-.L27)/2
 280 00c3 77       		.byte	(.L26-.L27)/2
 281 00c4 B2       		.byte	(.L25-.L27)/2
 282 00c5 B2       		.byte	(.L25-.L27)/2
 283 00c6 B2       		.byte	(.L25-.L27)/2
 284 00c7 B2       		.byte	(.L25-.L27)/2
ARM GAS  /tmp/ccT3l4bx.s 			page 6


 285 00c8 B2       		.byte	(.L25-.L27)/2
 286 00c9 75       		.byte	(.L28-.L27)/2
 287 00ca B2       		.byte	(.L25-.L27)/2
 288 00cb B2       		.byte	(.L25-.L27)/2
 289 00cc B2       		.byte	(.L25-.L27)/2
 290 00cd B2       		.byte	(.L25-.L27)/2
 291 00ce B2       		.byte	(.L25-.L27)/2
 292 00cf 36       		.byte	(.L56-.L27)/2
 293 00d0 B2       		.byte	(.L25-.L27)/2
 294 00d1 B2       		.byte	(.L25-.L27)/2
 295 00d2 B0       		.byte	(.L30-.L27)/2
 296 00d3 B2       		.byte	(.L25-.L27)/2
 297 00d4 B2       		.byte	(.L25-.L27)/2
 298 00d5 B2       		.byte	(.L25-.L27)/2
 299 00d6 B2       		.byte	(.L25-.L27)/2
 300 00d7 B2       		.byte	(.L25-.L27)/2
 301 00d8 B2       		.byte	(.L25-.L27)/2
 302 00d9 B2       		.byte	(.L25-.L27)/2
 303 00da B2       		.byte	(.L25-.L27)/2
 304 00db B2       		.byte	(.L25-.L27)/2
 305 00dc B2       		.byte	(.L25-.L27)/2
 306 00dd A6       		.byte	(.L31-.L27)/2
 307 00de 77       		.byte	(.L26-.L27)/2
 308 00df B2       		.byte	(.L25-.L27)/2
 309 00e0 B2       		.byte	(.L25-.L27)/2
 310 00e1 B2       		.byte	(.L25-.L27)/2
 311 00e2 B2       		.byte	(.L25-.L27)/2
 312 00e3 77       		.byte	(.L26-.L27)/2
 313 00e4 B2       		.byte	(.L25-.L27)/2
 314 00e5 B2       		.byte	(.L25-.L27)/2
 315 00e6 B2       		.byte	(.L25-.L27)/2
 316 00e7 B2       		.byte	(.L25-.L27)/2
 317 00e8 B2       		.byte	(.L25-.L27)/2
 318 00e9 75       		.byte	(.L28-.L27)/2
 319 00ea B2       		.byte	(.L25-.L27)/2
 320 00eb B2       		.byte	(.L25-.L27)/2
 321 00ec B2       		.byte	(.L25-.L27)/2
 322 00ed 86       		.byte	(.L32-.L27)/2
 323 00ee B2       		.byte	(.L25-.L27)/2
 324 00ef 36       		.byte	(.L56-.L27)/2
 325 00f0 B2       		.byte	(.L25-.L27)/2
 326 00f1 B2       		.byte	(.L25-.L27)/2
 327 00f2 B0       		.byte	(.L30-.L27)/2
 328 00f3 00       		.align	1
 329              	.LVL44:
 330              	.L78:
 331              		.loc 1 162 0
 332 00f4 3378     		ldrb	r3, [r6]	@ zero_extendqisi2
 333              	.LVL45:
 334 00f6 0436     		adds	r6, r6, #4
 335              	.LVL46:
 336              	.L21:
 337              		.loc 1 166 0
 338 00f8 03EB4001 		add	r1, r3, r0, lsl #1
 339              	.LVL47:
 340              	.L22:
 341              		.loc 1 158 0
ARM GAS  /tmp/ccT3l4bx.s 			page 7


 342 00fc 14F8012B 		ldrb	r2, [r4], #1	@ zero_extendqisi2
 343              	.LVL48:
 344              		.loc 1 165 0
 345 0100 01EB8100 		add	r0, r1, r1, lsl #2
 346              		.loc 1 159 0
 347 0104 A2F13003 		sub	r3, r2, #48
 348 0108 DBB2     		uxtb	r3, r3
 349 010a 092B     		cmp	r3, #9
 350 010c F4D9     		bls	.L21
 351              		.loc 1 161 0
 352 010e 2A2A     		cmp	r2, #42
 353 0110 F0D0     		beq	.L78
 354              	.LVL49:
 355              		.loc 1 170 0
 356 0112 02F0DF03 		and	r3, r2, #223
 357 0116 4C2B     		cmp	r3, #76
 358 0118 C4D0     		beq	.L79
 359              	.LVL50:
 360              	.L23:
 361              		.loc 1 176 0
 362 011a A2F14100 		sub	r0, r2, #65
 363 011e C0B2     		uxtb	r0, r0
 364 0120 1928     		cmp	r0, #25
 365 0122 8CBF     		ite	hi
 366 0124 0020     		movhi	r0, #0
 367 0126 0120     		movls	r0, #1
 368              	.LVL51:
 369 0128 C2E7     		b	.L24
 370              	.LVL52:
 371              	.L56:
 372              		.loc 1 179 0
 373 012a 0A22     		movs	r2, #10
 374              	.LVL53:
 375              	.L29:
 376              		.loc 1 230 0
 377 012c 3168     		ldr	r1, [r6]
 378              	.LVL54:
 379              	.LBB6:
 380              	.LBB7:
 381              		.loc 1 72 0
 382 012e 5046     		mov	r0, r10
 383              	.LBE7:
 384              	.LBE6:
 385              		.loc 1 230 0
 386 0130 0436     		adds	r6, r6, #4
 387              	.LVL55:
 388              	.L74:
 389              	.LBB9:
 390              	.LBB8:
 391              		.loc 1 72 0
 392 0132 CDF800C0 		str	ip, [sp]
 393 0136 FFF7FEFF 		bl	long_to_string_with_divisor.constprop.0
 394              	.LVL56:
 395              	.LBE8:
 396              	.LBE9:
 397              		.loc 1 234 0
 398 013a DDF800C0 		ldr	ip, [sp]
ARM GAS  /tmp/ccT3l4bx.s 			page 8


 399 013e CAEB0000 		rsb	r0, r10, r0
 400 0142 00F1FF39 		add	r9, r0, #-1
 401              		.loc 1 133 0
 402 0146 D046     		mov	r8, r10
 403              	.LVL57:
 404              	.L33:
 405              		.loc 1 240 0
 406 0148 2D1A     		subs	r5, r5, r0
 407              	.LVL58:
 408 014a 25EAE575 		bic	r5, r5, r5, asr #31
 409              	.LVL59:
 410              		.loc 1 242 0
 411 014e BCF1000F 		cmp	ip, #0
 412 0152 0DD1     		bne	.L44
 413              		.loc 1 243 0
 414 0154 6D42     		negs	r5, r5
 415              	.LVL60:
 416              		.loc 1 244 0
 417 0156 5DB1     		cbz	r5, .L44
 418              		.loc 1 245 0
 419 0158 98F80010 		ldrb	r1, [r8]	@ zero_extendqisi2
 420 015c 2D29     		cmp	r1, #45
 421 015e 67D0     		beq	.L80
 422              	.LVL61:
 423              	.L46:
 424              		.loc 1 250 0 discriminator 1
 425 0160 DBF80030 		ldr	r3, [fp]
 426 0164 5846     		mov	r0, fp
 427 0166 9B68     		ldr	r3, [r3, #8]
 428 0168 3946     		mov	r1, r7
 429 016a 9847     		blx	r3
 430              	.LVL62:
 431              		.loc 1 251 0 discriminator 1
 432 016c 0135     		adds	r5, r5, #1
 433              	.LVL63:
 434 016e F7D1     		bne	.L46
 435              	.L44:
 436              		.loc 1 253 0 discriminator 1
 437 0170 B9F1000F 		cmp	r9, #0
 438 0174 A4BF     		itt	ge
 439 0176 C144     		addge	r9, r9, r8
 440 0178 08F1FF38 		addge	r8, r8, #-1
 441 017c 08DB     		blt	.L49
 442              	.LVL64:
 443              	.L50:
 444              		.loc 1 254 0
 445 017e DBF80030 		ldr	r3, [fp]
 446 0182 18F8011F 		ldrb	r1, [r8, #1]!	@ zero_extendqisi2
 447              	.LVL65:
 448 0186 9B68     		ldr	r3, [r3, #8]
 449 0188 5846     		mov	r0, fp
 450 018a 9847     		blx	r3
 451              	.LVL66:
 452              		.loc 1 253 0
 453 018c C845     		cmp	r8, r9
 454 018e F6D1     		bne	.L50
 455              	.LVL67:
ARM GAS  /tmp/ccT3l4bx.s 			page 9


 456              	.L49:
 457              		.loc 1 256 0
 458 0190 002D     		cmp	r5, #0
 459 0192 3FF449AF 		beq	.L11
 460              	.L51:
 461              		.loc 1 257 0
 462 0196 DBF80030 		ldr	r3, [fp]
 463 019a 5846     		mov	r0, fp
 464 019c 9B68     		ldr	r3, [r3, #8]
 465 019e 3946     		mov	r1, r7
 466 01a0 9847     		blx	r3
 467              	.LVL68:
 468              		.loc 1 256 0
 469 01a2 013D     		subs	r5, r5, #1
 470              	.LVL69:
 471 01a4 F7D1     		bne	.L51
 472 01a6 3FE7     		b	.L11
 473              	.LVL70:
 474              	.L28:
 475 01a8 0822     		movs	r2, #8
 476 01aa BFE7     		b	.L29
 477              	.LVL71:
 478              	.L26:
 479              		.loc 1 198 0
 480 01ac 3168     		ldr	r1, [r6]
 481              	.LVL72:
 482              	.LBB10:
 483              	.LBB11:
 484              		.loc 1 72 0
 485 01ae 0A22     		movs	r2, #10
 486              	.LVL73:
 487              	.LBE11:
 488              	.LBE10:
 489              		.loc 1 201 0
 490 01b0 0029     		cmp	r1, #0
 491              		.loc 1 202 0
 492 01b2 B8BF     		it	lt
 493 01b4 2D23     		movlt	r3, #45
 494              	.LVL74:
 495              		.loc 1 198 0
 496 01b6 06F10406 		add	r6, r6, #4
 497              	.LVL75:
 498              		.loc 1 202 0
 499 01ba BDBF     		ittte	lt
 500 01bc 8DF81430 		strblt	r3, [sp, #20]
 501              		.loc 1 203 0
 502 01c0 4942     		rsblt	r1, r1, #0
 503              	.LVL76:
 504              		.loc 1 202 0
 505 01c2 0DF11500 		addlt	r0, sp, #21
 506              		.loc 1 132 0
 507 01c6 5046     		movge	r0, r10
 508              	.LVL77:
 509 01c8 B3E7     		b	.L74
 510              	.LVL78:
 511              	.L32:
 512              		.loc 1 186 0
ARM GAS  /tmp/ccT3l4bx.s 			page 10


 513 01ca D6F80080 		ldr	r8, [r6]
 514              		.loc 1 187 0
 515 01ce 039A     		ldr	r2, [sp, #12]
 516              	.LVL79:
 517              		.loc 1 189 0
 518 01d0 47F6FF73 		movw	r3, #32767
 519              	.LVL80:
 520              		.loc 1 187 0
 521 01d4 B8F1000F 		cmp	r8, #0
 522 01d8 08BF     		it	eq
 523 01da 9046     		moveq	r8, r2
 524              		.loc 1 190 0
 525 01dc 98F80000 		ldrb	r0, [r8]	@ zero_extendqisi2
 526              		.loc 1 186 0
 527 01e0 0436     		adds	r6, r6, #4
 528              	.LVL81:
 529              		.loc 1 189 0
 530 01e2 0029     		cmp	r1, #0
 531 01e4 08BF     		it	eq
 532 01e6 1946     		moveq	r1, r3
 533              	.LVL82:
 534              		.loc 1 190 0
 535 01e8 0028     		cmp	r0, #0
 536 01ea 33D0     		beq	.L59
 537 01ec 4144     		add	r1, r1, r8
 538 01ee 4346     		mov	r3, r8
 539 01f0 01E0     		b	.L38
 540              	.LVL83:
 541              	.L36:
 542              		.loc 1 190 0 is_stmt 0 discriminator 2
 543 01f2 8B42     		cmp	r3, r1
 544 01f4 28D0     		beq	.L81
 545              	.LVL84:
 546              	.L38:
 547              		.loc 1 190 0 discriminator 1
 548 01f6 5A78     		ldrb	r2, [r3, #1]	@ zero_extendqisi2
 549 01f8 0133     		adds	r3, r3, #1
 550              	.LVL85:
 551 01fa 002A     		cmp	r2, #0
 552 01fc F9D1     		bne	.L36
 553 01fe C8EB0300 		rsb	r0, r8, r3
 554 0202 00F1FF39 		add	r9, r0, #-1
 555              		.loc 1 185 0 is_stmt 1
 556 0206 2027     		movs	r7, #32
 557 0208 9EE7     		b	.L33
 558              	.LVL86:
 559              	.L31:
 560              		.loc 1 182 0
 561 020a 3368     		ldr	r3, [r6]
 562 020c 0298     		ldr	r0, [sp, #8]
 563 020e 8DF81430 		strb	r3, [sp, #20]
 564 0212 0436     		adds	r6, r6, #4
 565              	.LVL87:
 566 0214 00F1FF39 		add	r9, r0, #-1
 567              		.loc 1 181 0
 568 0218 2027     		movs	r7, #32
 569              		.loc 1 133 0
ARM GAS  /tmp/ccT3l4bx.s 			page 11


 570 021a D046     		mov	r8, r10
 571              		.loc 1 183 0
 572 021c 94E7     		b	.L33
 573              	.LVL88:
 574              	.L30:
 575              		.loc 1 179 0
 576 021e 1022     		movs	r2, #16
 577              	.LVL89:
 578 0220 84E7     		b	.L29
 579              	.LVL90:
 580              	.L25:
 581 0222 0298     		ldr	r0, [sp, #8]
 582              		.loc 1 236 0
 583 0224 8DF81420 		strb	r2, [sp, #20]
 584 0228 00F1FF39 		add	r9, r0, #-1
 585              		.loc 1 133 0
 586 022c D046     		mov	r8, r10
 587              		.loc 1 237 0
 588 022e 8BE7     		b	.L33
 589              	.LVL91:
 590              	.L80:
 591              		.loc 1 245 0 discriminator 1
 592 0230 302F     		cmp	r7, #48
 593 0232 95D1     		bne	.L46
 594              	.LVL92:
 595              		.loc 1 246 0
 596 0234 DBF80030 		ldr	r3, [fp]
 597 0238 5846     		mov	r0, fp
 598              	.LVL93:
 599 023a 9B68     		ldr	r3, [r3, #8]
 600 023c 9847     		blx	r3
 601              	.LVL94:
 602 023e 08F10108 		add	r8, r8, #1
 603              	.LVL95:
 604 0242 09F1FF39 		add	r9, r9, #-1
 605              	.LVL96:
 606 0246 8BE7     		b	.L46
 607              	.LVL97:
 608              	.L81:
 609 0248 C8EB0100 		rsb	r0, r8, r1
 610 024c 00F1FF39 		add	r9, r0, #-1
 611              		.loc 1 185 0
 612 0250 2027     		movs	r7, #32
 613 0252 79E7     		b	.L33
 614              	.LVL98:
 615              	.L59:
 616              		.loc 1 190 0
 617 0254 4FF0FF39 		mov	r9, #-1
 618              		.loc 1 185 0
 619 0258 2027     		movs	r7, #32
 620 025a 75E7     		b	.L33
 621              		.cfi_endproc
 622              	.LFE10:
 623              		.size	chvprintf, .-chvprintf
 624 025c AFF30080 		.section	.text.chsnprintf,"ax",%progbits
 625              		.align	2
 626              		.p2align 4,,15
ARM GAS  /tmp/ccT3l4bx.s 			page 12


 627              		.global	chsnprintf
 628              		.thumb
 629              		.thumb_func
 630              		.type	chsnprintf, %function
 631              	chsnprintf:
 632              	.LFB11:
 633              		.loc 1 288 0
 634              		.cfi_startproc
 635              		@ args = 4, pretend = 8, frame = 24
 636              		@ frame_needed = 0, uses_anonymous_args = 1
 637              	.LVL99:
 638 0000 0CB4     		push	{r2, r3}
 639              		.cfi_def_cfa_offset 8
 640              		.cfi_offset 2, -8
 641              		.cfi_offset 3, -4
 642 0002 30B5     		push	{r4, r5, lr}
 643              		.cfi_def_cfa_offset 20
 644              		.cfi_offset 4, -20
 645              		.cfi_offset 5, -16
 646              		.cfi_offset 14, -12
 647 0004 87B0     		sub	sp, sp, #28
 648              		.cfi_def_cfa_offset 48
 649              		.loc 1 288 0
 650 0006 0AAC     		add	r4, sp, #40
 651 0008 54F8045B 		ldr	r5, [r4], #4
 652 000c 0A46     		mov	r2, r1
 653              		.loc 1 294 0
 654 000e 0023     		movs	r3, #0
 655 0010 0146     		mov	r1, r0
 656              	.LVL100:
 657 0012 01A8     		add	r0, sp, #4
 658              	.LVL101:
 659 0014 FFF7FEFF 		bl	msObjectInit
 660              	.LVL102:
 661              		.loc 1 299 0
 662 0018 2946     		mov	r1, r5
 663 001a 2246     		mov	r2, r4
 664 001c 01A8     		add	r0, sp, #4
 665              	.LVL103:
 666              		.loc 1 298 0
 667 001e 0094     		str	r4, [sp]
 668              		.loc 1 299 0
 669 0020 FFF7FEFF 		bl	chvprintf
 670              	.LVL104:
 671              		.loc 1 303 0
 672 0024 019B     		ldr	r3, [sp, #4]
 673 0026 01A8     		add	r0, sp, #4
 674              	.LVL105:
 675 0028 9B68     		ldr	r3, [r3, #8]
 676 002a 0021     		movs	r1, #0
 677 002c 9847     		blx	r3
 678              	.LVL106:
 679              		.loc 1 304 0
 680 002e 0498     		ldr	r0, [sp, #16]
 681              		.loc 1 305 0
 682 0030 0138     		subs	r0, r0, #1
 683 0032 07B0     		add	sp, sp, #28
ARM GAS  /tmp/ccT3l4bx.s 			page 13


 684              		@ sp needed
 685 0034 BDE83040 		pop	{r4, r5, lr}
 686 0038 02B0     		add	sp, sp, #8
 687 003a 7047     		bx	lr
 688              		.cfi_endproc
 689              	.LFE11:
 690              		.size	chsnprintf, .-chsnprintf
 691 003c AFF30080 		.section	.rodata.str1.4,"aMS",%progbits,1
 692              		.align	2
 693              	.LC0:
 694 0000 286E756C 		.ascii	"(null)\000"
 694      6C2900
 695 0007 00       		.text
 696              	.Letext0:
 697              		.file 2 "/usr/lib/gcc/arm-none-eabi/4.8.2/include/stddef.h"
 698              		.file 3 "/usr/include/newlib/machine/_default_types.h"
 699              		.file 4 "/usr/include/newlib/stdint.h"
 700              		.file 5 "../../../../ChibiOS_2.6.2/os/ports/GCC/ARMCMx/chtypes.h"
 701              		.file 6 "../../../../ChibiOS_2.6.2/os/kernel/include/chstreams.h"
 702              		.file 7 "/usr/lib/gcc/arm-none-eabi/4.8.2/include/stdarg.h"
 703              		.file 8 "<built-in>"
 704              		.file 9 "../../../../ChibiOS_2.6.2/os/various/memstreams.h"