ARM GAS  /tmp/ccbX2IiF.s 			page 1


   1              		.syntax unified
   2              		.cpu cortex-m3
   3              		.fpu softvfp
   4              		.eabi_attribute 20, 1
   5              		.eabi_attribute 21, 1
   6              		.eabi_attribute 23, 3
   7              		.eabi_attribute 24, 1
   8              		.eabi_attribute 25, 1
   9              		.eabi_attribute 26, 1
  10              		.eabi_attribute 30, 2
  11              		.eabi_attribute 34, 1
  12              		.eabi_attribute 18, 4
  13              		.thumb
  14              		.file	"chschd.c"
  15              		.text
  16              	.Ltext0:
  17              		.cfi_sections	.debug_frame
  18              		.section	.text.wakeup,"ax",%progbits
  19              		.align	2
  20              		.p2align 4,,15
  21              		.thumb
  22              		.thumb_func
  23              		.type	wakeup, %function
  24              	wakeup:
  25              	.LFB10:
  26              		.file 1 "../../../../ChibiOS_2.6.2/os/kernel/src/chschd.c"
  27              		.loc 1 136 0
  28              		.cfi_startproc
  29              		@ args = 0, pretend = 0, frame = 0
  30              		@ frame_needed = 0, uses_anonymous_args = 0
  31              		@ link register save eliminated.
  32              	.LVL0:
  33 0000 10B4     		push	{r4}
  34              		.cfi_def_cfa_offset 4
  35              		.cfi_offset 4, -4
  36              	.LBB22:
  37              		.loc 1 139 0
  38 0002 2023     		movs	r3, #32
  39              	@ 139 "../../../../ChibiOS_2.6.2/os/kernel/src/chschd.c" 1
  40 0004 83F31188 		msr     BASEPRI, r3
  41              	@ 0 "" 2
  42              		.thumb
  43              	.LBE22:
  44              		.loc 1 140 0
  45 0008 037F     		ldrb	r3, [r0, #28]	@ zero_extendqisi2
  46 000a 0D2B     		cmp	r3, #13
  47 000c 11D8     		bhi	.L2
  48 000e DFE803F0 		tbb	[pc, r3]
  49              	.L4:
  50 0012 29       		.byte	(.L3-.L4)/2
  51 0013 10       		.byte	(.L2-.L4)/2
  52 0014 10       		.byte	(.L2-.L4)/2
  53 0015 07       		.byte	(.L5-.L4)/2
  54 0016 10       		.byte	(.L2-.L4)/2
  55 0017 0B       		.byte	(.L6-.L4)/2
  56 0018 10       		.byte	(.L2-.L4)/2
  57 0019 10       		.byte	(.L2-.L4)/2
ARM GAS  /tmp/ccbX2IiF.s 			page 2


  58 001a 10       		.byte	(.L2-.L4)/2
  59 001b 10       		.byte	(.L2-.L4)/2
  60 001c 10       		.byte	(.L2-.L4)/2
  61 001d 10       		.byte	(.L2-.L4)/2
  62 001e 10       		.byte	(.L2-.L4)/2
  63 001f 0B       		.byte	(.L6-.L4)/2
  64              		.align	1
  65              	.L5:
  66              		.loc 1 150 0
  67 0020 436A     		ldr	r3, [r0, #36]
  68 0022 9A68     		ldr	r2, [r3, #8]
  69 0024 0132     		adds	r2, r2, #1
  70 0026 9A60     		str	r2, [r3, #8]
  71              	.L6:
  72              	.LVL1:
  73              	.LBB23:
  74              	.LBB24:
  75              		.file 2 "../../../../ChibiOS_2.6.2/os/kernel/include/chinline.h"
  76              		.loc 2 75 0
  77 0028 90E80C00 		ldmia	r0, {r2, r3}
  78 002c 1A60     		str	r2, [r3]
  79              		.loc 2 76 0
  80 002e 0268     		ldr	r2, [r0]
  81 0030 5360     		str	r3, [r2, #4]
  82              	.LVL2:
  83              	.L2:
  84              	.LBE24:
  85              	.LBE23:
  86              		.loc 1 163 0
  87 0032 4FF0FF34 		mov	r4, #-1
  88              	.LBB25:
  89              	.LBB26:
  90              		.loc 1 92 0
  91 0036 0023     		movs	r3, #0
  92              		.loc 1 93 0
  93 0038 40F20002 		movw	r2, #:lower16:.LANCHOR0
  94 003c 8168     		ldr	r1, [r0, #8]
  95              	.LBE26:
  96              	.LBE25:
  97              		.loc 1 163 0
  98 003e 4462     		str	r4, [r0, #36]
  99              	.LVL3:
 100              	.LBB29:
 101              	.LBB27:
 102              		.loc 1 92 0
 103 0040 0377     		strb	r3, [r0, #28]
 104              	.LVL4:
 105              		.loc 1 93 0
 106 0042 C0F20002 		movt	r2, #:upper16:.LANCHOR0
 107              	.LVL5:
 108              	.L9:
 109              		.loc 1 95 0
 110 0046 1268     		ldr	r2, [r2]
 111              	.LVL6:
 112              		.loc 1 96 0
 113 0048 9368     		ldr	r3, [r2, #8]
 114 004a 8B42     		cmp	r3, r1
ARM GAS  /tmp/ccbX2IiF.s 			page 3


 115 004c FBD2     		bcs	.L9
 116              		.loc 1 99 0
 117 004e 5168     		ldr	r1, [r2, #4]
 118              	.LBE27:
 119              	.LBE29:
 120              	.LBB30:
 121              		.loc 1 165 0
 122 0050 0023     		movs	r3, #0
 123              	.LBE30:
 124              	.LBB31:
 125              	.LBB28:
 126              		.loc 1 98 0
 127 0052 0260     		str	r2, [r0]
 128              		.loc 1 99 0
 129 0054 4160     		str	r1, [r0, #4]
 130              		.loc 1 100 0
 131 0056 5060     		str	r0, [r2, #4]
 132 0058 0860     		str	r0, [r1]
 133              	.LBE28:
 134              	.LBE31:
 135              	.LBB32:
 136              		.loc 1 165 0
 137              	@ 165 "../../../../ChibiOS_2.6.2/os/kernel/src/chschd.c" 1
 138 005a 83F31188 		msr     BASEPRI, r3
 139              	@ 0 "" 2
 140              		.thumb
 141              	.LBE32:
 142              		.loc 1 166 0
 143 005e 5DF8044B 		ldr	r4, [sp], #4
 144 0062 7047     		bx	lr
 145              	.LVL7:
 146              	.L3:
 147              	.LBB33:
 148              		.loc 1 144 0
 149 0064 0023     		movs	r3, #0
 150              	@ 144 "../../../../ChibiOS_2.6.2/os/kernel/src/chschd.c" 1
 151 0066 83F31188 		msr     BASEPRI, r3
 152              	@ 0 "" 2
 153              		.thumb
 154              	.LBE33:
 155              		.loc 1 166 0
 156 006a 5DF8044B 		ldr	r4, [sp], #4
 157 006e 7047     		bx	lr
 158              		.cfi_endproc
 159              	.LFE10:
 160              		.size	wakeup, .-wakeup
 161              		.section	.text._scheduler_init,"ax",%progbits
 162              		.align	2
 163              		.p2align 4,,15
 164              		.global	_scheduler_init
 165              		.thumb
 166              		.thumb_func
 167              		.type	_scheduler_init, %function
 168              	_scheduler_init:
 169              	.LFB7:
 170              		.loc 1 55 0
 171              		.cfi_startproc
ARM GAS  /tmp/ccbX2IiF.s 			page 4


 172              		@ args = 0, pretend = 0, frame = 0
 173              		@ frame_needed = 0, uses_anonymous_args = 0
 174              		@ link register save eliminated.
 175              		.loc 1 57 0
 176 0000 40F20003 		movw	r3, #:lower16:.LANCHOR0
 177 0004 C0F20003 		movt	r3, #:upper16:.LANCHOR0
 178              		.loc 1 58 0
 179 0008 0022     		movs	r2, #0
 180              		.loc 1 57 0
 181 000a 5B60     		str	r3, [r3, #4]
 182 000c 1B60     		str	r3, [r3]
 183              		.loc 1 60 0
 184 000e 5B61     		str	r3, [r3, #20]
 185 0010 1B61     		str	r3, [r3, #16]
 186              		.loc 1 58 0
 187 0012 9A60     		str	r2, [r3, #8]
 188 0014 7047     		bx	lr
 189              		.cfi_endproc
 190              	.LFE7:
 191              		.size	_scheduler_init, .-_scheduler_init
 192 0016 00BFAFF3 		.section	.text.chSchReadyI,"ax",%progbits
 192      0080AFF3 
 192      0080
 193              		.align	2
 194              		.p2align 4,,15
 195              		.global	chSchReadyI
 196              		.thumb
 197              		.thumb_func
 198              		.type	chSchReadyI, %function
 199              	chSchReadyI:
 200              	.LFB8:
 201              		.loc 1 81 0
 202              		.cfi_startproc
 203              		@ args = 0, pretend = 0, frame = 0
 204              		@ frame_needed = 0, uses_anonymous_args = 0
 205              		@ link register save eliminated.
 206              	.LVL8:
 207              		.loc 1 92 0
 208 0000 0022     		movs	r2, #0
 209              		.loc 1 93 0
 210 0002 40F20003 		movw	r3, #:lower16:.LANCHOR0
 211 0006 8168     		ldr	r1, [r0, #8]
 212              		.loc 1 81 0
 213 0008 10B4     		push	{r4}
 214              		.cfi_def_cfa_offset 4
 215              		.cfi_offset 4, -4
 216              		.loc 1 93 0
 217 000a C0F20003 		movt	r3, #:upper16:.LANCHOR0
 218              		.loc 1 81 0
 219 000e 0446     		mov	r4, r0
 220              		.loc 1 92 0
 221 0010 0277     		strb	r2, [r0, #28]
 222              	.LVL9:
 223              	.L14:
 224              		.loc 1 95 0 discriminator 1
 225 0012 1B68     		ldr	r3, [r3]
 226              	.LVL10:
ARM GAS  /tmp/ccbX2IiF.s 			page 5


 227              		.loc 1 96 0 discriminator 1
 228 0014 9A68     		ldr	r2, [r3, #8]
 229 0016 8A42     		cmp	r2, r1
 230 0018 FBD2     		bcs	.L14
 231              		.loc 1 99 0
 232 001a 5A68     		ldr	r2, [r3, #4]
 233              		.loc 1 102 0
 234 001c 2046     		mov	r0, r4
 235              	.LVL11:
 236              		.loc 1 98 0
 237 001e 2360     		str	r3, [r4]
 238              		.loc 1 99 0
 239 0020 6260     		str	r2, [r4, #4]
 240              		.loc 1 100 0
 241 0022 5C60     		str	r4, [r3, #4]
 242 0024 1460     		str	r4, [r2]
 243              		.loc 1 102 0
 244 0026 5DF8044B 		ldr	r4, [sp], #4
 245              	.LVL12:
 246 002a 7047     		bx	lr
 247              		.cfi_endproc
 248              	.LFE8:
 249              		.size	chSchReadyI, .-chSchReadyI
 250 002c AFF30080 		.section	.text.chSchGoSleepS,"ax",%progbits
 251              		.align	2
 252              		.p2align 4,,15
 253              		.global	chSchGoSleepS
 254              		.thumb
 255              		.thumb_func
 256              		.type	chSchGoSleepS, %function
 257              	chSchGoSleepS:
 258              	.LFB9:
 259              		.loc 1 115 0
 260              		.cfi_startproc
 261              		@ args = 0, pretend = 0, frame = 0
 262              		@ frame_needed = 0, uses_anonymous_args = 0
 263              		@ link register save eliminated.
 264              	.LVL13:
 265              		.loc 1 120 0
 266 0000 40F20003 		movw	r3, #:lower16:.LANCHOR0
 267 0004 C0F20003 		movt	r3, #:upper16:.LANCHOR0
 268              		.loc 1 115 0
 269 0008 70B4     		push	{r4, r5, r6}
 270              		.cfi_def_cfa_offset 12
 271              		.cfi_offset 4, -12
 272              		.cfi_offset 5, -8
 273              		.cfi_offset 6, -4
 274              	.LBB34:
 275              	.LBB35:
 276              		.loc 2 60 0
 277 000a 1A68     		ldr	r2, [r3]
 278              	.LBE35:
 279              	.LBE34:
 280              		.loc 1 120 0
 281 000c 9969     		ldr	r1, [r3, #24]
 282              	.LVL14:
 283              	.LBB39:
ARM GAS  /tmp/ccbX2IiF.s 			page 6


 284              	.LBB36:
 285              		.loc 2 62 0
 286 000e 1468     		ldr	r4, [r2]
 287              	.LBE36:
 288              	.LBE39:
 289              		.loc 1 124 0
 290 0010 1426     		movs	r6, #20
 291              		.loc 1 127 0
 292 0012 0125     		movs	r5, #1
 293              		.loc 1 120 0
 294 0014 0877     		strb	r0, [r1, #28]
 295              		.loc 1 124 0
 296 0016 CE77     		strb	r6, [r1, #31]
 297              	.LVL15:
 298              	.LBB40:
 299              	.LBB37:
 300              		.loc 2 62 0
 301 0018 6360     		str	r3, [r4, #4]
 302              	.LBE37:
 303              	.LBE40:
 304              		.loc 1 127 0
 305 001a 1577     		strb	r5, [r2, #28]
 306              	.LBB41:
 307              	.LBB38:
 308              		.loc 2 62 0
 309 001c 1C60     		str	r4, [r3]
 310              	.LBE38:
 311              	.LBE41:
 312              		.loc 1 128 0
 313 001e 1046     		mov	r0, r2
 314              	.LVL16:
 315              		.loc 1 129 0
 316 0020 70BC     		pop	{r4, r5, r6}
 317              		.loc 1 126 0
 318 0022 9A61     		str	r2, [r3, #24]
 319              		.loc 1 128 0
 320 0024 FFF7FEBF 		b	_port_switch
 321              	.LVL17:
 322              		.cfi_endproc
 323              	.LFE9:
 324              		.size	chSchGoSleepS, .-chSchGoSleepS
 325 0028 AFF30080 		.section	.text.chSchGoSleepTimeoutS,"ax",%progbits
 325      AFF30080 
 326              		.align	2
 327              		.p2align 4,,15
 328              		.global	chSchGoSleepTimeoutS
 329              		.thumb
 330              		.thumb_func
 331              		.type	chSchGoSleepTimeoutS, %function
 332              	chSchGoSleepTimeoutS:
 333              	.LFB11:
 334              		.loc 1 189 0
 335              		.cfi_startproc
 336              		@ args = 0, pretend = 0, frame = 24
 337              		@ frame_needed = 0, uses_anonymous_args = 0
 338              	.LVL18:
 339 0000 30B5     		push	{r4, r5, lr}
ARM GAS  /tmp/ccbX2IiF.s 			page 7


 340              		.cfi_def_cfa_offset 12
 341              		.cfi_offset 4, -12
 342              		.cfi_offset 5, -8
 343              		.cfi_offset 14, -4
 344              		.loc 1 193 0
 345 0002 4B1C     		adds	r3, r1, #1
 346              		.loc 1 189 0
 347 0004 87B0     		sub	sp, sp, #28
 348              		.cfi_def_cfa_offset 40
 349              		.loc 1 189 0
 350 0006 0546     		mov	r5, r0
 351              		.loc 1 193 0
 352 0008 17D0     		beq	.L17
 353              	.LBB42:
 354              		.loc 1 196 0
 355 000a 40F20004 		movw	r4, #:lower16:.LANCHOR0
 356 000e C0F20004 		movt	r4, #:upper16:.LANCHOR0
 357 0012 40F20002 		movw	r2, #:lower16:wakeup
 358 0016 A369     		ldr	r3, [r4, #24]
 359 0018 01A8     		add	r0, sp, #4
 360              	.LVL19:
 361 001a C0F20002 		movt	r2, #:upper16:wakeup
 362 001e FFF7FEFF 		bl	chVTSetI
 363              	.LVL20:
 364              		.loc 1 197 0
 365 0022 2846     		mov	r0, r5
 366 0024 FFF7FEFF 		bl	chSchGoSleepS
 367              	.LVL21:
 368              		.loc 1 198 0
 369 0028 049B     		ldr	r3, [sp, #16]
 370 002a 13B1     		cbz	r3, .L19
 371              		.loc 1 199 0
 372 002c 01A8     		add	r0, sp, #4
 373 002e FFF7FEFF 		bl	chVTResetI
 374              	.LVL22:
 375              	.L19:
 376              	.LBE42:
 377              		.loc 1 203 0
 378 0032 A369     		ldr	r3, [r4, #24]
 379              		.loc 1 204 0
 380 0034 586A     		ldr	r0, [r3, #36]
 381 0036 07B0     		add	sp, sp, #28
 382              		@ sp needed
 383 0038 30BD     		pop	{r4, r5, pc}
 384              	.LVL23:
 385              	.L17:
 386              		.loc 1 202 0
 387 003a FFF7FEFF 		bl	chSchGoSleepS
 388              	.LVL24:
 389 003e 40F20004 		movw	r4, #:lower16:.LANCHOR0
 390 0042 C0F20004 		movt	r4, #:upper16:.LANCHOR0
 391              		.loc 1 203 0
 392 0046 A369     		ldr	r3, [r4, #24]
 393              		.loc 1 204 0
 394 0048 586A     		ldr	r0, [r3, #36]
 395 004a 07B0     		add	sp, sp, #28
 396              		@ sp needed
ARM GAS  /tmp/ccbX2IiF.s 			page 8


 397 004c 30BD     		pop	{r4, r5, pc}
 398              		.cfi_endproc
 399              	.LFE11:
 400              		.size	chSchGoSleepTimeoutS, .-chSchGoSleepTimeoutS
 401 004e 00BF     		.section	.text.chSchWakeupS,"ax",%progbits
 402              		.align	2
 403              		.p2align 4,,15
 404              		.global	chSchWakeupS
 405              		.thumb
 406              		.thumb_func
 407              		.type	chSchWakeupS, %function
 408              	chSchWakeupS:
 409              	.LFB12:
 410              		.loc 1 225 0
 411              		.cfi_startproc
 412              		@ args = 0, pretend = 0, frame = 0
 413              		@ frame_needed = 0, uses_anonymous_args = 0
 414              		@ link register save eliminated.
 415              	.LVL25:
 416 0000 F0B4     		push	{r4, r5, r6, r7}
 417              		.cfi_def_cfa_offset 16
 418              		.cfi_offset 4, -16
 419              		.cfi_offset 5, -12
 420              		.cfi_offset 6, -8
 421              		.cfi_offset 7, -4
 422              		.loc 1 234 0
 423 0002 40F20007 		movw	r7, #:lower16:.LANCHOR0
 424 0006 C0F20007 		movt	r7, #:upper16:.LANCHOR0
 425 000a D7F818C0 		ldr	ip, [r7, #24]
 426 000e 8568     		ldr	r5, [r0, #8]
 427 0010 DCF80840 		ldr	r4, [ip, #8]
 428              		.loc 1 225 0
 429 0014 0646     		mov	r6, r0
 430              		.loc 1 234 0
 431 0016 A542     		cmp	r5, r4
 432              		.loc 1 229 0
 433 0018 4162     		str	r1, [r0, #36]
 434              		.loc 1 234 0
 435 001a 0DD8     		bhi	.L24
 436              	.LVL26:
 437              	.LBB43:
 438              	.LBB44:
 439              		.loc 1 92 0
 440 001c 0022     		movs	r2, #0
 441              		.loc 1 93 0
 442 001e 3B46     		mov	r3, r7
 443              		.loc 1 92 0
 444 0020 0277     		strb	r2, [r0, #28]
 445              	.LVL27:
 446              	.L26:
 447              		.loc 1 95 0
 448 0022 1B68     		ldr	r3, [r3]
 449              	.LVL28:
 450              		.loc 1 96 0
 451 0024 9A68     		ldr	r2, [r3, #8]
 452 0026 9542     		cmp	r5, r2
 453 0028 FBD9     		bls	.L26
ARM GAS  /tmp/ccbX2IiF.s 			page 9


 454              		.loc 1 99 0
 455 002a 5A68     		ldr	r2, [r3, #4]
 456              		.loc 1 98 0
 457 002c 3360     		str	r3, [r6]
 458              		.loc 1 99 0
 459 002e 7260     		str	r2, [r6, #4]
 460              		.loc 1 100 0
 461 0030 5E60     		str	r6, [r3, #4]
 462 0032 1660     		str	r6, [r2]
 463              	.LBE44:
 464              	.LBE43:
 465              		.loc 1 242 0
 466 0034 F0BC     		pop	{r4, r5, r6, r7}
 467 0036 7047     		bx	lr
 468              	.LVL29:
 469              	.L24:
 470              	.LBB45:
 471              	.LBB46:
 472              	.LBB47:
 473              		.loc 1 92 0
 474 0038 0023     		movs	r3, #0
 475 003a 8CF81C30 		strb	r3, [ip, #28]
 476              	.LVL30:
 477              		.loc 1 93 0
 478 003e 3B46     		mov	r3, r7
 479              	.LVL31:
 480              	.L29:
 481              		.loc 1 95 0
 482 0040 1B68     		ldr	r3, [r3]
 483              	.LVL32:
 484              		.loc 1 96 0
 485 0042 9A68     		ldr	r2, [r3, #8]
 486 0044 9442     		cmp	r4, r2
 487 0046 FBD9     		bls	.L29
 488              		.loc 1 99 0
 489 0048 5A68     		ldr	r2, [r3, #4]
 490              	.LBE47:
 491              	.LBE46:
 492              		.loc 1 239 0
 493 004a 0124     		movs	r4, #1
 494              	.LBB49:
 495              	.LBB48:
 496              		.loc 1 98 0
 497 004c CCF80030 		str	r3, [ip]
 498              		.loc 1 99 0
 499 0050 CCF80420 		str	r2, [ip, #4]
 500              		.loc 1 100 0
 501 0054 C3F804C0 		str	ip, [r3, #4]
 502 0058 C2F800C0 		str	ip, [r2]
 503              	.LBE48:
 504              	.LBE49:
 505              		.loc 1 239 0
 506 005c 3477     		strb	r4, [r6, #28]
 507              		.loc 1 240 0
 508 005e 3046     		mov	r0, r6
 509              	.LVL33:
 510              		.loc 1 238 0
ARM GAS  /tmp/ccbX2IiF.s 			page 10


 511 0060 BE61     		str	r6, [r7, #24]
 512              		.loc 1 240 0
 513 0062 6146     		mov	r1, ip
 514              	.LVL34:
 515              	.LBE45:
 516              		.loc 1 242 0
 517 0064 F0BC     		pop	{r4, r5, r6, r7}
 518              	.LVL35:
 519              	.LBB50:
 520              		.loc 1 240 0
 521 0066 FFF7FEBF 		b	_port_switch
 522              	.LVL36:
 523              	.LBE50:
 524              		.cfi_endproc
 525              	.LFE12:
 526              		.size	chSchWakeupS, .-chSchWakeupS
 527 006a 00BFAFF3 		.section	.text.chSchDoRescheduleBehind,"ax",%progbits
 527      0080
 528              		.align	2
 529              		.p2align 4,,15
 530              		.global	chSchDoRescheduleBehind
 531              		.thumb
 532              		.thumb_func
 533              		.type	chSchDoRescheduleBehind, %function
 534              	chSchDoRescheduleBehind:
 535              	.LFB14:
 536              		.loc 1 304 0
 537              		.cfi_startproc
 538              		@ args = 0, pretend = 0, frame = 0
 539              		@ frame_needed = 0, uses_anonymous_args = 0
 540              		@ link register save eliminated.
 541              		.loc 1 307 0
 542 0000 40F20002 		movw	r2, #:lower16:.LANCHOR0
 543 0004 C0F20002 		movt	r2, #:upper16:.LANCHOR0
 544              	.LBB51:
 545              	.LBB52:
 546              		.loc 2 60 0
 547 0008 1068     		ldr	r0, [r2]
 548              	.LBE52:
 549              	.LBE51:
 550              		.loc 1 304 0
 551 000a F0B4     		push	{r4, r5, r6, r7}
 552              		.cfi_def_cfa_offset 16
 553              		.cfi_offset 4, -16
 554              		.cfi_offset 5, -12
 555              		.cfi_offset 6, -8
 556              		.cfi_offset 7, -4
 557              	.LBB55:
 558              	.LBB53:
 559              		.loc 2 62 0
 560 000c 0368     		ldr	r3, [r0]
 561              	.LBE53:
 562              	.LBE55:
 563              		.loc 1 307 0
 564 000e 9569     		ldr	r5, [r2, #24]
 565              	.LVL37:
 566              		.loc 1 310 0
ARM GAS  /tmp/ccbX2IiF.s 			page 11


 567 0010 0127     		movs	r7, #1
 568              		.loc 1 312 0
 569 0012 1426     		movs	r6, #20
 570              	.LBB56:
 571              	.LBB57:
 572              		.loc 1 92 0
 573 0014 0021     		movs	r1, #0
 574 0016 AC68     		ldr	r4, [r5, #8]
 575              	.LBE57:
 576              	.LBE56:
 577              	.LBB61:
 578              	.LBB54:
 579              		.loc 2 62 0
 580 0018 1360     		str	r3, [r2]
 581 001a 5A60     		str	r2, [r3, #4]
 582              	.LBE54:
 583              	.LBE61:
 584              		.loc 1 310 0
 585 001c 0777     		strb	r7, [r0, #28]
 586              	.LBB62:
 587              	.LBB58:
 588              		.loc 1 92 0
 589 001e 0346     		mov	r3, r0
 590              	.LBE58:
 591              	.LBE62:
 592              		.loc 1 309 0
 593 0020 9061     		str	r0, [r2, #24]
 594              		.loc 1 312 0
 595 0022 EE77     		strb	r6, [r5, #31]
 596              	.LVL38:
 597              	.LBB63:
 598              	.LBB59:
 599              		.loc 1 92 0
 600 0024 2977     		strb	r1, [r5, #28]
 601              	.LVL39:
 602 0026 00E0     		b	.L33
 603              	.LVL40:
 604              	.L34:
 605 0028 1B68     		ldr	r3, [r3]
 606              	.LVL41:
 607              	.L33:
 608              		.loc 1 96 0
 609 002a 9A68     		ldr	r2, [r3, #8]
 610 002c A242     		cmp	r2, r4
 611 002e FBD2     		bcs	.L34
 612              		.loc 1 99 0
 613 0030 5A68     		ldr	r2, [r3, #4]
 614              	.LBE59:
 615              	.LBE63:
 616              		.loc 1 315 0
 617 0032 2946     		mov	r1, r5
 618              	.LBB64:
 619              	.LBB60:
 620              		.loc 1 98 0
 621 0034 2B60     		str	r3, [r5]
 622              		.loc 1 99 0
 623 0036 6A60     		str	r2, [r5, #4]
ARM GAS  /tmp/ccbX2IiF.s 			page 12


 624              		.loc 1 100 0
 625 0038 5D60     		str	r5, [r3, #4]
 626 003a 1560     		str	r5, [r2]
 627              	.LBE60:
 628              	.LBE64:
 629              		.loc 1 316 0
 630 003c F0BC     		pop	{r4, r5, r6, r7}
 631              	.LVL42:
 632              		.loc 1 315 0
 633 003e FFF7FEBF 		b	_port_switch
 634              	.LVL43:
 635              		.cfi_endproc
 636              	.LFE14:
 637              		.size	chSchDoRescheduleBehind, .-chSchDoRescheduleBehind
 638 0042 00BFAFF3 		.section	.text.chSchDoRescheduleAhead,"ax",%progbits
 638      0080AFF3 
 638      0080AFF3 
 638      0080
 639              		.align	2
 640              		.p2align 4,,15
 641              		.global	chSchDoRescheduleAhead
 642              		.thumb
 643              		.thumb_func
 644              		.type	chSchDoRescheduleAhead, %function
 645              	chSchDoRescheduleAhead:
 646              	.LFB15:
 647              		.loc 1 329 0
 648              		.cfi_startproc
 649              		@ args = 0, pretend = 0, frame = 0
 650              		@ frame_needed = 0, uses_anonymous_args = 0
 651              		@ link register save eliminated.
 652              		.loc 1 332 0
 653 0000 40F20002 		movw	r2, #:lower16:.LANCHOR0
 654 0004 C0F20002 		movt	r2, #:upper16:.LANCHOR0
 655              	.LBB65:
 656              	.LBB66:
 657              		.loc 2 60 0
 658 0008 1068     		ldr	r0, [r2]
 659              	.LBE66:
 660              	.LBE65:
 661              		.loc 1 329 0
 662 000a 70B4     		push	{r4, r5, r6}
 663              		.cfi_def_cfa_offset 12
 664              		.cfi_offset 4, -12
 665              		.cfi_offset 5, -8
 666              		.cfi_offset 6, -4
 667              	.LBB69:
 668              	.LBB67:
 669              		.loc 2 62 0
 670 000c 0368     		ldr	r3, [r0]
 671              	.LBE67:
 672              	.LBE69:
 673              		.loc 1 332 0
 674 000e 9569     		ldr	r5, [r2, #24]
 675              	.LVL44:
 676              		.loc 1 335 0
 677 0010 0126     		movs	r6, #1
ARM GAS  /tmp/ccbX2IiF.s 			page 13


 678              		.loc 1 337 0
 679 0012 0021     		movs	r1, #0
 680 0014 AC68     		ldr	r4, [r5, #8]
 681              	.LBB70:
 682              	.LBB68:
 683              		.loc 2 62 0
 684 0016 1360     		str	r3, [r2]
 685 0018 5A60     		str	r2, [r3, #4]
 686              	.LBE68:
 687              	.LBE70:
 688              		.loc 1 335 0
 689 001a 0677     		strb	r6, [r0, #28]
 690              		.loc 1 337 0
 691 001c 0346     		mov	r3, r0
 692              		.loc 1 334 0
 693 001e 9061     		str	r0, [r2, #24]
 694              		.loc 1 337 0
 695 0020 2977     		strb	r1, [r5, #28]
 696              	.LVL45:
 697 0022 00E0     		b	.L37
 698              	.LVL46:
 699              	.L38:
 700 0024 1B68     		ldr	r3, [r3]
 701              	.LVL47:
 702              	.L37:
 703              		.loc 1 341 0 discriminator 1
 704 0026 9A68     		ldr	r2, [r3, #8]
 705 0028 A242     		cmp	r2, r4
 706 002a FBD8     		bhi	.L38
 707              		.loc 1 344 0
 708 002c 5A68     		ldr	r2, [r3, #4]
 709              		.loc 1 347 0
 710 002e 2946     		mov	r1, r5
 711              		.loc 1 343 0
 712 0030 2B60     		str	r3, [r5]
 713              		.loc 1 344 0
 714 0032 6A60     		str	r2, [r5, #4]
 715              		.loc 1 345 0
 716 0034 5D60     		str	r5, [r3, #4]
 717 0036 1560     		str	r5, [r2]
 718              		.loc 1 348 0
 719 0038 70BC     		pop	{r4, r5, r6}
 720              	.LVL48:
 721              		.loc 1 347 0
 722 003a FFF7FEBF 		b	_port_switch
 723              	.LVL49:
 724              		.cfi_endproc
 725              	.LFE15:
 726              		.size	chSchDoRescheduleAhead, .-chSchDoRescheduleAhead
 727 003e 00BF     		.section	.text.chSchRescheduleS,"ax",%progbits
 728              		.align	2
 729              		.p2align 4,,15
 730              		.global	chSchRescheduleS
 731              		.thumb
 732              		.thumb_func
 733              		.type	chSchRescheduleS, %function
 734              	chSchRescheduleS:
ARM GAS  /tmp/ccbX2IiF.s 			page 14


 735              	.LFB13:
 736              		.loc 1 253 0
 737              		.cfi_startproc
 738              		@ args = 0, pretend = 0, frame = 0
 739              		@ frame_needed = 0, uses_anonymous_args = 0
 740              		@ link register save eliminated.
 741              		.loc 1 257 0
 742 0000 40F20003 		movw	r3, #:lower16:.LANCHOR0
 743 0004 C0F20003 		movt	r3, #:upper16:.LANCHOR0
 744 0008 1A68     		ldr	r2, [r3]
 745 000a 9B69     		ldr	r3, [r3, #24]
 746 000c 9268     		ldr	r2, [r2, #8]
 747 000e 9B68     		ldr	r3, [r3, #8]
 748 0010 9A42     		cmp	r2, r3
 749 0012 00D8     		bhi	.L41
 750 0014 7047     		bx	lr
 751              	.L41:
 752              		.loc 1 258 0
 753 0016 FFF7FEBF 		b	chSchDoRescheduleAhead
 754              	.LVL50:
 755              		.cfi_endproc
 756              	.LFE13:
 757              		.size	chSchRescheduleS, .-chSchRescheduleS
 758 001a 00BFAFF3 		.section	.text.chSchDoReschedule,"ax",%progbits
 758      0080
 759              		.align	2
 760              		.p2align 4,,15
 761              		.global	chSchDoReschedule
 762              		.thumb
 763              		.thumb_func
 764              		.type	chSchDoReschedule, %function
 765              	chSchDoReschedule:
 766              	.LFB16:
 767              		.loc 1 362 0
 768              		.cfi_startproc
 769              		@ args = 0, pretend = 0, frame = 0
 770              		@ frame_needed = 0, uses_anonymous_args = 0
 771              		@ link register save eliminated.
 772              		.loc 1 367 0
 773 0000 40F20003 		movw	r3, #:lower16:.LANCHOR0
 774 0004 C0F20003 		movt	r3, #:upper16:.LANCHOR0
 775 0008 9B69     		ldr	r3, [r3, #24]
 776 000a DB7F     		ldrb	r3, [r3, #31]	@ zero_extendqisi2
 777 000c 0BB1     		cbz	r3, .L44
 778              		.loc 1 375 0
 779 000e FFF7FEBF 		b	chSchDoRescheduleAhead
 780              	.LVL51:
 781              	.L44:
 782              		.loc 1 370 0
 783 0012 FFF7FEBF 		b	chSchDoRescheduleBehind
 784              	.LVL52:
 785              		.cfi_endproc
 786              	.LFE16:
 787              		.size	chSchDoReschedule, .-chSchDoReschedule
 788              		.global	rlist
 789 0016 00BFAFF3 		.section	.bss.rlist,"aw",%nobits
 789      0080AFF3 
ARM GAS  /tmp/ccbX2IiF.s 			page 15


 789      0080
 790              		.align	2
 791              		.set	.LANCHOR0,. + 0
 792              		.type	rlist, %object
 793              		.size	rlist, 28
 794              	rlist:
 795 0000 00000000 		.space	28
 795      00000000 
 795      00000000 
 795      00000000 
 795      00000000 
 796              		.text
 797              	.Letext0:
 798              		.file 3 "/usr/include/newlib/machine/_default_types.h"
 799              		.file 4 "/usr/include/newlib/stdint.h"
 800              		.file 5 "../../../../ChibiOS_2.6.2/os/ports/GCC/ARMCMx/chtypes.h"
 801              		.file 6 "../../../../ChibiOS_2.6.2/os/kernel/include/chlists.h"
 802              		.file 7 "../../../../ChibiOS_2.6.2/os/kernel/include/chthreads.h"
 803              		.file 8 "../../../../ChibiOS_2.6.2/os/ports/GCC/ARMCMx/chcore_v7m.h"
 804              		.file 9 "../../../../ChibiOS_2.6.2/os/kernel/include/chvt.h"
 805              		.file 10 "../../../../ChibiOS_2.6.2/os/kernel/include/chschd.h"
 806              		.file 11 "../../../../ChibiOS_2.6.2/os/kernel/include/chsem.h"
 807              		.file 12 "../../../../ChibiOS_2.6.2/os/kernel/include/chmtx.h"