ARM GAS  /tmp/ccl4LSH7.s 			page 1


   1              		.syntax unified
   2              		.cpu cortex-m3
   3              		.fpu softvfp
   4              		.eabi_attribute 20, 1
   5              		.eabi_attribute 21, 1
   6              		.eabi_attribute 23, 3
   7              		.eabi_attribute 24, 1
   8              		.eabi_attribute 25, 1
   9              		.eabi_attribute 26, 1
  10              		.eabi_attribute 30, 2
  11              		.eabi_attribute 34, 1
  12              		.eabi_attribute 18, 4
  13              		.thumb
  14              		.file	"chsys.c"
  15              		.text
  16              	.Ltext0:
  17              		.cfi_sections	.debug_frame
  18              		.section	.text._idle_thread,"ax",%progbits
  19              		.align	2
  20              		.p2align 4,,15
  21              		.global	_idle_thread
  22              		.thumb
  23              		.thumb_func
  24              		.type	_idle_thread, %function
  25              	_idle_thread:
  26              	.LFB7:
  27              		.file 1 "../../../../ChibiOS_2.6.2/os/kernel/src/chsys.c"
  28              		.loc 1 61 0
  29              		.cfi_startproc
  30              		@ Volatile: function does not return.
  31              		@ args = 0, pretend = 0, frame = 0
  32              		@ frame_needed = 0, uses_anonymous_args = 0
  33              		@ link register save eliminated.
  34              	.LVL0:
  35              		.loc 1 64 0
  36 0000 40F20003 		movw	r3, #:lower16:rlist
  37 0004 C0F20003 		movt	r3, #:upper16:rlist
  38 0008 9A69     		ldr	r2, [r3, #24]
  39 000a 40F20003 		movw	r3, #:lower16:.LC0
  40 000e C0F20003 		movt	r3, #:upper16:.LC0
  41 0012 9361     		str	r3, [r2, #24]
  42              	.L2:
  43 0014 FEE7     		b	.L2
  44              		.cfi_endproc
  45              	.LFE7:
  46              		.size	_idle_thread, .-_idle_thread
  47 0016 00BFAFF3 		.section	.text.chSysInit,"ax",%progbits
  47      0080AFF3 
  47      0080
  48              		.align	2
  49              		.p2align 4,,15
  50              		.global	chSysInit
  51              		.thumb
  52              		.thumb_func
  53              		.type	chSysInit, %function
  54              	chSysInit:
  55              	.LFB8:
ARM GAS  /tmp/ccl4LSH7.s 			page 2


  56              		.loc 1 84 0
  57              		.cfi_startproc
  58              		@ args = 0, pretend = 0, frame = 0
  59              		@ frame_needed = 0, uses_anonymous_args = 0
  60 0000 10B5     		push	{r4, lr}
  61              		.cfi_def_cfa_offset 8
  62              		.cfi_offset 4, -8
  63              		.cfi_offset 14, -4
  64 0002 82B0     		sub	sp, sp, #8
  65              		.cfi_def_cfa_offset 16
  66              		.loc 1 90 0
  67 0004 FFF7FEFF 		bl	_port_init
  68              	.LVL1:
  69              		.loc 1 91 0
  70 0008 FFF7FEFF 		bl	_scheduler_init
  71              	.LVL2:
  72              		.loc 1 92 0
  73 000c FFF7FEFF 		bl	_vt_init
  74              	.LVL3:
  75              		.loc 1 94 0
  76 0010 FFF7FEFF 		bl	_core_init
  77              	.LVL4:
  78              		.loc 1 97 0
  79 0014 FFF7FEFF 		bl	_heap_init
  80              	.LVL5:
  81              		.loc 1 104 0
  82 0018 40F20000 		movw	r0, #:lower16:.LANCHOR0
  83 001c 4021     		movs	r1, #64
  84 001e C0F20000 		movt	r0, #:upper16:.LANCHOR0
  85 0022 FFF7FEFF 		bl	_thread_init
  86              	.LVL6:
  87 0026 40F20003 		movw	r3, #:lower16:rlist
  88 002a C0F20003 		movt	r3, #:upper16:rlist
  89              		.loc 1 105 0
  90 002e 0122     		movs	r2, #1
  91              		.loc 1 104 0
  92 0030 9861     		str	r0, [r3, #24]
  93              		.loc 1 105 0
  94 0032 0277     		strb	r2, [r0, #28]
  95              	.LBB2:
  96              		.loc 1 111 0
  97 0034 0023     		movs	r3, #0
  98              	@ 111 "../../../../ChibiOS_2.6.2/os/kernel/src/chsys.c" 1
  99 0036 83F31188 		msr     BASEPRI, r3                    
 100 003a 62B6     		cpsie   i
 101              	@ 0 "" 2
 102              		.thumb
 103              	.LBE2:
 104              		.loc 1 115 0
 105 003c 40F20003 		movw	r3, #:lower16:rlist
 106 0040 C0F20003 		movt	r3, #:upper16:rlist
 107 0044 9C69     		ldr	r4, [r3, #24]
 108 0046 40F20002 		movw	r2, #:lower16:ch_debug
 109 004a C0F20002 		movt	r2, #:upper16:ch_debug
 110              		.loc 1 121 0
 111 004e 0021     		movs	r1, #0
 112 0050 40F20000 		movw	r0, #:lower16:.LANCHOR1
ARM GAS  /tmp/ccl4LSH7.s 			page 3


 113 0054 40F20003 		movw	r3, #:lower16:_idle_thread
 114              		.loc 1 115 0
 115 0058 A261     		str	r2, [r4, #24]
 116              		.loc 1 121 0
 117 005a C0F20003 		movt	r3, #:upper16:_idle_thread
 118 005e 0091     		str	r1, [sp]
 119 0060 0122     		movs	r2, #1
 120 0062 C021     		movs	r1, #192
 121 0064 C0F20000 		movt	r0, #:upper16:.LANCHOR1
 122 0068 FFF7FEFF 		bl	chThdCreateStatic
 123              	.LVL7:
 124              		.loc 1 124 0
 125 006c 02B0     		add	sp, sp, #8
 126              		@ sp needed
 127 006e 10BD     		pop	{r4, pc}
 128              		.cfi_endproc
 129              	.LFE8:
 130              		.size	chSysInit, .-chSysInit
 131              		.section	.text.chSysTimerHandlerI,"ax",%progbits
 132              		.align	2
 133              		.p2align 4,,15
 134              		.global	chSysTimerHandlerI
 135              		.thumb
 136              		.thumb_func
 137              		.type	chSysTimerHandlerI, %function
 138              	chSysTimerHandlerI:
 139              	.LFB9:
 140              		.loc 1 137 0
 141              		.cfi_startproc
 142              		@ args = 0, pretend = 0, frame = 0
 143              		@ frame_needed = 0, uses_anonymous_args = 0
 144 0000 70B5     		push	{r4, r5, r6, lr}
 145              		.cfi_def_cfa_offset 16
 146              		.cfi_offset 4, -16
 147              		.cfi_offset 5, -12
 148              		.cfi_offset 6, -8
 149              		.cfi_offset 14, -4
 150              		.loc 1 143 0
 151 0002 40F20003 		movw	r3, #:lower16:rlist
 152 0006 C0F20003 		movt	r3, #:upper16:rlist
 153 000a 9B69     		ldr	r3, [r3, #24]
 154 000c DA7F     		ldrb	r2, [r3, #31]	@ zero_extendqisi2
 155 000e 0AB1     		cbz	r2, .L6
 156              		.loc 1 145 0
 157 0010 013A     		subs	r2, r2, #1
 158 0012 DA77     		strb	r2, [r3, #31]
 159              	.L6:
 160              		.loc 1 148 0
 161 0014 1A6A     		ldr	r2, [r3, #32]
 162              		.loc 1 150 0
 163 0016 40F20001 		movw	r1, #:lower16:vtlist
 164              		.loc 1 148 0
 165 001a 0132     		adds	r2, r2, #1
 166              		.loc 1 150 0
 167 001c C0F20001 		movt	r1, #:upper16:vtlist
 168              		.loc 1 148 0
 169 0020 1A62     		str	r2, [r3, #32]
ARM GAS  /tmp/ccl4LSH7.s 			page 4


 170              		.loc 1 150 0
 171 0022 CB68     		ldr	r3, [r1, #12]
 172 0024 0A68     		ldr	r2, [r1]
 173 0026 0133     		adds	r3, r3, #1
 174 0028 8A42     		cmp	r2, r1
 175 002a CB60     		str	r3, [r1, #12]
 176 002c 19D0     		beq	.L5
 177              	.LBB3:
 178              		.loc 1 150 0 is_stmt 0 discriminator 1
 179 002e 9668     		ldr	r6, [r2, #8]
 180 0030 013E     		subs	r6, r6, #1
 181 0032 9660     		str	r6, [r2, #8]
 182              	.LVL8:
 183 0034 AEB9     		cbnz	r6, .L5
 184              		.loc 1 150 0
 185 0036 0D46     		mov	r5, r1
 186              	.L9:
 187              	.LBB4:
 188              		.loc 1 150 0 discriminator 2
 189 0038 1068     		ldr	r0, [r2]
 190 003a D468     		ldr	r4, [r2, #12]
 191              	.LVL9:
 192 003c 0860     		str	r0, [r1]
 193 003e D660     		str	r6, [r2, #12]
 194              	.LBB5:
 195 0040 0023     		movs	r3, #0
 196              	.LBE5:
 197 0042 4160     		str	r1, [r0, #4]
 198              	.LBB6:
 199              	@ 150 "../../../../ChibiOS_2.6.2/os/kernel/src/chsys.c" 1
 200 0044 83F31188 		msr     BASEPRI, r3
 201              	@ 0 "" 2
 202              		.thumb
 203              	.LBE6:
 204 0048 1069     		ldr	r0, [r2, #16]
 205 004a A047     		blx	r4
 206              	.LVL10:
 207              	.LBB7:
 208 004c 2023     		movs	r3, #32
 209              	@ 150 "../../../../ChibiOS_2.6.2/os/kernel/src/chsys.c" 1
 210 004e 83F31188 		msr     BASEPRI, r3
 211              	@ 0 "" 2
 212              		.thumb
 213              	.LBE7:
 214              	.LBE4:
 215 0052 2A68     		ldr	r2, [r5]
 216              	.LVL11:
 217 0054 40F20001 		movw	r1, #:lower16:vtlist
 218 0058 9368     		ldr	r3, [r2, #8]
 219 005a C0F20001 		movt	r1, #:upper16:vtlist
 220 005e 002B     		cmp	r3, #0
 221 0060 EAD0     		beq	.L9
 222              	.LVL12:
 223              	.L5:
 224 0062 70BD     		pop	{r4, r5, r6, pc}
 225              	.LBE3:
 226              		.cfi_endproc
ARM GAS  /tmp/ccl4LSH7.s 			page 5


 227              	.LFE9:
 228              		.size	chSysTimerHandlerI, .-chSysTimerHandlerI
 229              		.global	_idle_thread_wa
 230 0064 AFF30080 		.section	.rodata.str1.4,"aMS",%progbits,1
 230      AFF30080 
 230      AFF30080 
 231              		.align	2
 232              	.LC0:
 233 0000 69646C65 		.ascii	"idle\000"
 233      00
 234 0005 000000   		.section	.bss.mainthread.4794,"aw",%nobits
 235              		.align	2
 236              		.set	.LANCHOR0,. + 0
 237              		.type	mainthread.4794, %object
 238              		.size	mainthread.4794, 72
 239              	mainthread.4794:
 240 0000 00000000 		.space	72
 240      00000000 
 240      00000000 
 240      00000000 
 240      00000000 
 241              		.section	.bss._idle_thread_wa,"aw",%nobits
 242              		.align	3
 243              		.set	.LANCHOR1,. + 0
 244              		.type	_idle_thread_wa, %object
 245              		.size	_idle_thread_wa, 192
 246              	_idle_thread_wa:
 247 0000 00000000 		.space	192
 247      00000000 
 247      00000000 
 247      00000000 
 247      00000000 
 248              		.text
 249              	.Letext0:
 250              		.file 2 "/usr/lib/gcc/arm-none-eabi/4.8.2/include/stddef.h"
 251              		.file 3 "/usr/include/newlib/machine/_default_types.h"
 252              		.file 4 "/usr/include/newlib/stdint.h"
 253              		.file 5 "../../../../ChibiOS_2.6.2/os/ports/GCC/ARMCMx/chtypes.h"
 254              		.file 6 "../../../../ChibiOS_2.6.2/os/kernel/include/chlists.h"
 255              		.file 7 "../../../../ChibiOS_2.6.2/os/kernel/include/chthreads.h"
 256              		.file 8 "../../../../ChibiOS_2.6.2/os/ports/GCC/ARMCMx/chcore_v7m.h"
 257              		.file 9 "../../../../ChibiOS_2.6.2/os/kernel/include/chvt.h"
 258              		.file 10 "../../../../ChibiOS_2.6.2/os/kernel/include/chschd.h"
 259              		.file 11 "../../../../ChibiOS_2.6.2/os/kernel/include/chmtx.h"
 260              		.file 12 "../../../../ChibiOS_2.6.2/os/kernel/include/chregistry.h"
 261              		.file 13 "../../../../ChibiOS_2.6.2/os/kernel/include/chmemcore.h"
 262              		.file 14 "../../../../ChibiOS_2.6.2/os/kernel/include/chheap.h"