ARM GAS  /tmp/ccpMS15r.s 			page 1


   1              		.syntax unified
   2              		.cpu cortex-m3
   3              		.fpu softvfp
   4              		.eabi_attribute 20, 1
   5              		.eabi_attribute 21, 1
   6              		.eabi_attribute 23, 3
   7              		.eabi_attribute 24, 1
   8              		.eabi_attribute 25, 1
   9              		.eabi_attribute 26, 1
  10              		.eabi_attribute 30, 2
  11              		.eabi_attribute 34, 1
  12              		.eabi_attribute 18, 4
  13              		.thumb
  14              		.file	"chvt.c"
  15              		.text
  16              	.Ltext0:
  17              		.cfi_sections	.debug_frame
  18              		.section	.text._vt_init,"ax",%progbits
  19              		.align	2
  20              		.p2align 4,,15
  21              		.global	_vt_init
  22              		.thumb
  23              		.thumb_func
  24              		.type	_vt_init, %function
  25              	_vt_init:
  26              	.LFB7:
  27              		.file 1 "../../../../ChibiOS_2.6.2/os/kernel/src/chvt.c"
  28              		.loc 1 50 0
  29              		.cfi_startproc
  30              		@ args = 0, pretend = 0, frame = 0
  31              		@ frame_needed = 0, uses_anonymous_args = 0
  32              		@ link register save eliminated.
  33              		.loc 1 52 0
  34 0000 40F20003 		movw	r3, #:lower16:.LANCHOR0
  35 0004 C0F20003 		movt	r3, #:upper16:.LANCHOR0
  36              		.loc 1 53 0
  37 0008 4FF0FF31 		mov	r1, #-1
  38              		.loc 1 54 0
  39 000c 0022     		movs	r2, #0
  40              		.loc 1 52 0
  41 000e 5B60     		str	r3, [r3, #4]
  42 0010 1B60     		str	r3, [r3]
  43              		.loc 1 53 0
  44 0012 9960     		str	r1, [r3, #8]
  45              		.loc 1 54 0
  46 0014 DA60     		str	r2, [r3, #12]
  47 0016 7047     		bx	lr
  48              		.cfi_endproc
  49              	.LFE7:
  50              		.size	_vt_init, .-_vt_init
  51 0018 AFF30080 		.section	.text.chVTSetI,"ax",%progbits
  51      AFF30080 
  52              		.align	2
  53              		.p2align 4,,15
  54              		.global	chVTSetI
  55              		.thumb
  56              		.thumb_func
ARM GAS  /tmp/ccpMS15r.s 			page 2


  57              		.type	chVTSetI, %function
  58              	chVTSetI:
  59              	.LFB8:
  60              		.loc 1 76 0
  61              		.cfi_startproc
  62              		@ args = 0, pretend = 0, frame = 0
  63              		@ frame_needed = 0, uses_anonymous_args = 0
  64              		@ link register save eliminated.
  65              	.LVL0:
  66 0000 70B4     		push	{r4, r5, r6}
  67              		.cfi_def_cfa_offset 12
  68              		.cfi_offset 4, -12
  69              		.cfi_offset 5, -8
  70              		.cfi_offset 6, -4
  71              		.loc 1 85 0
  72 0002 40F20006 		movw	r6, #:lower16:.LANCHOR0
  73 0006 C0F20006 		movt	r6, #:upper16:.LANCHOR0
  74 000a 3468     		ldr	r4, [r6]
  75              	.LVL1:
  76              		.loc 1 86 0
  77 000c A568     		ldr	r5, [r4, #8]
  78              		.loc 1 83 0
  79 000e 0361     		str	r3, [r0, #16]
  80              		.loc 1 86 0
  81 0010 A942     		cmp	r1, r5
  82              		.loc 1 84 0
  83 0012 C260     		str	r2, [r0, #12]
  84              		.loc 1 86 0
  85 0014 04D9     		bls	.L3
  86              	.L4:
  87              		.loc 1 88 0
  88 0016 2468     		ldr	r4, [r4]
  89              	.LVL2:
  90              		.loc 1 87 0
  91 0018 491B     		subs	r1, r1, r5
  92              	.LVL3:
  93              		.loc 1 86 0
  94 001a A568     		ldr	r5, [r4, #8]
  95 001c 8D42     		cmp	r5, r1
  96 001e FAD3     		bcc	.L4
  97              	.L3:
  98              		.loc 1 91 0
  99 0020 6368     		ldr	r3, [r4, #4]
 100              	.LVL4:
 101              		.loc 1 94 0
 102 0022 B442     		cmp	r4, r6
 103              		.loc 1 91 0
 104 0024 0460     		str	r4, [r0]
 105 0026 4360     		str	r3, [r0, #4]
 106              		.loc 1 92 0
 107 0028 6060     		str	r0, [r4, #4]
 108 002a 1860     		str	r0, [r3]
 109              		.loc 1 93 0
 110 002c 8160     		str	r1, [r0, #8]
 111              		.loc 1 95 0
 112 002e 1EBF     		ittt	ne
 113 0030 A368     		ldrne	r3, [r4, #8]
ARM GAS  /tmp/ccpMS15r.s 			page 3


 114 0032 C1EB0301 		rsbne	r1, r1, r3
 115              	.LVL5:
 116 0036 A160     		strne	r1, [r4, #8]
 117              	.LVL6:
 118              		.loc 1 96 0
 119 0038 70BC     		pop	{r4, r5, r6}
 120              	.LVL7:
 121 003a 7047     		bx	lr
 122              		.cfi_endproc
 123              	.LFE8:
 124              		.size	chVTSetI, .-chVTSetI
 125 003c AFF30080 		.section	.text.chVTResetI,"ax",%progbits
 126              		.align	2
 127              		.p2align 4,,15
 128              		.global	chVTResetI
 129              		.thumb
 130              		.thumb_func
 131              		.type	chVTResetI, %function
 132              	chVTResetI:
 133              	.LFB9:
 134              		.loc 1 106 0
 135              		.cfi_startproc
 136              		@ args = 0, pretend = 0, frame = 0
 137              		@ frame_needed = 0, uses_anonymous_args = 0
 138              		@ link register save eliminated.
 139              	.LVL8:
 140              		.loc 1 114 0
 141 0000 0368     		ldr	r3, [r0]
 142 0002 40F20002 		movw	r2, #:lower16:.LANCHOR0
 143 0006 C0F20002 		movt	r2, #:upper16:.LANCHOR0
 144 000a 9342     		cmp	r3, r2
 145              		.loc 1 115 0
 146 000c 1FBF     		itttt	ne
 147 000e 9968     		ldrne	r1, [r3, #8]
 148 0010 8268     		ldrne	r2, [r0, #8]
 149 0012 5218     		addne	r2, r2, r1
 150 0014 9A60     		strne	r2, [r3, #8]
 151              		.loc 1 116 0
 152 0016 4268     		ldr	r2, [r0, #4]
 153              		.loc 1 118 0
 154 0018 0021     		movs	r1, #0
 155              		.loc 1 116 0
 156 001a 1360     		str	r3, [r2]
 157              		.loc 1 117 0
 158 001c 0368     		ldr	r3, [r0]
 159 001e 5A60     		str	r2, [r3, #4]
 160              		.loc 1 118 0
 161 0020 C160     		str	r1, [r0, #12]
 162 0022 7047     		bx	lr
 163              		.cfi_endproc
 164              	.LFE9:
 165              		.size	chVTResetI, .-chVTResetI
 166              		.global	vtlist
 167 0024 AFF30080 		.section	.bss.vtlist,"aw",%nobits
 167      AFF30080 
 167      AFF30080 
 168              		.align	2
ARM GAS  /tmp/ccpMS15r.s 			page 4


 169              		.set	.LANCHOR0,. + 0
 170              		.type	vtlist, %object
 171              		.size	vtlist, 16
 172              	vtlist:
 173 0000 00000000 		.space	16
 173      00000000 
 173      00000000 
 173      00000000 
 174              		.text
 175              	.Letext0:
 176              		.file 2 "/usr/include/newlib/machine/_default_types.h"
 177              		.file 3 "/usr/include/newlib/stdint.h"
 178              		.file 4 "../../../../ChibiOS_2.6.2/os/ports/GCC/ARMCMx/chtypes.h"
 179              		.file 5 "../../../../ChibiOS_2.6.2/os/kernel/include/chvt.h"