ARM GAS  /tmp/ccDV4MzX.s 			page 1


   1              		.syntax unified
   2              		.cpu cortex-m3
   3              		.fpu softvfp
   4              		.eabi_attribute 20, 1
   5              		.eabi_attribute 21, 1
   6              		.eabi_attribute 23, 3
   7              		.eabi_attribute 24, 1
   8              		.eabi_attribute 25, 1
   9              		.eabi_attribute 26, 1
  10              		.eabi_attribute 30, 2
  11              		.eabi_attribute 34, 1
  12              		.eabi_attribute 18, 4
  13              		.thumb
  14              		.file	"ext.c"
  15              		.text
  16              	.Ltext0:
  17              		.cfi_sections	.debug_frame
  18              		.section	.text.extInit,"ax",%progbits
  19              		.align	2
  20              		.p2align 4,,15
  21              		.global	extInit
  22              		.thumb
  23              		.thumb_func
  24              		.type	extInit, %function
  25              	extInit:
  26              	.LFB63:
  27              		.file 1 "../../../../ChibiOS_2.6.2/os/hal/src/ext.c"
  28              		.loc 1 68 0
  29              		.cfi_startproc
  30              		@ args = 0, pretend = 0, frame = 0
  31              		@ frame_needed = 0, uses_anonymous_args = 0
  32              		@ link register save eliminated.
  33              		.loc 1 70 0
  34 0000 FFF7FEBF 		b	ext_lld_init
  35              	.LVL0:
  36              		.cfi_endproc
  37              	.LFE63:
  38              		.size	extInit, .-extInit
  39 0004 AFF30080 		.section	.text.extObjectInit,"ax",%progbits
  39      AFF30080 
  39      AFF30080 
  40              		.align	2
  41              		.p2align 4,,15
  42              		.global	extObjectInit
  43              		.thumb
  44              		.thumb_func
  45              		.type	extObjectInit, %function
  46              	extObjectInit:
  47              	.LFB64:
  48              		.loc 1 80 0
  49              		.cfi_startproc
  50              		@ args = 0, pretend = 0, frame = 0
  51              		@ frame_needed = 0, uses_anonymous_args = 0
  52              		@ link register save eliminated.
  53              	.LVL1:
  54              		.loc 1 82 0
  55 0000 0122     		movs	r2, #1
ARM GAS  /tmp/ccDV4MzX.s 			page 2


  56              		.loc 1 83 0
  57 0002 0023     		movs	r3, #0
  58              		.loc 1 82 0
  59 0004 0270     		strb	r2, [r0]
  60              		.loc 1 83 0
  61 0006 4360     		str	r3, [r0, #4]
  62 0008 7047     		bx	lr
  63              		.cfi_endproc
  64              	.LFE64:
  65              		.size	extObjectInit, .-extObjectInit
  66 000a 00BFAFF3 		.section	.text.extStart,"ax",%progbits
  66      0080
  67              		.align	2
  68              		.p2align 4,,15
  69              		.global	extStart
  70              		.thumb
  71              		.thumb_func
  72              		.type	extStart, %function
  73              	extStart:
  74              	.LFB65:
  75              		.loc 1 96 0
  76              		.cfi_startproc
  77              		@ args = 0, pretend = 0, frame = 0
  78              		@ frame_needed = 0, uses_anonymous_args = 0
  79              	.LVL2:
  80 0000 10B5     		push	{r4, lr}
  81              		.cfi_def_cfa_offset 8
  82              		.cfi_offset 4, -8
  83              		.cfi_offset 14, -4
  84              	.LBB2:
  85              		.loc 1 100 0
  86 0002 2023     		movs	r3, #32
  87              	.LBE2:
  88              		.loc 1 96 0
  89 0004 0446     		mov	r4, r0
  90              	.LBB3:
  91              		.loc 1 100 0
  92              	@ 100 "../../../../ChibiOS_2.6.2/os/hal/src/ext.c" 1
  93 0006 83F31188 		msr     BASEPRI, r3
  94              	@ 0 "" 2
  95              		.thumb
  96              	.LBE3:
  97              		.loc 1 103 0
  98 000a 4160     		str	r1, [r0, #4]
  99              		.loc 1 104 0
 100 000c FFF7FEFF 		bl	ext_lld_start
 101              	.LVL3:
 102              		.loc 1 105 0
 103 0010 0223     		movs	r3, #2
 104 0012 2370     		strb	r3, [r4]
 105              	.LBB4:
 106              		.loc 1 106 0
 107 0014 0023     		movs	r3, #0
 108              	@ 106 "../../../../ChibiOS_2.6.2/os/hal/src/ext.c" 1
 109 0016 83F31188 		msr     BASEPRI, r3
 110              	@ 0 "" 2
 111              		.thumb
ARM GAS  /tmp/ccDV4MzX.s 			page 3


 112 001a 10BD     		pop	{r4, pc}
 113              	.LBE4:
 114              		.cfi_endproc
 115              	.LFE65:
 116              		.size	extStart, .-extStart
 117 001c AFF30080 		.section	.text.extStop,"ax",%progbits
 118              		.align	2
 119              		.p2align 4,,15
 120              		.global	extStop
 121              		.thumb
 122              		.thumb_func
 123              		.type	extStop, %function
 124              	extStop:
 125              	.LFB66:
 126              		.loc 1 116 0
 127              		.cfi_startproc
 128              		@ args = 0, pretend = 0, frame = 0
 129              		@ frame_needed = 0, uses_anonymous_args = 0
 130              	.LVL4:
 131 0000 10B5     		push	{r4, lr}
 132              		.cfi_def_cfa_offset 8
 133              		.cfi_offset 4, -8
 134              		.cfi_offset 14, -4
 135              	.LBB5:
 136              		.loc 1 120 0
 137 0002 2023     		movs	r3, #32
 138              	.LBE5:
 139              		.loc 1 116 0
 140 0004 0446     		mov	r4, r0
 141              	.LBB6:
 142              		.loc 1 120 0
 143              	@ 120 "../../../../ChibiOS_2.6.2/os/hal/src/ext.c" 1
 144 0006 83F31188 		msr     BASEPRI, r3
 145              	@ 0 "" 2
 146              		.thumb
 147              	.LBE6:
 148              		.loc 1 123 0
 149 000a FFF7FEFF 		bl	ext_lld_stop
 150              	.LVL5:
 151              		.loc 1 124 0
 152 000e 0123     		movs	r3, #1
 153 0010 2370     		strb	r3, [r4]
 154              	.LBB7:
 155              		.loc 1 125 0
 156 0012 0023     		movs	r3, #0
 157              	@ 125 "../../../../ChibiOS_2.6.2/os/hal/src/ext.c" 1
 158 0014 83F31188 		msr     BASEPRI, r3
 159              	@ 0 "" 2
 160              		.thumb
 161 0018 10BD     		pop	{r4, pc}
 162              	.LBE7:
 163              		.cfi_endproc
 164              	.LFE66:
 165              		.size	extStop, .-extStop
 166 001a 00BFAFF3 		.section	.text.extChannelEnable,"ax",%progbits
 166      0080
 167              		.align	2
ARM GAS  /tmp/ccDV4MzX.s 			page 4


 168              		.p2align 4,,15
 169              		.global	extChannelEnable
 170              		.thumb
 171              		.thumb_func
 172              		.type	extChannelEnable, %function
 173              	extChannelEnable:
 174              	.LFB67:
 175              		.loc 1 137 0
 176              		.cfi_startproc
 177              		@ args = 0, pretend = 0, frame = 0
 178              		@ frame_needed = 0, uses_anonymous_args = 0
 179              	.LVL6:
 180 0000 08B5     		push	{r3, lr}
 181              		.cfi_def_cfa_offset 8
 182              		.cfi_offset 3, -8
 183              		.cfi_offset 14, -4
 184              	.LBB8:
 185              		.loc 1 142 0
 186 0002 2023     		movs	r3, #32
 187              	@ 142 "../../../../ChibiOS_2.6.2/os/hal/src/ext.c" 1
 188 0004 83F31188 		msr     BASEPRI, r3
 189              	@ 0 "" 2
 190              		.thumb
 191              	.LBE8:
 192              		.loc 1 147 0
 193 0008 FFF7FEFF 		bl	ext_lld_channel_enable
 194              	.LVL7:
 195              	.LBB9:
 196              		.loc 1 148 0
 197 000c 0023     		movs	r3, #0
 198              	@ 148 "../../../../ChibiOS_2.6.2/os/hal/src/ext.c" 1
 199 000e 83F31188 		msr     BASEPRI, r3
 200              	@ 0 "" 2
 201              		.thumb
 202 0012 08BD     		pop	{r3, pc}
 203              	.LBE9:
 204              		.cfi_endproc
 205              	.LFE67:
 206              		.size	extChannelEnable, .-extChannelEnable
 207 0014 AFF30080 		.section	.text.extChannelDisable,"ax",%progbits
 207      AFF30080 
 207      AFF30080 
 208              		.align	2
 209              		.p2align 4,,15
 210              		.global	extChannelDisable
 211              		.thumb
 212              		.thumb_func
 213              		.type	extChannelDisable, %function
 214              	extChannelDisable:
 215              	.LFB68:
 216              		.loc 1 160 0
 217              		.cfi_startproc
 218              		@ args = 0, pretend = 0, frame = 0
 219              		@ frame_needed = 0, uses_anonymous_args = 0
 220              	.LVL8:
 221 0000 08B5     		push	{r3, lr}
 222              		.cfi_def_cfa_offset 8
ARM GAS  /tmp/ccDV4MzX.s 			page 5


 223              		.cfi_offset 3, -8
 224              		.cfi_offset 14, -4
 225              	.LBB10:
 226              		.loc 1 165 0
 227 0002 2023     		movs	r3, #32
 228              	@ 165 "../../../../ChibiOS_2.6.2/os/hal/src/ext.c" 1
 229 0004 83F31188 		msr     BASEPRI, r3
 230              	@ 0 "" 2
 231              		.thumb
 232              	.LBE10:
 233              		.loc 1 170 0
 234 0008 FFF7FEFF 		bl	ext_lld_channel_disable
 235              	.LVL9:
 236              	.LBB11:
 237              		.loc 1 171 0
 238 000c 0023     		movs	r3, #0
 239              	@ 171 "../../../../ChibiOS_2.6.2/os/hal/src/ext.c" 1
 240 000e 83F31188 		msr     BASEPRI, r3
 241              	@ 0 "" 2
 242              		.thumb
 243 0012 08BD     		pop	{r3, pc}
 244              	.LBE11:
 245              		.cfi_endproc
 246              	.LFE68:
 247              		.size	extChannelDisable, .-extChannelDisable
 248 0014 AFF30080 		.section	.text.extSetChannelModeI,"ax",%progbits
 248      AFF30080 
 248      AFF30080 
 249              		.align	2
 250              		.p2align 4,,15
 251              		.global	extSetChannelModeI
 252              		.thumb
 253              		.thumb_func
 254              		.type	extSetChannelModeI, %function
 255              	extSetChannelModeI:
 256              	.LFB69:
 257              		.loc 1 193 0
 258              		.cfi_startproc
 259              		@ args = 0, pretend = 0, frame = 0
 260              		@ frame_needed = 0, uses_anonymous_args = 0
 261              		@ link register save eliminated.
 262              	.LVL10:
 263 0000 30B4     		push	{r4, r5}
 264              		.cfi_def_cfa_offset 8
 265              		.cfi_offset 4, -8
 266              		.cfi_offset 5, -4
 267              		.loc 1 208 0
 268 0002 4568     		ldr	r5, [r0, #4]
 269              		.loc 1 193 0
 270 0004 0446     		mov	r4, r0
 271              		.loc 1 208 0
 272 0006 05EBC105 		add	r5, r5, r1, lsl #3
 273              		.loc 1 193 0
 274 000a 0B46     		mov	r3, r1
 275              	.LVL11:
 276              		.loc 1 208 0
 277 000c 92E80300 		ldmia	r2, {r0, r1}
ARM GAS  /tmp/ccDV4MzX.s 			page 6


 278              	.LVL12:
 279 0010 85E80300 		stmia	r5, {r0, r1}
 280              		.loc 1 209 0
 281 0014 2046     		mov	r0, r4
 282 0016 1946     		mov	r1, r3
 283              		.loc 1 210 0
 284 0018 30BC     		pop	{r4, r5}
 285              	.LVL13:
 286              		.loc 1 209 0
 287 001a FFF7FEBF 		b	ext_lld_channel_enable
 288              	.LVL14:
 289              		.cfi_endproc
 290              	.LFE69:
 291              		.size	extSetChannelModeI, .-extSetChannelModeI
 292 001e 00BF     		.text
 293              	.Letext0:
 294              		.file 2 "/usr/include/newlib/machine/_default_types.h"
 295              		.file 3 "/usr/include/newlib/stdint.h"
 296              		.file 4 "../../../../ChibiOS_2.6.2/os/hal/include/ext.h"
 297              		.file 5 "../../../../ChibiOS_2.6.2/os/hal/platforms/STM32/ext_lld.h"
 298              		.file 6 "../../../../ChibiOS_2.6.2/os/ports/common/ARMCMx/CMSIS/include/core_cm3.h"