ARM GAS  /tmp/ccgmvgUs.s 			page 1


   1              		.syntax unified
   2              		.cpu cortex-m3
   3              		.fpu softvfp
   4              		.eabi_attribute 20, 1
   5              		.eabi_attribute 21, 1
   6              		.eabi_attribute 23, 3
   7              		.eabi_attribute 24, 1
   8              		.eabi_attribute 25, 1
   9              		.eabi_attribute 26, 1
  10              		.eabi_attribute 30, 2
  11              		.eabi_attribute 34, 1
  12              		.eabi_attribute 18, 4
  13              		.thumb
  14              		.file	"ext_lld.c"
  15              		.text
  16              	.Ltext0:
  17              		.cfi_sections	.debug_frame
  18              		.section	.text.ext_lld_init,"ax",%progbits
  19              		.align	2
  20              		.p2align 4,,15
  21              		.global	ext_lld_init
  22              		.thumb
  23              		.thumb_func
  24              		.type	ext_lld_init, %function
  25              	ext_lld_init:
  26              	.LFB63:
  27              		.file 1 "../../../../ChibiOS_2.6.2/os/hal/platforms/STM32/ext_lld.c"
  28              		.loc 1 66 0
  29              		.cfi_startproc
  30              		@ args = 0, pretend = 0, frame = 0
  31              		@ frame_needed = 0, uses_anonymous_args = 0
  32              		@ link register save eliminated.
  33              		.loc 1 69 0
  34 0000 40F20000 		movw	r0, #:lower16:.LANCHOR0
  35 0004 C0F20000 		movt	r0, #:upper16:.LANCHOR0
  36 0008 FFF7FEBF 		b	extObjectInit
  37              	.LVL0:
  38              		.cfi_endproc
  39              	.LFE63:
  40              		.size	ext_lld_init, .-ext_lld_init
  41 000c AFF30080 		.section	.text.ext_lld_stop,"ax",%progbits
  42              		.align	2
  43              		.p2align 4,,15
  44              		.global	ext_lld_stop
  45              		.thumb
  46              		.thumb_func
  47              		.type	ext_lld_stop, %function
  48              	ext_lld_stop:
  49              	.LFB65:
  50              		.loc 1 100 0
  51              		.cfi_startproc
  52              		@ args = 0, pretend = 0, frame = 0
  53              		@ frame_needed = 0, uses_anonymous_args = 0
  54              	.LVL1:
  55 0000 08B5     		push	{r3, lr}
  56              		.cfi_def_cfa_offset 8
  57              		.cfi_offset 3, -8
ARM GAS  /tmp/ccgmvgUs.s 			page 2


  58              		.cfi_offset 14, -4
  59              		.loc 1 102 0
  60 0002 0378     		ldrb	r3, [r0]	@ zero_extendqisi2
  61 0004 022B     		cmp	r3, #2
  62 0006 0AD0     		beq	.L5
  63              	.LVL2:
  64              	.L3:
  65              		.loc 1 105 0
  66 0008 4FF48063 		mov	r3, #1024
  67 000c C4F20103 		movt	r3, 16385
  68 0010 0022     		movs	r2, #0
  69              		.loc 1 107 0
  70 0012 4FF0FF31 		mov	r1, #-1
  71              		.loc 1 105 0
  72 0016 5A60     		str	r2, [r3, #4]
  73              		.loc 1 106 0
  74 0018 1A60     		str	r2, [r3]
  75              		.loc 1 107 0
  76 001a 5961     		str	r1, [r3, #20]
  77 001c 08BD     		pop	{r3, pc}
  78              	.LVL3:
  79              	.L5:
  80              		.loc 1 103 0
  81 001e FFF7FEFF 		bl	ext_lld_exti_irq_disable
  82              	.LVL4:
  83 0022 F1E7     		b	.L3
  84              		.cfi_endproc
  85              	.LFE65:
  86              		.size	ext_lld_stop, .-ext_lld_stop
  87 0024 AFF30080 		.section	.text.ext_lld_channel_enable,"ax",%progbits
  87      AFF30080 
  87      AFF30080 
  88              		.align	2
  89              		.p2align 4,,15
  90              		.global	ext_lld_channel_enable
  91              		.thumb
  92              		.thumb_func
  93              		.type	ext_lld_channel_enable, %function
  94              	ext_lld_channel_enable:
  95              	.LFB66:
  96              		.loc 1 121 0
  97              		.cfi_startproc
  98              		@ args = 0, pretend = 0, frame = 0
  99              		@ frame_needed = 0, uses_anonymous_args = 0
 100              		@ link register save eliminated.
 101              	.LVL5:
 102 0000 4268     		ldr	r2, [r0, #4]
 103              		.loc 1 128 0
 104 0002 0120     		movs	r0, #1
 105              	.LVL6:
 106 0004 8840     		lsls	r0, r0, r1
 107              		.loc 1 121 0
 108 0006 F0B4     		push	{r4, r5, r6, r7}
 109              		.cfi_def_cfa_offset 16
 110              		.cfi_offset 4, -16
 111              		.cfi_offset 5, -12
 112              		.cfi_offset 6, -8
ARM GAS  /tmp/ccgmvgUs.s 			page 3


 113              		.cfi_offset 7, -4
 114              		.loc 1 128 0
 115 0008 4FF48066 		mov	r6, #1024
 116              		.loc 1 127 0
 117 000c 52F83130 		ldr	r3, [r2, r1, lsl #3]
 118              		.loc 1 128 0
 119 0010 C4F20106 		movt	r6, 16385
 120 0014 B768     		ldr	r7, [r6, #8]
 121              		.loc 1 127 0
 122 0016 13F0010F 		tst	r3, #1
 123 001a 6FEA0004 		mvn	r4, r0
 124              		.loc 1 128 0
 125 001e 14BF     		ite	ne
 126 0020 0743     		orrne	r7, r0, r7
 127              		.loc 1 130 0
 128 0022 2740     		andeq	r7, r4, r7
 129              		.loc 1 131 0
 130 0024 13F0020F 		tst	r3, #2
 131              		.loc 1 132 0
 132 0028 4FF48063 		mov	r3, #1024
 133              		.loc 1 130 0
 134 002c B760     		str	r7, [r6, #8]
 135              		.loc 1 132 0
 136 002e C4F20103 		movt	r3, 16385
 137 0032 DE68     		ldr	r6, [r3, #12]
 138 0034 02EBC105 		add	r5, r2, r1, lsl #3
 139 0038 14BF     		ite	ne
 140 003a 0643     		orrne	r6, r0, r6
 141              		.loc 1 134 0
 142 003c 2640     		andeq	r6, r4, r6
 143 003e DE60     		str	r6, [r3, #12]
 144              		.loc 1 137 0
 145 0040 6B68     		ldr	r3, [r5, #4]
 146 0042 1BB3     		cbz	r3, .L11
 147              		.loc 1 138 0
 148 0044 4FF48063 		mov	r3, #1024
 149 0048 C4F20103 		movt	r3, 16385
 150 004c 1D68     		ldr	r5, [r3]
 151 004e 2843     		orrs	r0, r0, r5
 152 0050 1860     		str	r0, [r3]
 153              		.loc 1 139 0
 154 0052 5868     		ldr	r0, [r3, #4]
 155 0054 0440     		ands	r4, r4, r0
 156 0056 5C60     		str	r4, [r3, #4]
 157              	.L12:
 158              		.loc 1 171 0
 159 0058 0F29     		cmp	r1, #15
 160 005a 15D8     		bhi	.L6
 161              	.LVL7:
 162              	.LBB2:
 163              		.loc 1 174 0
 164 005c 52F83100 		ldr	r0, [r2, r1, lsl #3]
 165              		.loc 1 173 0
 166 0060 01F00303 		and	r3, r1, #3
 167 0064 9B00     		lsls	r3, r3, #2
 168              	.LVL8:
 169 0066 0F22     		movs	r2, #15
ARM GAS  /tmp/ccgmvgUs.s 			page 4


 170              		.loc 1 175 0
 171 0068 C0F30310 		ubfx	r0, r0, #4, #4
 172              		.loc 1 173 0
 173 006c 9A40     		lsls	r2, r2, r3
 174              		.loc 1 174 0
 175 006e 00FA03F3 		lsl	r3, r0, r3
 176              	.LVL9:
 177 0072 21F00301 		bic	r1, r1, #3
 178              	.LVL10:
 179 0076 01F18041 		add	r1, r1, #1073741824
 180 007a 01F58031 		add	r1, r1, #65536
 181              		.loc 1 182 0
 182 007e 8868     		ldr	r0, [r1, #8]
 183 0080 20EA0202 		bic	r2, r0, r2
 184 0084 1343     		orrs	r3, r3, r2
 185 0086 8B60     		str	r3, [r1, #8]
 186              	.LVL11:
 187              	.L6:
 188              	.LBE2:
 189              		.loc 1 185 0
 190 0088 F0BC     		pop	{r4, r5, r6, r7}
 191 008a 7047     		bx	lr
 192              	.LVL12:
 193              	.L11:
 194              		.loc 1 142 0
 195 008c 4FF48063 		mov	r3, #1024
 196 0090 C4F20103 		movt	r3, 16385
 197 0094 5D68     		ldr	r5, [r3, #4]
 198 0096 2843     		orrs	r0, r0, r5
 199 0098 5860     		str	r0, [r3, #4]
 200              		.loc 1 143 0
 201 009a 1868     		ldr	r0, [r3]
 202 009c 0440     		ands	r4, r4, r0
 203 009e 1C60     		str	r4, [r3]
 204 00a0 DAE7     		b	.L12
 205              		.cfi_endproc
 206              	.LFE66:
 207              		.size	ext_lld_channel_enable, .-ext_lld_channel_enable
 208 00a2 00BFAFF3 		.section	.text.ext_lld_channel_disable,"ax",%progbits
 208      0080AFF3 
 208      0080AFF3 
 208      0080
 209              		.align	2
 210              		.p2align 4,,15
 211              		.global	ext_lld_channel_disable
 212              		.thumb
 213              		.thumb_func
 214              		.type	ext_lld_channel_disable, %function
 215              	ext_lld_channel_disable:
 216              	.LFB67:
 217              		.loc 1 195 0
 218              		.cfi_startproc
 219              		@ args = 0, pretend = 0, frame = 0
 220              		@ frame_needed = 0, uses_anonymous_args = 0
 221              		@ link register save eliminated.
 222              	.LVL13:
 223              		.loc 1 202 0
ARM GAS  /tmp/ccgmvgUs.s 			page 5


 224 0000 0123     		movs	r3, #1
 225 0002 03FA01F1 		lsl	r1, r3, r1
 226              	.LVL14:
 227 0006 4FF48063 		mov	r3, #1024
 228 000a C4F20103 		movt	r3, 16385
 229 000e 1868     		ldr	r0, [r3]
 230              	.LVL15:
 231 0010 CA43     		mvns	r2, r1
 232 0012 1040     		ands	r0, r0, r2
 233 0014 1860     		str	r0, [r3]
 234              		.loc 1 203 0
 235 0016 5868     		ldr	r0, [r3, #4]
 236 0018 1040     		ands	r0, r0, r2
 237 001a 5860     		str	r0, [r3, #4]
 238              		.loc 1 204 0
 239 001c 9868     		ldr	r0, [r3, #8]
 240 001e 1040     		ands	r0, r0, r2
 241 0020 9860     		str	r0, [r3, #8]
 242              		.loc 1 205 0
 243 0022 D868     		ldr	r0, [r3, #12]
 244 0024 0240     		ands	r2, r2, r0
 245 0026 DA60     		str	r2, [r3, #12]
 246              		.loc 1 206 0
 247 0028 5961     		str	r1, [r3, #20]
 248 002a 7047     		bx	lr
 249              		.cfi_endproc
 250              	.LFE67:
 251              		.size	ext_lld_channel_disable, .-ext_lld_channel_disable
 252 002c AFF30080 		.section	.text.ext_lld_start,"ax",%progbits
 253              		.align	2
 254              		.p2align 4,,15
 255              		.global	ext_lld_start
 256              		.thumb
 257              		.thumb_func
 258              		.type	ext_lld_start, %function
 259              	ext_lld_start:
 260              	.LFB64:
 261              		.loc 1 79 0
 262              		.cfi_startproc
 263              		@ args = 0, pretend = 0, frame = 0
 264              		@ frame_needed = 0, uses_anonymous_args = 0
 265              	.LVL16:
 266 0000 38B5     		push	{r3, r4, r5, lr}
 267              		.cfi_def_cfa_offset 16
 268              		.cfi_offset 3, -16
 269              		.cfi_offset 4, -12
 270              		.cfi_offset 5, -8
 271              		.cfi_offset 14, -4
 272              		.loc 1 82 0
 273 0002 0378     		ldrb	r3, [r0]	@ zero_extendqisi2
 274              		.loc 1 79 0
 275 0004 0546     		mov	r5, r0
 276              		.loc 1 82 0
 277 0006 012B     		cmp	r3, #1
 278 0008 13D0     		beq	.L21
 279              	.LVL17:
 280              	.L16:
ARM GAS  /tmp/ccgmvgUs.s 			page 6


 281              		.loc 1 79 0 discriminator 1
 282 000a 0024     		movs	r4, #0
 283 000c 04E0     		b	.L20
 284              	.LVL18:
 285              	.L23:
 286              		.loc 1 86 0
 287 000e 0134     		adds	r4, r4, #1
 288              		.loc 1 88 0
 289 0010 FFF7FEFF 		bl	ext_lld_channel_enable
 290              	.LVL19:
 291              		.loc 1 86 0
 292 0014 132C     		cmp	r4, #19
 293 0016 0BD0     		beq	.L22
 294              	.LVL20:
 295              	.L20:
 296              		.loc 1 87 0
 297 0018 6B68     		ldr	r3, [r5, #4]
 298              		.loc 1 90 0
 299 001a 2146     		mov	r1, r4
 300              		.loc 1 87 0
 301 001c 53F83430 		ldr	r3, [r3, r4, lsl #3]
 302              		.loc 1 90 0
 303 0020 2846     		mov	r0, r5
 304              		.loc 1 87 0
 305 0022 5B07     		lsls	r3, r3, #29
 306 0024 F3D4     		bmi	.L23
 307              	.LVL21:
 308              		.loc 1 86 0
 309 0026 0134     		adds	r4, r4, #1
 310              	.LVL22:
 311              		.loc 1 90 0
 312 0028 FFF7FEFF 		bl	ext_lld_channel_disable
 313              	.LVL23:
 314              		.loc 1 86 0
 315 002c 132C     		cmp	r4, #19
 316 002e F3D1     		bne	.L20
 317              	.L22:
 318              		.loc 1 91 0
 319 0030 38BD     		pop	{r3, r4, r5, pc}
 320              	.LVL24:
 321              	.L21:
 322              		.loc 1 83 0
 323 0032 FFF7FEFF 		bl	ext_lld_exti_irq_enable
 324              	.LVL25:
 325 0036 E8E7     		b	.L16
 326              		.cfi_endproc
 327              	.LFE64:
 328              		.size	ext_lld_start, .-ext_lld_start
 329              		.global	EXTD1
 330 0038 AFF30080 		.section	.bss.EXTD1,"aw",%nobits
 330      AFF30080 
 331              		.align	2
 332              		.set	.LANCHOR0,. + 0
 333              		.type	EXTD1, %object
 334              		.size	EXTD1, 8
 335              	EXTD1:
 336 0000 00000000 		.space	8
ARM GAS  /tmp/ccgmvgUs.s 			page 7


 336      00000000 
 337              		.text
 338              	.Letext0:
 339              		.file 2 "/usr/include/newlib/machine/_default_types.h"
 340              		.file 3 "/usr/include/newlib/stdint.h"
 341              		.file 4 "../../../../ChibiOS_2.6.2/os/hal/platforms/STM32F1xx/stm32f10x.h"
 342              		.file 5 "../../../../ChibiOS_2.6.2/os/hal/include/ext.h"
 343              		.file 6 "../../../../ChibiOS_2.6.2/os/hal/platforms/STM32/ext_lld.h"
 344              		.file 7 "../../../../ChibiOS_2.6.2/os/ports/common/ARMCMx/CMSIS/include/core_cm3.h"
 345              		.file 8 "../../../../ChibiOS_2.6.2/os/hal/platforms/STM32F1xx/ext_lld_isr.h"