ARM GAS  /tmp/ccgmvgUs.s 			page 1


   1              		.syntax unified
   2              		.cpu cortex-m3
   3              		.fpu softvfp
   4              		.eabi_attribute 20, 1
   5              		.eabi_attribute 21, 1
   6              		.eabi_attribute 23, 3
   7              		.eabi_attribute 24, 1
   8              		.eabi_attribute 25, 1
   9              		.eabi_attribute 26, 1
  10              		.eabi_attribute 30, 2
  11              		.eabi_attribute 34, 1
  12              		.eabi_attribute 18, 4
  13              		.thumb
  14              		.file	"ext_lld.c"
  15              		.text
  16              	.Ltext0:
  17              		.cfi_sections	.debug_frame
  18              		.section	.text.ext_lld_init,"ax",%progbits
  19              		.align	2
  20              		.p2align 4,,15
  21              		.global	ext_lld_init
  22              		.thumb
  23              		.thumb_func
  24              		.type	ext_lld_init, %function
  25              	ext_lld_init:
  26              	.LFB63:
  27              		.file 1 "../../../../ChibiOS_2.6.2/os/hal/platforms/STM32/ext_lld.c"
  28              		.loc 1 66 0
  29              		.cfi_startproc
  30              		@ args = 0, pretend = 0, frame = 0
  31              		@ frame_needed = 0, uses_anonymous_args = 0
  32              		@ link register save eliminated.
  33              		.loc 1 69 0
  34 0000 40F20000 		movw	r0, #:lower16:.LANCHOR0
  35 0004 C0F20000 		movt	r0, #:upper16:.LANCHOR0
  36 0008 FFF7FEBF 		b	extObjectInit
  37              	.LVL0:
  38              		.cfi_endproc
  39              	.LFE63:
  40              		.size	ext_lld_init, .-ext_lld_init
  41 000c AFF30080 		.section	.text.ext_lld_stop,"ax",%progbits
  42              		.align	2
  43              		.p2align 4,,15
  44              		.global	ext_lld_stop
  45              		.thumb
  46              		.thumb_func
  47              		.type	ext_lld_stop, %function
  48              	ext_lld_stop:
  49              	.LFB65:
  50              		.loc 1 100 0
  51              		.cfi_startproc
  52              		@ args = 0, pretend = 0, frame = 0
  53              		@ frame_needed = 0, uses_anonymous_args = 0
  54              	.LVL1:
  55 0000 08B5     		push	{r3, lr}
  56              		.cfi_def_cfa_offset 8
  57              		.cfi_offset 3, -8
ARM GAS  /tmp/ccgmvgUs.s 			page 2


  58              		.cfi_offset 14, -4
  59              		.loc 1 102 0
  60 0002 0378     		ldrb	r3, [r0]	@ zero_extendqisi2
  61 0004 022B     		cmp	r3, #2
  62 0006 0AD0     		beq	.L5
  63              	.LVL2:
  64              	.L3:
  65              		.loc 1 105 0
  66 0008 4FF48063 		mov	r3, #1024
  67 000c C4F20103 		movt	r3, 16385
  68 0010 0022     		movs	r2, #0
  69              		.loc 1 107 0
  70 0012 4FF0FF31 		mov	r1, #-1
  71              		.loc 1 105 0
  72 0016 5A60     		str	r2, [r3, #4]
  73              		.loc 1 106 0
  74 0018 1A60     		str	r2, [r3]
  75              		.loc 1 107 0
  76 001a 5961     		str	r1, [r3, #20]
  77 001c 08BD     		pop	{r3, pc}
  78              	.LVL3:
  79              	.L5:
  80              		.loc 1 103 0
  81 001e FFF7FEFF 		bl	ext_lld_exti_irq_disable
  82              	.LVL4:
  83 0022 F1E7     		b	.L3
  84              		.cfi_endproc
  85              	.LFE65:
  86              		.size	ext_lld_stop, .-ext_lld_stop
  87 0024 AFF30080 		.section	.text.ext_lld_channel_enable,"ax",%progbits
  87      AFF30080 
  87      AFF30080 
  88              		.align	2
  89              		.p2align 4,,15
  90              		.global	ext_lld_channel_enable
  91              		.thumb
  92              		.thumb_func
  93              		.type	ext_lld_channel_enable, %function
  94              	ext_lld_channel_enable:
  95              	.LFB66:
  96              		.loc 1 121 0
  97              		.cfi_startproc
  98              		@ args = 0, pretend = 0, frame = 0
  99              		@ frame_needed = 0, uses_anonymous_args = 0
 100              		@ link register save eliminated.
 101              	.LVL5:
 102 0000 4268     		ldr	r2, [r0, #4]
 103              		.loc 1 128 0
 104 0002 0120     		movs	r0, #1
 105              	.LVL6:
 106 0004 8840     		lsls	r0, r0, r1
 107              		.loc 1 121 0
 108 0006 F0B4     		push	{r4, r5, r6, r7}
 109              		.cfi_def_cfa_offset 16
 110              		.cfi_offset 4, -16
 111              		.cfi_offset 5, -12
 112              		.cfi_offset 6, -8
ARM GAS  /tmp/ccgmvgUs.s 			page 3


 113              		.cfi_offset 7, -4
 114              		.loc 1 128 0
 115 0008 4FF48066 		mov	r6, #1024
 116              		.loc 1 127 0
 117 000c 52F83130 		ldr	r3, [r2, r1, lsl #3]
 118              		.loc 1 128 0
 119 0010 C4F20106 		movt	r6, 16385
 120 0014 B768     		ldr	r7, [r6, #8]
 121              		.loc 1 127 0
 122 0016 13F0010F 		tst	r3, #1
 123 001a 6FEA0004 		mvn	r4, r0
 124              		.loc 1 128 0
 125 001e 14BF     		ite	ne
 126 0020 0743     		orrne	r7, r0, r7
 127              		.loc 1 130 0
 128 0022 2740     		andeq	r7, r4, r7
 129              		.loc 1 131 0
 130 0024 13F0020F 		tst	r3, #2
 131              		.loc 1 132 0
 132 0028 4FF48063 		mov	r3, #1024
 133              		.loc 1 130 0
 134 002c B760     		str	r7, [r6, #8]
 135              		.loc 1 132 0
 136 002e C4F20103 		movt	r3, 16385
 137 0032 DE68     		ldr	r6, [r3, #12]
 138 0034 02EBC105 		add	r5, r2, r1, lsl #3
 139 0038 14BF     		ite	ne
 140 003a 0643     		orrne	r6, r0, r6
 141              		.loc 1 134 0
 142 003c 2640     		andeq	r6, r4, r6
 143 003e DE60     		str	r6, [r3, #12]
 144              		.loc 1 137 0
 145 0040 6B68     		ldr	r3, [r5, #4]
 146 0042 1BB3     		cbz	r3, .L11
 147              		.loc 1 138 0
 148 0044 4FF48063 		mov	r3, #1024
 149 0048 C4F20103 		movt	r3, 16385
 150 004c 1D68     		ldr	r5, [r3]
 151 004e 2843     		orrs	r0, r0, r5
 152 0050 1860     		str	r0, [r3]
 153              		.loc 1 139 0
 154 0052 5868     		ldr	r0, [r3, #4]
 155 0054 0440     		ands	r4, r4, r0
 156 0056 5C60     		str	r4, [r3, #4]
 157              	.L12:
 158              		.loc 1 171 0
 159 0058 0F29     		cmp	r1, #15
 160 005a 15D8     		bhi	.L6
 161              	.LVL7:
 162              	.LBB2:
 163              		.loc 1 174 0
 164 005c 52F83100 		ldr	r0, [r2, r1, lsl #3]
 165              		.loc 1 173 0
 166 0060 01F00303 		and	r3, r1, #3
 167 0064 9B00     		lsls	r3, r3, #2
 168              	.LVL8:
 169 0066 0F22     		movs	r2, #15
ARM GAS  /tmp/ccgmvgUs.s 			page 4


 170              		.loc 1 175 0
 171 0068 C0F30310 		ubfx	r0, r0, #4, #4
 172              		.loc 1 173 0
 173 006c 9A40     		lsls	r2, r2, r3
 174              		.loc 1 174 0
 175 006e 00FA03F3 		lsl	r3, r0, r3
 176              	.LVL9:
 177 0072 21F00301 		bic	r1, r1, #3
 178              	.LVL10:
 179 0076 01F18041 		add	r1, r1, #1073741824
 180 007a 01F58031 		add	r1, r1, #65536
 181              		.loc 1 182 0
 182 007e 8868     		ldr	r0, [r1, #8]
 183 0080 20EA0202 		bic	r2, r0, r2
 184 0084 1343     		orrs	r3, r3, r2
 185 0086 8B60     		str	r3, [r1, #8]
 186              	.LVL11:
 187              	.L6:
 188              	.LBE2:
 189              		.loc 1 185 0
 190 0088 F0BC     		pop	{r4, r5, r6, r7}
 191 008a 7047     		bx	lr
 192              	.LVL12:
 193              	.L11:
 194              		.loc 1 142 0
 195 008c 4FF48063 		mov	r3, #1024
 196 0090 C4F20103 		movt	r3, 16385
 197 0094 5D68     		ldr	r5, [r3, #4]
 198 0096 2843     		orrs	r0, r0, r5
 199 0098 5860     		str	r0, [r3, #4]
 200              		.loc 1 143 0
 201 009a 1868     		ldr	r0, [r3]
 202 009c 0440     		ands	r4, r4, r0
 203 009e 1C60     		str	r4, [r3]
 204 00a0 DAE7     		b	.L12
 205              		.cfi_endproc
 206              	.LFE66:
 207              		.size	ext_lld_channel_enable, .-ext_lld_channel_enable
 208 00a2 00BFAFF3 		.section	.text.ext_lld_channel_disable,"ax",%progbits
 208      0080AFF3 
 208      0080AFF3 
 208      0080
 209              		.align	2
 210              		.p2align 4,,15
 211              		.global	ext_lld_channel_disable
 212              		.thumb
 213              		.thumb_func
 214              		.type	ext_lld_channel_disable, %function
 215              	ext_lld_channel_disable:
 216              	.LFB67:
 217              		.loc 1 195 0
 218              		.cfi_startproc
 219              		@ args = 0, pretend = 0, frame = 0
 220              		@ frame_needed = 0, uses_anonymous_args = 0
 221              		@ link register save eliminated.
 222              	.LVL13:
 223              		.loc 1 202 0
ARM GAS  /tmp/ccgmvgUs.s 			page 5


 224 0000 0123     		movs	r3, #1
 225 0002 03FA01F1 		lsl	r1, r3, r1
 226              	.LVL14:
 227 0006 4FF48063 		mov	r3, #1024
 228 000a C4F20103 		movt	r3, 16385
 229 000e 1868     		ldr	r0, [r3]
 230              	.LVL15:
 231 0010 CA43     		mvns	r2, r1
 232 0012 1040     		ands	r0, r0, r2
 233 0014 1860     		str	r0, [r3]
 234              		.loc 1 203 0
 235 0016 5868     		ldr	r0, [r3, #4]
 236 0018 1040     		ands	r0, r0, r2
 237 001a 5860     		str	r0, [r3, #4]
 238              		.loc 1 204 0
 239 001c 9868     		ldr	r0, [r3, #8]
 240 001e 1040     		ands	r0, r0, r2
 241 0020 9860     		str	r0, [r3, #8]
 242              		.loc 1 205 0
 243 0022 D868     		ldr	r0, [r3, #12]
 244 0024 0240     		ands	r2, r2, r0
 245 0026 DA60     		str	r2, [r3, #12]
 246              		.loc 1 206 0
 247 0028 5961     		str	r1, [r3, #20]
 248 002a 7047     		bx	lr
 249              		.cfi_endproc
 250              	.LFE67:
 251              		.size	ext_lld_channel_disable, .-ext_lld_channel_disable
 252 002c AFF30080 		.section	.text.ext_lld_start,"ax",%progbits
 253              		.align	2
 254              		.p2align 4,,15
 255              		.global	ext_lld_start
 256              		.thumb
 257              		.thumb_func
 258              		.type	ext_lld_start, %function
 259              	ext_lld_start:
 260              	.LFB64:
 261              		.loc 1 79 0
 262              		.cfi_startproc
 263              		@ args = 0, pretend = 0, frame = 0
 264              		@ frame_needed = 0, uses_anonymous_args = 0
 265              	.LVL16:
 266 0000 38B5     		push	{r3, r4, r5, lr}
 267              		.cfi_def_cfa_offset 16
 268              		.cfi_offset 3, -16
 269              		.cfi_offset 4, -12
 270              		.cfi_offset 5, -8
 271              		.cfi_offset 14, -4
 272              		.loc 1 82 0
 273 0002 0378     		ldrb	r3, [r0]	@ zero_extendqisi2
 274              		.loc 1 79 0
 275 0004 0546     		mov	r5, r0
 276              		.loc 1 82 0
 277 0006 012B     		cmp	r3, #1
 278 0008 13D0     		beq	.L21
 279              	.LVL17:
 280              	.L16:
ARM GAS  /tmp/ccgmvgUs.s 			page 6


 281              		.loc 1 79 0 discriminator 1
 282 000a 0024     		movs	r4, #0
 283 000c 04E0     		b	.L20
 284              	.LVL18:
 285              	.L23:
 286              		.loc 1 86 0
 287 000e 0134     		adds	r4, r4, #1
 288              		.loc 1 88 0
 289 0010 FFF7FEFF 		bl	ext_lld_channel_enable
 290              	.LVL19:
 291              		.loc 1 86 0
 292 0014 132C     		cmp	r4, #19
 293 0016 0BD0     		beq	.L22
 294              	.LVL20:
 295              	.L20:
 296              		.loc 1 87 0
 297 0018 6B68     		ldr	r3, [r5, #4]
 298              		.loc 1 90 0
 299 001a 2146     		mov	r1, r4
 300              		.loc 1 87 0
 301 001c 53F83430 		ldr	r3, [r3, r4, lsl #3]
 302              		.loc 1 90 0
 303 0020 2846     		mov	r0, r5
 304              		.loc 1 87 0
 305 0022 5B07     		lsls	r3, r3, #29
 306 0024 F3D4     		bmi	.L23
 307              	.LVL21:
 308              		.loc 1 86 0
 309 0026 0134     		adds	r4, r4, #1
 310              	.LVL22:
 311              		.loc 1 90 0
 312 0028 FFF7FEFF 		bl	ext_lld_channel_disable
 313              	.LVL23:
 314              		.loc 1 86 0
 315 002c 132C     		cmp	r4, #19
 316 002e F3D1     		bne	.L20
 317              	.L22:
 318              		.loc 1 91 0
 319 0030 38BD     		pop	{r3, r4, r5, pc}
 320              	.LVL24:
 321              	.L21:
 322              		.loc 1 83 0
 323 0032 FFF7FEFF 		bl	ext_lld_exti_irq_enable
 324              	.LVL25:
 325 0036 E8E7     		b	.L16
 326              		.cfi_endproc
 327              	.LFE64:
 328              		.size	ext_lld_start, .-ext_lld_start
 329              		.global	EXTD1
 330 0038 AFF30080 		.section	.bss.EXTD1,"aw",%nobits
 330      AFF30080 
 331              		.align	2
 332              		.set	.LANCHOR0,. + 0
 333              		.type	EXTD1, %object
 334              		.size	EXTD1, 8
 335              	EXTD1:
 336 0000 00000000 		.space	8
ARM GAS  /tmp/ccgmvgUs.s 			page 7


 336      00000000 
 337              		.text
 338              	.Letext0:
 339              		.file 2 "/usr/include/newlib/machine/_default_types.h"
 340              		.file 3 "/usr/include/newlib/stdint.h"
 341              		.file 4 "../../../../ChibiOS_2.6.2/os/hal/platforms/STM32F1xx/stm32f10x.h"
 342              		.file 5 "../../../../ChibiOS_2.6.2/os/hal/include/ext.h"
 343              		.file 6 "../../../../ChibiOS_2.6.2/os/hal/platforms/STM32/ext_lld.h"
 344              		.file 7 "../../../../ChibiOS_2.6.2/os/ports/common/ARMCMx/CMSIS/include/core_cm3.h"
 345              		.file 8 "../../../../ChibiOS_2.6.2/os/hal/platforms/STM32F1xx/ext_lld_isr.h"
 346              		.section	.debug_info,"",%progbits
 347              	.Ldebug_info0:
 348 0000 FE030000 		.4byte	0x3fe
 349 0004 0400     		.2byte	0x4
 350 0006 00000000 		.4byte	.Ldebug_abbrev0
 351 000a 04       		.byte	0x4
 352 000b 01       		.uleb128 0x1
 353 000c A5010000 		.4byte	.LASF52
 354 0010 01       		.byte	0x1
 355 0011 42020000 		.4byte	.LASF53
 356 0015 63000000 		.4byte	.LASF54
 357 0019 00000000 		.4byte	.Ldebug_ranges0+0
 358 001d 00000000 		.4byte	0
 359 0021 00000000 		.4byte	.Ldebug_line0
 360 0025 02       		.uleb128 0x2
 361 0026 04       		.byte	0x4
 362 0027 05       		.byte	0x5
 363 0028 696E7400 		.ascii	"int\000"
 364 002c 03       		.uleb128 0x3
 365 002d 04       		.byte	0x4
 366 002e 07       		.byte	0x7
 367 002f BE020000 		.4byte	.LASF0
 368 0033 03       		.uleb128 0x3
 369 0034 01       		.byte	0x1
 370 0035 06       		.byte	0x6
 371 0036 43030000 		.4byte	.LASF1
 372 003a 03       		.uleb128 0x3
 373 003b 01       		.byte	0x1
 374 003c 08       		.byte	0x8
 375 003d 42010000 		.4byte	.LASF2
 376 0041 03       		.uleb128 0x3
 377 0042 02       		.byte	0x2
 378 0043 05       		.byte	0x5
 379 0044 12030000 		.4byte	.LASF3
 380 0048 03       		.uleb128 0x3
 381 0049 02       		.byte	0x2
 382 004a 07       		.byte	0x7
 383 004b 62010000 		.4byte	.LASF4
 384 004f 04       		.uleb128 0x4
 385 0050 59000000 		.4byte	.LASF6
 386 0054 02       		.byte	0x2
 387 0055 37       		.byte	0x37
 388 0056 5A000000 		.4byte	0x5a
 389 005a 03       		.uleb128 0x3
 390 005b 04       		.byte	0x4
 391 005c 05       		.byte	0x5
 392 005d 35030000 		.4byte	.LASF5
ARM GAS  /tmp/ccgmvgUs.s 			page 8


 393 0061 04       		.uleb128 0x4
 394 0062 7D020000 		.4byte	.LASF7
 395 0066 02       		.byte	0x2
 396 0067 38       		.byte	0x38
 397 0068 6C000000 		.4byte	0x6c
 398 006c 03       		.uleb128 0x3
 399 006d 04       		.byte	0x4
 400 006e 07       		.byte	0x7
 401 006f 50010000 		.4byte	.LASF8
 402 0073 03       		.uleb128 0x3
 403 0074 08       		.byte	0x8
 404 0075 05       		.byte	0x5
 405 0076 EB020000 		.4byte	.LASF9
 406 007a 03       		.uleb128 0x3
 407 007b 08       		.byte	0x8
 408 007c 07       		.byte	0x7
 409 007d 2B010000 		.4byte	.LASF10
 410 0081 04       		.uleb128 0x4
 411 0082 DA020000 		.4byte	.LASF11
 412 0086 03       		.byte	0x3
 413 0087 41       		.byte	0x41
 414 0088 4F000000 		.4byte	0x4f
 415 008c 04       		.uleb128 0x4
 416 008d 4F030000 		.4byte	.LASF12
 417 0091 03       		.byte	0x3
 418 0092 42       		.byte	0x42
 419 0093 61000000 		.4byte	0x61
 420 0097 03       		.uleb128 0x3
 421 0098 01       		.byte	0x1
 422 0099 02       		.byte	0x2
 423 009a 58030000 		.4byte	.LASF13
 424 009e 05       		.uleb128 0x5
 425 009f 8C000000 		.4byte	0x8c
 426 00a3 03       		.uleb128 0x3
 427 00a4 04       		.byte	0x4
 428 00a5 07       		.byte	0x7
 429 00a6 E2020000 		.4byte	.LASF14
 430 00aa 03       		.uleb128 0x3
 431 00ab 01       		.byte	0x1
 432 00ac 08       		.byte	0x8
 433 00ad D0020000 		.4byte	.LASF15
 434 00b1 06       		.uleb128 0x6
 435 00b2 8C000000 		.4byte	0x8c
 436 00b6 C1000000 		.4byte	0xc1
 437 00ba 07       		.uleb128 0x7
 438 00bb A3000000 		.4byte	0xa3
 439 00bf 03       		.byte	0x3
 440 00c0 00       		.byte	0
 441 00c1 05       		.uleb128 0x5
 442 00c2 81000000 		.4byte	0x81
 443 00c6 08       		.uleb128 0x8
 444 00c7 18       		.byte	0x18
 445 00c8 04       		.byte	0x4
 446 00c9 8603     		.2byte	0x386
 447 00cb 1D010000 		.4byte	0x11d
 448 00cf 09       		.uleb128 0x9
 449 00d0 494D5200 		.ascii	"IMR\000"
ARM GAS  /tmp/ccgmvgUs.s 			page 9


 450 00d4 04       		.byte	0x4
 451 00d5 8803     		.2byte	0x388
 452 00d7 9E000000 		.4byte	0x9e
 453 00db 00       		.byte	0
 454 00dc 09       		.uleb128 0x9
 455 00dd 454D5200 		.ascii	"EMR\000"
 456 00e1 04       		.byte	0x4
 457 00e2 8903     		.2byte	0x389
 458 00e4 9E000000 		.4byte	0x9e
 459 00e8 04       		.byte	0x4
 460 00e9 0A       		.uleb128 0xa
 461 00ea 8F010000 		.4byte	.LASF16
 462 00ee 04       		.byte	0x4
 463 00ef 8A03     		.2byte	0x38a
 464 00f1 9E000000 		.4byte	0x9e
 465 00f5 08       		.byte	0x8
 466 00f6 0A       		.uleb128 0xa
 467 00f7 30030000 		.4byte	.LASF17
 468 00fb 04       		.byte	0x4
 469 00fc 8B03     		.2byte	0x38b
 470 00fe 9E000000 		.4byte	0x9e
 471 0102 0C       		.byte	0xc
 472 0103 0A       		.uleb128 0xa
 473 0104 5E030000 		.4byte	.LASF18
 474 0108 04       		.byte	0x4
 475 0109 8C03     		.2byte	0x38c
 476 010b 9E000000 		.4byte	0x9e
 477 010f 10       		.byte	0x10
 478 0110 09       		.uleb128 0x9
 479 0111 505200   		.ascii	"PR\000"
 480 0114 04       		.byte	0x4
 481 0115 8D03     		.2byte	0x38d
 482 0117 9E000000 		.4byte	0x9e
 483 011b 14       		.byte	0x14
 484 011c 00       		.byte	0
 485 011d 0B       		.uleb128 0xb
 486 011e 75010000 		.4byte	.LASF19
 487 0122 04       		.byte	0x4
 488 0123 8E03     		.2byte	0x38e
 489 0125 C6000000 		.4byte	0xc6
 490 0129 08       		.uleb128 0x8
 491 012a 20       		.byte	0x20
 492 012b 04       		.byte	0x4
 493 012c 0704     		.2byte	0x407
 494 012e 74010000 		.4byte	0x174
 495 0132 0A       		.uleb128 0xa
 496 0133 3E030000 		.4byte	.LASF20
 497 0137 04       		.byte	0x4
 498 0138 0904     		.2byte	0x409
 499 013a 9E000000 		.4byte	0x9e
 500 013e 00       		.byte	0
 501 013f 0A       		.uleb128 0xa
 502 0140 B8000000 		.4byte	.LASF21
 503 0144 04       		.byte	0x4
 504 0145 0A04     		.2byte	0x40a
 505 0147 9E000000 		.4byte	0x9e
 506 014b 04       		.byte	0x4
ARM GAS  /tmp/ccgmvgUs.s 			page 10


 507 014c 0A       		.uleb128 0xa
 508 014d AC020000 		.4byte	.LASF22
 509 0151 04       		.byte	0x4
 510 0152 0B04     		.2byte	0x40b
 511 0154 74010000 		.4byte	0x174
 512 0158 08       		.byte	0x8
 513 0159 0A       		.uleb128 0xa
 514 015a BD000000 		.4byte	.LASF23
 515 015e 04       		.byte	0x4
 516 015f 0C04     		.2byte	0x40c
 517 0161 8C000000 		.4byte	0x8c
 518 0165 18       		.byte	0x18
 519 0166 0A       		.uleb128 0xa
 520 0167 2A030000 		.4byte	.LASF24
 521 016b 04       		.byte	0x4
 522 016c 0D04     		.2byte	0x40d
 523 016e 9E000000 		.4byte	0x9e
 524 0172 1C       		.byte	0x1c
 525 0173 00       		.byte	0
 526 0174 05       		.uleb128 0x5
 527 0175 B1000000 		.4byte	0xb1
 528 0179 0B       		.uleb128 0xb
 529 017a 00000000 		.4byte	.LASF25
 530 017e 04       		.byte	0x4
 531 017f 0E04     		.2byte	0x40e
 532 0181 29010000 		.4byte	0x129
 533 0185 0C       		.uleb128 0xc
 534 0186 01       		.byte	0x1
 535 0187 05       		.byte	0x5
 536 0188 4A       		.byte	0x4a
 537 0189 A0010000 		.4byte	0x1a0
 538 018d 0D       		.uleb128 0xd
 539 018e 4E000000 		.4byte	.LASF26
 540 0192 00       		.sleb128 0
 541 0193 0D       		.uleb128 0xd
 542 0194 72030000 		.4byte	.LASF27
 543 0198 01       		.sleb128 1
 544 0199 0D       		.uleb128 0xd
 545 019a B3020000 		.4byte	.LASF28
 546 019e 02       		.sleb128 2
 547 019f 00       		.byte	0
 548 01a0 04       		.uleb128 0x4
 549 01a1 32000000 		.4byte	.LASF29
 550 01a5 05       		.byte	0x5
 551 01a6 4E       		.byte	0x4e
 552 01a7 85010000 		.4byte	0x185
 553 01ab 04       		.uleb128 0x4
 554 01ac 0D000000 		.4byte	.LASF30
 555 01b0 05       		.byte	0x5
 556 01b1 53       		.byte	0x53
 557 01b2 B6010000 		.4byte	0x1b6
 558 01b6 0E       		.uleb128 0xe
 559 01b7 0D000000 		.4byte	.LASF30
 560 01bb 08       		.byte	0x8
 561 01bc 06       		.byte	0x6
 562 01bd 71       		.byte	0x71
 563 01be DB010000 		.4byte	0x1db
ARM GAS  /tmp/ccgmvgUs.s 			page 11


 564 01c2 0F       		.uleb128 0xf
 565 01c3 2C000000 		.4byte	.LASF31
 566 01c7 06       		.byte	0x6
 567 01c8 75       		.byte	0x75
 568 01c9 A0010000 		.4byte	0x1a0
 569 01cd 00       		.byte	0
 570 01ce 0F       		.uleb128 0xf
 571 01cf 94010000 		.4byte	.LASF32
 572 01d3 06       		.byte	0x6
 573 01d4 79       		.byte	0x79
 574 01d5 68020000 		.4byte	0x268
 575 01d9 04       		.byte	0x4
 576 01da 00       		.byte	0
 577 01db 04       		.uleb128 0x4
 578 01dc C7000000 		.4byte	.LASF33
 579 01e0 06       		.byte	0x6
 580 01e1 47       		.byte	0x47
 581 01e2 8C000000 		.4byte	0x8c
 582 01e6 04       		.uleb128 0x4
 583 01e7 ED000000 		.4byte	.LASF34
 584 01eb 06       		.byte	0x6
 585 01ec 4F       		.byte	0x4f
 586 01ed F1010000 		.4byte	0x1f1
 587 01f1 10       		.uleb128 0x10
 588 01f2 04       		.byte	0x4
 589 01f3 F7010000 		.4byte	0x1f7
 590 01f7 11       		.uleb128 0x11
 591 01f8 07020000 		.4byte	0x207
 592 01fc 12       		.uleb128 0x12
 593 01fd 07020000 		.4byte	0x207
 594 0201 12       		.uleb128 0x12
 595 0202 DB010000 		.4byte	0x1db
 596 0206 00       		.byte	0
 597 0207 10       		.uleb128 0x10
 598 0208 04       		.byte	0x4
 599 0209 AB010000 		.4byte	0x1ab
 600 020d 13       		.uleb128 0x13
 601 020e 08       		.byte	0x8
 602 020f 06       		.byte	0x6
 603 0210 54       		.byte	0x54
 604 0211 2D020000 		.4byte	0x22d
 605 0215 0F       		.uleb128 0xf
 606 0216 D5020000 		.4byte	.LASF35
 607 021a 06       		.byte	0x6
 608 021b 58       		.byte	0x58
 609 021c 8C000000 		.4byte	0x8c
 610 0220 00       		.byte	0
 611 0221 14       		.uleb128 0x14
 612 0222 636200   		.ascii	"cb\000"
 613 0225 06       		.byte	0x6
 614 0226 5F       		.byte	0x5f
 615 0227 E6010000 		.4byte	0x1e6
 616 022b 04       		.byte	0x4
 617 022c 00       		.byte	0
 618 022d 04       		.uleb128 0x4
 619 022e 3D000000 		.4byte	.LASF36
 620 0232 06       		.byte	0x6
ARM GAS  /tmp/ccgmvgUs.s 			page 12


 621 0233 60       		.byte	0x60
 622 0234 0D020000 		.4byte	0x20d
 623 0238 13       		.uleb128 0x13
 624 0239 98       		.byte	0x98
 625 023a 06       		.byte	0x6
 626 023b 66       		.byte	0x66
 627 023c 4D020000 		.4byte	0x24d
 628 0240 0F       		.uleb128 0xf
 629 0241 FE020000 		.4byte	.LASF37
 630 0245 06       		.byte	0x6
 631 0246 6A       		.byte	0x6a
 632 0247 4D020000 		.4byte	0x24d
 633 024b 00       		.byte	0
 634 024c 00       		.byte	0
 635 024d 06       		.uleb128 0x6
 636 024e 2D020000 		.4byte	0x22d
 637 0252 5D020000 		.4byte	0x25d
 638 0256 07       		.uleb128 0x7
 639 0257 A3000000 		.4byte	0xa3
 640 025b 12       		.byte	0x12
 641 025c 00       		.byte	0
 642 025d 04       		.uleb128 0x4
 643 025e 9B010000 		.4byte	.LASF38
 644 0262 06       		.byte	0x6
 645 0263 6C       		.byte	0x6c
 646 0264 38020000 		.4byte	0x238
 647 0268 10       		.uleb128 0x10
 648 0269 04       		.byte	0x4
 649 026a 6E020000 		.4byte	0x26e
 650 026e 15       		.uleb128 0x15
 651 026f 5D020000 		.4byte	0x25d
 652 0273 16       		.uleb128 0x16
 653 0274 1F000000 		.4byte	.LASF39
 654 0278 01       		.byte	0x1
 655 0279 42       		.byte	0x42
 656 027a 00000000 		.4byte	.LFB63
 657 027e 0C000000 		.4byte	.LFE63-.LFB63
 658 0282 01       		.uleb128 0x1
 659 0283 9C       		.byte	0x9c
 660 0284 9C020000 		.4byte	0x29c
 661 0288 17       		.uleb128 0x17
 662 0289 0C000000 		.4byte	.LVL0
 663 028d E2030000 		.4byte	0x3e2
 664 0291 18       		.uleb128 0x18
 665 0292 01       		.uleb128 0x1
 666 0293 50       		.byte	0x50
 667 0294 05       		.uleb128 0x5
 668 0295 03       		.byte	0x3
 669 0296 00000000 		.4byte	.LANCHOR0
 670 029a 00       		.byte	0
 671 029b 00       		.byte	0
 672 029c 16       		.uleb128 0x16
 673 029d 9F020000 		.4byte	.LASF40
 674 02a1 01       		.byte	0x1
 675 02a2 64       		.byte	0x64
 676 02a3 00000000 		.4byte	.LFB65
 677 02a7 24000000 		.4byte	.LFE65-.LFB65
ARM GAS  /tmp/ccgmvgUs.s 			page 13


 678 02ab 01       		.uleb128 0x1
 679 02ac 9C       		.byte	0x9c
 680 02ad CA020000 		.4byte	0x2ca
 681 02b1 19       		.uleb128 0x19
 682 02b2 CB020000 		.4byte	.LASF42
 683 02b6 01       		.byte	0x1
 684 02b7 64       		.byte	0x64
 685 02b8 07020000 		.4byte	0x207
 686 02bc 00000000 		.4byte	.LLST0
 687 02c0 1A       		.uleb128 0x1a
 688 02c1 22000000 		.4byte	.LVL4
 689 02c5 F3030000 		.4byte	0x3f3
 690 02c9 00       		.byte	0
 691 02ca 16       		.uleb128 0x16
 692 02cb 88020000 		.4byte	.LASF41
 693 02cf 01       		.byte	0x1
 694 02d0 79       		.byte	0x79
 695 02d1 00000000 		.4byte	.LFB66
 696 02d5 A2000000 		.4byte	.LFE66-.LFB66
 697 02d9 01       		.uleb128 0x1
 698 02da 9C       		.byte	0x9c
 699 02db 33030000 		.4byte	0x333
 700 02df 19       		.uleb128 0x19
 701 02e0 CB020000 		.4byte	.LASF42
 702 02e4 01       		.byte	0x1
 703 02e5 79       		.byte	0x79
 704 02e6 07020000 		.4byte	0x207
 705 02ea 3A000000 		.4byte	.LLST1
 706 02ee 19       		.uleb128 0x19
 707 02ef 17000000 		.4byte	.LASF43
 708 02f3 01       		.byte	0x1
 709 02f4 79       		.byte	0x79
 710 02f5 DB010000 		.4byte	0x1db
 711 02f9 5B000000 		.4byte	.LLST2
 712 02fd 1B       		.uleb128 0x1b
 713 02fe 5C000000 		.4byte	.LBB2
 714 0302 2C000000 		.4byte	.LBE2-.LBB2
 715 0306 1C       		.uleb128 0x1c
 716 0307 6E00     		.ascii	"n\000"
 717 0309 01       		.byte	0x1
 718 030a AC       		.byte	0xac
 719 030b 8C000000 		.4byte	0x8c
 720 030f 87000000 		.4byte	.LLST3
 721 0313 1D       		.uleb128 0x1d
 722 0314 F9020000 		.4byte	.LASF44
 723 0318 01       		.byte	0x1
 724 0319 AD       		.byte	0xad
 725 031a 8C000000 		.4byte	0x8c
 726 031e AE000000 		.4byte	.LLST4
 727 0322 1D       		.uleb128 0x1d
 728 0323 07030000 		.4byte	.LASF45
 729 0327 01       		.byte	0x1
 730 0328 AE       		.byte	0xae
 731 0329 8C000000 		.4byte	0x8c
 732 032d EF000000 		.4byte	.LLST5
 733 0331 00       		.byte	0
 734 0332 00       		.byte	0
ARM GAS  /tmp/ccgmvgUs.s 			page 14


 735 0333 16       		.uleb128 0x16
 736 0334 13010000 		.4byte	.LASF46
 737 0338 01       		.byte	0x1
 738 0339 C3       		.byte	0xc3
 739 033a 00000000 		.4byte	.LFB67
 740 033e 2C000000 		.4byte	.LFE67-.LFB67
 741 0342 01       		.uleb128 0x1
 742 0343 9C       		.byte	0x9c
 743 0344 67030000 		.4byte	0x367
 744 0348 19       		.uleb128 0x19
 745 0349 CB020000 		.4byte	.LASF42
 746 034d 01       		.byte	0x1
 747 034e C3       		.byte	0xc3
 748 034f 07020000 		.4byte	0x207
 749 0353 5E010000 		.4byte	.LLST6
 750 0357 19       		.uleb128 0x19
 751 0358 17000000 		.4byte	.LASF43
 752 035c 01       		.byte	0x1
 753 035d C3       		.byte	0xc3
 754 035e DB010000 		.4byte	0x1db
 755 0362 7F010000 		.4byte	.LLST7
 756 0366 00       		.byte	0
 757 0367 16       		.uleb128 0x16
 758 0368 64030000 		.4byte	.LASF47
 759 036c 01       		.byte	0x1
 760 036d 4F       		.byte	0x4f
 761 036e 00000000 		.4byte	.LFB64
 762 0372 38000000 		.4byte	.LFE64-.LFB64
 763 0376 01       		.uleb128 0x1
 764 0377 9C       		.byte	0x9c
 765 0378 C5030000 		.4byte	0x3c5
 766 037c 19       		.uleb128 0x19
 767 037d CB020000 		.4byte	.LASF42
 768 0381 01       		.byte	0x1
 769 0382 4F       		.byte	0x4f
 770 0383 07020000 		.4byte	0x207
 771 0387 A0010000 		.4byte	.LLST8
 772 038b 1C       		.uleb128 0x1c
 773 038c 6900     		.ascii	"i\000"
 774 038e 01       		.byte	0x1
 775 038f 50       		.byte	0x50
 776 0390 2C000000 		.4byte	0x2c
 777 0394 00020000 		.4byte	.LLST9
 778 0398 1A       		.uleb128 0x1a
 779 0399 14000000 		.4byte	.LVL19
 780 039d CA020000 		.4byte	0x2ca
 781 03a1 1E       		.uleb128 0x1e
 782 03a2 2C000000 		.4byte	.LVL23
 783 03a6 33030000 		.4byte	0x333
 784 03aa BB030000 		.4byte	0x3bb
 785 03ae 18       		.uleb128 0x18
 786 03af 01       		.uleb128 0x1
 787 03b0 51       		.byte	0x51
 788 03b1 02       		.uleb128 0x2
 789 03b2 74       		.byte	0x74
 790 03b3 7F       		.sleb128 -1
 791 03b4 18       		.uleb128 0x18
ARM GAS  /tmp/ccgmvgUs.s 			page 15


 792 03b5 01       		.uleb128 0x1
 793 03b6 50       		.byte	0x50
 794 03b7 02       		.uleb128 0x2
 795 03b8 75       		.byte	0x75
 796 03b9 00       		.sleb128 0
 797 03ba 00       		.byte	0
 798 03bb 1A       		.uleb128 0x1a
 799 03bc 36000000 		.4byte	.LVL25
 800 03c0 FA030000 		.4byte	0x3fa
 801 03c4 00       		.byte	0
 802 03c5 1F       		.uleb128 0x1f
 803 03c6 82010000 		.4byte	.LASF48
 804 03ca 07       		.byte	0x7
 805 03cb 0706     		.2byte	0x607
 806 03cd C1000000 		.4byte	0xc1
 807 03d1 20       		.uleb128 0x20
 808 03d2 0C030000 		.4byte	.LASF49
 809 03d6 01       		.byte	0x1
 810 03d7 2B       		.byte	0x2b
 811 03d8 AB010000 		.4byte	0x1ab
 812 03dc 05       		.uleb128 0x5
 813 03dd 03       		.byte	0x3
 814 03de 00000000 		.4byte	EXTD1
 815 03e2 21       		.uleb128 0x21
 816 03e3 1C030000 		.4byte	.LASF55
 817 03e7 05       		.byte	0x5
 818 03e8 91       		.byte	0x91
 819 03e9 F3030000 		.4byte	0x3f3
 820 03ed 12       		.uleb128 0x12
 821 03ee 07020000 		.4byte	0x207
 822 03f2 00       		.byte	0
 823 03f3 22       		.uleb128 0x22
 824 03f4 D4000000 		.4byte	.LASF50
 825 03f8 08       		.byte	0x8
 826 03f9 8C       		.byte	0x8c
 827 03fa 22       		.uleb128 0x22
 828 03fb FB000000 		.4byte	.LASF51
 829 03ff 08       		.byte	0x8
 830 0400 8B       		.byte	0x8b
 831 0401 00       		.byte	0
 832              		.section	.debug_abbrev,"",%progbits
 833              	.Ldebug_abbrev0:
 834 0000 01       		.uleb128 0x1
 835 0001 11       		.uleb128 0x11
 836 0002 01       		.byte	0x1
 837 0003 25       		.uleb128 0x25
 838 0004 0E       		.uleb128 0xe
 839 0005 13       		.uleb128 0x13
 840 0006 0B       		.uleb128 0xb
 841 0007 03       		.uleb128 0x3
 842 0008 0E       		.uleb128 0xe
 843 0009 1B       		.uleb128 0x1b
 844 000a 0E       		.uleb128 0xe
 845 000b 55       		.uleb128 0x55
 846 000c 17       		.uleb128 0x17
 847 000d 11       		.uleb128 0x11
 848 000e 01       		.uleb128 0x1
ARM GAS  /tmp/ccgmvgUs.s 			page 16


 849 000f 10       		.uleb128 0x10
 850 0010 17       		.uleb128 0x17
 851 0011 00       		.byte	0
 852 0012 00       		.byte	0
 853 0013 02       		.uleb128 0x2
 854 0014 24       		.uleb128 0x24
 855 0015 00       		.byte	0
 856 0016 0B       		.uleb128 0xb
 857 0017 0B       		.uleb128 0xb
 858 0018 3E       		.uleb128 0x3e
 859 0019 0B       		.uleb128 0xb
 860 001a 03       		.uleb128 0x3
 861 001b 08       		.uleb128 0x8
 862 001c 00       		.byte	0
 863 001d 00       		.byte	0
 864 001e 03       		.uleb128 0x3
 865 001f 24       		.uleb128 0x24
 866 0020 00       		.byte	0
 867 0021 0B       		.uleb128 0xb
 868 0022 0B       		.uleb128 0xb
 869 0023 3E       		.uleb128 0x3e
 870 0024 0B       		.uleb128 0xb
 871 0025 03       		.uleb128 0x3
 872 0026 0E       		.uleb128 0xe
 873 0027 00       		.byte	0
 874 0028 00       		.byte	0
 875 0029 04       		.uleb128 0x4
 876 002a 16       		.uleb128 0x16
 877 002b 00       		.byte	0
 878 002c 03       		.uleb128 0x3
 879 002d 0E       		.uleb128 0xe
 880 002e 3A       		.uleb128 0x3a
 881 002f 0B       		.uleb128 0xb
 882 0030 3B       		.uleb128 0x3b
 883 0031 0B       		.uleb128 0xb
 884 0032 49       		.uleb128 0x49
 885 0033 13       		.uleb128 0x13
 886 0034 00       		.byte	0
 887 0035 00       		.byte	0
 888 0036 05       		.uleb128 0x5
 889 0037 35       		.uleb128 0x35
 890 0038 00       		.byte	0
 891 0039 49       		.uleb128 0x49
 892 003a 13       		.uleb128 0x13
 893 003b 00       		.byte	0
 894 003c 00       		.byte	0
 895 003d 06       		.uleb128 0x6
 896 003e 01       		.uleb128 0x1
 897 003f 01       		.byte	0x1
 898 0040 49       		.uleb128 0x49
 899 0041 13       		.uleb128 0x13
 900 0042 01       		.uleb128 0x1
 901 0043 13       		.uleb128 0x13
 902 0044 00       		.byte	0
 903 0045 00       		.byte	0
 904 0046 07       		.uleb128 0x7
 905 0047 21       		.uleb128 0x21
ARM GAS  /tmp/ccgmvgUs.s 			page 17


 906 0048 00       		.byte	0
 907 0049 49       		.uleb128 0x49
 908 004a 13       		.uleb128 0x13
 909 004b 2F       		.uleb128 0x2f
 910 004c 0B       		.uleb128 0xb
 911 004d 00       		.byte	0
 912 004e 00       		.byte	0
 913 004f 08       		.uleb128 0x8
 914 0050 13       		.uleb128 0x13
 915 0051 01       		.byte	0x1
 916 0052 0B       		.uleb128 0xb
 917 0053 0B       		.uleb128 0xb
 918 0054 3A       		.uleb128 0x3a
 919 0055 0B       		.uleb128 0xb
 920 0056 3B       		.uleb128 0x3b
 921 0057 05       		.uleb128 0x5
 922 0058 01       		.uleb128 0x1
 923 0059 13       		.uleb128 0x13
 924 005a 00       		.byte	0
 925 005b 00       		.byte	0
 926 005c 09       		.uleb128 0x9
 927 005d 0D       		.uleb128 0xd
 928 005e 00       		.byte	0
 929 005f 03       		.uleb128 0x3
 930 0060 08       		.uleb128 0x8
 931 0061 3A       		.uleb128 0x3a
 932 0062 0B       		.uleb128 0xb
 933 0063 3B       		.uleb128 0x3b
 934 0064 05       		.uleb128 0x5
 935 0065 49       		.uleb128 0x49
 936 0066 13       		.uleb128 0x13
 937 0067 38       		.uleb128 0x38
 938 0068 0B       		.uleb128 0xb
 939 0069 00       		.byte	0
 940 006a 00       		.byte	0
 941 006b 0A       		.uleb128 0xa
 942 006c 0D       		.uleb128 0xd
 943 006d 00       		.byte	0
 944 006e 03       		.uleb128 0x3
 945 006f 0E       		.uleb128 0xe
 946 0070 3A       		.uleb128 0x3a
 947 0071 0B       		.uleb128 0xb
 948 0072 3B       		.uleb128 0x3b
 949 0073 05       		.uleb128 0x5
 950 0074 49       		.uleb128 0x49
 951 0075 13       		.uleb128 0x13
 952 0076 38       		.uleb128 0x38
 953 0077 0B       		.uleb128 0xb
 954 0078 00       		.byte	0
 955 0079 00       		.byte	0
 956 007a 0B       		.uleb128 0xb
 957 007b 16       		.uleb128 0x16
 958 007c 00       		.byte	0
 959 007d 03       		.uleb128 0x3
 960 007e 0E       		.uleb128 0xe
 961 007f 3A       		.uleb128 0x3a
 962 0080 0B       		.uleb128 0xb
ARM GAS  /tmp/ccgmvgUs.s 			page 18


 963 0081 3B       		.uleb128 0x3b
 964 0082 05       		.uleb128 0x5
 965 0083 49       		.uleb128 0x49
 966 0084 13       		.uleb128 0x13
 967 0085 00       		.byte	0
 968 0086 00       		.byte	0
 969 0087 0C       		.uleb128 0xc
 970 0088 04       		.uleb128 0x4
 971 0089 01       		.byte	0x1
 972 008a 0B       		.uleb128 0xb
 973 008b 0B       		.uleb128 0xb
 974 008c 3A       		.uleb128 0x3a
 975 008d 0B       		.uleb128 0xb
 976 008e 3B       		.uleb128 0x3b
 977 008f 0B       		.uleb128 0xb
 978 0090 01       		.uleb128 0x1
 979 0091 13       		.uleb128 0x13
 980 0092 00       		.byte	0
 981 0093 00       		.byte	0
 982 0094 0D       		.uleb128 0xd
 983 0095 28       		.uleb128 0x28
 984 0096 00       		.byte	0
 985 0097 03       		.uleb128 0x3
 986 0098 0E       		.uleb128 0xe
 987 0099 1C       		.uleb128 0x1c
 988 009a 0D       		.uleb128 0xd
 989 009b 00       		.byte	0
 990 009c 00       		.byte	0
 991 009d 0E       		.uleb128 0xe
 992 009e 13       		.uleb128 0x13
 993 009f 01       		.byte	0x1
 994 00a0 03       		.uleb128 0x3
 995 00a1 0E       		.uleb128 0xe
 996 00a2 0B       		.uleb128 0xb
 997 00a3 0B       		.uleb128 0xb
 998 00a4 3A       		.uleb128 0x3a
 999 00a5 0B       		.uleb128 0xb
 1000 00a6 3B       		.uleb128 0x3b
 1001 00a7 0B       		.uleb128 0xb
 1002 00a8 01       		.uleb128 0x1
 1003 00a9 13       		.uleb128 0x13
 1004 00aa 00       		.byte	0
 1005 00ab 00       		.byte	0
 1006 00ac 0F       		.uleb128 0xf
 1007 00ad 0D       		.uleb128 0xd
 1008 00ae 00       		.byte	0
 1009 00af 03       		.uleb128 0x3
 1010 00b0 0E       		.uleb128 0xe
 1011 00b1 3A       		.uleb128 0x3a
 1012 00b2 0B       		.uleb128 0xb
 1013 00b3 3B       		.uleb128 0x3b
 1014 00b4 0B       		.uleb128 0xb
 1015 00b5 49       		.uleb128 0x49
 1016 00b6 13       		.uleb128 0x13
 1017 00b7 38       		.uleb128 0x38
 1018 00b8 0B       		.uleb128 0xb
 1019 00b9 00       		.byte	0
ARM GAS  /tmp/ccgmvgUs.s 			page 19


 1020 00ba 00       		.byte	0
 1021 00bb 10       		.uleb128 0x10
 1022 00bc 0F       		.uleb128 0xf
 1023 00bd 00       		.byte	0
 1024 00be 0B       		.uleb128 0xb
 1025 00bf 0B       		.uleb128 0xb
 1026 00c0 49       		.uleb128 0x49
 1027 00c1 13       		.uleb128 0x13
 1028 00c2 00       		.byte	0
 1029 00c3 00       		.byte	0
 1030 00c4 11       		.uleb128 0x11
 1031 00c5 15       		.uleb128 0x15
 1032 00c6 01       		.byte	0x1
 1033 00c7 27       		.uleb128 0x27
 1034 00c8 19       		.uleb128 0x19
 1035 00c9 01       		.uleb128 0x1
 1036 00ca 13       		.uleb128 0x13
 1037 00cb 00       		.byte	0
 1038 00cc 00       		.byte	0
 1039 00cd 12       		.uleb128 0x12
 1040 00ce 05       		.uleb128 0x5
 1041 00cf 00       		.byte	0
 1042 00d0 49       		.uleb128 0x49
 1043 00d1 13       		.uleb128 0x13
 1044 00d2 00       		.byte	0
 1045 00d3 00       		.byte	0
 1046 00d4 13       		.uleb128 0x13
 1047 00d5 13       		.uleb128 0x13
 1048 00d6 01       		.byte	0x1
 1049 00d7 0B       		.uleb128 0xb
 1050 00d8 0B       		.uleb128 0xb
 1051 00d9 3A       		.uleb128 0x3a
 1052 00da 0B       		.uleb128 0xb
 1053 00db 3B       		.uleb128 0x3b
 1054 00dc 0B       		.uleb128 0xb
 1055 00dd 01       		.uleb128 0x1
 1056 00de 13       		.uleb128 0x13
 1057 00df 00       		.byte	0
 1058 00e0 00       		.byte	0
 1059 00e1 14       		.uleb128 0x14
 1060 00e2 0D       		.uleb128 0xd
 1061 00e3 00       		.byte	0
 1062 00e4 03       		.uleb128 0x3
 1063 00e5 08       		.uleb128 0x8
 1064 00e6 3A       		.uleb128 0x3a
 1065 00e7 0B       		.uleb128 0xb
 1066 00e8 3B       		.uleb128 0x3b
 1067 00e9 0B       		.uleb128 0xb
 1068 00ea 49       		.uleb128 0x49
 1069 00eb 13       		.uleb128 0x13
 1070 00ec 38       		.uleb128 0x38
 1071 00ed 0B       		.uleb128 0xb
 1072 00ee 00       		.byte	0
 1073 00ef 00       		.byte	0
 1074 00f0 15       		.uleb128 0x15
 1075 00f1 26       		.uleb128 0x26
 1076 00f2 00       		.byte	0
ARM GAS  /tmp/ccgmvgUs.s 			page 20


 1077 00f3 49       		.uleb128 0x49
 1078 00f4 13       		.uleb128 0x13
 1079 00f5 00       		.byte	0
 1080 00f6 00       		.byte	0
 1081 00f7 16       		.uleb128 0x16
 1082 00f8 2E       		.uleb128 0x2e
 1083 00f9 01       		.byte	0x1
 1084 00fa 3F       		.uleb128 0x3f
 1085 00fb 19       		.uleb128 0x19
 1086 00fc 03       		.uleb128 0x3
 1087 00fd 0E       		.uleb128 0xe
 1088 00fe 3A       		.uleb128 0x3a
 1089 00ff 0B       		.uleb128 0xb
 1090 0100 3B       		.uleb128 0x3b
 1091 0101 0B       		.uleb128 0xb
 1092 0102 27       		.uleb128 0x27
 1093 0103 19       		.uleb128 0x19
 1094 0104 11       		.uleb128 0x11
 1095 0105 01       		.uleb128 0x1
 1096 0106 12       		.uleb128 0x12
 1097 0107 06       		.uleb128 0x6
 1098 0108 40       		.uleb128 0x40
 1099 0109 18       		.uleb128 0x18
 1100 010a 9742     		.uleb128 0x2117
 1101 010c 19       		.uleb128 0x19
 1102 010d 01       		.uleb128 0x1
 1103 010e 13       		.uleb128 0x13
 1104 010f 00       		.byte	0
 1105 0110 00       		.byte	0
 1106 0111 17       		.uleb128 0x17
 1107 0112 898201   		.uleb128 0x4109
 1108 0115 01       		.byte	0x1
 1109 0116 11       		.uleb128 0x11
 1110 0117 01       		.uleb128 0x1
 1111 0118 9542     		.uleb128 0x2115
 1112 011a 19       		.uleb128 0x19
 1113 011b 31       		.uleb128 0x31
 1114 011c 13       		.uleb128 0x13
 1115 011d 00       		.byte	0
 1116 011e 00       		.byte	0
 1117 011f 18       		.uleb128 0x18
 1118 0120 8A8201   		.uleb128 0x410a
 1119 0123 00       		.byte	0
 1120 0124 02       		.uleb128 0x2
 1121 0125 18       		.uleb128 0x18
 1122 0126 9142     		.uleb128 0x2111
 1123 0128 18       		.uleb128 0x18
 1124 0129 00       		.byte	0
 1125 012a 00       		.byte	0
 1126 012b 19       		.uleb128 0x19
 1127 012c 05       		.uleb128 0x5
 1128 012d 00       		.byte	0
 1129 012e 03       		.uleb128 0x3
 1130 012f 0E       		.uleb128 0xe
 1131 0130 3A       		.uleb128 0x3a
 1132 0131 0B       		.uleb128 0xb
 1133 0132 3B       		.uleb128 0x3b
ARM GAS  /tmp/ccgmvgUs.s 			page 21


 1134 0133 0B       		.uleb128 0xb
 1135 0134 49       		.uleb128 0x49
 1136 0135 13       		.uleb128 0x13
 1137 0136 02       		.uleb128 0x2
 1138 0137 17       		.uleb128 0x17
 1139 0138 00       		.byte	0
 1140 0139 00       		.byte	0
 1141 013a 1A       		.uleb128 0x1a
 1142 013b 898201   		.uleb128 0x4109
 1143 013e 00       		.byte	0
 1144 013f 11       		.uleb128 0x11
 1145 0140 01       		.uleb128 0x1
 1146 0141 31       		.uleb128 0x31
 1147 0142 13       		.uleb128 0x13
 1148 0143 00       		.byte	0
 1149 0144 00       		.byte	0
 1150 0145 1B       		.uleb128 0x1b
 1151 0146 0B       		.uleb128 0xb
 1152 0147 01       		.byte	0x1
 1153 0148 11       		.uleb128 0x11
 1154 0149 01       		.uleb128 0x1
 1155 014a 12       		.uleb128 0x12
 1156 014b 06       		.uleb128 0x6
 1157 014c 00       		.byte	0
 1158 014d 00       		.byte	0
 1159 014e 1C       		.uleb128 0x1c
 1160 014f 34       		.uleb128 0x34
 1161 0150 00       		.byte	0
 1162 0151 03       		.uleb128 0x3
 1163 0152 08       		.uleb128 0x8
 1164 0153 3A       		.uleb128 0x3a
 1165 0154 0B       		.uleb128 0xb
 1166 0155 3B       		.uleb128 0x3b
 1167 0156 0B       		.uleb128 0xb
 1168 0157 49       		.uleb128 0x49
 1169 0158 13       		.uleb128 0x13
 1170 0159 02       		.uleb128 0x2
 1171 015a 17       		.uleb128 0x17
 1172 015b 00       		.byte	0
 1173 015c 00       		.byte	0
 1174 015d 1D       		.uleb128 0x1d
 1175 015e 34       		.uleb128 0x34
 1176 015f 00       		.byte	0
 1177 0160 03       		.uleb128 0x3
 1178 0161 0E       		.uleb128 0xe
 1179 0162 3A       		.uleb128 0x3a
 1180 0163 0B       		.uleb128 0xb
 1181 0164 3B       		.uleb128 0x3b
 1182 0165 0B       		.uleb128 0xb
 1183 0166 49       		.uleb128 0x49
 1184 0167 13       		.uleb128 0x13
 1185 0168 02       		.uleb128 0x2
 1186 0169 17       		.uleb128 0x17
 1187 016a 00       		.byte	0
 1188 016b 00       		.byte	0
 1189 016c 1E       		.uleb128 0x1e
 1190 016d 898201   		.uleb128 0x4109
ARM GAS  /tmp/ccgmvgUs.s 			page 22


 1191 0170 01       		.byte	0x1
 1192 0171 11       		.uleb128 0x11
 1193 0172 01       		.uleb128 0x1
 1194 0173 31       		.uleb128 0x31
 1195 0174 13       		.uleb128 0x13
 1196 0175 01       		.uleb128 0x1
 1197 0176 13       		.uleb128 0x13
 1198 0177 00       		.byte	0
 1199 0178 00       		.byte	0
 1200 0179 1F       		.uleb128 0x1f
 1201 017a 34       		.uleb128 0x34
 1202 017b 00       		.byte	0
 1203 017c 03       		.uleb128 0x3
 1204 017d 0E       		.uleb128 0xe
 1205 017e 3A       		.uleb128 0x3a
 1206 017f 0B       		.uleb128 0xb
 1207 0180 3B       		.uleb128 0x3b
 1208 0181 05       		.uleb128 0x5
 1209 0182 49       		.uleb128 0x49
 1210 0183 13       		.uleb128 0x13
 1211 0184 3F       		.uleb128 0x3f
 1212 0185 19       		.uleb128 0x19
 1213 0186 3C       		.uleb128 0x3c
 1214 0187 19       		.uleb128 0x19
 1215 0188 00       		.byte	0
 1216 0189 00       		.byte	0
 1217 018a 20       		.uleb128 0x20
 1218 018b 34       		.uleb128 0x34
 1219 018c 00       		.byte	0
 1220 018d 03       		.uleb128 0x3
 1221 018e 0E       		.uleb128 0xe
 1222 018f 3A       		.uleb128 0x3a
 1223 0190 0B       		.uleb128 0xb
 1224 0191 3B       		.uleb128 0x3b
 1225 0192 0B       		.uleb128 0xb
 1226 0193 49       		.uleb128 0x49
 1227 0194 13       		.uleb128 0x13
 1228 0195 3F       		.uleb128 0x3f
 1229 0196 19       		.uleb128 0x19
 1230 0197 02       		.uleb128 0x2
 1231 0198 18       		.uleb128 0x18
 1232 0199 00       		.byte	0
 1233 019a 00       		.byte	0
 1234 019b 21       		.uleb128 0x21
 1235 019c 2E       		.uleb128 0x2e
 1236 019d 01       		.byte	0x1
 1237 019e 3F       		.uleb128 0x3f
 1238 019f 19       		.uleb128 0x19
 1239 01a0 03       		.uleb128 0x3
 1240 01a1 0E       		.uleb128 0xe
 1241 01a2 3A       		.uleb128 0x3a
 1242 01a3 0B       		.uleb128 0xb
 1243 01a4 3B       		.uleb128 0x3b
 1244 01a5 0B       		.uleb128 0xb
 1245 01a6 27       		.uleb128 0x27
 1246 01a7 19       		.uleb128 0x19
 1247 01a8 3C       		.uleb128 0x3c
ARM GAS  /tmp/ccgmvgUs.s 			page 23


 1248 01a9 19       		.uleb128 0x19
 1249 01aa 01       		.uleb128 0x1
 1250 01ab 13       		.uleb128 0x13
 1251 01ac 00       		.byte	0
 1252 01ad 00       		.byte	0
 1253 01ae 22       		.uleb128 0x22
 1254 01af 2E       		.uleb128 0x2e
 1255 01b0 00       		.byte	0
 1256 01b1 3F       		.uleb128 0x3f
 1257 01b2 19       		.uleb128 0x19
 1258 01b3 03       		.uleb128 0x3
 1259 01b4 0E       		.uleb128 0xe
 1260 01b5 3A       		.uleb128 0x3a
 1261 01b6 0B       		.uleb128 0xb
 1262 01b7 3B       		.uleb128 0x3b
 1263 01b8 0B       		.uleb128 0xb
 1264 01b9 27       		.uleb128 0x27
 1265 01ba 19       		.uleb128 0x19
 1266 01bb 3C       		.uleb128 0x3c
 1267 01bc 19       		.uleb128 0x19
 1268 01bd 00       		.byte	0
 1269 01be 00       		.byte	0
 1270 01bf 00       		.byte	0
 1271              		.section	.debug_loc,"",%progbits
 1272              	.Ldebug_loc0:
 1273              	.LLST0:
 1274 0000 00000000 		.4byte	.LVL1
 1275 0004 08000000 		.4byte	.LVL2
 1276 0008 0100     		.2byte	0x1
 1277 000a 50       		.byte	0x50
 1278 000b 08000000 		.4byte	.LVL2
 1279 000f 1E000000 		.4byte	.LVL3
 1280 0013 0400     		.2byte	0x4
 1281 0015 F3       		.byte	0xf3
 1282 0016 01       		.uleb128 0x1
 1283 0017 50       		.byte	0x50
 1284 0018 9F       		.byte	0x9f
 1285 0019 1E000000 		.4byte	.LVL3
 1286 001d 21000000 		.4byte	.LVL4-1
 1287 0021 0100     		.2byte	0x1
 1288 0023 50       		.byte	0x50
 1289 0024 21000000 		.4byte	.LVL4-1
 1290 0028 24000000 		.4byte	.LFE65
 1291 002c 0400     		.2byte	0x4
 1292 002e F3       		.byte	0xf3
 1293 002f 01       		.uleb128 0x1
 1294 0030 50       		.byte	0x50
 1295 0031 9F       		.byte	0x9f
 1296 0032 00000000 		.4byte	0
 1297 0036 00000000 		.4byte	0
 1298              	.LLST1:
 1299 003a 00000000 		.4byte	.LVL5
 1300 003e 04000000 		.4byte	.LVL6
 1301 0042 0100     		.2byte	0x1
 1302 0044 50       		.byte	0x50
 1303 0045 04000000 		.4byte	.LVL6
 1304 0049 A2000000 		.4byte	.LFE66
ARM GAS  /tmp/ccgmvgUs.s 			page 24


 1305 004d 0400     		.2byte	0x4
 1306 004f F3       		.byte	0xf3
 1307 0050 01       		.uleb128 0x1
 1308 0051 50       		.byte	0x50
 1309 0052 9F       		.byte	0x9f
 1310 0053 00000000 		.4byte	0
 1311 0057 00000000 		.4byte	0
 1312              	.LLST2:
 1313 005b 00000000 		.4byte	.LVL5
 1314 005f 76000000 		.4byte	.LVL10
 1315 0063 0100     		.2byte	0x1
 1316 0065 51       		.byte	0x51
 1317 0066 76000000 		.4byte	.LVL10
 1318 006a 8C000000 		.4byte	.LVL12
 1319 006e 0400     		.2byte	0x4
 1320 0070 F3       		.byte	0xf3
 1321 0071 01       		.uleb128 0x1
 1322 0072 51       		.byte	0x51
 1323 0073 9F       		.byte	0x9f
 1324 0074 8C000000 		.4byte	.LVL12
 1325 0078 A2000000 		.4byte	.LFE66
 1326 007c 0100     		.2byte	0x1
 1327 007e 51       		.byte	0x51
 1328 007f 00000000 		.4byte	0
 1329 0083 00000000 		.4byte	0
 1330              	.LLST3:
 1331 0087 5C000000 		.4byte	.LVL7
 1332 008b 76000000 		.4byte	.LVL10
 1333 008f 0500     		.2byte	0x5
 1334 0091 71       		.byte	0x71
 1335 0092 00       		.sleb128 0
 1336 0093 32       		.byte	0x32
 1337 0094 25       		.byte	0x25
 1338 0095 9F       		.byte	0x9f
 1339 0096 76000000 		.4byte	.LVL10
 1340 009a 88000000 		.4byte	.LVL11
 1341 009e 0600     		.2byte	0x6
 1342 00a0 F3       		.byte	0xf3
 1343 00a1 01       		.uleb128 0x1
 1344 00a2 51       		.byte	0x51
 1345 00a3 32       		.byte	0x32
 1346 00a4 25       		.byte	0x25
 1347 00a5 9F       		.byte	0x9f
 1348 00a6 00000000 		.4byte	0
 1349 00aa 00000000 		.4byte	0
 1350              	.LLST4:
 1351 00ae 66000000 		.4byte	.LVL8
 1352 00b2 72000000 		.4byte	.LVL9
 1353 00b6 0600     		.2byte	0x6
 1354 00b8 3F       		.byte	0x3f
 1355 00b9 73       		.byte	0x73
 1356 00ba 00       		.sleb128 0
 1357 00bb 24       		.byte	0x24
 1358 00bc 20       		.byte	0x20
 1359 00bd 9F       		.byte	0x9f
 1360 00be 72000000 		.4byte	.LVL9
 1361 00c2 76000000 		.4byte	.LVL10
ARM GAS  /tmp/ccgmvgUs.s 			page 25


 1362 00c6 0A00     		.2byte	0xa
 1363 00c8 3F       		.byte	0x3f
 1364 00c9 71       		.byte	0x71
 1365 00ca 00       		.sleb128 0
 1366 00cb 33       		.byte	0x33
 1367 00cc 1A       		.byte	0x1a
 1368 00cd 32       		.byte	0x32
 1369 00ce 24       		.byte	0x24
 1370 00cf 24       		.byte	0x24
 1371 00d0 20       		.byte	0x20
 1372 00d1 9F       		.byte	0x9f
 1373 00d2 76000000 		.4byte	.LVL10
 1374 00d6 88000000 		.4byte	.LVL11
 1375 00da 0B00     		.2byte	0xb
 1376 00dc 3F       		.byte	0x3f
 1377 00dd F3       		.byte	0xf3
 1378 00de 01       		.uleb128 0x1
 1379 00df 51       		.byte	0x51
 1380 00e0 33       		.byte	0x33
 1381 00e1 1A       		.byte	0x1a
 1382 00e2 32       		.byte	0x32
 1383 00e3 24       		.byte	0x24
 1384 00e4 24       		.byte	0x24
 1385 00e5 20       		.byte	0x20
 1386 00e6 9F       		.byte	0x9f
 1387 00e7 00000000 		.4byte	0
 1388 00eb 00000000 		.4byte	0
 1389              	.LLST5:
 1390 00ef 66000000 		.4byte	.LVL8
 1391 00f3 72000000 		.4byte	.LVL9
 1392 00f7 1500     		.2byte	0x15
 1393 00f9 71       		.byte	0x71
 1394 00fa 00       		.sleb128 0
 1395 00fb 33       		.byte	0x33
 1396 00fc 24       		.byte	0x24
 1397 00fd F3       		.byte	0xf3
 1398 00fe 01       		.uleb128 0x1
 1399 00ff 50       		.byte	0x50
 1400 0100 23       		.byte	0x23
 1401 0101 04       		.uleb128 0x4
 1402 0102 06       		.byte	0x6
 1403 0103 22       		.byte	0x22
 1404 0104 06       		.byte	0x6
 1405 0105 08       		.byte	0x8
 1406 0106 F0       		.byte	0xf0
 1407 0107 1A       		.byte	0x1a
 1408 0108 34       		.byte	0x34
 1409 0109 25       		.byte	0x25
 1410 010a 73       		.byte	0x73
 1411 010b 00       		.sleb128 0
 1412 010c 24       		.byte	0x24
 1413 010d 9F       		.byte	0x9f
 1414 010e 72000000 		.4byte	.LVL9
 1415 0112 76000000 		.4byte	.LVL10
 1416 0116 1900     		.2byte	0x19
 1417 0118 71       		.byte	0x71
 1418 0119 00       		.sleb128 0
ARM GAS  /tmp/ccgmvgUs.s 			page 26


 1419 011a 33       		.byte	0x33
 1420 011b 24       		.byte	0x24
 1421 011c F3       		.byte	0xf3
 1422 011d 01       		.uleb128 0x1
 1423 011e 50       		.byte	0x50
 1424 011f 23       		.byte	0x23
 1425 0120 04       		.uleb128 0x4
 1426 0121 06       		.byte	0x6
 1427 0122 22       		.byte	0x22
 1428 0123 06       		.byte	0x6
 1429 0124 08       		.byte	0x8
 1430 0125 F0       		.byte	0xf0
 1431 0126 1A       		.byte	0x1a
 1432 0127 34       		.byte	0x34
 1433 0128 25       		.byte	0x25
 1434 0129 71       		.byte	0x71
 1435 012a 00       		.sleb128 0
 1436 012b 33       		.byte	0x33
 1437 012c 1A       		.byte	0x1a
 1438 012d 32       		.byte	0x32
 1439 012e 24       		.byte	0x24
 1440 012f 24       		.byte	0x24
 1441 0130 9F       		.byte	0x9f
 1442 0131 76000000 		.4byte	.LVL10
 1443 0135 88000000 		.4byte	.LVL11
 1444 0139 1B00     		.2byte	0x1b
 1445 013b F3       		.byte	0xf3
 1446 013c 01       		.uleb128 0x1
 1447 013d 51       		.byte	0x51
 1448 013e 33       		.byte	0x33
 1449 013f 24       		.byte	0x24
 1450 0140 F3       		.byte	0xf3
 1451 0141 01       		.uleb128 0x1
 1452 0142 50       		.byte	0x50
 1453 0143 23       		.byte	0x23
 1454 0144 04       		.uleb128 0x4
 1455 0145 06       		.byte	0x6
 1456 0146 22       		.byte	0x22
 1457 0147 06       		.byte	0x6
 1458 0148 08       		.byte	0x8
 1459 0149 F0       		.byte	0xf0
 1460 014a 1A       		.byte	0x1a
 1461 014b 34       		.byte	0x34
 1462 014c 25       		.byte	0x25
 1463 014d F3       		.byte	0xf3
 1464 014e 01       		.uleb128 0x1
 1465 014f 51       		.byte	0x51
 1466 0150 33       		.byte	0x33
 1467 0151 1A       		.byte	0x1a
 1468 0152 32       		.byte	0x32
 1469 0153 24       		.byte	0x24
 1470 0154 24       		.byte	0x24
 1471 0155 9F       		.byte	0x9f
 1472 0156 00000000 		.4byte	0
 1473 015a 00000000 		.4byte	0
 1474              	.LLST6:
 1475 015e 00000000 		.4byte	.LVL13
ARM GAS  /tmp/ccgmvgUs.s 			page 27


 1476 0162 10000000 		.4byte	.LVL15
 1477 0166 0100     		.2byte	0x1
 1478 0168 50       		.byte	0x50
 1479 0169 10000000 		.4byte	.LVL15
 1480 016d 2C000000 		.4byte	.LFE67
 1481 0171 0400     		.2byte	0x4
 1482 0173 F3       		.byte	0xf3
 1483 0174 01       		.uleb128 0x1
 1484 0175 50       		.byte	0x50
 1485 0176 9F       		.byte	0x9f
 1486 0177 00000000 		.4byte	0
 1487 017b 00000000 		.4byte	0
 1488              	.LLST7:
 1489 017f 00000000 		.4byte	.LVL13
 1490 0183 06000000 		.4byte	.LVL14
 1491 0187 0100     		.2byte	0x1
 1492 0189 51       		.byte	0x51
 1493 018a 06000000 		.4byte	.LVL14
 1494 018e 2C000000 		.4byte	.LFE67
 1495 0192 0400     		.2byte	0x4
 1496 0194 F3       		.byte	0xf3
 1497 0195 01       		.uleb128 0x1
 1498 0196 51       		.byte	0x51
 1499 0197 9F       		.byte	0x9f
 1500 0198 00000000 		.4byte	0
 1501 019c 00000000 		.4byte	0
 1502              	.LLST8:
 1503 01a0 00000000 		.4byte	.LVL16
 1504 01a4 0A000000 		.4byte	.LVL17
 1505 01a8 0100     		.2byte	0x1
 1506 01aa 50       		.byte	0x50
 1507 01ab 0A000000 		.4byte	.LVL17
 1508 01af 0E000000 		.4byte	.LVL18
 1509 01b3 0100     		.2byte	0x1
 1510 01b5 55       		.byte	0x55
 1511 01b6 0E000000 		.4byte	.LVL18
 1512 01ba 13000000 		.4byte	.LVL19-1
 1513 01be 0100     		.2byte	0x1
 1514 01c0 50       		.byte	0x50
 1515 01c1 13000000 		.4byte	.LVL19-1
 1516 01c5 26000000 		.4byte	.LVL21
 1517 01c9 0100     		.2byte	0x1
 1518 01cb 55       		.byte	0x55
 1519 01cc 26000000 		.4byte	.LVL21
 1520 01d0 2B000000 		.4byte	.LVL23-1
 1521 01d4 0100     		.2byte	0x1
 1522 01d6 50       		.byte	0x50
 1523 01d7 2B000000 		.4byte	.LVL23-1
 1524 01db 32000000 		.4byte	.LVL24
 1525 01df 0100     		.2byte	0x1
 1526 01e1 55       		.byte	0x55
 1527 01e2 32000000 		.4byte	.LVL24
 1528 01e6 35000000 		.4byte	.LVL25-1
 1529 01ea 0100     		.2byte	0x1
 1530 01ec 50       		.byte	0x50
 1531 01ed 35000000 		.4byte	.LVL25-1
 1532 01f1 38000000 		.4byte	.LFE64
ARM GAS  /tmp/ccgmvgUs.s 			page 28


 1533 01f5 0100     		.2byte	0x1
 1534 01f7 55       		.byte	0x55
 1535 01f8 00000000 		.4byte	0
 1536 01fc 00000000 		.4byte	0
 1537              	.LLST9:
 1538 0200 0A000000 		.4byte	.LVL17
 1539 0204 0E000000 		.4byte	.LVL18
 1540 0208 0200     		.2byte	0x2
 1541 020a 30       		.byte	0x30
 1542 020b 9F       		.byte	0x9f
 1543 020c 0E000000 		.4byte	.LVL18
 1544 0210 13000000 		.4byte	.LVL19-1
 1545 0214 0100     		.2byte	0x1
 1546 0216 51       		.byte	0x51
 1547 0217 13000000 		.4byte	.LVL19-1
 1548 021b 14000000 		.4byte	.LVL19
 1549 021f 0300     		.2byte	0x3
 1550 0221 74       		.byte	0x74
 1551 0222 7F       		.sleb128 -1
 1552 0223 9F       		.byte	0x9f
 1553 0224 14000000 		.4byte	.LVL19
 1554 0228 28000000 		.4byte	.LVL22
 1555 022c 0100     		.2byte	0x1
 1556 022e 54       		.byte	0x54
 1557 022f 28000000 		.4byte	.LVL22
 1558 0233 2B000000 		.4byte	.LVL23-1
 1559 0237 0100     		.2byte	0x1
 1560 0239 51       		.byte	0x51
 1561 023a 2B000000 		.4byte	.LVL23-1
 1562 023e 2C000000 		.4byte	.LVL23
 1563 0242 0300     		.2byte	0x3
 1564 0244 74       		.byte	0x74
 1565 0245 7F       		.sleb128 -1
 1566 0246 9F       		.byte	0x9f
 1567 0247 2C000000 		.4byte	.LVL23
 1568 024b 32000000 		.4byte	.LVL24
 1569 024f 0100     		.2byte	0x1
 1570 0251 54       		.byte	0x54
 1571 0252 00000000 		.4byte	0
 1572 0256 00000000 		.4byte	0
 1573              		.section	.debug_aranges,"",%progbits
 1574 0000 3C000000 		.4byte	0x3c
 1575 0004 0200     		.2byte	0x2
 1576 0006 00000000 		.4byte	.Ldebug_info0
 1577 000a 04       		.byte	0x4
 1578 000b 00       		.byte	0
 1579 000c 0000     		.2byte	0
 1580 000e 0000     		.2byte	0
 1581 0010 00000000 		.4byte	.LFB63
 1582 0014 0C000000 		.4byte	.LFE63-.LFB63
 1583 0018 00000000 		.4byte	.LFB65
 1584 001c 24000000 		.4byte	.LFE65-.LFB65
 1585 0020 00000000 		.4byte	.LFB66
 1586 0024 A2000000 		.4byte	.LFE66-.LFB66
 1587 0028 00000000 		.4byte	.LFB67
 1588 002c 2C000000 		.4byte	.LFE67-.LFB67
 1589 0030 00000000 		.4byte	.LFB64
ARM GAS  /tmp/ccgmvgUs.s 			page 29


 1590 0034 38000000 		.4byte	.LFE64-.LFB64
 1591 0038 00000000 		.4byte	0
 1592 003c 00000000 		.4byte	0
 1593              		.section	.debug_ranges,"",%progbits
 1594              	.Ldebug_ranges0:
 1595 0000 00000000 		.4byte	.LFB63
 1596 0004 0C000000 		.4byte	.LFE63
 1597 0008 00000000 		.4byte	.LFB65
 1598 000c 24000000 		.4byte	.LFE65
 1599 0010 00000000 		.4byte	.LFB66
 1600 0014 A2000000 		.4byte	.LFE66
 1601 0018 00000000 		.4byte	.LFB67
 1602 001c 2C000000 		.4byte	.LFE67
 1603 0020 00000000 		.4byte	.LFB64
 1604 0024 38000000 		.4byte	.LFE64
 1605 0028 00000000 		.4byte	0
 1606 002c 00000000 		.4byte	0
 1607              		.section	.debug_line,"",%progbits
 1608              	.Ldebug_line0:
 1609 0000 1C020000 		.section	.debug_str,"MS",%progbits,1
 1609      02008201 
 1609      00000201 
 1609      FB0E0D00 
 1609      01010101 
 1610              	.LASF25:
 1611 0000 4146494F 		.ascii	"AFIO_TypeDef\000"
 1611      5F547970 
 1611      65446566 
 1611      00
 1612              	.LASF30:
 1613 000d 45585444 		.ascii	"EXTDriver\000"
 1613      72697665 
 1613      7200
 1614              	.LASF43:
 1615 0017 6368616E 		.ascii	"channel\000"
 1615      6E656C00 
 1616              	.LASF39:
 1617 001f 6578745F 		.ascii	"ext_lld_init\000"
 1617      6C6C645F 
 1617      696E6974 
 1617      00
 1618              	.LASF31:
 1619 002c 73746174 		.ascii	"state\000"
 1619      6500
 1620              	.LASF29:
 1621 0032 65787473 		.ascii	"extstate_t\000"
 1621      74617465 
 1621      5F7400
 1622              	.LASF36:
 1623 003d 45585443 		.ascii	"EXTChannelConfig\000"
 1623      68616E6E 
 1623      656C436F 
 1623      6E666967 
 1623      00
 1624              	.LASF26:
 1625 004e 4558545F 		.ascii	"EXT_UNINIT\000"
 1625      554E494E 
ARM GAS  /tmp/ccgmvgUs.s 			page 30


 1625      495400
 1626              	.LASF6:
 1627 0059 5F5F696E 		.ascii	"__int32_t\000"
 1627      7433325F 
 1627      7400
 1628              	.LASF54:
 1629 0063 2F6D6E74 		.ascii	"/mnt/c/Users/DQ Sullivan/Downloads/Convex/convex/co"
 1629      2F632F55 
 1629      73657273 
 1629      2F445120 
 1629      53756C6C 
 1630 0096 72746578 		.ascii	"rtex/projects/Vex2016 CyberBrains\000"
 1630      2F70726F 
 1630      6A656374 
 1630      732F5665 
 1630      78323031 
 1631              	.LASF21:
 1632 00b8 4D415052 		.ascii	"MAPR\000"
 1632      00
 1633              	.LASF23:
 1634 00bd 52455345 		.ascii	"RESERVED0\000"
 1634      52564544 
 1634      3000
 1635              	.LASF33:
 1636 00c7 65787063 		.ascii	"expchannel_t\000"
 1636      68616E6E 
 1636      656C5F74 
 1636      00
 1637              	.LASF50:
 1638 00d4 6578745F 		.ascii	"ext_lld_exti_irq_disable\000"
 1638      6C6C645F 
 1638      65787469 
 1638      5F697271 
 1638      5F646973 
 1639              	.LASF34:
 1640 00ed 65787463 		.ascii	"extcallback_t\000"
 1640      616C6C62 
 1640      61636B5F 
 1640      7400
 1641              	.LASF51:
 1642 00fb 6578745F 		.ascii	"ext_lld_exti_irq_enable\000"
 1642      6C6C645F 
 1642      65787469 
 1642      5F697271 
 1642      5F656E61 
 1643              	.LASF46:
 1644 0113 6578745F 		.ascii	"ext_lld_channel_disable\000"
 1644      6C6C645F 
 1644      6368616E 
 1644      6E656C5F 
 1644      64697361 
 1645              	.LASF10:
 1646 012b 6C6F6E67 		.ascii	"long long unsigned int\000"
 1646      206C6F6E 
 1646      6720756E 
 1646      7369676E 
 1646      65642069 
ARM GAS  /tmp/ccgmvgUs.s 			page 31


 1647              	.LASF2:
 1648 0142 756E7369 		.ascii	"unsigned char\000"
 1648      676E6564 
 1648      20636861 
 1648      7200
 1649              	.LASF8:
 1650 0150 6C6F6E67 		.ascii	"long unsigned int\000"
 1650      20756E73 
 1650      69676E65 
 1650      6420696E 
 1650      7400
 1651              	.LASF4:
 1652 0162 73686F72 		.ascii	"short unsigned int\000"
 1652      7420756E 
 1652      7369676E 
 1652      65642069 
 1652      6E7400
 1653              	.LASF19:
 1654 0175 45585449 		.ascii	"EXTI_TypeDef\000"
 1654      5F547970 
 1654      65446566 
 1654      00
 1655              	.LASF48:
 1656 0182 49544D5F 		.ascii	"ITM_RxBuffer\000"
 1656      52784275 
 1656      66666572 
 1656      00
 1657              	.LASF16:
 1658 018f 52545352 		.ascii	"RTSR\000"
 1658      00
 1659              	.LASF32:
 1660 0194 636F6E66 		.ascii	"config\000"
 1660      696700
 1661              	.LASF38:
 1662 019b 45585443 		.ascii	"EXTConfig\000"
 1662      6F6E6669 
 1662      6700
 1663              	.LASF52:
 1664 01a5 474E5520 		.ascii	"GNU C 4.8.2 -mcpu=cortex-m3 -mno-thumb-interwork -m"
 1664      4320342E 
 1664      382E3220 
 1664      2D6D6370 
 1664      753D636F 
 1665 01d8 7468756D 		.ascii	"thumb -ggdb -O2 -fomit-frame-pointer -falign-functi"
 1665      62202D67 
 1665      67646220 
 1665      2D4F3220 
 1665      2D666F6D 
 1666 020b 6F6E733D 		.ascii	"ons=16 -ffunction-sections -fdata-sections -fno-com"
 1666      3136202D 
 1666      6666756E 
 1666      6374696F 
 1666      6E2D7365 
 1667 023e 6D6F6E00 		.ascii	"mon\000"
 1668              	.LASF53:
 1669 0242 2E2E2F2E 		.ascii	"../../../../ChibiOS_2.6.2/os/hal/platforms/STM32/ex"
 1669      2E2F2E2E 
ARM GAS  /tmp/ccgmvgUs.s 			page 32


 1669      2F2E2E2F 
 1669      43686962 
 1669      694F535F 
 1670 0275 745F6C6C 		.ascii	"t_lld.c\000"
 1670      642E6300 
 1671              	.LASF7:
 1672 027d 5F5F7569 		.ascii	"__uint32_t\000"
 1672      6E743332 
 1672      5F7400
 1673              	.LASF41:
 1674 0288 6578745F 		.ascii	"ext_lld_channel_enable\000"
 1674      6C6C645F 
 1674      6368616E 
 1674      6E656C5F 
 1674      656E6162 
 1675              	.LASF40:
 1676 029f 6578745F 		.ascii	"ext_lld_stop\000"
 1676      6C6C645F 
 1676      73746F70 
 1676      00
 1677              	.LASF22:
 1678 02ac 45585449 		.ascii	"EXTICR\000"
 1678      435200
 1679              	.LASF28:
 1680 02b3 4558545F 		.ascii	"EXT_ACTIVE\000"
 1680      41435449 
 1680      564500
 1681              	.LASF0:
 1682 02be 756E7369 		.ascii	"unsigned int\000"
 1682      676E6564 
 1682      20696E74 
 1682      00
 1683              	.LASF42:
 1684 02cb 65787470 		.ascii	"extp\000"
 1684      00
 1685              	.LASF15:
 1686 02d0 63686172 		.ascii	"char\000"
 1686      00
 1687              	.LASF35:
 1688 02d5 6D6F6465 		.ascii	"mode\000"
 1688      00
 1689              	.LASF11:
 1690 02da 696E7433 		.ascii	"int32_t\000"
 1690      325F7400 
 1691              	.LASF14:
 1692 02e2 73697A65 		.ascii	"sizetype\000"
 1692      74797065 
 1692      00
 1693              	.LASF9:
 1694 02eb 6C6F6E67 		.ascii	"long long int\000"
 1694      206C6F6E 
 1694      6720696E 
 1694      7400
 1695              	.LASF44:
 1696 02f9 6D61736B 		.ascii	"mask\000"
 1696      00
 1697              	.LASF37:
ARM GAS  /tmp/ccgmvgUs.s 			page 33


 1698 02fe 6368616E 		.ascii	"channels\000"
 1698      6E656C73 
 1698      00
 1699              	.LASF45:
 1700 0307 706F7274 		.ascii	"port\000"
 1700      00
 1701              	.LASF49:
 1702 030c 45585444 		.ascii	"EXTD1\000"
 1702      3100
 1703              	.LASF3:
 1704 0312 73686F72 		.ascii	"short int\000"
 1704      7420696E 
 1704      7400
 1705              	.LASF55:
 1706 031c 6578744F 		.ascii	"extObjectInit\000"
 1706      626A6563 
 1706      74496E69 
 1706      7400
 1707              	.LASF24:
 1708 032a 4D415052 		.ascii	"MAPR2\000"
 1708      3200
 1709              	.LASF17:
 1710 0330 46545352 		.ascii	"FTSR\000"
 1710      00
 1711              	.LASF5:
 1712 0335 6C6F6E67 		.ascii	"long int\000"
 1712      20696E74 
 1712      00
 1713              	.LASF20:
 1714 033e 45564352 		.ascii	"EVCR\000"
 1714      00
 1715              	.LASF1:
 1716 0343 7369676E 		.ascii	"signed char\000"
 1716      65642063 
 1716      68617200 
 1717              	.LASF12:
 1718 034f 75696E74 		.ascii	"uint32_t\000"
 1718      33325F74 
 1718      00
 1719              	.LASF13:
 1720 0358 5F426F6F 		.ascii	"_Bool\000"
 1720      6C00
 1721              	.LASF18:
 1722 035e 53574945 		.ascii	"SWIER\000"
 1722      5200
 1723              	.LASF47:
 1724 0364 6578745F 		.ascii	"ext_lld_start\000"
 1724      6C6C645F 
 1724      73746172 
 1724      7400
 1725              	.LASF27:
 1726 0372 4558545F 		.ascii	"EXT_STOP\000"
 1726      53544F50 
 1726      00
 1727              		.ident	"GCC: (4.8.2-14ubuntu1+6) 4.8.2"
ARM GAS  /tmp/ccgmvgUs.s 			page 34


DEFINED SYMBOLS
                            *ABS*:0000000000000000 ext_lld.c
     /tmp/ccgmvgUs.s:19     .text.ext_lld_init:0000000000000000 $t
     /tmp/ccgmvgUs.s:25     .text.ext_lld_init:0000000000000000 ext_lld_init
     /tmp/ccgmvgUs.s:332    .bss.EXTD1:0000000000000000 .LANCHOR0
     /tmp/ccgmvgUs.s:42     .text.ext_lld_stop:0000000000000000 $t
     /tmp/ccgmvgUs.s:48     .text.ext_lld_stop:0000000000000000 ext_lld_stop
     /tmp/ccgmvgUs.s:88     .text.ext_lld_channel_enable:0000000000000000 $t
     /tmp/ccgmvgUs.s:94     .text.ext_lld_channel_enable:0000000000000000 ext_lld_channel_enable
     /tmp/ccgmvgUs.s:209    .text.ext_lld_channel_disable:0000000000000000 $t
     /tmp/ccgmvgUs.s:215    .text.ext_lld_channel_disable:0000000000000000 ext_lld_channel_disable
     /tmp/ccgmvgUs.s:253    .text.ext_lld_start:0000000000000000 $t
     /tmp/ccgmvgUs.s:259    .text.ext_lld_start:0000000000000000 ext_lld_start
     /tmp/ccgmvgUs.s:335    .bss.EXTD1:0000000000000000 EXTD1
     /tmp/ccgmvgUs.s:331    .bss.EXTD1:0000000000000000 $d
                     .debug_frame:0000000000000010 $d

UNDEFINED SYMBOLS
extObjectInit
ext_lld_exti_irq_disable
ext_lld_exti_irq_enable
