ARM GAS  /tmp/cc0fYwmk.s 			page 1


   1              		.syntax unified
   2              		.cpu cortex-m3
   3              		.fpu softvfp
   4              		.eabi_attribute 20, 1
   5              		.eabi_attribute 21, 1
   6              		.eabi_attribute 23, 3
   7              		.eabi_attribute 24, 1
   8              		.eabi_attribute 25, 1
   9              		.eabi_attribute 26, 1
  10              		.eabi_attribute 30, 2
  11              		.eabi_attribute 34, 1
  12              		.eabi_attribute 18, 4
  13              		.thumb
  14              		.file	"gpt_lld.c"
  15              		.text
  16              	.Ltext0:
  17              		.cfi_sections	.debug_frame
  18              		.section	.text.gpt_lld_serve_interrupt,"ax",%progbits
  19              		.align	2
  20              		.p2align 4,,15
  21              		.thumb
  22              		.thumb_func
  23              		.type	gpt_lld_serve_interrupt, %function
  24              	gpt_lld_serve_interrupt:
  25              	.LFB63:
  26              		.file 1 "../../../../ChibiOS_2.6.2/os/hal/platforms/STM32/TIMv1/gpt_lld.c"
  27              		.loc 1 147 0
  28              		.cfi_startproc
  29              		@ args = 0, pretend = 0, frame = 0
  30              		@ frame_needed = 0, uses_anonymous_args = 0
  31              	.LVL0:
  32              		.loc 1 150 0
  33 0000 0178     		ldrb	r1, [r0]	@ zero_extendqisi2
  34              		.loc 1 147 0
  35 0002 08B5     		push	{r3, lr}
  36              		.cfi_def_cfa_offset 8
  37              		.cfi_offset 3, -8
  38              		.cfi_offset 14, -4
  39              		.loc 1 149 0
  40 0004 C368     		ldr	r3, [r0, #12]
  41 0006 0022     		movs	r2, #0
  42              		.loc 1 150 0
  43 0008 0429     		cmp	r1, #4
  44              		.loc 1 149 0
  45 000a 1A61     		str	r2, [r3, #16]
  46              		.loc 1 150 0
  47 000c 07D1     		bne	.L2
  48              		.loc 1 151 0
  49 000e 0221     		movs	r1, #2
  50 0010 0170     		strb	r1, [r0]
  51              	.LVL1:
  52              	.LBB4:
  53              	.LBB5:
  54              		.loc 1 745 0
  55 0012 1A60     		str	r2, [r3]
  56              		.loc 1 746 0
  57 0014 1A61     		str	r2, [r3, #16]
ARM GAS  /tmp/cc0fYwmk.s 			page 2


  58              		.loc 1 749 0
  59 0016 DA68     		ldr	r2, [r3, #12]
  60 0018 22F0FF02 		bic	r2, r2, #255
  61 001c DA60     		str	r2, [r3, #12]
  62              	.LVL2:
  63              	.L2:
  64              	.LBE5:
  65              	.LBE4:
  66              		.loc 1 154 0
  67 001e 4368     		ldr	r3, [r0, #4]
  68 0020 5B68     		ldr	r3, [r3, #4]
  69 0022 9847     		blx	r3
  70              	.LVL3:
  71 0024 08BD     		pop	{r3, pc}
  72              		.cfi_endproc
  73              	.LFE63:
  74              		.size	gpt_lld_serve_interrupt, .-gpt_lld_serve_interrupt
  75 0026 00BFAFF3 		.section	.text.VectorA4,"ax",%progbits
  75      0080AFF3 
  75      0080
  76              		.align	2
  77              		.p2align 4,,15
  78              		.global	VectorA4
  79              		.thumb
  80              		.thumb_func
  81              		.type	VectorA4, %function
  82              	VectorA4:
  83              	.LFB64:
  84              		.loc 1 170 0
  85              		.cfi_startproc
  86              		@ args = 0, pretend = 0, frame = 0
  87              		@ frame_needed = 0, uses_anonymous_args = 0
  88 0000 08B5     		push	{r3, lr}
  89              		.cfi_def_cfa_offset 8
  90              		.cfi_offset 3, -8
  91              		.cfi_offset 14, -4
  92              		.loc 1 174 0
  93 0002 40F20000 		movw	r0, #:lower16:.LANCHOR0
  94 0006 C0F20000 		movt	r0, #:upper16:.LANCHOR0
  95 000a FFF7FEFF 		bl	gpt_lld_serve_interrupt
  96              	.LVL4:
  97              		.loc 1 177 0
  98 000e BDE80840 		pop	{r3, lr}
  99              		.loc 1 176 0
 100 0012 FFF7FEBF 		b	_port_irq_epilogue
 101              	.LVL5:
 102              		.cfi_endproc
 103              	.LFE64:
 104              		.size	VectorA4, .-VectorA4
 105 0016 00BFAFF3 		.section	.text.VectorB0,"ax",%progbits
 105      0080AFF3 
 105      0080
 106              		.align	2
 107              		.p2align 4,,15
 108              		.global	VectorB0
 109              		.thumb
 110              		.thumb_func
ARM GAS  /tmp/cc0fYwmk.s 			page 3


 111              		.type	VectorB0, %function
 112              	VectorB0:
 113              	.LFB65:
 114              		.loc 1 189 0
 115              		.cfi_startproc
 116              		@ args = 0, pretend = 0, frame = 0
 117              		@ frame_needed = 0, uses_anonymous_args = 0
 118 0000 08B5     		push	{r3, lr}
 119              		.cfi_def_cfa_offset 8
 120              		.cfi_offset 3, -8
 121              		.cfi_offset 14, -4
 122              		.loc 1 193 0
 123 0002 40F20000 		movw	r0, #:lower16:.LANCHOR1
 124 0006 C0F20000 		movt	r0, #:upper16:.LANCHOR1
 125 000a FFF7FEFF 		bl	gpt_lld_serve_interrupt
 126              	.LVL6:
 127              		.loc 1 196 0
 128 000e BDE80840 		pop	{r3, lr}
 129              		.loc 1 195 0
 130 0012 FFF7FEBF 		b	_port_irq_epilogue
 131              	.LVL7:
 132              		.cfi_endproc
 133              	.LFE65:
 134              		.size	VectorB0, .-VectorB0
 135 0016 00BFAFF3 		.section	.text.Vector108,"ax",%progbits
 135      0080AFF3 
 135      0080
 136              		.align	2
 137              		.p2align 4,,15
 138              		.global	Vector108
 139              		.thumb
 140              		.thumb_func
 141              		.type	Vector108, %function
 142              	Vector108:
 143              	.LFB66:
 144              		.loc 1 246 0
 145              		.cfi_startproc
 146              		@ args = 0, pretend = 0, frame = 0
 147              		@ frame_needed = 0, uses_anonymous_args = 0
 148 0000 08B5     		push	{r3, lr}
 149              		.cfi_def_cfa_offset 8
 150              		.cfi_offset 3, -8
 151              		.cfi_offset 14, -4
 152              		.loc 1 250 0
 153 0002 40F20000 		movw	r0, #:lower16:.LANCHOR2
 154 0006 C0F20000 		movt	r0, #:upper16:.LANCHOR2
 155 000a FFF7FEFF 		bl	gpt_lld_serve_interrupt
 156              	.LVL8:
 157              		.loc 1 253 0
 158 000e BDE80840 		pop	{r3, lr}
 159              		.loc 1 252 0
 160 0012 FFF7FEBF 		b	_port_irq_epilogue
 161              	.LVL9:
 162              		.cfi_endproc
 163              	.LFE66:
 164              		.size	Vector108, .-Vector108
 165 0016 00BFAFF3 		.section	.text.gpt_lld_init,"ax",%progbits
ARM GAS  /tmp/cc0fYwmk.s 			page 4


 165      0080AFF3 
 165      0080
 166              		.align	2
 167              		.p2align 4,,15
 168              		.global	gpt_lld_init
 169              		.thumb
 170              		.thumb_func
 171              		.type	gpt_lld_init, %function
 172              	gpt_lld_init:
 173              	.LFB67:
 174              		.loc 1 398 0
 175              		.cfi_startproc
 176              		@ args = 0, pretend = 0, frame = 0
 177              		@ frame_needed = 0, uses_anonymous_args = 0
 178 0000 08B5     		push	{r3, lr}
 179              		.cfi_def_cfa_offset 8
 180              		.cfi_offset 3, -8
 181              		.cfi_offset 14, -4
 182              		.loc 1 402 0
 183 0002 40F20003 		movw	r3, #:lower16:.LANCHOR0
 184 0006 C0F20003 		movt	r3, #:upper16:.LANCHOR0
 185 000a 4FF43052 		mov	r2, #11264
 186 000e C4F20102 		movt	r2, 16385
 187              		.loc 1 403 0
 188 0012 1846     		mov	r0, r3
 189              		.loc 1 402 0
 190 0014 DA60     		str	r2, [r3, #12]
 191              		.loc 1 403 0
 192 0016 FFF7FEFF 		bl	gptObjectInit
 193              	.LVL10:
 194              		.loc 1 408 0
 195 001a 40F20003 		movw	r3, #:lower16:.LANCHOR1
 196 001e C0F20003 		movt	r3, #:upper16:.LANCHOR1
 197 0022 4FF08042 		mov	r2, #1073741824
 198              		.loc 1 409 0
 199 0026 1846     		mov	r0, r3
 200              		.loc 1 408 0
 201 0028 DA60     		str	r2, [r3, #12]
 202              		.loc 1 409 0
 203 002a FFF7FEFF 		bl	gptObjectInit
 204              	.LVL11:
 205              		.loc 1 426 0
 206 002e 40F20003 		movw	r3, #:lower16:.LANCHOR2
 207 0032 4FF44062 		mov	r2, #3072
 208 0036 C0F20003 		movt	r3, #:upper16:.LANCHOR2
 209 003a C4F20002 		movt	r2, 16384
 210              		.loc 1 427 0
 211 003e 1846     		mov	r0, r3
 212              		.loc 1 426 0
 213 0040 DA60     		str	r2, [r3, #12]
 214              		.loc 1 471 0
 215 0042 BDE80840 		pop	{r3, lr}
 216              		.loc 1 427 0
 217 0046 FFF7FEBF 		b	gptObjectInit
 218              	.LVL12:
 219              		.cfi_endproc
 220              	.LFE67:
ARM GAS  /tmp/cc0fYwmk.s 			page 5


 221              		.size	gpt_lld_init, .-gpt_lld_init
 222 004a 00BFAFF3 		.section	.text.gpt_lld_start,"ax",%progbits
 222      0080
 223              		.align	2
 224              		.p2align 4,,15
 225              		.global	gpt_lld_start
 226              		.thumb
 227              		.thumb_func
 228              		.type	gpt_lld_start, %function
 229              	gpt_lld_start:
 230              	.LFB68:
 231              		.loc 1 480 0
 232              		.cfi_startproc
 233              		@ args = 0, pretend = 0, frame = 0
 234              		@ frame_needed = 0, uses_anonymous_args = 0
 235              	.LVL13:
 236              		.loc 1 483 0
 237 0000 0378     		ldrb	r3, [r0]	@ zero_extendqisi2
 238              		.loc 1 480 0
 239 0002 10B5     		push	{r4, lr}
 240              		.cfi_def_cfa_offset 8
 241              		.cfi_offset 4, -8
 242              		.cfi_offset 14, -4
 243              		.loc 1 483 0
 244 0004 012B     		cmp	r3, #1
 245              		.loc 1 480 0
 246 0006 0446     		mov	r4, r0
 247              		.loc 1 483 0
 248 0008 10D0     		beq	.L13
 249              	.LVL14:
 250              	.L9:
 251              		.loc 1 612 0
 252 000a 6368     		ldr	r3, [r4, #4]
 253 000c A268     		ldr	r2, [r4, #8]
 254 000e 1868     		ldr	r0, [r3]
 255              		.loc 1 620 0
 256 0010 197A     		ldrb	r1, [r3, #8]	@ zero_extendqisi2
 257              		.loc 1 612 0
 258 0012 B2FBF0F0 		udiv	r0, r2, r0
 259              		.loc 1 617 0
 260 0016 E368     		ldr	r3, [r4, #12]
 261              		.loc 1 612 0
 262 0018 0138     		subs	r0, r0, #1
 263              		.loc 1 617 0
 264 001a 0022     		movs	r2, #0
 265              		.loc 1 612 0
 266 001c 80B2     		uxth	r0, r0
 267              	.LVL15:
 268              		.loc 1 618 0
 269 001e 0824     		movs	r4, #8
 270              	.LVL16:
 271              		.loc 1 617 0
 272 0020 1A60     		str	r2, [r3]
 273              		.loc 1 618 0
 274 0022 5C60     		str	r4, [r3, #4]
 275              		.loc 1 619 0
 276 0024 9862     		str	r0, [r3, #40]
ARM GAS  /tmp/cc0fYwmk.s 			page 6


 277              		.loc 1 620 0
 278 0026 D960     		str	r1, [r3, #12]
 279              		.loc 1 622 0
 280 0028 1A61     		str	r2, [r3, #16]
 281 002a 10BD     		pop	{r4, pc}
 282              	.LVL17:
 283              	.L13:
 284              		.loc 1 486 0
 285 002c 40F20003 		movw	r3, #:lower16:.LANCHOR0
 286 0030 C0F20003 		movt	r3, #:upper16:.LANCHOR0
 287 0034 9842     		cmp	r0, r3
 288 0036 23D0     		beq	.L14
 289              		.loc 1 499 0
 290 0038 40F20003 		movw	r3, #:lower16:.LANCHOR1
 291 003c C0F20003 		movt	r3, #:upper16:.LANCHOR1
 292 0040 9842     		cmp	r0, r3
 293 0042 35D0     		beq	.L15
 294              		.loc 1 527 0
 295 0044 40F20003 		movw	r3, #:lower16:.LANCHOR2
 296 0048 C0F20003 		movt	r3, #:upper16:.LANCHOR2
 297 004c 9842     		cmp	r0, r3
 298 004e DCD1     		bne	.L9
 299              		.loc 1 528 0
 300 0050 4FF48053 		mov	r3, #4096
 301 0054 C4F20203 		movt	r3, 16386
 302 0058 D969     		ldr	r1, [r3, #28]
 303              		.loc 1 529 0
 304 005a 0022     		movs	r2, #0
 305              		.loc 1 528 0
 306 005c 41F00801 		orr	r1, r1, #8
 307 0060 D961     		str	r1, [r3, #28]
 308              		.loc 1 529 0
 309 0062 1969     		ldr	r1, [r3, #16]
 310              		.loc 1 530 0
 311 0064 3220     		movs	r0, #50
 312              	.LVL18:
 313              		.loc 1 529 0
 314 0066 41F00801 		orr	r1, r1, #8
 315              	.L12:
 316 006a 1961     		str	r1, [r3, #16]
 317 006c 1A61     		str	r2, [r3, #16]
 318              		.loc 1 530 0
 319 006e 7021     		movs	r1, #112
 320 0070 FFF7FEFF 		bl	nvicEnableVector
 321              	.LVL19:
 322              		.loc 1 532 0
 323 0074 4FF42243 		mov	r3, #41472
 324 0078 C0F24A43 		movt	r3, 1098
 325 007c A360     		str	r3, [r4, #8]
 326 007e C4E7     		b	.L9
 327              	.LVL20:
 328              	.L14:
 329              		.loc 1 487 0
 330 0080 4FF48053 		mov	r3, #4096
 331 0084 C4F20203 		movt	r3, 16386
 332 0088 9969     		ldr	r1, [r3, #24]
 333              		.loc 1 488 0
ARM GAS  /tmp/cc0fYwmk.s 			page 7


 334 008a 0022     		movs	r2, #0
 335              		.loc 1 487 0
 336 008c 41F40061 		orr	r1, r1, #2048
 337 0090 9961     		str	r1, [r3, #24]
 338              		.loc 1 488 0
 339 0092 D968     		ldr	r1, [r3, #12]
 340              		.loc 1 489 0
 341 0094 1920     		movs	r0, #25
 342              	.LVL21:
 343              		.loc 1 488 0
 344 0096 41F40061 		orr	r1, r1, #2048
 345 009a D960     		str	r1, [r3, #12]
 346 009c DA60     		str	r2, [r3, #12]
 347              		.loc 1 489 0
 348 009e 7021     		movs	r1, #112
 349 00a0 FFF7FEFF 		bl	nvicEnableVector
 350              	.LVL22:
 351              		.loc 1 494 0
 352 00a4 4FF42243 		mov	r3, #41472
 353 00a8 C0F24A43 		movt	r3, 1098
 354 00ac A360     		str	r3, [r4, #8]
 355 00ae ACE7     		b	.L9
 356              	.LVL23:
 357              	.L15:
 358              		.loc 1 500 0
 359 00b0 4FF48053 		mov	r3, #4096
 360 00b4 C4F20203 		movt	r3, 16386
 361 00b8 D969     		ldr	r1, [r3, #28]
 362              		.loc 1 501 0
 363 00ba 0022     		movs	r2, #0
 364              		.loc 1 500 0
 365 00bc 41F00101 		orr	r1, r1, #1
 366 00c0 D961     		str	r1, [r3, #28]
 367              		.loc 1 501 0
 368 00c2 1969     		ldr	r1, [r3, #16]
 369              		.loc 1 502 0
 370 00c4 1C20     		movs	r0, #28
 371              	.LVL24:
 372              		.loc 1 501 0
 373 00c6 41F00101 		orr	r1, r1, #1
 374 00ca CEE7     		b	.L12
 375              		.cfi_endproc
 376              	.LFE68:
 377              		.size	gpt_lld_start, .-gpt_lld_start
 378 00cc AFF30080 		.section	.text.gpt_lld_stop,"ax",%progbits
 379              		.align	2
 380              		.p2align 4,,15
 381              		.global	gpt_lld_stop
 382              		.thumb
 383              		.thumb_func
 384              		.type	gpt_lld_stop, %function
 385              	gpt_lld_stop:
 386              	.LFB69:
 387              		.loc 1 632 0
 388              		.cfi_startproc
 389              		@ args = 0, pretend = 0, frame = 0
 390              		@ frame_needed = 0, uses_anonymous_args = 0
ARM GAS  /tmp/cc0fYwmk.s 			page 8


 391              	.LVL25:
 392 0000 08B5     		push	{r3, lr}
 393              		.cfi_def_cfa_offset 8
 394              		.cfi_offset 3, -8
 395              		.cfi_offset 14, -4
 396              		.loc 1 634 0
 397 0002 0378     		ldrb	r3, [r0]	@ zero_extendqisi2
 398 0004 022B     		cmp	r3, #2
 399 0006 00D0     		beq	.L22
 400              	.LVL26:
 401              	.L16:
 402 0008 08BD     		pop	{r3, pc}
 403              	.LVL27:
 404              	.L22:
 405              		.loc 1 640 0
 406 000a 40F20003 		movw	r3, #:lower16:.LANCHOR0
 407              		.loc 1 635 0
 408 000e C268     		ldr	r2, [r0, #12]
 409              		.loc 1 640 0
 410 0010 C0F20003 		movt	r3, #:upper16:.LANCHOR0
 411              		.loc 1 635 0
 412 0014 0021     		movs	r1, #0
 413              		.loc 1 640 0
 414 0016 9842     		cmp	r0, r3
 415              		.loc 1 635 0
 416 0018 1160     		str	r1, [r2]
 417              		.loc 1 636 0
 418 001a D160     		str	r1, [r2, #12]
 419              		.loc 1 637 0
 420 001c 1161     		str	r1, [r2, #16]
 421              		.loc 1 640 0
 422 001e 17D0     		beq	.L23
 423              		.loc 1 646 0
 424 0020 40F20003 		movw	r3, #:lower16:.LANCHOR1
 425 0024 C0F20003 		movt	r3, #:upper16:.LANCHOR1
 426 0028 9842     		cmp	r0, r3
 427 002a 1DD0     		beq	.L24
 428              		.loc 1 664 0
 429 002c 40F20003 		movw	r3, #:lower16:.LANCHOR2
 430 0030 C0F20003 		movt	r3, #:upper16:.LANCHOR2
 431 0034 9842     		cmp	r0, r3
 432 0036 E7D1     		bne	.L16
 433              		.loc 1 665 0
 434 0038 3220     		movs	r0, #50
 435              	.LVL28:
 436 003a FFF7FEFF 		bl	nvicDisableVector
 437              	.LVL29:
 438              		.loc 1 666 0
 439 003e 4FF48053 		mov	r3, #4096
 440 0042 C4F20203 		movt	r3, 16386
 441 0046 DA69     		ldr	r2, [r3, #28]
 442 0048 22F00802 		bic	r2, r2, #8
 443 004c DA61     		str	r2, [r3, #28]
 444 004e DBE7     		b	.L16
 445              	.LVL30:
 446              	.L23:
 447              		.loc 1 641 0
ARM GAS  /tmp/cc0fYwmk.s 			page 9


 448 0050 1920     		movs	r0, #25
 449              	.LVL31:
 450 0052 FFF7FEFF 		bl	nvicDisableVector
 451              	.LVL32:
 452              		.loc 1 642 0
 453 0056 4FF48053 		mov	r3, #4096
 454 005a C4F20203 		movt	r3, 16386
 455 005e 9A69     		ldr	r2, [r3, #24]
 456 0060 22F40062 		bic	r2, r2, #2048
 457 0064 9A61     		str	r2, [r3, #24]
 458 0066 08BD     		pop	{r3, pc}
 459              	.LVL33:
 460              	.L24:
 461              		.loc 1 647 0
 462 0068 1C20     		movs	r0, #28
 463              	.LVL34:
 464 006a FFF7FEFF 		bl	nvicDisableVector
 465              	.LVL35:
 466              		.loc 1 648 0
 467 006e 4FF48053 		mov	r3, #4096
 468 0072 C4F20203 		movt	r3, 16386
 469 0076 DA69     		ldr	r2, [r3, #28]
 470 0078 22F00102 		bic	r2, r2, #1
 471 007c DA61     		str	r2, [r3, #28]
 472 007e 08BD     		pop	{r3, pc}
 473              		.cfi_endproc
 474              	.LFE69:
 475              		.size	gpt_lld_stop, .-gpt_lld_stop
 476              		.section	.text.gpt_lld_start_timer,"ax",%progbits
 477              		.align	2
 478              		.p2align 4,,15
 479              		.global	gpt_lld_start_timer
 480              		.thumb
 481              		.thumb_func
 482              		.type	gpt_lld_start_timer, %function
 483              	gpt_lld_start_timer:
 484              	.LFB70:
 485              		.loc 1 722 0
 486              		.cfi_startproc
 487              		@ args = 0, pretend = 0, frame = 0
 488              		@ frame_needed = 0, uses_anonymous_args = 0
 489              		@ link register save eliminated.
 490              	.LVL36:
 491              		.loc 1 724 0
 492 0000 C368     		ldr	r3, [r0, #12]
 493              		.loc 1 726 0
 494 0002 0022     		movs	r2, #0
 495              		.loc 1 724 0
 496 0004 0139     		subs	r1, r1, #1
 497              	.LVL37:
 498              		.loc 1 725 0
 499 0006 0120     		movs	r0, #1
 500              	.LVL38:
 501              		.loc 1 724 0
 502 0008 D962     		str	r1, [r3, #44]
 503              		.loc 1 725 0
 504 000a 5861     		str	r0, [r3, #20]
ARM GAS  /tmp/cc0fYwmk.s 			page 10


 505              		.loc 1 726 0
 506 000c 5A62     		str	r2, [r3, #36]
 507              		.loc 1 731 0
 508 000e 1A61     		str	r2, [r3, #16]
 509              		.loc 1 732 0
 510 0010 D968     		ldr	r1, [r3, #12]
 511              	.LVL39:
 512              		.loc 1 733 0
 513 0012 0522     		movs	r2, #5
 514              		.loc 1 732 0
 515 0014 0143     		orrs	r1, r1, r0
 516 0016 D960     		str	r1, [r3, #12]
 517              		.loc 1 733 0
 518 0018 1A60     		str	r2, [r3]
 519 001a 7047     		bx	lr
 520              		.cfi_endproc
 521              	.LFE70:
 522              		.size	gpt_lld_start_timer, .-gpt_lld_start_timer
 523 001c AFF30080 		.section	.text.gpt_lld_stop_timer,"ax",%progbits
 524              		.align	2
 525              		.p2align 4,,15
 526              		.global	gpt_lld_stop_timer
 527              		.thumb
 528              		.thumb_func
 529              		.type	gpt_lld_stop_timer, %function
 530              	gpt_lld_stop_timer:
 531              	.LFB71:
 532              		.loc 1 743 0
 533              		.cfi_startproc
 534              		@ args = 0, pretend = 0, frame = 0
 535              		@ frame_needed = 0, uses_anonymous_args = 0
 536              		@ link register save eliminated.
 537              	.LVL40:
 538              		.loc 1 745 0
 539 0000 C368     		ldr	r3, [r0, #12]
 540 0002 0022     		movs	r2, #0
 541 0004 1A60     		str	r2, [r3]
 542              		.loc 1 746 0
 543 0006 1A61     		str	r2, [r3, #16]
 544              		.loc 1 749 0
 545 0008 DA68     		ldr	r2, [r3, #12]
 546 000a 22F0FF02 		bic	r2, r2, #255
 547 000e DA60     		str	r2, [r3, #12]
 548 0010 7047     		bx	lr
 549              		.cfi_endproc
 550              	.LFE71:
 551              		.size	gpt_lld_stop_timer, .-gpt_lld_stop_timer
 552 0012 00BFAFF3 		.section	.text.gpt_lld_polled_delay,"ax",%progbits
 552      0080AFF3 
 552      0080AFF3 
 552      0080
 553              		.align	2
 554              		.p2align 4,,15
 555              		.global	gpt_lld_polled_delay
 556              		.thumb
 557              		.thumb_func
 558              		.type	gpt_lld_polled_delay, %function
ARM GAS  /tmp/cc0fYwmk.s 			page 11


 559              	gpt_lld_polled_delay:
 560              	.LFB72:
 561              		.loc 1 763 0
 562              		.cfi_startproc
 563              		@ args = 0, pretend = 0, frame = 0
 564              		@ frame_needed = 0, uses_anonymous_args = 0
 565              		@ link register save eliminated.
 566              	.LVL41:
 567              		.loc 1 765 0
 568 0000 C268     		ldr	r2, [r0, #12]
 569              		.loc 1 763 0
 570 0002 10B4     		push	{r4}
 571              		.cfi_def_cfa_offset 4
 572              		.cfi_offset 4, -4
 573              		.loc 1 765 0
 574 0004 0139     		subs	r1, r1, #1
 575              	.LVL42:
 576              		.loc 1 766 0
 577 0006 0124     		movs	r4, #1
 578              		.loc 1 767 0
 579 0008 0020     		movs	r0, #0
 580              	.LVL43:
 581              		.loc 1 768 0
 582 000a 0D23     		movs	r3, #13
 583              		.loc 1 765 0
 584 000c D162     		str	r1, [r2, #44]
 585              		.loc 1 766 0
 586 000e 5461     		str	r4, [r2, #20]
 587              		.loc 1 767 0
 588 0010 1061     		str	r0, [r2, #16]
 589              		.loc 1 768 0
 590 0012 1360     		str	r3, [r2]
 591              	.L29:
 592              		.loc 1 769 0 discriminator 1
 593 0014 1369     		ldr	r3, [r2, #16]
 594 0016 DB07     		lsls	r3, r3, #31
 595 0018 FCD5     		bpl	.L29
 596              		.loc 1 771 0
 597 001a 5DF8044B 		ldr	r4, [sp], #4
 598 001e 7047     		bx	lr
 599              		.cfi_endproc
 600              	.LFE72:
 601              		.size	gpt_lld_polled_delay, .-gpt_lld_polled_delay
 602              		.global	GPTD5
 603              		.global	GPTD2
 604              		.global	GPTD1
 605              		.section	.bss.GPTD1,"aw",%nobits
 606              		.align	2
 607              		.set	.LANCHOR0,. + 0
 608              		.type	GPTD1, %object
 609              		.size	GPTD1, 16
 610              	GPTD1:
 611 0000 00000000 		.space	16
 611      00000000 
 611      00000000 
 611      00000000 
 612              		.section	.bss.GPTD2,"aw",%nobits
ARM GAS  /tmp/cc0fYwmk.s 			page 12


 613              		.align	2
 614              		.set	.LANCHOR1,. + 0
 615              		.type	GPTD2, %object
 616              		.size	GPTD2, 16
 617              	GPTD2:
 618 0000 00000000 		.space	16
 618      00000000 
 618      00000000 
 618      00000000 
 619              		.section	.bss.GPTD5,"aw",%nobits
 620              		.align	2
 621              		.set	.LANCHOR2,. + 0
 622              		.type	GPTD5, %object
 623              		.size	GPTD5, 16
 624              	GPTD5:
 625 0000 00000000 		.space	16
 625      00000000 
 625      00000000 
 625      00000000 
 626              		.text
 627              	.Letext0:
 628              		.file 2 "/usr/include/newlib/machine/_default_types.h"
 629              		.file 3 "/usr/include/newlib/stdint.h"
 630              		.file 4 "../../../../ChibiOS_2.6.2/os/hal/platforms/STM32F1xx/stm32f10x.h"
 631              		.file 5 "../../../../ChibiOS_2.6.2/os/hal/include/gpt.h"
 632              		.file 6 "../../../../ChibiOS_2.6.2/os/hal/platforms/STM32/TIMv1/gpt_lld.h"
 633              		.file 7 "../../../../ChibiOS_2.6.2/os/hal/platforms/STM32/TIMv1/stm32_tim.h"
 634              		.file 8 "../../../../ChibiOS_2.6.2/os/ports/common/ARMCMx/CMSIS/include/core_cm3.h"
 635              		.file 9 "../../../../ChibiOS_2.6.2/os/ports/common/ARMCMx/nvic.h"
 636              		.file 10 "../../../../ChibiOS_2.6.2/os/ports/GCC/ARMCMx/chcore_v7m.h"
 637              		.section	.debug_info,"",%progbits
 638              	.Ldebug_info0:
 639 0000 C7060000 		.4byte	0x6c7
 640 0004 0400     		.2byte	0x4
 641 0006 00000000 		.4byte	.Ldebug_abbrev0
 642 000a 04       		.byte	0x4
 643 000b 01       		.uleb128 0x1
 644 000c BF000000 		.4byte	.LASF71
 645 0010 01       		.byte	0x1
 646 0011 FD020000 		.4byte	.LASF72
 647 0015 5C030000 		.4byte	.LASF73
 648 0019 00000000 		.4byte	.Ldebug_ranges0+0
 649 001d 00000000 		.4byte	0
 650 0021 00000000 		.4byte	.Ldebug_line0
 651 0025 02       		.uleb128 0x2
 652 0026 04       		.byte	0x4
 653 0027 05       		.byte	0x5
 654 0028 696E7400 		.ascii	"int\000"
 655 002c 03       		.uleb128 0x3
 656 002d 04       		.byte	0x4
 657 002e 07       		.byte	0x7
 658 002f 41020000 		.4byte	.LASF0
 659 0033 03       		.uleb128 0x3
 660 0034 01       		.byte	0x1
 661 0035 06       		.byte	0x6
 662 0036 22020000 		.4byte	.LASF1
 663 003a 03       		.uleb128 0x3
ARM GAS  /tmp/cc0fYwmk.s 			page 13


 664 003b 01       		.byte	0x1
 665 003c 08       		.byte	0x8
 666 003d FB010000 		.4byte	.LASF2
 667 0041 03       		.uleb128 0x3
 668 0042 02       		.byte	0x2
 669 0043 05       		.byte	0x5
 670 0044 95000000 		.4byte	.LASF3
 671 0048 04       		.uleb128 0x4
 672 0049 8A000000 		.4byte	.LASF5
 673 004d 02       		.byte	0x2
 674 004e 26       		.byte	0x26
 675 004f 53000000 		.4byte	0x53
 676 0053 03       		.uleb128 0x3
 677 0054 02       		.byte	0x2
 678 0055 07       		.byte	0x7
 679 0056 BE020000 		.4byte	.LASF4
 680 005a 04       		.uleb128 0x4
 681 005b 43030000 		.4byte	.LASF6
 682 005f 02       		.byte	0x2
 683 0060 37       		.byte	0x37
 684 0061 65000000 		.4byte	0x65
 685 0065 03       		.uleb128 0x3
 686 0066 04       		.byte	0x4
 687 0067 05       		.byte	0x5
 688 0068 AB010000 		.4byte	.LASF7
 689 006c 04       		.uleb128 0x4
 690 006d F2020000 		.4byte	.LASF8
 691 0071 02       		.byte	0x2
 692 0072 38       		.byte	0x38
 693 0073 77000000 		.4byte	0x77
 694 0077 03       		.uleb128 0x3
 695 0078 04       		.byte	0x4
 696 0079 07       		.byte	0x7
 697 007a D1020000 		.4byte	.LASF9
 698 007e 03       		.uleb128 0x3
 699 007f 08       		.byte	0x8
 700 0080 05       		.byte	0x5
 701 0081 80010000 		.4byte	.LASF10
 702 0085 03       		.uleb128 0x3
 703 0086 08       		.byte	0x8
 704 0087 07       		.byte	0x7
 705 0088 8E010000 		.4byte	.LASF11
 706 008c 04       		.uleb128 0x4
 707 008d 4E020000 		.4byte	.LASF12
 708 0091 03       		.byte	0x3
 709 0092 36       		.byte	0x36
 710 0093 48000000 		.4byte	0x48
 711 0097 04       		.uleb128 0x4
 712 0098 8D020000 		.4byte	.LASF13
 713 009c 03       		.byte	0x3
 714 009d 41       		.byte	0x41
 715 009e 5A000000 		.4byte	0x5a
 716 00a2 04       		.uleb128 0x4
 717 00a3 38020000 		.4byte	.LASF14
 718 00a7 03       		.byte	0x3
 719 00a8 42       		.byte	0x42
 720 00a9 6C000000 		.4byte	0x6c
ARM GAS  /tmp/cc0fYwmk.s 			page 14


 721 00ad 03       		.uleb128 0x3
 722 00ae 01       		.byte	0x1
 723 00af 02       		.byte	0x2
 724 00b0 95020000 		.4byte	.LASF15
 725 00b4 05       		.uleb128 0x5
 726 00b5 A2000000 		.4byte	0xa2
 727 00b9 03       		.uleb128 0x3
 728 00ba 04       		.byte	0x4
 729 00bb 07       		.byte	0x7
 730 00bc 3E000000 		.4byte	.LASF16
 731 00c0 03       		.uleb128 0x3
 732 00c1 01       		.byte	0x1
 733 00c2 08       		.byte	0x8
 734 00c3 77020000 		.4byte	.LASF17
 735 00c7 06       		.uleb128 0x6
 736 00c8 A2000000 		.4byte	0xa2
 737 00cc D7000000 		.4byte	0xd7
 738 00d0 07       		.uleb128 0x7
 739 00d1 B9000000 		.4byte	0xb9
 740 00d5 03       		.byte	0x3
 741 00d6 00       		.byte	0
 742 00d7 05       		.uleb128 0x5
 743 00d8 97000000 		.4byte	0x97
 744 00dc 08       		.uleb128 0x8
 745 00dd 28       		.byte	0x28
 746 00de 04       		.byte	0x4
 747 00df 4304     		.2byte	0x443
 748 00e1 67010000 		.4byte	0x167
 749 00e5 09       		.uleb128 0x9
 750 00e6 435200   		.ascii	"CR\000"
 751 00e9 04       		.byte	0x4
 752 00ea 4504     		.2byte	0x445
 753 00ec B4000000 		.4byte	0xb4
 754 00f0 00       		.byte	0
 755 00f1 0A       		.uleb128 0xa
 756 00f2 A6000000 		.4byte	.LASF18
 757 00f6 04       		.byte	0x4
 758 00f7 4604     		.2byte	0x446
 759 00f9 B4000000 		.4byte	0xb4
 760 00fd 04       		.byte	0x4
 761 00fe 09       		.uleb128 0x9
 762 00ff 43495200 		.ascii	"CIR\000"
 763 0103 04       		.byte	0x4
 764 0104 4704     		.2byte	0x447
 765 0106 B4000000 		.4byte	0xb4
 766 010a 08       		.byte	0x8
 767 010b 0A       		.uleb128 0xa
 768 010c C5010000 		.4byte	.LASF19
 769 0110 04       		.byte	0x4
 770 0111 4804     		.2byte	0x448
 771 0113 B4000000 		.4byte	0xb4
 772 0117 0C       		.byte	0xc
 773 0118 0A       		.uleb128 0xa
 774 0119 10000000 		.4byte	.LASF20
 775 011d 04       		.byte	0x4
 776 011e 4904     		.2byte	0x449
 777 0120 B4000000 		.4byte	0xb4
ARM GAS  /tmp/cc0fYwmk.s 			page 15


 778 0124 10       		.byte	0x10
 779 0125 0A       		.uleb128 0xa
 780 0126 BE010000 		.4byte	.LASF21
 781 012a 04       		.byte	0x4
 782 012b 4A04     		.2byte	0x44a
 783 012d B4000000 		.4byte	0xb4
 784 0131 14       		.byte	0x14
 785 0132 0A       		.uleb128 0xa
 786 0133 09020000 		.4byte	.LASF22
 787 0137 04       		.byte	0x4
 788 0138 4B04     		.2byte	0x44b
 789 013a B4000000 		.4byte	0xb4
 790 013e 18       		.byte	0x18
 791 013f 0A       		.uleb128 0xa
 792 0140 B7000000 		.4byte	.LASF23
 793 0144 04       		.byte	0x4
 794 0145 4C04     		.2byte	0x44c
 795 0147 B4000000 		.4byte	0xb4
 796 014b 1C       		.byte	0x1c
 797 014c 0A       		.uleb128 0xa
 798 014d 47000000 		.4byte	.LASF24
 799 0151 04       		.byte	0x4
 800 0152 4D04     		.2byte	0x44d
 801 0154 B4000000 		.4byte	0xb4
 802 0158 20       		.byte	0x20
 803 0159 09       		.uleb128 0x9
 804 015a 43535200 		.ascii	"CSR\000"
 805 015e 04       		.byte	0x4
 806 015f 4E04     		.2byte	0x44e
 807 0161 B4000000 		.4byte	0xb4
 808 0165 24       		.byte	0x24
 809 0166 00       		.byte	0
 810 0167 0B       		.uleb128 0xb
 811 0168 1D040000 		.4byte	.LASF25
 812 016c 04       		.byte	0x4
 813 016d 5904     		.2byte	0x459
 814 016f DC000000 		.4byte	0xdc
 815 0173 0C       		.uleb128 0xc
 816 0174 01       		.byte	0x1
 817 0175 05       		.byte	0x5
 818 0176 3C       		.byte	0x3c
 819 0177 9A010000 		.4byte	0x19a
 820 017b 0D       		.uleb128 0xd
 821 017c 05000000 		.4byte	.LASF26
 822 0180 00       		.sleb128 0
 823 0181 0D       		.uleb128 0xd
 824 0182 B1030000 		.4byte	.LASF27
 825 0186 01       		.sleb128 1
 826 0187 0D       		.uleb128 0xd
 827 0188 AA020000 		.4byte	.LASF28
 828 018c 02       		.sleb128 2
 829 018d 0D       		.uleb128 0xd
 830 018e 9B020000 		.4byte	.LASF29
 831 0192 03       		.sleb128 3
 832 0193 0D       		.uleb128 0xd
 833 0194 AB000000 		.4byte	.LASF30
 834 0198 04       		.sleb128 4
ARM GAS  /tmp/cc0fYwmk.s 			page 16


 835 0199 00       		.byte	0
 836 019a 04       		.uleb128 0x4
 837 019b 5C010000 		.4byte	.LASF31
 838 019f 05       		.byte	0x5
 839 01a0 42       		.byte	0x42
 840 01a1 73010000 		.4byte	0x173
 841 01a5 04       		.uleb128 0x4
 842 01a6 B4020000 		.4byte	.LASF32
 843 01aa 05       		.byte	0x5
 844 01ab 47       		.byte	0x47
 845 01ac B0010000 		.4byte	0x1b0
 846 01b0 0E       		.uleb128 0xe
 847 01b1 B4020000 		.4byte	.LASF32
 848 01b5 10       		.byte	0x10
 849 01b6 06       		.byte	0x6
 850 01b7 9001     		.2byte	0x190
 851 01b9 F2010000 		.4byte	0x1f2
 852 01bd 0A       		.uleb128 0xa
 853 01be 1E000000 		.4byte	.LASF33
 854 01c2 06       		.byte	0x6
 855 01c3 9401     		.2byte	0x194
 856 01c5 9A010000 		.4byte	0x19a
 857 01c9 00       		.byte	0
 858 01ca 0A       		.uleb128 0xa
 859 01cb 9F000000 		.4byte	.LASF34
 860 01cf 06       		.byte	0x6
 861 01d0 9801     		.2byte	0x198
 862 01d2 93030000 		.4byte	0x393
 863 01d6 04       		.byte	0x4
 864 01d7 0A       		.uleb128 0xa
 865 01d8 E3020000 		.4byte	.LASF35
 866 01dc 06       		.byte	0x6
 867 01dd A001     		.2byte	0x1a0
 868 01df A2000000 		.4byte	0xa2
 869 01e3 08       		.byte	0x8
 870 01e4 09       		.uleb128 0x9
 871 01e5 74696D00 		.ascii	"tim\000"
 872 01e9 06       		.byte	0x6
 873 01ea A401     		.2byte	0x1a4
 874 01ec 9E030000 		.4byte	0x39e
 875 01f0 0C       		.byte	0xc
 876 01f1 00       		.byte	0
 877 01f2 04       		.uleb128 0x4
 878 01f3 5E000000 		.4byte	.LASF36
 879 01f7 05       		.byte	0x5
 880 01f8 4E       		.byte	0x4e
 881 01f9 FD010000 		.4byte	0x1fd
 882 01fd 0F       		.uleb128 0xf
 883 01fe 04       		.byte	0x4
 884 01ff 03020000 		.4byte	0x203
 885 0203 10       		.uleb128 0x10
 886 0204 0E020000 		.4byte	0x20e
 887 0208 11       		.uleb128 0x11
 888 0209 0E020000 		.4byte	0x20e
 889 020d 00       		.byte	0
 890 020e 0F       		.uleb128 0xf
 891 020f 04       		.byte	0x4
ARM GAS  /tmp/cc0fYwmk.s 			page 17


 892 0210 A5010000 		.4byte	0x1a5
 893 0214 08       		.uleb128 0x8
 894 0215 60       		.byte	0x60
 895 0216 07       		.byte	0x7
 896 0217 9E01     		.2byte	0x19e
 897 0219 2D030000 		.4byte	0x32d
 898 021d 09       		.uleb128 0x9
 899 021e 43523100 		.ascii	"CR1\000"
 900 0222 07       		.byte	0x7
 901 0223 9F01     		.2byte	0x19f
 902 0225 B4000000 		.4byte	0xb4
 903 0229 00       		.byte	0
 904 022a 09       		.uleb128 0x9
 905 022b 43523200 		.ascii	"CR2\000"
 906 022f 07       		.byte	0x7
 907 0230 A001     		.2byte	0x1a0
 908 0232 B4000000 		.4byte	0xb4
 909 0236 04       		.byte	0x4
 910 0237 0A       		.uleb128 0xa
 911 0238 E3010000 		.4byte	.LASF37
 912 023c 07       		.byte	0x7
 913 023d A101     		.2byte	0x1a1
 914 023f B4000000 		.4byte	0xb4
 915 0243 08       		.byte	0x8
 916 0244 0A       		.uleb128 0xa
 917 0245 65020000 		.4byte	.LASF38
 918 0249 07       		.byte	0x7
 919 024a A201     		.2byte	0x1a2
 920 024c B4000000 		.4byte	0xb4
 921 0250 0C       		.byte	0xc
 922 0251 09       		.uleb128 0x9
 923 0252 535200   		.ascii	"SR\000"
 924 0255 07       		.byte	0x7
 925 0256 A301     		.2byte	0x1a3
 926 0258 B4000000 		.4byte	0xb4
 927 025c 10       		.byte	0x10
 928 025d 09       		.uleb128 0x9
 929 025e 45475200 		.ascii	"EGR\000"
 930 0262 07       		.byte	0x7
 931 0263 A401     		.2byte	0x1a4
 932 0265 B4000000 		.4byte	0xb4
 933 0269 14       		.byte	0x14
 934 026a 0A       		.uleb128 0xa
 935 026b D7010000 		.4byte	.LASF39
 936 026f 07       		.byte	0x7
 937 0270 A501     		.2byte	0x1a5
 938 0272 B4000000 		.4byte	0xb4
 939 0276 18       		.byte	0x18
 940 0277 0A       		.uleb128 0xa
 941 0278 24000000 		.4byte	.LASF40
 942 027c 07       		.byte	0x7
 943 027d A601     		.2byte	0x1a6
 944 027f B4000000 		.4byte	0xb4
 945 0283 1C       		.byte	0x1c
 946 0284 0A       		.uleb128 0xa
 947 0285 00000000 		.4byte	.LASF41
 948 0289 07       		.byte	0x7
ARM GAS  /tmp/cc0fYwmk.s 			page 18


 949 028a A701     		.2byte	0x1a7
 950 028c B4000000 		.4byte	0xb4
 951 0290 20       		.byte	0x20
 952 0291 09       		.uleb128 0x9
 953 0292 434E5400 		.ascii	"CNT\000"
 954 0296 07       		.byte	0x7
 955 0297 A801     		.2byte	0x1a8
 956 0299 B4000000 		.4byte	0xb4
 957 029d 24       		.byte	0x24
 958 029e 09       		.uleb128 0x9
 959 029f 50534300 		.ascii	"PSC\000"
 960 02a3 07       		.byte	0x7
 961 02a4 A901     		.2byte	0x1a9
 962 02a6 B4000000 		.4byte	0xb4
 963 02aa 28       		.byte	0x28
 964 02ab 09       		.uleb128 0x9
 965 02ac 41525200 		.ascii	"ARR\000"
 966 02b0 07       		.byte	0x7
 967 02b1 AA01     		.2byte	0x1aa
 968 02b3 B4000000 		.4byte	0xb4
 969 02b7 2C       		.byte	0x2c
 970 02b8 09       		.uleb128 0x9
 971 02b9 52435200 		.ascii	"RCR\000"
 972 02bd 07       		.byte	0x7
 973 02be AB01     		.2byte	0x1ab
 974 02c0 B4000000 		.4byte	0xb4
 975 02c4 30       		.byte	0x30
 976 02c5 09       		.uleb128 0x9
 977 02c6 43435200 		.ascii	"CCR\000"
 978 02ca 07       		.byte	0x7
 979 02cb AC01     		.2byte	0x1ac
 980 02cd 2D030000 		.4byte	0x32d
 981 02d1 34       		.byte	0x34
 982 02d2 0A       		.uleb128 0xa
 983 02d3 88020000 		.4byte	.LASF42
 984 02d7 07       		.byte	0x7
 985 02d8 AD01     		.2byte	0x1ad
 986 02da B4000000 		.4byte	0xb4
 987 02de 44       		.byte	0x44
 988 02df 09       		.uleb128 0x9
 989 02e0 44435200 		.ascii	"DCR\000"
 990 02e4 07       		.byte	0x7
 991 02e5 AE01     		.2byte	0x1ae
 992 02e7 B4000000 		.4byte	0xb4
 993 02eb 48       		.byte	0x48
 994 02ec 0A       		.uleb128 0xa
 995 02ed 19000000 		.4byte	.LASF43
 996 02f1 07       		.byte	0x7
 997 02f2 AF01     		.2byte	0x1af
 998 02f4 B4000000 		.4byte	0xb4
 999 02f8 4C       		.byte	0x4c
 1000 02f9 09       		.uleb128 0x9
 1001 02fa 4F5200   		.ascii	"OR\000"
 1002 02fd 07       		.byte	0x7
 1003 02fe B001     		.2byte	0x1b0
 1004 0300 B4000000 		.4byte	0xb4
 1005 0304 50       		.byte	0x50
ARM GAS  /tmp/cc0fYwmk.s 			page 19


 1006 0305 0A       		.uleb128 0xa
 1007 0306 DD010000 		.4byte	.LASF44
 1008 030a 07       		.byte	0x7
 1009 030b B101     		.2byte	0x1b1
 1010 030d B4000000 		.4byte	0xb4
 1011 0311 54       		.byte	0x54
 1012 0312 0A       		.uleb128 0xa
 1013 0313 B4010000 		.4byte	.LASF45
 1014 0317 07       		.byte	0x7
 1015 0318 B201     		.2byte	0x1b2
 1016 031a B4000000 		.4byte	0xb4
 1017 031e 58       		.byte	0x58
 1018 031f 0A       		.uleb128 0xa
 1019 0320 B9010000 		.4byte	.LASF46
 1020 0324 07       		.byte	0x7
 1021 0325 B301     		.2byte	0x1b3
 1022 0327 B4000000 		.4byte	0xb4
 1023 032b 5C       		.byte	0x5c
 1024 032c 00       		.byte	0
 1025 032d 05       		.uleb128 0x5
 1026 032e C7000000 		.4byte	0xc7
 1027 0332 0B       		.uleb128 0xb
 1028 0333 7C020000 		.4byte	.LASF47
 1029 0337 07       		.byte	0x7
 1030 0338 B401     		.2byte	0x1b4
 1031 033a 14020000 		.4byte	0x214
 1032 033e 0B       		.uleb128 0xb
 1033 033f FB030000 		.4byte	.LASF48
 1034 0343 06       		.byte	0x6
 1035 0344 6D01     		.2byte	0x16d
 1036 0346 A2000000 		.4byte	0xa2
 1037 034a 0B       		.uleb128 0xb
 1038 034b 81000000 		.4byte	.LASF49
 1039 034f 06       		.byte	0x6
 1040 0350 7201     		.2byte	0x172
 1041 0352 A2000000 		.4byte	0xa2
 1042 0356 08       		.uleb128 0x8
 1043 0357 0C       		.byte	0xc
 1044 0358 06       		.byte	0x6
 1045 0359 7801     		.2byte	0x178
 1046 035b 87030000 		.4byte	0x387
 1047 035f 0A       		.uleb128 0xa
 1048 0360 BA030000 		.4byte	.LASF50
 1049 0364 06       		.byte	0x6
 1050 0365 7E01     		.2byte	0x17e
 1051 0367 3E030000 		.4byte	0x33e
 1052 036b 00       		.byte	0
 1053 036c 0A       		.uleb128 0xa
 1054 036d 29040000 		.4byte	.LASF51
 1055 0371 06       		.byte	0x6
 1056 0372 8301     		.2byte	0x183
 1057 0374 F2010000 		.4byte	0x1f2
 1058 0378 04       		.byte	0x4
 1059 0379 0A       		.uleb128 0xa
 1060 037a 57030000 		.4byte	.LASF52
 1061 037e 06       		.byte	0x6
 1062 037f 8A01     		.2byte	0x18a
ARM GAS  /tmp/cc0fYwmk.s 			page 20


 1063 0381 A2000000 		.4byte	0xa2
 1064 0385 08       		.byte	0x8
 1065 0386 00       		.byte	0
 1066 0387 0B       		.uleb128 0xb
 1067 0388 4D030000 		.4byte	.LASF53
 1068 038c 06       		.byte	0x6
 1069 038d 8B01     		.2byte	0x18b
 1070 038f 56030000 		.4byte	0x356
 1071 0393 0F       		.uleb128 0xf
 1072 0394 04       		.byte	0x4
 1073 0395 99030000 		.4byte	0x399
 1074 0399 12       		.uleb128 0x12
 1075 039a 87030000 		.4byte	0x387
 1076 039e 0F       		.uleb128 0xf
 1077 039f 04       		.byte	0x4
 1078 03a0 32030000 		.4byte	0x332
 1079 03a4 13       		.uleb128 0x13
 1080 03a5 C4030000 		.4byte	.LASF68
 1081 03a9 01       		.byte	0x1
 1082 03aa E702     		.2byte	0x2e7
 1083 03ac 01       		.byte	0x1
 1084 03ad BE030000 		.4byte	0x3be
 1085 03b1 14       		.uleb128 0x14
 1086 03b2 3E030000 		.4byte	.LASF59
 1087 03b6 01       		.byte	0x1
 1088 03b7 E702     		.2byte	0x2e7
 1089 03b9 0E020000 		.4byte	0x20e
 1090 03bd 00       		.byte	0
 1091 03be 15       		.uleb128 0x15
 1092 03bf 05040000 		.4byte	.LASF74
 1093 03c3 01       		.byte	0x1
 1094 03c4 93       		.byte	0x93
 1095 03c5 00000000 		.4byte	.LFB63
 1096 03c9 26000000 		.4byte	.LFE63-.LFB63
 1097 03cd 01       		.uleb128 0x1
 1098 03ce 9C       		.byte	0x9c
 1099 03cf 0D040000 		.4byte	0x40d
 1100 03d3 16       		.uleb128 0x16
 1101 03d4 3E030000 		.4byte	.LASF59
 1102 03d8 01       		.byte	0x1
 1103 03d9 93       		.byte	0x93
 1104 03da 0E020000 		.4byte	0x20e
 1105 03de 00000000 		.4byte	.LLST0
 1106 03e2 17       		.uleb128 0x17
 1107 03e3 A4030000 		.4byte	0x3a4
 1108 03e7 12000000 		.4byte	.LBB4
 1109 03eb 0C000000 		.4byte	.LBE4-.LBB4
 1110 03ef 01       		.byte	0x1
 1111 03f0 98       		.byte	0x98
 1112 03f1 FF030000 		.4byte	0x3ff
 1113 03f5 18       		.uleb128 0x18
 1114 03f6 B1030000 		.4byte	0x3b1
 1115 03fa 21000000 		.4byte	.LLST1
 1116 03fe 00       		.byte	0
 1117 03ff 19       		.uleb128 0x19
 1118 0400 24000000 		.4byte	.LVL3
 1119 0404 1A       		.uleb128 0x1a
ARM GAS  /tmp/cc0fYwmk.s 			page 21


 1120 0405 01       		.uleb128 0x1
 1121 0406 50       		.byte	0x50
 1122 0407 03       		.uleb128 0x3
 1123 0408 F3       		.byte	0xf3
 1124 0409 01       		.uleb128 0x1
 1125 040a 50       		.byte	0x50
 1126 040b 00       		.byte	0
 1127 040c 00       		.byte	0
 1128 040d 1B       		.uleb128 0x1b
 1129 040e D7030000 		.4byte	.LASF54
 1130 0412 01       		.byte	0x1
 1131 0413 AA       		.byte	0xaa
 1132 0414 00000000 		.4byte	.LFB64
 1133 0418 16000000 		.4byte	.LFE64-.LFB64
 1134 041c 01       		.uleb128 0x1
 1135 041d 9C       		.byte	0x9c
 1136 041e 43040000 		.4byte	0x443
 1137 0422 1C       		.uleb128 0x1c
 1138 0423 0E000000 		.4byte	.LVL4
 1139 0427 BE030000 		.4byte	0x3be
 1140 042b 39040000 		.4byte	0x439
 1141 042f 1A       		.uleb128 0x1a
 1142 0430 01       		.uleb128 0x1
 1143 0431 50       		.byte	0x50
 1144 0432 05       		.uleb128 0x5
 1145 0433 03       		.byte	0x3
 1146 0434 00000000 		.4byte	.LANCHOR0
 1147 0438 00       		.byte	0
 1148 0439 1D       		.uleb128 0x1d
 1149 043a 16000000 		.4byte	.LVL5
 1150 043e 8C060000 		.4byte	0x68c
 1151 0442 00       		.byte	0
 1152 0443 1B       		.uleb128 0x1b
 1153 0444 CE010000 		.4byte	.LASF55
 1154 0448 01       		.byte	0x1
 1155 0449 BD       		.byte	0xbd
 1156 044a 00000000 		.4byte	.LFB65
 1157 044e 16000000 		.4byte	.LFE65-.LFB65
 1158 0452 01       		.uleb128 0x1
 1159 0453 9C       		.byte	0x9c
 1160 0454 79040000 		.4byte	0x479
 1161 0458 1C       		.uleb128 0x1c
 1162 0459 0E000000 		.4byte	.LVL6
 1163 045d BE030000 		.4byte	0x3be
 1164 0461 6F040000 		.4byte	0x46f
 1165 0465 1A       		.uleb128 0x1a
 1166 0466 01       		.uleb128 0x1
 1167 0467 50       		.byte	0x50
 1168 0468 05       		.uleb128 0x5
 1169 0469 03       		.byte	0x3
 1170 046a 00000000 		.4byte	.LANCHOR1
 1171 046e 00       		.byte	0
 1172 046f 1D       		.uleb128 0x1d
 1173 0470 16000000 		.4byte	.LVL7
 1174 0474 8C060000 		.4byte	0x68c
 1175 0478 00       		.byte	0
 1176 0479 1B       		.uleb128 0x1b
ARM GAS  /tmp/cc0fYwmk.s 			page 22


 1177 047a 2E020000 		.4byte	.LASF56
 1178 047e 01       		.byte	0x1
 1179 047f F6       		.byte	0xf6
 1180 0480 00000000 		.4byte	.LFB66
 1181 0484 16000000 		.4byte	.LFE66-.LFB66
 1182 0488 01       		.uleb128 0x1
 1183 0489 9C       		.byte	0x9c
 1184 048a AF040000 		.4byte	0x4af
 1185 048e 1C       		.uleb128 0x1c
 1186 048f 0E000000 		.4byte	.LVL8
 1187 0493 BE030000 		.4byte	0x3be
 1188 0497 A5040000 		.4byte	0x4a5
 1189 049b 1A       		.uleb128 0x1a
 1190 049c 01       		.uleb128 0x1
 1191 049d 50       		.byte	0x50
 1192 049e 05       		.uleb128 0x5
 1193 049f 03       		.byte	0x3
 1194 04a0 00000000 		.4byte	.LANCHOR2
 1195 04a4 00       		.byte	0
 1196 04a5 1D       		.uleb128 0x1d
 1197 04a6 16000000 		.4byte	.LVL9
 1198 04aa 8C060000 		.4byte	0x68c
 1199 04ae 00       		.byte	0
 1200 04af 1E       		.uleb128 0x1e
 1201 04b0 6D010000 		.4byte	.LASF57
 1202 04b4 01       		.byte	0x1
 1203 04b5 8E01     		.2byte	0x18e
 1204 04b7 00000000 		.4byte	.LFB67
 1205 04bb 4A000000 		.4byte	.LFE67-.LFB67
 1206 04bf 01       		.uleb128 0x1
 1207 04c0 9C       		.byte	0x9c
 1208 04c1 07050000 		.4byte	0x507
 1209 04c5 1C       		.uleb128 0x1c
 1210 04c6 1A000000 		.4byte	.LVL10
 1211 04ca 94060000 		.4byte	0x694
 1212 04ce DC040000 		.4byte	0x4dc
 1213 04d2 1A       		.uleb128 0x1a
 1214 04d3 01       		.uleb128 0x1
 1215 04d4 50       		.byte	0x50
 1216 04d5 05       		.uleb128 0x5
 1217 04d6 03       		.byte	0x3
 1218 04d7 00000000 		.4byte	.LANCHOR0
 1219 04db 00       		.byte	0
 1220 04dc 1C       		.uleb128 0x1c
 1221 04dd 2E000000 		.4byte	.LVL11
 1222 04e1 94060000 		.4byte	0x694
 1223 04e5 F3040000 		.4byte	0x4f3
 1224 04e9 1A       		.uleb128 0x1a
 1225 04ea 01       		.uleb128 0x1
 1226 04eb 50       		.byte	0x50
 1227 04ec 05       		.uleb128 0x5
 1228 04ed 03       		.byte	0x3
 1229 04ee 00000000 		.4byte	.LANCHOR1
 1230 04f2 00       		.byte	0
 1231 04f3 1F       		.uleb128 0x1f
 1232 04f4 4A000000 		.4byte	.LVL12
 1233 04f8 94060000 		.4byte	0x694
ARM GAS  /tmp/cc0fYwmk.s 			page 23


 1234 04fc 1A       		.uleb128 0x1a
 1235 04fd 01       		.uleb128 0x1
 1236 04fe 50       		.byte	0x50
 1237 04ff 05       		.uleb128 0x5
 1238 0500 03       		.byte	0x3
 1239 0501 00000000 		.4byte	.LANCHOR2
 1240 0505 00       		.byte	0
 1241 0506 00       		.byte	0
 1242 0507 1E       		.uleb128 0x1e
 1243 0508 57020000 		.4byte	.LASF58
 1244 050c 01       		.byte	0x1
 1245 050d E001     		.2byte	0x1e0
 1246 050f 00000000 		.4byte	.LFB68
 1247 0513 CC000000 		.4byte	.LFE68-.LFB68
 1248 0517 01       		.uleb128 0x1
 1249 0518 9C       		.byte	0x9c
 1250 0519 67050000 		.4byte	0x567
 1251 051d 20       		.uleb128 0x20
 1252 051e 3E030000 		.4byte	.LASF59
 1253 0522 01       		.byte	0x1
 1254 0523 E001     		.2byte	0x1e0
 1255 0525 0E020000 		.4byte	0x20e
 1256 0529 34000000 		.4byte	.LLST2
 1257 052d 21       		.uleb128 0x21
 1258 052e 70736300 		.ascii	"psc\000"
 1259 0532 01       		.byte	0x1
 1260 0533 E101     		.2byte	0x1e1
 1261 0535 8C000000 		.4byte	0x8c
 1262 0539 A2000000 		.4byte	.LLST3
 1263 053d 1C       		.uleb128 0x1c
 1264 053e 74000000 		.4byte	.LVL19
 1265 0542 A5060000 		.4byte	0x6a5
 1266 0546 51050000 		.4byte	0x551
 1267 054a 1A       		.uleb128 0x1a
 1268 054b 01       		.uleb128 0x1
 1269 054c 51       		.byte	0x51
 1270 054d 02       		.uleb128 0x2
 1271 054e 08       		.byte	0x8
 1272 054f 70       		.byte	0x70
 1273 0550 00       		.byte	0
 1274 0551 22       		.uleb128 0x22
 1275 0552 A4000000 		.4byte	.LVL22
 1276 0556 A5060000 		.4byte	0x6a5
 1277 055a 1A       		.uleb128 0x1a
 1278 055b 01       		.uleb128 0x1
 1279 055c 51       		.byte	0x51
 1280 055d 02       		.uleb128 0x2
 1281 055e 08       		.byte	0x8
 1282 055f 70       		.byte	0x70
 1283 0560 1A       		.uleb128 0x1a
 1284 0561 01       		.uleb128 0x1
 1285 0562 50       		.byte	0x50
 1286 0563 01       		.uleb128 0x1
 1287 0564 49       		.byte	0x49
 1288 0565 00       		.byte	0
 1289 0566 00       		.byte	0
 1290 0567 1E       		.uleb128 0x1e
ARM GAS  /tmp/cc0fYwmk.s 			page 24


 1291 0568 6A020000 		.4byte	.LASF60
 1292 056c 01       		.byte	0x1
 1293 056d 7802     		.2byte	0x278
 1294 056f 00000000 		.4byte	.LFB69
 1295 0573 80000000 		.4byte	.LFE69-.LFB69
 1296 0577 01       		.uleb128 0x1
 1297 0578 9C       		.byte	0x9c
 1298 0579 C4050000 		.4byte	0x5c4
 1299 057d 20       		.uleb128 0x20
 1300 057e 3E030000 		.4byte	.LASF59
 1301 0582 01       		.byte	0x1
 1302 0583 7802     		.2byte	0x278
 1303 0585 0E020000 		.4byte	0x20e
 1304 0589 B5000000 		.4byte	.LLST4
 1305 058d 1C       		.uleb128 0x1c
 1306 058e 3E000000 		.4byte	.LVL29
 1307 0592 BC060000 		.4byte	0x6bc
 1308 0596 A1050000 		.4byte	0x5a1
 1309 059a 1A       		.uleb128 0x1a
 1310 059b 01       		.uleb128 0x1
 1311 059c 50       		.byte	0x50
 1312 059d 02       		.uleb128 0x2
 1313 059e 08       		.byte	0x8
 1314 059f 32       		.byte	0x32
 1315 05a0 00       		.byte	0
 1316 05a1 1C       		.uleb128 0x1c
 1317 05a2 56000000 		.4byte	.LVL32
 1318 05a6 BC060000 		.4byte	0x6bc
 1319 05aa B4050000 		.4byte	0x5b4
 1320 05ae 1A       		.uleb128 0x1a
 1321 05af 01       		.uleb128 0x1
 1322 05b0 50       		.byte	0x50
 1323 05b1 01       		.uleb128 0x1
 1324 05b2 49       		.byte	0x49
 1325 05b3 00       		.byte	0
 1326 05b4 22       		.uleb128 0x22
 1327 05b5 6E000000 		.4byte	.LVL35
 1328 05b9 BC060000 		.4byte	0x6bc
 1329 05bd 1A       		.uleb128 0x1a
 1330 05be 01       		.uleb128 0x1
 1331 05bf 50       		.byte	0x50
 1332 05c0 01       		.uleb128 0x1
 1333 05c1 4C       		.byte	0x4c
 1334 05c2 00       		.byte	0
 1335 05c3 00       		.byte	0
 1336 05c4 1E       		.uleb128 0x1e
 1337 05c5 2A000000 		.4byte	.LASF61
 1338 05c9 01       		.byte	0x1
 1339 05ca D202     		.2byte	0x2d2
 1340 05cc 00000000 		.4byte	.LFB70
 1341 05d0 1C000000 		.4byte	.LFE70-.LFB70
 1342 05d4 01       		.uleb128 0x1
 1343 05d5 9C       		.byte	0x9c
 1344 05d6 FB050000 		.4byte	0x5fb
 1345 05da 20       		.uleb128 0x20
 1346 05db 3E030000 		.4byte	.LASF59
 1347 05df 01       		.byte	0x1
ARM GAS  /tmp/cc0fYwmk.s 			page 25


 1348 05e0 D202     		.2byte	0x2d2
 1349 05e2 0E020000 		.4byte	0x20e
 1350 05e6 21010000 		.4byte	.LLST5
 1351 05ea 20       		.uleb128 0x20
 1352 05eb E9020000 		.4byte	.LASF62
 1353 05ef 01       		.byte	0x1
 1354 05f0 D202     		.2byte	0x2d2
 1355 05f2 4A030000 		.4byte	0x34a
 1356 05f6 42010000 		.4byte	.LLST6
 1357 05fa 00       		.byte	0
 1358 05fb 23       		.uleb128 0x23
 1359 05fc A4030000 		.4byte	0x3a4
 1360 0600 00000000 		.4byte	.LFB71
 1361 0604 12000000 		.4byte	.LFE71-.LFB71
 1362 0608 01       		.uleb128 0x1
 1363 0609 9C       		.byte	0x9c
 1364 060a 16060000 		.4byte	0x616
 1365 060e 24       		.uleb128 0x24
 1366 060f B1030000 		.4byte	0x3b1
 1367 0613 01       		.uleb128 0x1
 1368 0614 50       		.byte	0x50
 1369 0615 00       		.byte	0
 1370 0616 1E       		.uleb128 0x1e
 1371 0617 6C000000 		.4byte	.LASF63
 1372 061b 01       		.byte	0x1
 1373 061c FB02     		.2byte	0x2fb
 1374 061e 00000000 		.4byte	.LFB72
 1375 0622 20000000 		.4byte	.LFE72-.LFB72
 1376 0626 01       		.uleb128 0x1
 1377 0627 9C       		.byte	0x9c
 1378 0628 4D060000 		.4byte	0x64d
 1379 062c 20       		.uleb128 0x20
 1380 062d 3E030000 		.4byte	.LASF59
 1381 0631 01       		.byte	0x1
 1382 0632 FB02     		.2byte	0x2fb
 1383 0634 0E020000 		.4byte	0x20e
 1384 0638 70010000 		.4byte	.LLST7
 1385 063c 20       		.uleb128 0x20
 1386 063d E9020000 		.4byte	.LASF62
 1387 0641 01       		.byte	0x1
 1388 0642 FB02     		.2byte	0x2fb
 1389 0644 4A030000 		.4byte	0x34a
 1390 0648 91010000 		.4byte	.LLST8
 1391 064c 00       		.byte	0
 1392 064d 25       		.uleb128 0x25
 1393 064e EE030000 		.4byte	.LASF64
 1394 0652 08       		.byte	0x8
 1395 0653 0706     		.2byte	0x607
 1396 0655 D7000000 		.4byte	0xd7
 1397 0659 26       		.uleb128 0x26
 1398 065a A5010000 		.4byte	.LASF65
 1399 065e 01       		.byte	0x1
 1400 065f 2B       		.byte	0x2b
 1401 0660 A5010000 		.4byte	0x1a5
 1402 0664 05       		.uleb128 0x5
 1403 0665 03       		.byte	0x3
 1404 0666 00000000 		.4byte	GPTD1
ARM GAS  /tmp/cc0fYwmk.s 			page 26


 1405 066a 26       		.uleb128 0x26
 1406 066b 67010000 		.4byte	.LASF66
 1407 066f 01       		.byte	0x1
 1408 0670 33       		.byte	0x33
 1409 0671 A5010000 		.4byte	0x1a5
 1410 0675 05       		.uleb128 0x5
 1411 0676 03       		.byte	0x3
 1412 0677 00000000 		.4byte	GPTD2
 1413 067b 26       		.uleb128 0x26
 1414 067c 7A010000 		.4byte	.LASF67
 1415 0680 01       		.byte	0x1
 1416 0681 4B       		.byte	0x4b
 1417 0682 A5010000 		.4byte	0x1a5
 1418 0686 05       		.uleb128 0x5
 1419 0687 03       		.byte	0x3
 1420 0688 00000000 		.4byte	GPTD5
 1421 068c 27       		.uleb128 0x27
 1422 068d E8010000 		.4byte	.LASF75
 1423 0691 0A       		.byte	0xa
 1424 0692 0302     		.2byte	0x203
 1425 0694 28       		.uleb128 0x28
 1426 0695 E0030000 		.4byte	.LASF69
 1427 0699 05       		.byte	0x5
 1428 069a 6F       		.byte	0x6f
 1429 069b A5060000 		.4byte	0x6a5
 1430 069f 11       		.uleb128 0x11
 1431 06a0 0E020000 		.4byte	0x20e
 1432 06a4 00       		.byte	0
 1433 06a5 29       		.uleb128 0x29
 1434 06a6 11020000 		.4byte	.LASF70
 1435 06aa 09       		.byte	0x9
 1436 06ab 2301     		.2byte	0x123
 1437 06ad BC060000 		.4byte	0x6bc
 1438 06b1 11       		.uleb128 0x11
 1439 06b2 A2000000 		.4byte	0xa2
 1440 06b6 11       		.uleb128 0x11
 1441 06b7 A2000000 		.4byte	0xa2
 1442 06bb 00       		.byte	0
 1443 06bc 2A       		.uleb128 0x2a
 1444 06bd 4C000000 		.4byte	.LASF76
 1445 06c1 09       		.byte	0x9
 1446 06c2 2401     		.2byte	0x124
 1447 06c4 11       		.uleb128 0x11
 1448 06c5 A2000000 		.4byte	0xa2
 1449 06c9 00       		.byte	0
 1450 06ca 00       		.byte	0
 1451              		.section	.debug_abbrev,"",%progbits
 1452              	.Ldebug_abbrev0:
 1453 0000 01       		.uleb128 0x1
 1454 0001 11       		.uleb128 0x11
 1455 0002 01       		.byte	0x1
 1456 0003 25       		.uleb128 0x25
 1457 0004 0E       		.uleb128 0xe
 1458 0005 13       		.uleb128 0x13
 1459 0006 0B       		.uleb128 0xb
 1460 0007 03       		.uleb128 0x3
 1461 0008 0E       		.uleb128 0xe
ARM GAS  /tmp/cc0fYwmk.s 			page 27


 1462 0009 1B       		.uleb128 0x1b
 1463 000a 0E       		.uleb128 0xe
 1464 000b 55       		.uleb128 0x55
 1465 000c 17       		.uleb128 0x17
 1466 000d 11       		.uleb128 0x11
 1467 000e 01       		.uleb128 0x1
 1468 000f 10       		.uleb128 0x10
 1469 0010 17       		.uleb128 0x17
 1470 0011 00       		.byte	0
 1471 0012 00       		.byte	0
 1472 0013 02       		.uleb128 0x2
 1473 0014 24       		.uleb128 0x24
 1474 0015 00       		.byte	0
 1475 0016 0B       		.uleb128 0xb
 1476 0017 0B       		.uleb128 0xb
 1477 0018 3E       		.uleb128 0x3e
 1478 0019 0B       		.uleb128 0xb
 1479 001a 03       		.uleb128 0x3
 1480 001b 08       		.uleb128 0x8
 1481 001c 00       		.byte	0
 1482 001d 00       		.byte	0
 1483 001e 03       		.uleb128 0x3
 1484 001f 24       		.uleb128 0x24
 1485 0020 00       		.byte	0
 1486 0021 0B       		.uleb128 0xb
 1487 0022 0B       		.uleb128 0xb
 1488 0023 3E       		.uleb128 0x3e
 1489 0024 0B       		.uleb128 0xb
 1490 0025 03       		.uleb128 0x3
 1491 0026 0E       		.uleb128 0xe
 1492 0027 00       		.byte	0
 1493 0028 00       		.byte	0
 1494 0029 04       		.uleb128 0x4
 1495 002a 16       		.uleb128 0x16
 1496 002b 00       		.byte	0
 1497 002c 03       		.uleb128 0x3
 1498 002d 0E       		.uleb128 0xe
 1499 002e 3A       		.uleb128 0x3a
 1500 002f 0B       		.uleb128 0xb
 1501 0030 3B       		.uleb128 0x3b
 1502 0031 0B       		.uleb128 0xb
 1503 0032 49       		.uleb128 0x49
 1504 0033 13       		.uleb128 0x13
 1505 0034 00       		.byte	0
 1506 0035 00       		.byte	0
 1507 0036 05       		.uleb128 0x5
 1508 0037 35       		.uleb128 0x35
 1509 0038 00       		.byte	0
 1510 0039 49       		.uleb128 0x49
 1511 003a 13       		.uleb128 0x13
 1512 003b 00       		.byte	0
 1513 003c 00       		.byte	0
 1514 003d 06       		.uleb128 0x6
 1515 003e 01       		.uleb128 0x1
 1516 003f 01       		.byte	0x1
 1517 0040 49       		.uleb128 0x49
 1518 0041 13       		.uleb128 0x13
ARM GAS  /tmp/cc0fYwmk.s 			page 28


 1519 0042 01       		.uleb128 0x1
 1520 0043 13       		.uleb128 0x13
 1521 0044 00       		.byte	0
 1522 0045 00       		.byte	0
 1523 0046 07       		.uleb128 0x7
 1524 0047 21       		.uleb128 0x21
 1525 0048 00       		.byte	0
 1526 0049 49       		.uleb128 0x49
 1527 004a 13       		.uleb128 0x13
 1528 004b 2F       		.uleb128 0x2f
 1529 004c 0B       		.uleb128 0xb
 1530 004d 00       		.byte	0
 1531 004e 00       		.byte	0
 1532 004f 08       		.uleb128 0x8
 1533 0050 13       		.uleb128 0x13
 1534 0051 01       		.byte	0x1
 1535 0052 0B       		.uleb128 0xb
 1536 0053 0B       		.uleb128 0xb
 1537 0054 3A       		.uleb128 0x3a
 1538 0055 0B       		.uleb128 0xb
 1539 0056 3B       		.uleb128 0x3b
 1540 0057 05       		.uleb128 0x5
 1541 0058 01       		.uleb128 0x1
 1542 0059 13       		.uleb128 0x13
 1543 005a 00       		.byte	0
 1544 005b 00       		.byte	0
 1545 005c 09       		.uleb128 0x9
 1546 005d 0D       		.uleb128 0xd
 1547 005e 00       		.byte	0
 1548 005f 03       		.uleb128 0x3
 1549 0060 08       		.uleb128 0x8
 1550 0061 3A       		.uleb128 0x3a
 1551 0062 0B       		.uleb128 0xb
 1552 0063 3B       		.uleb128 0x3b
 1553 0064 05       		.uleb128 0x5
 1554 0065 49       		.uleb128 0x49
 1555 0066 13       		.uleb128 0x13
 1556 0067 38       		.uleb128 0x38
 1557 0068 0B       		.uleb128 0xb
 1558 0069 00       		.byte	0
 1559 006a 00       		.byte	0
 1560 006b 0A       		.uleb128 0xa
 1561 006c 0D       		.uleb128 0xd
 1562 006d 00       		.byte	0
 1563 006e 03       		.uleb128 0x3
 1564 006f 0E       		.uleb128 0xe
 1565 0070 3A       		.uleb128 0x3a
 1566 0071 0B       		.uleb128 0xb
 1567 0072 3B       		.uleb128 0x3b
 1568 0073 05       		.uleb128 0x5
 1569 0074 49       		.uleb128 0x49
 1570 0075 13       		.uleb128 0x13
 1571 0076 38       		.uleb128 0x38
 1572 0077 0B       		.uleb128 0xb
 1573 0078 00       		.byte	0
 1574 0079 00       		.byte	0
 1575 007a 0B       		.uleb128 0xb
ARM GAS  /tmp/cc0fYwmk.s 			page 29


 1576 007b 16       		.uleb128 0x16
 1577 007c 00       		.byte	0
 1578 007d 03       		.uleb128 0x3
 1579 007e 0E       		.uleb128 0xe
 1580 007f 3A       		.uleb128 0x3a
 1581 0080 0B       		.uleb128 0xb
 1582 0081 3B       		.uleb128 0x3b
 1583 0082 05       		.uleb128 0x5
 1584 0083 49       		.uleb128 0x49
 1585 0084 13       		.uleb128 0x13
 1586 0085 00       		.byte	0
 1587 0086 00       		.byte	0
 1588 0087 0C       		.uleb128 0xc
 1589 0088 04       		.uleb128 0x4
 1590 0089 01       		.byte	0x1
 1591 008a 0B       		.uleb128 0xb
 1592 008b 0B       		.uleb128 0xb
 1593 008c 3A       		.uleb128 0x3a
 1594 008d 0B       		.uleb128 0xb
 1595 008e 3B       		.uleb128 0x3b
 1596 008f 0B       		.uleb128 0xb
 1597 0090 01       		.uleb128 0x1
 1598 0091 13       		.uleb128 0x13
 1599 0092 00       		.byte	0
 1600 0093 00       		.byte	0
 1601 0094 0D       		.uleb128 0xd
 1602 0095 28       		.uleb128 0x28
 1603 0096 00       		.byte	0
 1604 0097 03       		.uleb128 0x3
 1605 0098 0E       		.uleb128 0xe
 1606 0099 1C       		.uleb128 0x1c
 1607 009a 0D       		.uleb128 0xd
 1608 009b 00       		.byte	0
 1609 009c 00       		.byte	0
 1610 009d 0E       		.uleb128 0xe
 1611 009e 13       		.uleb128 0x13
 1612 009f 01       		.byte	0x1
 1613 00a0 03       		.uleb128 0x3
 1614 00a1 0E       		.uleb128 0xe
 1615 00a2 0B       		.uleb128 0xb
 1616 00a3 0B       		.uleb128 0xb
 1617 00a4 3A       		.uleb128 0x3a
 1618 00a5 0B       		.uleb128 0xb
 1619 00a6 3B       		.uleb128 0x3b
 1620 00a7 05       		.uleb128 0x5
 1621 00a8 01       		.uleb128 0x1
 1622 00a9 13       		.uleb128 0x13
 1623 00aa 00       		.byte	0
 1624 00ab 00       		.byte	0
 1625 00ac 0F       		.uleb128 0xf
 1626 00ad 0F       		.uleb128 0xf
 1627 00ae 00       		.byte	0
 1628 00af 0B       		.uleb128 0xb
 1629 00b0 0B       		.uleb128 0xb
 1630 00b1 49       		.uleb128 0x49
 1631 00b2 13       		.uleb128 0x13
 1632 00b3 00       		.byte	0
ARM GAS  /tmp/cc0fYwmk.s 			page 30


 1633 00b4 00       		.byte	0
 1634 00b5 10       		.uleb128 0x10
 1635 00b6 15       		.uleb128 0x15
 1636 00b7 01       		.byte	0x1
 1637 00b8 27       		.uleb128 0x27
 1638 00b9 19       		.uleb128 0x19
 1639 00ba 01       		.uleb128 0x1
 1640 00bb 13       		.uleb128 0x13
 1641 00bc 00       		.byte	0
 1642 00bd 00       		.byte	0
 1643 00be 11       		.uleb128 0x11
 1644 00bf 05       		.uleb128 0x5
 1645 00c0 00       		.byte	0
 1646 00c1 49       		.uleb128 0x49
 1647 00c2 13       		.uleb128 0x13
 1648 00c3 00       		.byte	0
 1649 00c4 00       		.byte	0
 1650 00c5 12       		.uleb128 0x12
 1651 00c6 26       		.uleb128 0x26
 1652 00c7 00       		.byte	0
 1653 00c8 49       		.uleb128 0x49
 1654 00c9 13       		.uleb128 0x13
 1655 00ca 00       		.byte	0
 1656 00cb 00       		.byte	0
 1657 00cc 13       		.uleb128 0x13
 1658 00cd 2E       		.uleb128 0x2e
 1659 00ce 01       		.byte	0x1
 1660 00cf 3F       		.uleb128 0x3f
 1661 00d0 19       		.uleb128 0x19
 1662 00d1 03       		.uleb128 0x3
 1663 00d2 0E       		.uleb128 0xe
 1664 00d3 3A       		.uleb128 0x3a
 1665 00d4 0B       		.uleb128 0xb
 1666 00d5 3B       		.uleb128 0x3b
 1667 00d6 05       		.uleb128 0x5
 1668 00d7 27       		.uleb128 0x27
 1669 00d8 19       		.uleb128 0x19
 1670 00d9 20       		.uleb128 0x20
 1671 00da 0B       		.uleb128 0xb
 1672 00db 01       		.uleb128 0x1
 1673 00dc 13       		.uleb128 0x13
 1674 00dd 00       		.byte	0
 1675 00de 00       		.byte	0
 1676 00df 14       		.uleb128 0x14
 1677 00e0 05       		.uleb128 0x5
 1678 00e1 00       		.byte	0
 1679 00e2 03       		.uleb128 0x3
 1680 00e3 0E       		.uleb128 0xe
 1681 00e4 3A       		.uleb128 0x3a
 1682 00e5 0B       		.uleb128 0xb
 1683 00e6 3B       		.uleb128 0x3b
 1684 00e7 05       		.uleb128 0x5
 1685 00e8 49       		.uleb128 0x49
 1686 00e9 13       		.uleb128 0x13
 1687 00ea 00       		.byte	0
 1688 00eb 00       		.byte	0
 1689 00ec 15       		.uleb128 0x15
ARM GAS  /tmp/cc0fYwmk.s 			page 31


 1690 00ed 2E       		.uleb128 0x2e
 1691 00ee 01       		.byte	0x1
 1692 00ef 03       		.uleb128 0x3
 1693 00f0 0E       		.uleb128 0xe
 1694 00f1 3A       		.uleb128 0x3a
 1695 00f2 0B       		.uleb128 0xb
 1696 00f3 3B       		.uleb128 0x3b
 1697 00f4 0B       		.uleb128 0xb
 1698 00f5 27       		.uleb128 0x27
 1699 00f6 19       		.uleb128 0x19
 1700 00f7 11       		.uleb128 0x11
 1701 00f8 01       		.uleb128 0x1
 1702 00f9 12       		.uleb128 0x12
 1703 00fa 06       		.uleb128 0x6
 1704 00fb 40       		.uleb128 0x40
 1705 00fc 18       		.uleb128 0x18
 1706 00fd 9742     		.uleb128 0x2117
 1707 00ff 19       		.uleb128 0x19
 1708 0100 01       		.uleb128 0x1
 1709 0101 13       		.uleb128 0x13
 1710 0102 00       		.byte	0
 1711 0103 00       		.byte	0
 1712 0104 16       		.uleb128 0x16
 1713 0105 05       		.uleb128 0x5
 1714 0106 00       		.byte	0
 1715 0107 03       		.uleb128 0x3
 1716 0108 0E       		.uleb128 0xe
 1717 0109 3A       		.uleb128 0x3a
 1718 010a 0B       		.uleb128 0xb
 1719 010b 3B       		.uleb128 0x3b
 1720 010c 0B       		.uleb128 0xb
 1721 010d 49       		.uleb128 0x49
 1722 010e 13       		.uleb128 0x13
 1723 010f 02       		.uleb128 0x2
 1724 0110 17       		.uleb128 0x17
 1725 0111 00       		.byte	0
 1726 0112 00       		.byte	0
 1727 0113 17       		.uleb128 0x17
 1728 0114 1D       		.uleb128 0x1d
 1729 0115 01       		.byte	0x1
 1730 0116 31       		.uleb128 0x31
 1731 0117 13       		.uleb128 0x13
 1732 0118 11       		.uleb128 0x11
 1733 0119 01       		.uleb128 0x1
 1734 011a 12       		.uleb128 0x12
 1735 011b 06       		.uleb128 0x6
 1736 011c 58       		.uleb128 0x58
 1737 011d 0B       		.uleb128 0xb
 1738 011e 59       		.uleb128 0x59
 1739 011f 0B       		.uleb128 0xb
 1740 0120 01       		.uleb128 0x1
 1741 0121 13       		.uleb128 0x13
 1742 0122 00       		.byte	0
 1743 0123 00       		.byte	0
 1744 0124 18       		.uleb128 0x18
 1745 0125 05       		.uleb128 0x5
 1746 0126 00       		.byte	0
ARM GAS  /tmp/cc0fYwmk.s 			page 32


 1747 0127 31       		.uleb128 0x31
 1748 0128 13       		.uleb128 0x13
 1749 0129 02       		.uleb128 0x2
 1750 012a 17       		.uleb128 0x17
 1751 012b 00       		.byte	0
 1752 012c 00       		.byte	0
 1753 012d 19       		.uleb128 0x19
 1754 012e 898201   		.uleb128 0x4109
 1755 0131 01       		.byte	0x1
 1756 0132 11       		.uleb128 0x11
 1757 0133 01       		.uleb128 0x1
 1758 0134 00       		.byte	0
 1759 0135 00       		.byte	0
 1760 0136 1A       		.uleb128 0x1a
 1761 0137 8A8201   		.uleb128 0x410a
 1762 013a 00       		.byte	0
 1763 013b 02       		.uleb128 0x2
 1764 013c 18       		.uleb128 0x18
 1765 013d 9142     		.uleb128 0x2111
 1766 013f 18       		.uleb128 0x18
 1767 0140 00       		.byte	0
 1768 0141 00       		.byte	0
 1769 0142 1B       		.uleb128 0x1b
 1770 0143 2E       		.uleb128 0x2e
 1771 0144 01       		.byte	0x1
 1772 0145 3F       		.uleb128 0x3f
 1773 0146 19       		.uleb128 0x19
 1774 0147 03       		.uleb128 0x3
 1775 0148 0E       		.uleb128 0xe
 1776 0149 3A       		.uleb128 0x3a
 1777 014a 0B       		.uleb128 0xb
 1778 014b 3B       		.uleb128 0x3b
 1779 014c 0B       		.uleb128 0xb
 1780 014d 27       		.uleb128 0x27
 1781 014e 19       		.uleb128 0x19
 1782 014f 11       		.uleb128 0x11
 1783 0150 01       		.uleb128 0x1
 1784 0151 12       		.uleb128 0x12
 1785 0152 06       		.uleb128 0x6
 1786 0153 40       		.uleb128 0x40
 1787 0154 18       		.uleb128 0x18
 1788 0155 9742     		.uleb128 0x2117
 1789 0157 19       		.uleb128 0x19
 1790 0158 01       		.uleb128 0x1
 1791 0159 13       		.uleb128 0x13
 1792 015a 00       		.byte	0
 1793 015b 00       		.byte	0
 1794 015c 1C       		.uleb128 0x1c
 1795 015d 898201   		.uleb128 0x4109
 1796 0160 01       		.byte	0x1
 1797 0161 11       		.uleb128 0x11
 1798 0162 01       		.uleb128 0x1
 1799 0163 31       		.uleb128 0x31
 1800 0164 13       		.uleb128 0x13
 1801 0165 01       		.uleb128 0x1
 1802 0166 13       		.uleb128 0x13
 1803 0167 00       		.byte	0
ARM GAS  /tmp/cc0fYwmk.s 			page 33


 1804 0168 00       		.byte	0
 1805 0169 1D       		.uleb128 0x1d
 1806 016a 898201   		.uleb128 0x4109
 1807 016d 00       		.byte	0
 1808 016e 11       		.uleb128 0x11
 1809 016f 01       		.uleb128 0x1
 1810 0170 9542     		.uleb128 0x2115
 1811 0172 19       		.uleb128 0x19
 1812 0173 31       		.uleb128 0x31
 1813 0174 13       		.uleb128 0x13
 1814 0175 00       		.byte	0
 1815 0176 00       		.byte	0
 1816 0177 1E       		.uleb128 0x1e
 1817 0178 2E       		.uleb128 0x2e
 1818 0179 01       		.byte	0x1
 1819 017a 3F       		.uleb128 0x3f
 1820 017b 19       		.uleb128 0x19
 1821 017c 03       		.uleb128 0x3
 1822 017d 0E       		.uleb128 0xe
 1823 017e 3A       		.uleb128 0x3a
 1824 017f 0B       		.uleb128 0xb
 1825 0180 3B       		.uleb128 0x3b
 1826 0181 05       		.uleb128 0x5
 1827 0182 27       		.uleb128 0x27
 1828 0183 19       		.uleb128 0x19
 1829 0184 11       		.uleb128 0x11
 1830 0185 01       		.uleb128 0x1
 1831 0186 12       		.uleb128 0x12
 1832 0187 06       		.uleb128 0x6
 1833 0188 40       		.uleb128 0x40
 1834 0189 18       		.uleb128 0x18
 1835 018a 9742     		.uleb128 0x2117
 1836 018c 19       		.uleb128 0x19
 1837 018d 01       		.uleb128 0x1
 1838 018e 13       		.uleb128 0x13
 1839 018f 00       		.byte	0
 1840 0190 00       		.byte	0
 1841 0191 1F       		.uleb128 0x1f
 1842 0192 898201   		.uleb128 0x4109
 1843 0195 01       		.byte	0x1
 1844 0196 11       		.uleb128 0x11
 1845 0197 01       		.uleb128 0x1
 1846 0198 9542     		.uleb128 0x2115
 1847 019a 19       		.uleb128 0x19
 1848 019b 31       		.uleb128 0x31
 1849 019c 13       		.uleb128 0x13
 1850 019d 00       		.byte	0
 1851 019e 00       		.byte	0
 1852 019f 20       		.uleb128 0x20
 1853 01a0 05       		.uleb128 0x5
 1854 01a1 00       		.byte	0
 1855 01a2 03       		.uleb128 0x3
 1856 01a3 0E       		.uleb128 0xe
 1857 01a4 3A       		.uleb128 0x3a
 1858 01a5 0B       		.uleb128 0xb
 1859 01a6 3B       		.uleb128 0x3b
 1860 01a7 05       		.uleb128 0x5
ARM GAS  /tmp/cc0fYwmk.s 			page 34


 1861 01a8 49       		.uleb128 0x49
 1862 01a9 13       		.uleb128 0x13
 1863 01aa 02       		.uleb128 0x2
 1864 01ab 17       		.uleb128 0x17
 1865 01ac 00       		.byte	0
 1866 01ad 00       		.byte	0
 1867 01ae 21       		.uleb128 0x21
 1868 01af 34       		.uleb128 0x34
 1869 01b0 00       		.byte	0
 1870 01b1 03       		.uleb128 0x3
 1871 01b2 08       		.uleb128 0x8
 1872 01b3 3A       		.uleb128 0x3a
 1873 01b4 0B       		.uleb128 0xb
 1874 01b5 3B       		.uleb128 0x3b
 1875 01b6 05       		.uleb128 0x5
 1876 01b7 49       		.uleb128 0x49
 1877 01b8 13       		.uleb128 0x13
 1878 01b9 02       		.uleb128 0x2
 1879 01ba 17       		.uleb128 0x17
 1880 01bb 00       		.byte	0
 1881 01bc 00       		.byte	0
 1882 01bd 22       		.uleb128 0x22
 1883 01be 898201   		.uleb128 0x4109
 1884 01c1 01       		.byte	0x1
 1885 01c2 11       		.uleb128 0x11
 1886 01c3 01       		.uleb128 0x1
 1887 01c4 31       		.uleb128 0x31
 1888 01c5 13       		.uleb128 0x13
 1889 01c6 00       		.byte	0
 1890 01c7 00       		.byte	0
 1891 01c8 23       		.uleb128 0x23
 1892 01c9 2E       		.uleb128 0x2e
 1893 01ca 01       		.byte	0x1
 1894 01cb 31       		.uleb128 0x31
 1895 01cc 13       		.uleb128 0x13
 1896 01cd 11       		.uleb128 0x11
 1897 01ce 01       		.uleb128 0x1
 1898 01cf 12       		.uleb128 0x12
 1899 01d0 06       		.uleb128 0x6
 1900 01d1 40       		.uleb128 0x40
 1901 01d2 18       		.uleb128 0x18
 1902 01d3 9742     		.uleb128 0x2117
 1903 01d5 19       		.uleb128 0x19
 1904 01d6 01       		.uleb128 0x1
 1905 01d7 13       		.uleb128 0x13
 1906 01d8 00       		.byte	0
 1907 01d9 00       		.byte	0
 1908 01da 24       		.uleb128 0x24
 1909 01db 05       		.uleb128 0x5
 1910 01dc 00       		.byte	0
 1911 01dd 31       		.uleb128 0x31
 1912 01de 13       		.uleb128 0x13
 1913 01df 02       		.uleb128 0x2
 1914 01e0 18       		.uleb128 0x18
 1915 01e1 00       		.byte	0
 1916 01e2 00       		.byte	0
 1917 01e3 25       		.uleb128 0x25
ARM GAS  /tmp/cc0fYwmk.s 			page 35


 1918 01e4 34       		.uleb128 0x34
 1919 01e5 00       		.byte	0
 1920 01e6 03       		.uleb128 0x3
 1921 01e7 0E       		.uleb128 0xe
 1922 01e8 3A       		.uleb128 0x3a
 1923 01e9 0B       		.uleb128 0xb
 1924 01ea 3B       		.uleb128 0x3b
 1925 01eb 05       		.uleb128 0x5
 1926 01ec 49       		.uleb128 0x49
 1927 01ed 13       		.uleb128 0x13
 1928 01ee 3F       		.uleb128 0x3f
 1929 01ef 19       		.uleb128 0x19
 1930 01f0 3C       		.uleb128 0x3c
 1931 01f1 19       		.uleb128 0x19
 1932 01f2 00       		.byte	0
 1933 01f3 00       		.byte	0
 1934 01f4 26       		.uleb128 0x26
 1935 01f5 34       		.uleb128 0x34
 1936 01f6 00       		.byte	0
 1937 01f7 03       		.uleb128 0x3
 1938 01f8 0E       		.uleb128 0xe
 1939 01f9 3A       		.uleb128 0x3a
 1940 01fa 0B       		.uleb128 0xb
 1941 01fb 3B       		.uleb128 0x3b
 1942 01fc 0B       		.uleb128 0xb
 1943 01fd 49       		.uleb128 0x49
 1944 01fe 13       		.uleb128 0x13
 1945 01ff 3F       		.uleb128 0x3f
 1946 0200 19       		.uleb128 0x19
 1947 0201 02       		.uleb128 0x2
 1948 0202 18       		.uleb128 0x18
 1949 0203 00       		.byte	0
 1950 0204 00       		.byte	0
 1951 0205 27       		.uleb128 0x27
 1952 0206 2E       		.uleb128 0x2e
 1953 0207 00       		.byte	0
 1954 0208 3F       		.uleb128 0x3f
 1955 0209 19       		.uleb128 0x19
 1956 020a 03       		.uleb128 0x3
 1957 020b 0E       		.uleb128 0xe
 1958 020c 3A       		.uleb128 0x3a
 1959 020d 0B       		.uleb128 0xb
 1960 020e 3B       		.uleb128 0x3b
 1961 020f 05       		.uleb128 0x5
 1962 0210 27       		.uleb128 0x27
 1963 0211 19       		.uleb128 0x19
 1964 0212 3C       		.uleb128 0x3c
 1965 0213 19       		.uleb128 0x19
 1966 0214 00       		.byte	0
 1967 0215 00       		.byte	0
 1968 0216 28       		.uleb128 0x28
 1969 0217 2E       		.uleb128 0x2e
 1970 0218 01       		.byte	0x1
 1971 0219 3F       		.uleb128 0x3f
 1972 021a 19       		.uleb128 0x19
 1973 021b 03       		.uleb128 0x3
 1974 021c 0E       		.uleb128 0xe
ARM GAS  /tmp/cc0fYwmk.s 			page 36


 1975 021d 3A       		.uleb128 0x3a
 1976 021e 0B       		.uleb128 0xb
 1977 021f 3B       		.uleb128 0x3b
 1978 0220 0B       		.uleb128 0xb
 1979 0221 27       		.uleb128 0x27
 1980 0222 19       		.uleb128 0x19
 1981 0223 3C       		.uleb128 0x3c
 1982 0224 19       		.uleb128 0x19
 1983 0225 01       		.uleb128 0x1
 1984 0226 13       		.uleb128 0x13
 1985 0227 00       		.byte	0
 1986 0228 00       		.byte	0
 1987 0229 29       		.uleb128 0x29
 1988 022a 2E       		.uleb128 0x2e
 1989 022b 01       		.byte	0x1
 1990 022c 3F       		.uleb128 0x3f
 1991 022d 19       		.uleb128 0x19
 1992 022e 03       		.uleb128 0x3
 1993 022f 0E       		.uleb128 0xe
 1994 0230 3A       		.uleb128 0x3a
 1995 0231 0B       		.uleb128 0xb
 1996 0232 3B       		.uleb128 0x3b
 1997 0233 05       		.uleb128 0x5
 1998 0234 27       		.uleb128 0x27
 1999 0235 19       		.uleb128 0x19
 2000 0236 3C       		.uleb128 0x3c
 2001 0237 19       		.uleb128 0x19
 2002 0238 01       		.uleb128 0x1
 2003 0239 13       		.uleb128 0x13
 2004 023a 00       		.byte	0
 2005 023b 00       		.byte	0
 2006 023c 2A       		.uleb128 0x2a
 2007 023d 2E       		.uleb128 0x2e
 2008 023e 01       		.byte	0x1
 2009 023f 3F       		.uleb128 0x3f
 2010 0240 19       		.uleb128 0x19
 2011 0241 03       		.uleb128 0x3
 2012 0242 0E       		.uleb128 0xe
 2013 0243 3A       		.uleb128 0x3a
 2014 0244 0B       		.uleb128 0xb
 2015 0245 3B       		.uleb128 0x3b
 2016 0246 05       		.uleb128 0x5
 2017 0247 27       		.uleb128 0x27
 2018 0248 19       		.uleb128 0x19
 2019 0249 3C       		.uleb128 0x3c
 2020 024a 19       		.uleb128 0x19
 2021 024b 00       		.byte	0
 2022 024c 00       		.byte	0
 2023 024d 00       		.byte	0
 2024              		.section	.debug_loc,"",%progbits
 2025              	.Ldebug_loc0:
 2026              	.LLST0:
 2027 0000 00000000 		.4byte	.LVL0
 2028 0004 23000000 		.4byte	.LVL3-1
 2029 0008 0100     		.2byte	0x1
 2030 000a 50       		.byte	0x50
 2031 000b 23000000 		.4byte	.LVL3-1
ARM GAS  /tmp/cc0fYwmk.s 			page 37


 2032 000f 26000000 		.4byte	.LFE63
 2033 0013 0400     		.2byte	0x4
 2034 0015 F3       		.byte	0xf3
 2035 0016 01       		.uleb128 0x1
 2036 0017 50       		.byte	0x50
 2037 0018 9F       		.byte	0x9f
 2038 0019 00000000 		.4byte	0
 2039 001d 00000000 		.4byte	0
 2040              	.LLST1:
 2041 0021 12000000 		.4byte	.LVL1
 2042 0025 1E000000 		.4byte	.LVL2
 2043 0029 0100     		.2byte	0x1
 2044 002b 50       		.byte	0x50
 2045 002c 00000000 		.4byte	0
 2046 0030 00000000 		.4byte	0
 2047              	.LLST2:
 2048 0034 00000000 		.4byte	.LVL13
 2049 0038 0A000000 		.4byte	.LVL14
 2050 003c 0100     		.2byte	0x1
 2051 003e 50       		.byte	0x50
 2052 003f 0A000000 		.4byte	.LVL14
 2053 0043 20000000 		.4byte	.LVL16
 2054 0047 0100     		.2byte	0x1
 2055 0049 54       		.byte	0x54
 2056 004a 20000000 		.4byte	.LVL16
 2057 004e 2C000000 		.4byte	.LVL17
 2058 0052 0400     		.2byte	0x4
 2059 0054 F3       		.byte	0xf3
 2060 0055 01       		.uleb128 0x1
 2061 0056 50       		.byte	0x50
 2062 0057 9F       		.byte	0x9f
 2063 0058 2C000000 		.4byte	.LVL17
 2064 005c 66000000 		.4byte	.LVL18
 2065 0060 0100     		.2byte	0x1
 2066 0062 50       		.byte	0x50
 2067 0063 66000000 		.4byte	.LVL18
 2068 0067 80000000 		.4byte	.LVL20
 2069 006b 0100     		.2byte	0x1
 2070 006d 54       		.byte	0x54
 2071 006e 80000000 		.4byte	.LVL20
 2072 0072 96000000 		.4byte	.LVL21
 2073 0076 0100     		.2byte	0x1
 2074 0078 50       		.byte	0x50
 2075 0079 96000000 		.4byte	.LVL21
 2076 007d B0000000 		.4byte	.LVL23
 2077 0081 0100     		.2byte	0x1
 2078 0083 54       		.byte	0x54
 2079 0084 B0000000 		.4byte	.LVL23
 2080 0088 C6000000 		.4byte	.LVL24
 2081 008c 0100     		.2byte	0x1
 2082 008e 50       		.byte	0x50
 2083 008f C6000000 		.4byte	.LVL24
 2084 0093 CC000000 		.4byte	.LFE68
 2085 0097 0100     		.2byte	0x1
 2086 0099 54       		.byte	0x54
 2087 009a 00000000 		.4byte	0
 2088 009e 00000000 		.4byte	0
ARM GAS  /tmp/cc0fYwmk.s 			page 38


 2089              	.LLST3:
 2090 00a2 1E000000 		.4byte	.LVL15
 2091 00a6 2C000000 		.4byte	.LVL17
 2092 00aa 0100     		.2byte	0x1
 2093 00ac 50       		.byte	0x50
 2094 00ad 00000000 		.4byte	0
 2095 00b1 00000000 		.4byte	0
 2096              	.LLST4:
 2097 00b5 00000000 		.4byte	.LVL25
 2098 00b9 08000000 		.4byte	.LVL26
 2099 00bd 0100     		.2byte	0x1
 2100 00bf 50       		.byte	0x50
 2101 00c0 08000000 		.4byte	.LVL26
 2102 00c4 0A000000 		.4byte	.LVL27
 2103 00c8 0400     		.2byte	0x4
 2104 00ca F3       		.byte	0xf3
 2105 00cb 01       		.uleb128 0x1
 2106 00cc 50       		.byte	0x50
 2107 00cd 9F       		.byte	0x9f
 2108 00ce 0A000000 		.4byte	.LVL27
 2109 00d2 3A000000 		.4byte	.LVL28
 2110 00d6 0100     		.2byte	0x1
 2111 00d8 50       		.byte	0x50
 2112 00d9 3A000000 		.4byte	.LVL28
 2113 00dd 50000000 		.4byte	.LVL30
 2114 00e1 0400     		.2byte	0x4
 2115 00e3 F3       		.byte	0xf3
 2116 00e4 01       		.uleb128 0x1
 2117 00e5 50       		.byte	0x50
 2118 00e6 9F       		.byte	0x9f
 2119 00e7 50000000 		.4byte	.LVL30
 2120 00eb 52000000 		.4byte	.LVL31
 2121 00ef 0100     		.2byte	0x1
 2122 00f1 50       		.byte	0x50
 2123 00f2 52000000 		.4byte	.LVL31
 2124 00f6 68000000 		.4byte	.LVL33
 2125 00fa 0400     		.2byte	0x4
 2126 00fc F3       		.byte	0xf3
 2127 00fd 01       		.uleb128 0x1
 2128 00fe 50       		.byte	0x50
 2129 00ff 9F       		.byte	0x9f
 2130 0100 68000000 		.4byte	.LVL33
 2131 0104 6A000000 		.4byte	.LVL34
 2132 0108 0100     		.2byte	0x1
 2133 010a 50       		.byte	0x50
 2134 010b 6A000000 		.4byte	.LVL34
 2135 010f 80000000 		.4byte	.LFE69
 2136 0113 0400     		.2byte	0x4
 2137 0115 F3       		.byte	0xf3
 2138 0116 01       		.uleb128 0x1
 2139 0117 50       		.byte	0x50
 2140 0118 9F       		.byte	0x9f
 2141 0119 00000000 		.4byte	0
 2142 011d 00000000 		.4byte	0
 2143              	.LLST5:
 2144 0121 00000000 		.4byte	.LVL36
 2145 0125 08000000 		.4byte	.LVL38
ARM GAS  /tmp/cc0fYwmk.s 			page 39


 2146 0129 0100     		.2byte	0x1
 2147 012b 50       		.byte	0x50
 2148 012c 08000000 		.4byte	.LVL38
 2149 0130 1C000000 		.4byte	.LFE70
 2150 0134 0400     		.2byte	0x4
 2151 0136 F3       		.byte	0xf3
 2152 0137 01       		.uleb128 0x1
 2153 0138 50       		.byte	0x50
 2154 0139 9F       		.byte	0x9f
 2155 013a 00000000 		.4byte	0
 2156 013e 00000000 		.4byte	0
 2157              	.LLST6:
 2158 0142 00000000 		.4byte	.LVL36
 2159 0146 06000000 		.4byte	.LVL37
 2160 014a 0100     		.2byte	0x1
 2161 014c 51       		.byte	0x51
 2162 014d 06000000 		.4byte	.LVL37
 2163 0151 12000000 		.4byte	.LVL39
 2164 0155 0300     		.2byte	0x3
 2165 0157 71       		.byte	0x71
 2166 0158 01       		.sleb128 1
 2167 0159 9F       		.byte	0x9f
 2168 015a 12000000 		.4byte	.LVL39
 2169 015e 1C000000 		.4byte	.LFE70
 2170 0162 0400     		.2byte	0x4
 2171 0164 F3       		.byte	0xf3
 2172 0165 01       		.uleb128 0x1
 2173 0166 51       		.byte	0x51
 2174 0167 9F       		.byte	0x9f
 2175 0168 00000000 		.4byte	0
 2176 016c 00000000 		.4byte	0
 2177              	.LLST7:
 2178 0170 00000000 		.4byte	.LVL41
 2179 0174 0A000000 		.4byte	.LVL43
 2180 0178 0100     		.2byte	0x1
 2181 017a 50       		.byte	0x50
 2182 017b 0A000000 		.4byte	.LVL43
 2183 017f 20000000 		.4byte	.LFE72
 2184 0183 0400     		.2byte	0x4
 2185 0185 F3       		.byte	0xf3
 2186 0186 01       		.uleb128 0x1
 2187 0187 50       		.byte	0x50
 2188 0188 9F       		.byte	0x9f
 2189 0189 00000000 		.4byte	0
 2190 018d 00000000 		.4byte	0
 2191              	.LLST8:
 2192 0191 00000000 		.4byte	.LVL41
 2193 0195 06000000 		.4byte	.LVL42
 2194 0199 0100     		.2byte	0x1
 2195 019b 51       		.byte	0x51
 2196 019c 06000000 		.4byte	.LVL42
 2197 01a0 20000000 		.4byte	.LFE72
 2198 01a4 0300     		.2byte	0x3
 2199 01a6 71       		.byte	0x71
 2200 01a7 01       		.sleb128 1
 2201 01a8 9F       		.byte	0x9f
 2202 01a9 00000000 		.4byte	0
ARM GAS  /tmp/cc0fYwmk.s 			page 40


 2203 01ad 00000000 		.4byte	0
 2204              		.section	.debug_aranges,"",%progbits
 2205 0000 64000000 		.4byte	0x64
 2206 0004 0200     		.2byte	0x2
 2207 0006 00000000 		.4byte	.Ldebug_info0
 2208 000a 04       		.byte	0x4
 2209 000b 00       		.byte	0
 2210 000c 0000     		.2byte	0
 2211 000e 0000     		.2byte	0
 2212 0010 00000000 		.4byte	.LFB63
 2213 0014 26000000 		.4byte	.LFE63-.LFB63
 2214 0018 00000000 		.4byte	.LFB64
 2215 001c 16000000 		.4byte	.LFE64-.LFB64
 2216 0020 00000000 		.4byte	.LFB65
 2217 0024 16000000 		.4byte	.LFE65-.LFB65
 2218 0028 00000000 		.4byte	.LFB66
 2219 002c 16000000 		.4byte	.LFE66-.LFB66
 2220 0030 00000000 		.4byte	.LFB67
 2221 0034 4A000000 		.4byte	.LFE67-.LFB67
 2222 0038 00000000 		.4byte	.LFB68
 2223 003c CC000000 		.4byte	.LFE68-.LFB68
 2224 0040 00000000 		.4byte	.LFB69
 2225 0044 80000000 		.4byte	.LFE69-.LFB69
 2226 0048 00000000 		.4byte	.LFB70
 2227 004c 1C000000 		.4byte	.LFE70-.LFB70
 2228 0050 00000000 		.4byte	.LFB71
 2229 0054 12000000 		.4byte	.LFE71-.LFB71
 2230 0058 00000000 		.4byte	.LFB72
 2231 005c 20000000 		.4byte	.LFE72-.LFB72
 2232 0060 00000000 		.4byte	0
 2233 0064 00000000 		.4byte	0
 2234              		.section	.debug_ranges,"",%progbits
 2235              	.Ldebug_ranges0:
 2236 0000 00000000 		.4byte	.LFB63
 2237 0004 26000000 		.4byte	.LFE63
 2238 0008 00000000 		.4byte	.LFB64
 2239 000c 16000000 		.4byte	.LFE64
 2240 0010 00000000 		.4byte	.LFB65
 2241 0014 16000000 		.4byte	.LFE65
 2242 0018 00000000 		.4byte	.LFB66
 2243 001c 16000000 		.4byte	.LFE66
 2244 0020 00000000 		.4byte	.LFB67
 2245 0024 4A000000 		.4byte	.LFE67
 2246 0028 00000000 		.4byte	.LFB68
 2247 002c CC000000 		.4byte	.LFE68
 2248 0030 00000000 		.4byte	.LFB69
 2249 0034 80000000 		.4byte	.LFE69
 2250 0038 00000000 		.4byte	.LFB70
 2251 003c 1C000000 		.4byte	.LFE70
 2252 0040 00000000 		.4byte	.LFB71
 2253 0044 12000000 		.4byte	.LFE71
 2254 0048 00000000 		.4byte	.LFB72
 2255 004c 20000000 		.4byte	.LFE72
 2256 0050 00000000 		.4byte	0
 2257 0054 00000000 		.4byte	0
 2258              		.section	.debug_line,"",%progbits
 2259              	.Ldebug_line0:
ARM GAS  /tmp/cc0fYwmk.s 			page 41


 2260 0000 40030000 		.section	.debug_str,"MS",%progbits,1
 2260      0200FF01 
 2260      00000201 
 2260      FB0E0D00 
 2260      01010101 
 2261              	.LASF41:
 2262 0000 43434552 		.ascii	"CCER\000"
 2262      00
 2263              	.LASF26:
 2264 0005 4750545F 		.ascii	"GPT_UNINIT\000"
 2264      554E494E 
 2264      495400
 2265              	.LASF20:
 2266 0010 41504231 		.ascii	"APB1RSTR\000"
 2266      52535452 
 2266      00
 2267              	.LASF43:
 2268 0019 444D4152 		.ascii	"DMAR\000"
 2268      00
 2269              	.LASF33:
 2270 001e 73746174 		.ascii	"state\000"
 2270      6500
 2271              	.LASF40:
 2272 0024 43434D52 		.ascii	"CCMR2\000"
 2272      3200
 2273              	.LASF61:
 2274 002a 6770745F 		.ascii	"gpt_lld_start_timer\000"
 2274      6C6C645F 
 2274      73746172 
 2274      745F7469 
 2274      6D657200 
 2275              	.LASF16:
 2276 003e 73697A65 		.ascii	"sizetype\000"
 2276      74797065 
 2276      00
 2277              	.LASF24:
 2278 0047 42444352 		.ascii	"BDCR\000"
 2278      00
 2279              	.LASF76:
 2280 004c 6E766963 		.ascii	"nvicDisableVector\000"
 2280      44697361 
 2280      626C6556 
 2280      6563746F 
 2280      7200
 2281              	.LASF36:
 2282 005e 67707463 		.ascii	"gptcallback_t\000"
 2282      616C6C62 
 2282      61636B5F 
 2282      7400
 2283              	.LASF63:
 2284 006c 6770745F 		.ascii	"gpt_lld_polled_delay\000"
 2284      6C6C645F 
 2284      706F6C6C 
 2284      65645F64 
 2284      656C6179 
 2285              	.LASF49:
 2286 0081 67707463 		.ascii	"gptcnt_t\000"
ARM GAS  /tmp/cc0fYwmk.s 			page 42


 2286      6E745F74 
 2286      00
 2287              	.LASF5:
 2288 008a 5F5F7569 		.ascii	"__uint16_t\000"
 2288      6E743136 
 2288      5F7400
 2289              	.LASF3:
 2290 0095 73686F72 		.ascii	"short int\000"
 2290      7420696E 
 2290      7400
 2291              	.LASF34:
 2292 009f 636F6E66 		.ascii	"config\000"
 2292      696700
 2293              	.LASF18:
 2294 00a6 43464752 		.ascii	"CFGR\000"
 2294      00
 2295              	.LASF30:
 2296 00ab 4750545F 		.ascii	"GPT_ONESHOT\000"
 2296      4F4E4553 
 2296      484F5400 
 2297              	.LASF23:
 2298 00b7 41504231 		.ascii	"APB1ENR\000"
 2298      454E5200 
 2299              	.LASF71:
 2300 00bf 474E5520 		.ascii	"GNU C 4.8.2 -mcpu=cortex-m3 -mno-thumb-interwork -m"
 2300      4320342E 
 2300      382E3220 
 2300      2D6D6370 
 2300      753D636F 
 2301 00f2 7468756D 		.ascii	"thumb -ggdb -O2 -fomit-frame-pointer -falign-functi"
 2301      62202D67 
 2301      67646220 
 2301      2D4F3220 
 2301      2D666F6D 
 2302 0125 6F6E733D 		.ascii	"ons=16 -ffunction-sections -fdata-sections -fno-com"
 2302      3136202D 
 2302      6666756E 
 2302      6374696F 
 2302      6E2D7365 
 2303 0158 6D6F6E00 		.ascii	"mon\000"
 2304              	.LASF31:
 2305 015c 67707473 		.ascii	"gptstate_t\000"
 2305      74617465 
 2305      5F7400
 2306              	.LASF66:
 2307 0167 47505444 		.ascii	"GPTD2\000"
 2307      3200
 2308              	.LASF57:
 2309 016d 6770745F 		.ascii	"gpt_lld_init\000"
 2309      6C6C645F 
 2309      696E6974 
 2309      00
 2310              	.LASF67:
 2311 017a 47505444 		.ascii	"GPTD5\000"
 2311      3500
 2312              	.LASF10:
 2313 0180 6C6F6E67 		.ascii	"long long int\000"
ARM GAS  /tmp/cc0fYwmk.s 			page 43


 2313      206C6F6E 
 2313      6720696E 
 2313      7400
 2314              	.LASF11:
 2315 018e 6C6F6E67 		.ascii	"long long unsigned int\000"
 2315      206C6F6E 
 2315      6720756E 
 2315      7369676E 
 2315      65642069 
 2316              	.LASF65:
 2317 01a5 47505444 		.ascii	"GPTD1\000"
 2317      3100
 2318              	.LASF7:
 2319 01ab 6C6F6E67 		.ascii	"long int\000"
 2319      20696E74 
 2319      00
 2320              	.LASF45:
 2321 01b4 43435235 		.ascii	"CCR5\000"
 2321      00
 2322              	.LASF46:
 2323 01b9 43435236 		.ascii	"CCR6\000"
 2323      00
 2324              	.LASF21:
 2325 01be 41484245 		.ascii	"AHBENR\000"
 2325      4E5200
 2326              	.LASF19:
 2327 01c5 41504232 		.ascii	"APB2RSTR\000"
 2327      52535452 
 2327      00
 2328              	.LASF55:
 2329 01ce 56656374 		.ascii	"VectorB0\000"
 2329      6F724230 
 2329      00
 2330              	.LASF39:
 2331 01d7 43434D52 		.ascii	"CCMR1\000"
 2331      3100
 2332              	.LASF44:
 2333 01dd 43434D52 		.ascii	"CCMR3\000"
 2333      3300
 2334              	.LASF37:
 2335 01e3 534D4352 		.ascii	"SMCR\000"
 2335      00
 2336              	.LASF75:
 2337 01e8 5F706F72 		.ascii	"_port_irq_epilogue\000"
 2337      745F6972 
 2337      715F6570 
 2337      696C6F67 
 2337      756500
 2338              	.LASF2:
 2339 01fb 756E7369 		.ascii	"unsigned char\000"
 2339      676E6564 
 2339      20636861 
 2339      7200
 2340              	.LASF22:
 2341 0209 41504232 		.ascii	"APB2ENR\000"
 2341      454E5200 
 2342              	.LASF70:
ARM GAS  /tmp/cc0fYwmk.s 			page 44


 2343 0211 6E766963 		.ascii	"nvicEnableVector\000"
 2343      456E6162 
 2343      6C655665 
 2343      63746F72 
 2343      00
 2344              	.LASF1:
 2345 0222 7369676E 		.ascii	"signed char\000"
 2345      65642063 
 2345      68617200 
 2346              	.LASF56:
 2347 022e 56656374 		.ascii	"Vector108\000"
 2347      6F723130 
 2347      3800
 2348              	.LASF14:
 2349 0238 75696E74 		.ascii	"uint32_t\000"
 2349      33325F74 
 2349      00
 2350              	.LASF0:
 2351 0241 756E7369 		.ascii	"unsigned int\000"
 2351      676E6564 
 2351      20696E74 
 2351      00
 2352              	.LASF12:
 2353 024e 75696E74 		.ascii	"uint16_t\000"
 2353      31365F74 
 2353      00
 2354              	.LASF58:
 2355 0257 6770745F 		.ascii	"gpt_lld_start\000"
 2355      6C6C645F 
 2355      73746172 
 2355      7400
 2356              	.LASF38:
 2357 0265 44494552 		.ascii	"DIER\000"
 2357      00
 2358              	.LASF60:
 2359 026a 6770745F 		.ascii	"gpt_lld_stop\000"
 2359      6C6C645F 
 2359      73746F70 
 2359      00
 2360              	.LASF17:
 2361 0277 63686172 		.ascii	"char\000"
 2361      00
 2362              	.LASF47:
 2363 027c 73746D33 		.ascii	"stm32_tim_t\000"
 2363      325F7469 
 2363      6D5F7400 
 2364              	.LASF42:
 2365 0288 42445452 		.ascii	"BDTR\000"
 2365      00
 2366              	.LASF13:
 2367 028d 696E7433 		.ascii	"int32_t\000"
 2367      325F7400 
 2368              	.LASF15:
 2369 0295 5F426F6F 		.ascii	"_Bool\000"
 2369      6C00
 2370              	.LASF29:
 2371 029b 4750545F 		.ascii	"GPT_CONTINUOUS\000"
ARM GAS  /tmp/cc0fYwmk.s 			page 45


 2371      434F4E54 
 2371      494E554F 
 2371      555300
 2372              	.LASF28:
 2373 02aa 4750545F 		.ascii	"GPT_READY\000"
 2373      52454144 
 2373      5900
 2374              	.LASF32:
 2375 02b4 47505444 		.ascii	"GPTDriver\000"
 2375      72697665 
 2375      7200
 2376              	.LASF4:
 2377 02be 73686F72 		.ascii	"short unsigned int\000"
 2377      7420756E 
 2377      7369676E 
 2377      65642069 
 2377      6E7400
 2378              	.LASF9:
 2379 02d1 6C6F6E67 		.ascii	"long unsigned int\000"
 2379      20756E73 
 2379      69676E65 
 2379      6420696E 
 2379      7400
 2380              	.LASF35:
 2381 02e3 636C6F63 		.ascii	"clock\000"
 2381      6B00
 2382              	.LASF62:
 2383 02e9 696E7465 		.ascii	"interval\000"
 2383      7276616C 
 2383      00
 2384              	.LASF8:
 2385 02f2 5F5F7569 		.ascii	"__uint32_t\000"
 2385      6E743332 
 2385      5F7400
 2386              	.LASF72:
 2387 02fd 2E2E2F2E 		.ascii	"../../../../ChibiOS_2.6.2/os/hal/platforms/STM32/TI"
 2387      2E2F2E2E 
 2387      2F2E2E2F 
 2387      43686962 
 2387      694F535F 
 2388 0330 4D76312F 		.ascii	"Mv1/gpt_lld.c\000"
 2388      6770745F 
 2388      6C6C642E 
 2388      6300
 2389              	.LASF59:
 2390 033e 67707470 		.ascii	"gptp\000"
 2390      00
 2391              	.LASF6:
 2392 0343 5F5F696E 		.ascii	"__int32_t\000"
 2392      7433325F 
 2392      7400
 2393              	.LASF53:
 2394 034d 47505443 		.ascii	"GPTConfig\000"
 2394      6F6E6669 
 2394      6700
 2395              	.LASF52:
 2396 0357 64696572 		.ascii	"dier\000"
ARM GAS  /tmp/cc0fYwmk.s 			page 46


 2396      00
 2397              	.LASF73:
 2398 035c 2F6D6E74 		.ascii	"/mnt/c/Users/DQ Sullivan/Downloads/Convex/convex/co"
 2398      2F632F55 
 2398      73657273 
 2398      2F445120 
 2398      53756C6C 
 2399 038f 72746578 		.ascii	"rtex/projects/Vex2016 CyberBrains\000"
 2399      2F70726F 
 2399      6A656374 
 2399      732F5665 
 2399      78323031 
 2400              	.LASF27:
 2401 03b1 4750545F 		.ascii	"GPT_STOP\000"
 2401      53544F50 
 2401      00
 2402              	.LASF50:
 2403 03ba 66726571 		.ascii	"frequency\000"
 2403      75656E63 
 2403      7900
 2404              	.LASF68:
 2405 03c4 6770745F 		.ascii	"gpt_lld_stop_timer\000"
 2405      6C6C645F 
 2405      73746F70 
 2405      5F74696D 
 2405      657200
 2406              	.LASF54:
 2407 03d7 56656374 		.ascii	"VectorA4\000"
 2407      6F724134 
 2407      00
 2408              	.LASF69:
 2409 03e0 6770744F 		.ascii	"gptObjectInit\000"
 2409      626A6563 
 2409      74496E69 
 2409      7400
 2410              	.LASF64:
 2411 03ee 49544D5F 		.ascii	"ITM_RxBuffer\000"
 2411      52784275 
 2411      66666572 
 2411      00
 2412              	.LASF48:
 2413 03fb 67707466 		.ascii	"gptfreq_t\000"
 2413      7265715F 
 2413      7400
 2414              	.LASF74:
 2415 0405 6770745F 		.ascii	"gpt_lld_serve_interrupt\000"
 2415      6C6C645F 
 2415      73657276 
 2415      655F696E 
 2415      74657272 
 2416              	.LASF25:
 2417 041d 5243435F 		.ascii	"RCC_TypeDef\000"
 2417      54797065 
 2417      44656600 
 2418              	.LASF51:
 2419 0429 63616C6C 		.ascii	"callback\000"
 2419      6261636B 
ARM GAS  /tmp/cc0fYwmk.s 			page 47


 2419      00
 2420              		.ident	"GCC: (4.8.2-14ubuntu1+6) 4.8.2"
ARM GAS  /tmp/cc0fYwmk.s 			page 48


DEFINED SYMBOLS
                            *ABS*:0000000000000000 gpt_lld.c
     /tmp/cc0fYwmk.s:19     .text.gpt_lld_serve_interrupt:0000000000000000 $t
     /tmp/cc0fYwmk.s:24     .text.gpt_lld_serve_interrupt:0000000000000000 gpt_lld_serve_interrupt
     /tmp/cc0fYwmk.s:76     .text.VectorA4:0000000000000000 $t
     /tmp/cc0fYwmk.s:82     .text.VectorA4:0000000000000000 VectorA4
     /tmp/cc0fYwmk.s:607    .bss.GPTD1:0000000000000000 .LANCHOR0
     /tmp/cc0fYwmk.s:106    .text.VectorB0:0000000000000000 $t
     /tmp/cc0fYwmk.s:112    .text.VectorB0:0000000000000000 VectorB0
     /tmp/cc0fYwmk.s:614    .bss.GPTD2:0000000000000000 .LANCHOR1
     /tmp/cc0fYwmk.s:136    .text.Vector108:0000000000000000 $t
     /tmp/cc0fYwmk.s:142    .text.Vector108:0000000000000000 Vector108
     /tmp/cc0fYwmk.s:621    .bss.GPTD5:0000000000000000 .LANCHOR2
     /tmp/cc0fYwmk.s:166    .text.gpt_lld_init:0000000000000000 $t
     /tmp/cc0fYwmk.s:172    .text.gpt_lld_init:0000000000000000 gpt_lld_init
     /tmp/cc0fYwmk.s:223    .text.gpt_lld_start:0000000000000000 $t
     /tmp/cc0fYwmk.s:229    .text.gpt_lld_start:0000000000000000 gpt_lld_start
     /tmp/cc0fYwmk.s:379    .text.gpt_lld_stop:0000000000000000 $t
     /tmp/cc0fYwmk.s:385    .text.gpt_lld_stop:0000000000000000 gpt_lld_stop
     /tmp/cc0fYwmk.s:477    .text.gpt_lld_start_timer:0000000000000000 $t
     /tmp/cc0fYwmk.s:483    .text.gpt_lld_start_timer:0000000000000000 gpt_lld_start_timer
     /tmp/cc0fYwmk.s:524    .text.gpt_lld_stop_timer:0000000000000000 $t
     /tmp/cc0fYwmk.s:530    .text.gpt_lld_stop_timer:0000000000000000 gpt_lld_stop_timer
     /tmp/cc0fYwmk.s:553    .text.gpt_lld_polled_delay:0000000000000000 $t
     /tmp/cc0fYwmk.s:559    .text.gpt_lld_polled_delay:0000000000000000 gpt_lld_polled_delay
     /tmp/cc0fYwmk.s:624    .bss.GPTD5:0000000000000000 GPTD5
     /tmp/cc0fYwmk.s:617    .bss.GPTD2:0000000000000000 GPTD2
     /tmp/cc0fYwmk.s:610    .bss.GPTD1:0000000000000000 GPTD1
     /tmp/cc0fYwmk.s:606    .bss.GPTD1:0000000000000000 $d
     /tmp/cc0fYwmk.s:613    .bss.GPTD2:0000000000000000 $d
     /tmp/cc0fYwmk.s:620    .bss.GPTD5:0000000000000000 $d
                     .debug_frame:0000000000000010 $d

UNDEFINED SYMBOLS
_port_irq_epilogue
gptObjectInit
nvicEnableVector
nvicDisableVector
