ARM GAS  /tmp/cc0fYwmk.s 			page 1


   1              		.syntax unified
   2              		.cpu cortex-m3
   3              		.fpu softvfp
   4              		.eabi_attribute 20, 1
   5              		.eabi_attribute 21, 1
   6              		.eabi_attribute 23, 3
   7              		.eabi_attribute 24, 1
   8              		.eabi_attribute 25, 1
   9              		.eabi_attribute 26, 1
  10              		.eabi_attribute 30, 2
  11              		.eabi_attribute 34, 1
  12              		.eabi_attribute 18, 4
  13              		.thumb
  14              		.file	"gpt_lld.c"
  15              		.text
  16              	.Ltext0:
  17              		.cfi_sections	.debug_frame
  18              		.section	.text.gpt_lld_serve_interrupt,"ax",%progbits
  19              		.align	2
  20              		.p2align 4,,15
  21              		.thumb
  22              		.thumb_func
  23              		.type	gpt_lld_serve_interrupt, %function
  24              	gpt_lld_serve_interrupt:
  25              	.LFB63:
  26              		.file 1 "../../../../ChibiOS_2.6.2/os/hal/platforms/STM32/TIMv1/gpt_lld.c"
  27              		.loc 1 147 0
  28              		.cfi_startproc
  29              		@ args = 0, pretend = 0, frame = 0
  30              		@ frame_needed = 0, uses_anonymous_args = 0
  31              	.LVL0:
  32              		.loc 1 150 0
  33 0000 0178     		ldrb	r1, [r0]	@ zero_extendqisi2
  34              		.loc 1 147 0
  35 0002 08B5     		push	{r3, lr}
  36              		.cfi_def_cfa_offset 8
  37              		.cfi_offset 3, -8
  38              		.cfi_offset 14, -4
  39              		.loc 1 149 0
  40 0004 C368     		ldr	r3, [r0, #12]
  41 0006 0022     		movs	r2, #0
  42              		.loc 1 150 0
  43 0008 0429     		cmp	r1, #4
  44              		.loc 1 149 0
  45 000a 1A61     		str	r2, [r3, #16]
  46              		.loc 1 150 0
  47 000c 07D1     		bne	.L2
  48              		.loc 1 151 0
  49 000e 0221     		movs	r1, #2
  50 0010 0170     		strb	r1, [r0]
  51              	.LVL1:
  52              	.LBB4:
  53              	.LBB5:
  54              		.loc 1 745 0
  55 0012 1A60     		str	r2, [r3]
  56              		.loc 1 746 0
  57 0014 1A61     		str	r2, [r3, #16]
ARM GAS  /tmp/cc0fYwmk.s 			page 2


  58              		.loc 1 749 0
  59 0016 DA68     		ldr	r2, [r3, #12]
  60 0018 22F0FF02 		bic	r2, r2, #255
  61 001c DA60     		str	r2, [r3, #12]
  62              	.LVL2:
  63              	.L2:
  64              	.LBE5:
  65              	.LBE4:
  66              		.loc 1 154 0
  67 001e 4368     		ldr	r3, [r0, #4]
  68 0020 5B68     		ldr	r3, [r3, #4]
  69 0022 9847     		blx	r3
  70              	.LVL3:
  71 0024 08BD     		pop	{r3, pc}
  72              		.cfi_endproc
  73              	.LFE63:
  74              		.size	gpt_lld_serve_interrupt, .-gpt_lld_serve_interrupt
  75 0026 00BFAFF3 		.section	.text.VectorA4,"ax",%progbits
  75      0080AFF3 
  75      0080
  76              		.align	2
  77              		.p2align 4,,15
  78              		.global	VectorA4
  79              		.thumb
  80              		.thumb_func
  81              		.type	VectorA4, %function
  82              	VectorA4:
  83              	.LFB64:
  84              		.loc 1 170 0
  85              		.cfi_startproc
  86              		@ args = 0, pretend = 0, frame = 0
  87              		@ frame_needed = 0, uses_anonymous_args = 0
  88 0000 08B5     		push	{r3, lr}
  89              		.cfi_def_cfa_offset 8
  90              		.cfi_offset 3, -8
  91              		.cfi_offset 14, -4
  92              		.loc 1 174 0
  93 0002 40F20000 		movw	r0, #:lower16:.LANCHOR0
  94 0006 C0F20000 		movt	r0, #:upper16:.LANCHOR0
  95 000a FFF7FEFF 		bl	gpt_lld_serve_interrupt
  96              	.LVL4:
  97              		.loc 1 177 0
  98 000e BDE80840 		pop	{r3, lr}
  99              		.loc 1 176 0
 100 0012 FFF7FEBF 		b	_port_irq_epilogue
 101              	.LVL5:
 102              		.cfi_endproc
 103              	.LFE64:
 104              		.size	VectorA4, .-VectorA4
 105 0016 00BFAFF3 		.section	.text.VectorB0,"ax",%progbits
 105      0080AFF3 
 105      0080
 106              		.align	2
 107              		.p2align 4,,15
 108              		.global	VectorB0
 109              		.thumb
 110              		.thumb_func
ARM GAS  /tmp/cc0fYwmk.s 			page 3


 111              		.type	VectorB0, %function
 112              	VectorB0:
 113              	.LFB65:
 114              		.loc 1 189 0
 115              		.cfi_startproc
 116              		@ args = 0, pretend = 0, frame = 0
 117              		@ frame_needed = 0, uses_anonymous_args = 0
 118 0000 08B5     		push	{r3, lr}
 119              		.cfi_def_cfa_offset 8
 120              		.cfi_offset 3, -8
 121              		.cfi_offset 14, -4
 122              		.loc 1 193 0
 123 0002 40F20000 		movw	r0, #:lower16:.LANCHOR1
 124 0006 C0F20000 		movt	r0, #:upper16:.LANCHOR1
 125 000a FFF7FEFF 		bl	gpt_lld_serve_interrupt
 126              	.LVL6:
 127              		.loc 1 196 0
 128 000e BDE80840 		pop	{r3, lr}
 129              		.loc 1 195 0
 130 0012 FFF7FEBF 		b	_port_irq_epilogue
 131              	.LVL7:
 132              		.cfi_endproc
 133              	.LFE65:
 134              		.size	VectorB0, .-VectorB0
 135 0016 00BFAFF3 		.section	.text.Vector108,"ax",%progbits
 135      0080AFF3 
 135      0080
 136              		.align	2
 137              		.p2align 4,,15
 138              		.global	Vector108
 139              		.thumb
 140              		.thumb_func
 141              		.type	Vector108, %function
 142              	Vector108:
 143              	.LFB66:
 144              		.loc 1 246 0
 145              		.cfi_startproc
 146              		@ args = 0, pretend = 0, frame = 0
 147              		@ frame_needed = 0, uses_anonymous_args = 0
 148 0000 08B5     		push	{r3, lr}
 149              		.cfi_def_cfa_offset 8
 150              		.cfi_offset 3, -8
 151              		.cfi_offset 14, -4
 152              		.loc 1 250 0
 153 0002 40F20000 		movw	r0, #:lower16:.LANCHOR2
 154 0006 C0F20000 		movt	r0, #:upper16:.LANCHOR2
 155 000a FFF7FEFF 		bl	gpt_lld_serve_interrupt
 156              	.LVL8:
 157              		.loc 1 253 0
 158 000e BDE80840 		pop	{r3, lr}
 159              		.loc 1 252 0
 160 0012 FFF7FEBF 		b	_port_irq_epilogue
 161              	.LVL9:
 162              		.cfi_endproc
 163              	.LFE66:
 164              		.size	Vector108, .-Vector108
 165 0016 00BFAFF3 		.section	.text.gpt_lld_init,"ax",%progbits
ARM GAS  /tmp/cc0fYwmk.s 			page 4


 165      0080AFF3 
 165      0080
 166              		.align	2
 167              		.p2align 4,,15
 168              		.global	gpt_lld_init
 169              		.thumb
 170              		.thumb_func
 171              		.type	gpt_lld_init, %function
 172              	gpt_lld_init:
 173              	.LFB67:
 174              		.loc 1 398 0
 175              		.cfi_startproc
 176              		@ args = 0, pretend = 0, frame = 0
 177              		@ frame_needed = 0, uses_anonymous_args = 0
 178 0000 08B5     		push	{r3, lr}
 179              		.cfi_def_cfa_offset 8
 180              		.cfi_offset 3, -8
 181              		.cfi_offset 14, -4
 182              		.loc 1 402 0
 183 0002 40F20003 		movw	r3, #:lower16:.LANCHOR0
 184 0006 C0F20003 		movt	r3, #:upper16:.LANCHOR0
 185 000a 4FF43052 		mov	r2, #11264
 186 000e C4F20102 		movt	r2, 16385
 187              		.loc 1 403 0
 188 0012 1846     		mov	r0, r3
 189              		.loc 1 402 0
 190 0014 DA60     		str	r2, [r3, #12]
 191              		.loc 1 403 0
 192 0016 FFF7FEFF 		bl	gptObjectInit
 193              	.LVL10:
 194              		.loc 1 408 0
 195 001a 40F20003 		movw	r3, #:lower16:.LANCHOR1
 196 001e C0F20003 		movt	r3, #:upper16:.LANCHOR1
 197 0022 4FF08042 		mov	r2, #1073741824
 198              		.loc 1 409 0
 199 0026 1846     		mov	r0, r3
 200              		.loc 1 408 0
 201 0028 DA60     		str	r2, [r3, #12]
 202              		.loc 1 409 0
 203 002a FFF7FEFF 		bl	gptObjectInit
 204              	.LVL11:
 205              		.loc 1 426 0
 206 002e 40F20003 		movw	r3, #:lower16:.LANCHOR2
 207 0032 4FF44062 		mov	r2, #3072
 208 0036 C0F20003 		movt	r3, #:upper16:.LANCHOR2
 209 003a C4F20002 		movt	r2, 16384
 210              		.loc 1 427 0
 211 003e 1846     		mov	r0, r3
 212              		.loc 1 426 0
 213 0040 DA60     		str	r2, [r3, #12]
 214              		.loc 1 471 0
 215 0042 BDE80840 		pop	{r3, lr}
 216              		.loc 1 427 0
 217 0046 FFF7FEBF 		b	gptObjectInit
 218              	.LVL12:
 219              		.cfi_endproc
 220              	.LFE67:
ARM GAS  /tmp/cc0fYwmk.s 			page 5


 221              		.size	gpt_lld_init, .-gpt_lld_init
 222 004a 00BFAFF3 		.section	.text.gpt_lld_start,"ax",%progbits
 222      0080
 223              		.align	2
 224              		.p2align 4,,15
 225              		.global	gpt_lld_start
 226              		.thumb
 227              		.thumb_func
 228              		.type	gpt_lld_start, %function
 229              	gpt_lld_start:
 230              	.LFB68:
 231              		.loc 1 480 0
 232              		.cfi_startproc
 233              		@ args = 0, pretend = 0, frame = 0
 234              		@ frame_needed = 0, uses_anonymous_args = 0
 235              	.LVL13:
 236              		.loc 1 483 0
 237 0000 0378     		ldrb	r3, [r0]	@ zero_extendqisi2
 238              		.loc 1 480 0
 239 0002 10B5     		push	{r4, lr}
 240              		.cfi_def_cfa_offset 8
 241              		.cfi_offset 4, -8
 242              		.cfi_offset 14, -4
 243              		.loc 1 483 0
 244 0004 012B     		cmp	r3, #1
 245              		.loc 1 480 0
 246 0006 0446     		mov	r4, r0
 247              		.loc 1 483 0
 248 0008 10D0     		beq	.L13
 249              	.LVL14:
 250              	.L9:
 251              		.loc 1 612 0
 252 000a 6368     		ldr	r3, [r4, #4]
 253 000c A268     		ldr	r2, [r4, #8]
 254 000e 1868     		ldr	r0, [r3]
 255              		.loc 1 620 0
 256 0010 197A     		ldrb	r1, [r3, #8]	@ zero_extendqisi2
 257              		.loc 1 612 0
 258 0012 B2FBF0F0 		udiv	r0, r2, r0
 259              		.loc 1 617 0
 260 0016 E368     		ldr	r3, [r4, #12]
 261              		.loc 1 612 0
 262 0018 0138     		subs	r0, r0, #1
 263              		.loc 1 617 0
 264 001a 0022     		movs	r2, #0
 265              		.loc 1 612 0
 266 001c 80B2     		uxth	r0, r0
 267              	.LVL15:
 268              		.loc 1 618 0
 269 001e 0824     		movs	r4, #8
 270              	.LVL16:
 271              		.loc 1 617 0
 272 0020 1A60     		str	r2, [r3]
 273              		.loc 1 618 0
 274 0022 5C60     		str	r4, [r3, #4]
 275              		.loc 1 619 0
 276 0024 9862     		str	r0, [r3, #40]
ARM GAS  /tmp/cc0fYwmk.s 			page 6


 277              		.loc 1 620 0
 278 0026 D960     		str	r1, [r3, #12]
 279              		.loc 1 622 0
 280 0028 1A61     		str	r2, [r3, #16]
 281 002a 10BD     		pop	{r4, pc}
 282              	.LVL17:
 283              	.L13:
 284              		.loc 1 486 0
 285 002c 40F20003 		movw	r3, #:lower16:.LANCHOR0
 286 0030 C0F20003 		movt	r3, #:upper16:.LANCHOR0
 287 0034 9842     		cmp	r0, r3
 288 0036 23D0     		beq	.L14
 289              		.loc 1 499 0
 290 0038 40F20003 		movw	r3, #:lower16:.LANCHOR1
 291 003c C0F20003 		movt	r3, #:upper16:.LANCHOR1
 292 0040 9842     		cmp	r0, r3
 293 0042 35D0     		beq	.L15
 294              		.loc 1 527 0
 295 0044 40F20003 		movw	r3, #:lower16:.LANCHOR2
 296 0048 C0F20003 		movt	r3, #:upper16:.LANCHOR2
 297 004c 9842     		cmp	r0, r3
 298 004e DCD1     		bne	.L9
 299              		.loc 1 528 0
 300 0050 4FF48053 		mov	r3, #4096
 301 0054 C4F20203 		movt	r3, 16386
 302 0058 D969     		ldr	r1, [r3, #28]
 303              		.loc 1 529 0
 304 005a 0022     		movs	r2, #0
 305              		.loc 1 528 0
 306 005c 41F00801 		orr	r1, r1, #8
 307 0060 D961     		str	r1, [r3, #28]
 308              		.loc 1 529 0
 309 0062 1969     		ldr	r1, [r3, #16]
 310              		.loc 1 530 0
 311 0064 3220     		movs	r0, #50
 312              	.LVL18:
 313              		.loc 1 529 0
 314 0066 41F00801 		orr	r1, r1, #8
 315              	.L12:
 316 006a 1961     		str	r1, [r3, #16]
 317 006c 1A61     		str	r2, [r3, #16]
 318              		.loc 1 530 0
 319 006e 7021     		movs	r1, #112
 320 0070 FFF7FEFF 		bl	nvicEnableVector
 321              	.LVL19:
 322              		.loc 1 532 0
 323 0074 4FF42243 		mov	r3, #41472
 324 0078 C0F24A43 		movt	r3, 1098
 325 007c A360     		str	r3, [r4, #8]
 326 007e C4E7     		b	.L9
 327              	.LVL20:
 328              	.L14:
 329              		.loc 1 487 0
 330 0080 4FF48053 		mov	r3, #4096
 331 0084 C4F20203 		movt	r3, 16386
 332 0088 9969     		ldr	r1, [r3, #24]
 333              		.loc 1 488 0
ARM GAS  /tmp/cc0fYwmk.s 			page 7


 334 008a 0022     		movs	r2, #0
 335              		.loc 1 487 0
 336 008c 41F40061 		orr	r1, r1, #2048
 337 0090 9961     		str	r1, [r3, #24]
 338              		.loc 1 488 0
 339 0092 D968     		ldr	r1, [r3, #12]
 340              		.loc 1 489 0
 341 0094 1920     		movs	r0, #25
 342              	.LVL21:
 343              		.loc 1 488 0
 344 0096 41F40061 		orr	r1, r1, #2048
 345 009a D960     		str	r1, [r3, #12]
 346 009c DA60     		str	r2, [r3, #12]
 347              		.loc 1 489 0
 348 009e 7021     		movs	r1, #112
 349 00a0 FFF7FEFF 		bl	nvicEnableVector
 350              	.LVL22:
 351              		.loc 1 494 0
 352 00a4 4FF42243 		mov	r3, #41472
 353 00a8 C0F24A43 		movt	r3, 1098
 354 00ac A360     		str	r3, [r4, #8]
 355 00ae ACE7     		b	.L9
 356              	.LVL23:
 357              	.L15:
 358              		.loc 1 500 0
 359 00b0 4FF48053 		mov	r3, #4096
 360 00b4 C4F20203 		movt	r3, 16386
 361 00b8 D969     		ldr	r1, [r3, #28]
 362              		.loc 1 501 0
 363 00ba 0022     		movs	r2, #0
 364              		.loc 1 500 0
 365 00bc 41F00101 		orr	r1, r1, #1
 366 00c0 D961     		str	r1, [r3, #28]
 367              		.loc 1 501 0
 368 00c2 1969     		ldr	r1, [r3, #16]
 369              		.loc 1 502 0
 370 00c4 1C20     		movs	r0, #28
 371              	.LVL24:
 372              		.loc 1 501 0
 373 00c6 41F00101 		orr	r1, r1, #1
 374 00ca CEE7     		b	.L12
 375              		.cfi_endproc
 376              	.LFE68:
 377              		.size	gpt_lld_start, .-gpt_lld_start
 378 00cc AFF30080 		.section	.text.gpt_lld_stop,"ax",%progbits
 379              		.align	2
 380              		.p2align 4,,15
 381              		.global	gpt_lld_stop
 382              		.thumb
 383              		.thumb_func
 384              		.type	gpt_lld_stop, %function
 385              	gpt_lld_stop:
 386              	.LFB69:
 387              		.loc 1 632 0
 388              		.cfi_startproc
 389              		@ args = 0, pretend = 0, frame = 0
 390              		@ frame_needed = 0, uses_anonymous_args = 0
ARM GAS  /tmp/cc0fYwmk.s 			page 8


 391              	.LVL25:
 392 0000 08B5     		push	{r3, lr}
 393              		.cfi_def_cfa_offset 8
 394              		.cfi_offset 3, -8
 395              		.cfi_offset 14, -4
 396              		.loc 1 634 0
 397 0002 0378     		ldrb	r3, [r0]	@ zero_extendqisi2
 398 0004 022B     		cmp	r3, #2
 399 0006 00D0     		beq	.L22
 400              	.LVL26:
 401              	.L16:
 402 0008 08BD     		pop	{r3, pc}
 403              	.LVL27:
 404              	.L22:
 405              		.loc 1 640 0
 406 000a 40F20003 		movw	r3, #:lower16:.LANCHOR0
 407              		.loc 1 635 0
 408 000e C268     		ldr	r2, [r0, #12]
 409              		.loc 1 640 0
 410 0010 C0F20003 		movt	r3, #:upper16:.LANCHOR0
 411              		.loc 1 635 0
 412 0014 0021     		movs	r1, #0
 413              		.loc 1 640 0
 414 0016 9842     		cmp	r0, r3
 415              		.loc 1 635 0
 416 0018 1160     		str	r1, [r2]
 417              		.loc 1 636 0
 418 001a D160     		str	r1, [r2, #12]
 419              		.loc 1 637 0
 420 001c 1161     		str	r1, [r2, #16]
 421              		.loc 1 640 0
 422 001e 17D0     		beq	.L23
 423              		.loc 1 646 0
 424 0020 40F20003 		movw	r3, #:lower16:.LANCHOR1
 425 0024 C0F20003 		movt	r3, #:upper16:.LANCHOR1
 426 0028 9842     		cmp	r0, r3
 427 002a 1DD0     		beq	.L24
 428              		.loc 1 664 0
 429 002c 40F20003 		movw	r3, #:lower16:.LANCHOR2
 430 0030 C0F20003 		movt	r3, #:upper16:.LANCHOR2
 431 0034 9842     		cmp	r0, r3
 432 0036 E7D1     		bne	.L16
 433              		.loc 1 665 0
 434 0038 3220     		movs	r0, #50
 435              	.LVL28:
 436 003a FFF7FEFF 		bl	nvicDisableVector
 437              	.LVL29:
 438              		.loc 1 666 0
 439 003e 4FF48053 		mov	r3, #4096
 440 0042 C4F20203 		movt	r3, 16386
 441 0046 DA69     		ldr	r2, [r3, #28]
 442 0048 22F00802 		bic	r2, r2, #8
 443 004c DA61     		str	r2, [r3, #28]
 444 004e DBE7     		b	.L16
 445              	.LVL30:
 446              	.L23:
 447              		.loc 1 641 0
ARM GAS  /tmp/cc0fYwmk.s 			page 9


 448 0050 1920     		movs	r0, #25
 449              	.LVL31:
 450 0052 FFF7FEFF 		bl	nvicDisableVector
 451              	.LVL32:
 452              		.loc 1 642 0
 453 0056 4FF48053 		mov	r3, #4096
 454 005a C4F20203 		movt	r3, 16386
 455 005e 9A69     		ldr	r2, [r3, #24]
 456 0060 22F40062 		bic	r2, r2, #2048
 457 0064 9A61     		str	r2, [r3, #24]
 458 0066 08BD     		pop	{r3, pc}
 459              	.LVL33:
 460              	.L24:
 461              		.loc 1 647 0
 462 0068 1C20     		movs	r0, #28
 463              	.LVL34:
 464 006a FFF7FEFF 		bl	nvicDisableVector
 465              	.LVL35:
 466              		.loc 1 648 0
 467 006e 4FF48053 		mov	r3, #4096
 468 0072 C4F20203 		movt	r3, 16386
 469 0076 DA69     		ldr	r2, [r3, #28]
 470 0078 22F00102 		bic	r2, r2, #1
 471 007c DA61     		str	r2, [r3, #28]
 472 007e 08BD     		pop	{r3, pc}
 473              		.cfi_endproc
 474              	.LFE69:
 475              		.size	gpt_lld_stop, .-gpt_lld_stop
 476              		.section	.text.gpt_lld_start_timer,"ax",%progbits
 477              		.align	2
 478              		.p2align 4,,15
 479              		.global	gpt_lld_start_timer
 480              		.thumb
 481              		.thumb_func
 482              		.type	gpt_lld_start_timer, %function
 483              	gpt_lld_start_timer:
 484              	.LFB70:
 485              		.loc 1 722 0
 486              		.cfi_startproc
 487              		@ args = 0, pretend = 0, frame = 0
 488              		@ frame_needed = 0, uses_anonymous_args = 0
 489              		@ link register save eliminated.
 490              	.LVL36:
 491              		.loc 1 724 0
 492 0000 C368     		ldr	r3, [r0, #12]
 493              		.loc 1 726 0
 494 0002 0022     		movs	r2, #0
 495              		.loc 1 724 0
 496 0004 0139     		subs	r1, r1, #1
 497              	.LVL37:
 498              		.loc 1 725 0
 499 0006 0120     		movs	r0, #1
 500              	.LVL38:
 501              		.loc 1 724 0
 502 0008 D962     		str	r1, [r3, #44]
 503              		.loc 1 725 0
 504 000a 5861     		str	r0, [r3, #20]
ARM GAS  /tmp/cc0fYwmk.s 			page 10


 505              		.loc 1 726 0
 506 000c 5A62     		str	r2, [r3, #36]
 507              		.loc 1 731 0
 508 000e 1A61     		str	r2, [r3, #16]
 509              		.loc 1 732 0
 510 0010 D968     		ldr	r1, [r3, #12]
 511              	.LVL39:
 512              		.loc 1 733 0
 513 0012 0522     		movs	r2, #5
 514              		.loc 1 732 0
 515 0014 0143     		orrs	r1, r1, r0
 516 0016 D960     		str	r1, [r3, #12]
 517              		.loc 1 733 0
 518 0018 1A60     		str	r2, [r3]
 519 001a 7047     		bx	lr
 520              		.cfi_endproc
 521              	.LFE70:
 522              		.size	gpt_lld_start_timer, .-gpt_lld_start_timer
 523 001c AFF30080 		.section	.text.gpt_lld_stop_timer,"ax",%progbits
 524              		.align	2
 525              		.p2align 4,,15
 526              		.global	gpt_lld_stop_timer
 527              		.thumb
 528              		.thumb_func
 529              		.type	gpt_lld_stop_timer, %function
 530              	gpt_lld_stop_timer:
 531              	.LFB71:
 532              		.loc 1 743 0
 533              		.cfi_startproc
 534              		@ args = 0, pretend = 0, frame = 0
 535              		@ frame_needed = 0, uses_anonymous_args = 0
 536              		@ link register save eliminated.
 537              	.LVL40:
 538              		.loc 1 745 0
 539 0000 C368     		ldr	r3, [r0, #12]
 540 0002 0022     		movs	r2, #0
 541 0004 1A60     		str	r2, [r3]
 542              		.loc 1 746 0
 543 0006 1A61     		str	r2, [r3, #16]
 544              		.loc 1 749 0
 545 0008 DA68     		ldr	r2, [r3, #12]
 546 000a 22F0FF02 		bic	r2, r2, #255
 547 000e DA60     		str	r2, [r3, #12]
 548 0010 7047     		bx	lr
 549              		.cfi_endproc
 550              	.LFE71:
 551              		.size	gpt_lld_stop_timer, .-gpt_lld_stop_timer
 552 0012 00BFAFF3 		.section	.text.gpt_lld_polled_delay,"ax",%progbits
 552      0080AFF3 
 552      0080AFF3 
 552      0080
 553              		.align	2
 554              		.p2align 4,,15
 555              		.global	gpt_lld_polled_delay
 556              		.thumb
 557              		.thumb_func
 558              		.type	gpt_lld_polled_delay, %function
ARM GAS  /tmp/cc0fYwmk.s 			page 11


 559              	gpt_lld_polled_delay:
 560              	.LFB72:
 561              		.loc 1 763 0
 562              		.cfi_startproc
 563              		@ args = 0, pretend = 0, frame = 0
 564              		@ frame_needed = 0, uses_anonymous_args = 0
 565              		@ link register save eliminated.
 566              	.LVL41:
 567              		.loc 1 765 0
 568 0000 C268     		ldr	r2, [r0, #12]
 569              		.loc 1 763 0
 570 0002 10B4     		push	{r4}
 571              		.cfi_def_cfa_offset 4
 572              		.cfi_offset 4, -4
 573              		.loc 1 765 0
 574 0004 0139     		subs	r1, r1, #1
 575              	.LVL42:
 576              		.loc 1 766 0
 577 0006 0124     		movs	r4, #1
 578              		.loc 1 767 0
 579 0008 0020     		movs	r0, #0
 580              	.LVL43:
 581              		.loc 1 768 0
 582 000a 0D23     		movs	r3, #13
 583              		.loc 1 765 0
 584 000c D162     		str	r1, [r2, #44]
 585              		.loc 1 766 0
 586 000e 5461     		str	r4, [r2, #20]
 587              		.loc 1 767 0
 588 0010 1061     		str	r0, [r2, #16]
 589              		.loc 1 768 0
 590 0012 1360     		str	r3, [r2]
 591              	.L29:
 592              		.loc 1 769 0 discriminator 1
 593 0014 1369     		ldr	r3, [r2, #16]
 594 0016 DB07     		lsls	r3, r3, #31
 595 0018 FCD5     		bpl	.L29
 596              		.loc 1 771 0
 597 001a 5DF8044B 		ldr	r4, [sp], #4
 598 001e 7047     		bx	lr
 599              		.cfi_endproc
 600              	.LFE72:
 601              		.size	gpt_lld_polled_delay, .-gpt_lld_polled_delay
 602              		.global	GPTD5
 603              		.global	GPTD2
 604              		.global	GPTD1
 605              		.section	.bss.GPTD1,"aw",%nobits
 606              		.align	2
 607              		.set	.LANCHOR0,. + 0
 608              		.type	GPTD1, %object
 609              		.size	GPTD1, 16
 610              	GPTD1:
 611 0000 00000000 		.space	16
 611      00000000 
 611      00000000 
 611      00000000 
 612              		.section	.bss.GPTD2,"aw",%nobits
ARM GAS  /tmp/cc0fYwmk.s 			page 12


 613              		.align	2
 614              		.set	.LANCHOR1,. + 0
 615              		.type	GPTD2, %object
 616              		.size	GPTD2, 16
 617              	GPTD2:
 618 0000 00000000 		.space	16
 618      00000000 
 618      00000000 
 618      00000000 
 619              		.section	.bss.GPTD5,"aw",%nobits
 620              		.align	2
 621              		.set	.LANCHOR2,. + 0
 622              		.type	GPTD5, %object
 623              		.size	GPTD5, 16
 624              	GPTD5:
 625 0000 00000000 		.space	16
 625      00000000 
 625      00000000 
 625      00000000 
 626              		.text
 627              	.Letext0:
 628              		.file 2 "/usr/include/newlib/machine/_default_types.h"
 629              		.file 3 "/usr/include/newlib/stdint.h"
 630              		.file 4 "../../../../ChibiOS_2.6.2/os/hal/platforms/STM32F1xx/stm32f10x.h"
 631              		.file 5 "../../../../ChibiOS_2.6.2/os/hal/include/gpt.h"
 632              		.file 6 "../../../../ChibiOS_2.6.2/os/hal/platforms/STM32/TIMv1/gpt_lld.h"
 633              		.file 7 "../../../../ChibiOS_2.6.2/os/hal/platforms/STM32/TIMv1/stm32_tim.h"
 634              		.file 8 "../../../../ChibiOS_2.6.2/os/ports/common/ARMCMx/CMSIS/include/core_cm3.h"
 635              		.file 9 "../../../../ChibiOS_2.6.2/os/ports/common/ARMCMx/nvic.h"
 636              		.file 10 "../../../../ChibiOS_2.6.2/os/ports/GCC/ARMCMx/chcore_v7m.h"