ARM GAS  /tmp/ccAuIJ1a.s 			page 1


   1              		.syntax unified
   2              		.cpu cortex-m3
   3              		.fpu softvfp
   4              		.eabi_attribute 20, 1
   5              		.eabi_attribute 21, 1
   6              		.eabi_attribute 23, 3
   7              		.eabi_attribute 24, 1
   8              		.eabi_attribute 25, 1
   9              		.eabi_attribute 26, 1
  10              		.eabi_attribute 30, 2
  11              		.eabi_attribute 34, 1
  12              		.eabi_attribute 18, 4
  13              		.thumb
  14              		.file	"hal.c"
  15              		.text
  16              	.Ltext0:
  17              		.cfi_sections	.debug_frame
  18              		.section	.text.halInit,"ax",%progbits
  19              		.align	2
  20              		.p2align 4,,15
  21              		.global	halInit
  22              		.thumb
  23              		.thumb_func
  24              		.type	halInit, %function
  25              	halInit:
  26              	.LFB63:
  27              		.file 1 "../../../../ChibiOS_2.6.2/os/hal/src/hal.c"
  28              		.loc 1 68 0
  29              		.cfi_startproc
  30              		@ args = 0, pretend = 0, frame = 0
  31              		@ frame_needed = 0, uses_anonymous_args = 0
  32 0000 08B5     		push	{r3, lr}
  33              		.cfi_def_cfa_offset 8
  34              		.cfi_offset 3, -8
  35              		.cfi_offset 14, -4
  36              		.loc 1 70 0
  37 0002 FFF7FEFF 		bl	hal_lld_init
  38              	.LVL0:
  39              		.loc 1 73 0
  40 0006 FFF7FEFF 		bl	tmInit
  41              	.LVL1:
  42              		.loc 1 76 0
  43 000a 40F20000 		movw	r0, #:lower16:pal_default_config
  44 000e C0F20000 		movt	r0, #:upper16:pal_default_config
  45 0012 FFF7FEFF 		bl	_pal_lld_init
  46              	.LVL2:
  47              		.loc 1 79 0
  48 0016 FFF7FEFF 		bl	adcInit
  49              	.LVL3:
  50              		.loc 1 85 0
  51 001a FFF7FEFF 		bl	extInit
  52              	.LVL4:
  53              		.loc 1 88 0
  54 001e FFF7FEFF 		bl	gptInit
  55              	.LVL5:
  56              		.loc 1 91 0
  57 0022 FFF7FEFF 		bl	i2cInit
ARM GAS  /tmp/ccAuIJ1a.s 			page 2


  58              	.LVL6:
  59              		.loc 1 103 0
  60 0026 FFF7FEFF 		bl	sdInit
  61              	.LVL7:
  62              		.loc 1 109 0
  63 002a FFF7FEFF 		bl	spiInit
  64              	.LVL8:
  65              		.loc 1 128 0
  66 002e BDE80840 		pop	{r3, lr}
  67              		.loc 1 127 0
  68 0032 FFF7FEBF 		b	boardInit
  69              	.LVL9:
  70              		.cfi_endproc
  71              	.LFE63:
  72              		.size	halInit, .-halInit
  73 0036 00BFAFF3 		.section	.text.halIsCounterWithin,"ax",%progbits
  73      0080AFF3 
  73      0080
  74              		.align	2
  75              		.p2align 4,,15
  76              		.global	halIsCounterWithin
  77              		.thumb
  78              		.thumb_func
  79              		.type	halIsCounterWithin, %function
  80              	halIsCounterWithin:
  81              	.LFB64:
  82              		.loc 1 174 0
  83              		.cfi_startproc
  84              		@ args = 0, pretend = 0, frame = 0
  85              		@ frame_needed = 0, uses_anonymous_args = 0
  86              		@ link register save eliminated.
  87              	.LVL10:
  88              		.loc 1 175 0
  89 0000 4FF48053 		mov	r3, #4096
  90 0004 CEF20003 		movt	r3, 57344
  91              		.loc 1 177 0
  92 0008 8142     		cmp	r1, r0
  93              		.loc 1 174 0
  94 000a 0246     		mov	r2, r0
  95              		.loc 1 175 0
  96 000c 5B68     		ldr	r3, [r3, #4]
  97              	.LVL11:
  98              		.loc 1 177 0
  99 000e 09D8     		bhi	.L6
 100              		.loc 1 178 0 discriminator 2
 101 0010 8342     		cmp	r3, r0
 102 0012 34BF     		ite	cc
 103 0014 0022     		movcc	r2, #0
 104 0016 0122     		movcs	r2, #1
 105 0018 8B42     		cmp	r3, r1
 106 001a 2CBF     		ite	cs
 107 001c 1046     		movcs	r0, r2
 108 001e 42F00100 		orrcc	r0, r2, #1
 109              	.LVL12:
 110              		.loc 1 179 0 discriminator 2
 111 0022 7047     		bx	lr
 112              	.LVL13:
ARM GAS  /tmp/ccAuIJ1a.s 			page 3


 113              	.L6:
 114              		.loc 1 177 0 discriminator 1
 115 0024 8B42     		cmp	r3, r1
 116 0026 2CBF     		ite	cs
 117 0028 0020     		movcs	r0, #0
 118              	.LVL14:
 119 002a 0120     		movcc	r0, #1
 120 002c 9342     		cmp	r3, r2
 121 002e 38BF     		it	cc
 122 0030 0020     		movcc	r0, #0
 123 0032 7047     		bx	lr
 124              		.cfi_endproc
 125              	.LFE64:
 126              		.size	halIsCounterWithin, .-halIsCounterWithin
 127 0034 AFF30080 		.section	.text.halPolledDelay,"ax",%progbits
 127      AFF30080 
 127      AFF30080 
 128              		.align	2
 129              		.p2align 4,,15
 130              		.global	halPolledDelay
 131              		.thumb
 132              		.thumb_func
 133              		.type	halPolledDelay, %function
 134              	halPolledDelay:
 135              	.LFB65:
 136              		.loc 1 193 0
 137              		.cfi_startproc
 138              		@ args = 0, pretend = 0, frame = 0
 139              		@ frame_needed = 0, uses_anonymous_args = 0
 140              		@ link register save eliminated.
 141              	.LVL15:
 142 0000 10B4     		push	{r4}
 143              		.cfi_def_cfa_offset 4
 144              		.cfi_offset 4, -4
 145              		.loc 1 194 0
 146 0002 4FF48054 		mov	r4, #4096
 147 0006 CEF20004 		movt	r4, 57344
 148 000a 6268     		ldr	r2, [r4, #4]
 149              	.LVL16:
 150              		.loc 1 195 0
 151 000c 1044     		add	r0, r0, r2
 152              	.LVL17:
 153              	.L11:
 154              	.LBB4:
 155              	.LBB5:
 156              		.loc 1 177 0 discriminator 1
 157 000e 8242     		cmp	r2, r0
 158              		.loc 1 175 0 discriminator 1
 159 0010 6368     		ldr	r3, [r4, #4]
 160              	.LVL18:
 161              		.loc 1 177 0 discriminator 1
 162 0012 0BD2     		bcs	.L8
 163              		.loc 1 177 0 is_stmt 0
 164 0014 9842     		cmp	r0, r3
 165 0016 94BF     		ite	ls
 166 0018 0021     		movls	r1, #0
 167 001a 0121     		movhi	r1, #1
ARM GAS  /tmp/ccAuIJ1a.s 			page 4


 168 001c 9A42     		cmp	r2, r3
 169 001e 88BF     		it	hi
 170 0020 0021     		movhi	r1, #0
 171              	.LBE5:
 172              	.LBE4:
 173              		.loc 1 196 0 is_stmt 1
 174 0022 0029     		cmp	r1, #0
 175 0024 F3D1     		bne	.L11
 176              	.L12:
 177              		.loc 1 198 0
 178 0026 5DF8044B 		ldr	r4, [sp], #4
 179 002a 7047     		bx	lr
 180              	.L8:
 181              	.LBB7:
 182              	.LBB6:
 183              		.loc 1 178 0
 184 002c 9A42     		cmp	r2, r3
 185 002e 8CBF     		ite	hi
 186 0030 0021     		movhi	r1, #0
 187 0032 0121     		movls	r1, #1
 188 0034 9842     		cmp	r0, r3
 189 0036 88BF     		it	hi
 190 0038 41F00101 		orrhi	r1, r1, #1
 191              	.LBE6:
 192              	.LBE7:
 193              		.loc 1 196 0
 194 003c 0029     		cmp	r1, #0
 195 003e E6D1     		bne	.L11
 196 0040 F1E7     		b	.L12
 197              		.cfi_endproc
 198              	.LFE65:
 199              		.size	halPolledDelay, .-halPolledDelay
 200 0042 00BFAFF3 		.text
 200      0080AFF3 
 200      0080AFF3 
 200      0080
 201              	.Letext0:
 202              		.file 2 "/usr/include/newlib/machine/_default_types.h"
 203              		.file 3 "/usr/include/newlib/stdint.h"
 204              		.file 4 "../../../../ChibiOS_2.6.2/os/ports/GCC/ARMCMx/chtypes.h"
 205              		.file 5 "../../../../ChibiOS_2.6.2/os/ports/common/ARMCMx/nvic.h"
 206              		.file 6 "../../../../ChibiOS_2.6.2/os/hal/platforms/STM32F1xx/hal_lld.h"
 207              		.file 7 "../../../../ChibiOS_2.6.2/os/hal/platforms/STM32/GPIOv1/pal_lld.h"
 208              		.file 8 "../../../../ChibiOS_2.6.2/os/ports/common/ARMCMx/CMSIS/include/core_cm3.h"
 209              		.file 9 "../../../../ChibiOS_2.6.2/os/hal/include/tm.h"
 210              		.file 10 "../../../../ChibiOS_2.6.2/os/hal/include/adc.h"
 211              		.file 11 "../../../../ChibiOS_2.6.2/os/hal/include/ext.h"
 212              		.file 12 "../../../../ChibiOS_2.6.2/os/hal/include/gpt.h"
 213              		.file 13 "../../../../ChibiOS_2.6.2/os/hal/include/i2c.h"
 214              		.file 14 "../../../../ChibiOS_2.6.2/os/hal/include/serial.h"
 215              		.file 15 "../../../../ChibiOS_2.6.2/os/hal/include/spi.h"
 216              		.file 16 "../../boards/VEX_STM32_CORTEX/board.h"
 217              		.section	.debug_info,"",%progbits
 218              	.Ldebug_info0:
 219 0000 A0030000 		.4byte	0x3a0
 220 0004 0400     		.2byte	0x4
 221 0006 00000000 		.4byte	.Ldebug_abbrev0
ARM GAS  /tmp/ccAuIJ1a.s 			page 5


 222 000a 04       		.byte	0x4
 223 000b 01       		.uleb128 0x1
 224 000c 94000000 		.4byte	.LASF52
 225 0010 01       		.byte	0x1
 226 0011 1C000000 		.4byte	.LASF53
 227 0015 A8020000 		.4byte	.LASF54
 228 0019 18000000 		.4byte	.Ldebug_ranges0+0x18
 229 001d 00000000 		.4byte	0
 230 0021 00000000 		.4byte	.Ldebug_line0
 231 0025 02       		.uleb128 0x2
 232 0026 04       		.byte	0x4
 233 0027 05       		.byte	0x5
 234 0028 696E7400 		.ascii	"int\000"
 235 002c 03       		.uleb128 0x3
 236 002d 04       		.byte	0x4
 237 002e 07       		.byte	0x7
 238 002f EA010000 		.4byte	.LASF0
 239 0033 03       		.uleb128 0x3
 240 0034 01       		.byte	0x1
 241 0035 06       		.byte	0x6
 242 0036 BE010000 		.4byte	.LASF1
 243 003a 03       		.uleb128 0x3
 244 003b 01       		.byte	0x1
 245 003c 08       		.byte	0x8
 246 003d A3010000 		.4byte	.LASF2
 247 0041 03       		.uleb128 0x3
 248 0042 02       		.byte	0x2
 249 0043 05       		.byte	0x5
 250 0044 5A000000 		.4byte	.LASF3
 251 0048 03       		.uleb128 0x3
 252 0049 02       		.byte	0x2
 253 004a 07       		.byte	0x7
 254 004b 1D020000 		.4byte	.LASF4
 255 004f 04       		.uleb128 0x4
 256 0050 97020000 		.4byte	.LASF6
 257 0054 02       		.byte	0x2
 258 0055 37       		.byte	0x37
 259 0056 5A000000 		.4byte	0x5a
 260 005a 03       		.uleb128 0x3
 261 005b 04       		.byte	0x4
 262 005c 05       		.byte	0x5
 263 005d 6C010000 		.4byte	.LASF5
 264 0061 04       		.uleb128 0x4
 265 0062 89000000 		.4byte	.LASF7
 266 0066 02       		.byte	0x2
 267 0067 38       		.byte	0x38
 268 0068 6C000000 		.4byte	0x6c
 269 006c 03       		.uleb128 0x3
 270 006d 04       		.byte	0x4
 271 006e 07       		.byte	0x7
 272 006f 71020000 		.4byte	.LASF8
 273 0073 03       		.uleb128 0x3
 274 0074 08       		.byte	0x8
 275 0075 05       		.byte	0x5
 276 0076 47010000 		.4byte	.LASF9
 277 007a 03       		.uleb128 0x3
 278 007b 08       		.byte	0x8
ARM GAS  /tmp/ccAuIJ1a.s 			page 6


 279 007c 07       		.byte	0x7
 280 007d CA010000 		.4byte	.LASF10
 281 0081 04       		.uleb128 0x4
 282 0082 35020000 		.4byte	.LASF11
 283 0086 03       		.byte	0x3
 284 0087 41       		.byte	0x41
 285 0088 4F000000 		.4byte	0x4f
 286 008c 04       		.uleb128 0x4
 287 008d E1010000 		.4byte	.LASF12
 288 0091 03       		.byte	0x3
 289 0092 42       		.byte	0x42
 290 0093 61000000 		.4byte	0x61
 291 0097 04       		.uleb128 0x4
 292 0098 3D020000 		.4byte	.LASF13
 293 009c 04       		.byte	0x4
 294 009d 2B       		.byte	0x2b
 295 009e A2000000 		.4byte	0xa2
 296 00a2 03       		.uleb128 0x3
 297 00a3 01       		.byte	0x1
 298 00a4 02       		.byte	0x2
 299 00a5 55020000 		.4byte	.LASF14
 300 00a9 04       		.uleb128 0x4
 301 00aa 38010000 		.4byte	.LASF15
 302 00ae 05       		.byte	0x5
 303 00af 3A       		.byte	0x3a
 304 00b0 B4000000 		.4byte	0xb4
 305 00b4 05       		.uleb128 0x5
 306 00b5 8C000000 		.4byte	0x8c
 307 00b9 03       		.uleb128 0x3
 308 00ba 04       		.byte	0x4
 309 00bb 07       		.byte	0x7
 310 00bc 64000000 		.4byte	.LASF16
 311 00c0 06       		.uleb128 0x6
 312 00c1 20       		.byte	0x20
 313 00c2 05       		.byte	0x5
 314 00c3 0601     		.2byte	0x106
 315 00c5 32010000 		.4byte	0x132
 316 00c9 07       		.uleb128 0x7
 317 00ca B9010000 		.4byte	.LASF17
 318 00ce 05       		.byte	0x5
 319 00cf 0701     		.2byte	0x107
 320 00d1 A9000000 		.4byte	0xa9
 321 00d5 00       		.byte	0
 322 00d6 07       		.uleb128 0x7
 323 00d7 5D010000 		.4byte	.LASF18
 324 00db 05       		.byte	0x5
 325 00dc 0801     		.2byte	0x108
 326 00de A9000000 		.4byte	0xa9
 327 00e2 04       		.byte	0x4
 328 00e3 07       		.uleb128 0x7
 329 00e4 6A020000 		.4byte	.LASF19
 330 00e8 05       		.byte	0x5
 331 00e9 0901     		.2byte	0x109
 332 00eb A9000000 		.4byte	0xa9
 333 00ef 08       		.byte	0x8
 334 00f0 07       		.uleb128 0x7
 335 00f1 2C030000 		.4byte	.LASF20
ARM GAS  /tmp/ccAuIJ1a.s 			page 7


 336 00f5 05       		.byte	0x5
 337 00f6 0A01     		.2byte	0x10a
 338 00f8 A9000000 		.4byte	0xa9
 339 00fc 0C       		.byte	0xc
 340 00fd 07       		.uleb128 0x7
 341 00fe 8E020000 		.4byte	.LASF21
 342 0102 05       		.byte	0x5
 343 0103 0B01     		.2byte	0x10b
 344 0105 A9000000 		.4byte	0xa9
 345 0109 10       		.byte	0x10
 346 010a 07       		.uleb128 0x7
 347 010b A1020000 		.4byte	.LASF22
 348 010f 05       		.byte	0x5
 349 0110 0C01     		.2byte	0x10c
 350 0112 A9000000 		.4byte	0xa9
 351 0116 14       		.byte	0x14
 352 0117 07       		.uleb128 0x7
 353 0118 79000000 		.4byte	.LASF23
 354 011c 05       		.byte	0x5
 355 011d 0D01     		.2byte	0x10d
 356 011f A9000000 		.4byte	0xa9
 357 0123 18       		.byte	0x18
 358 0124 07       		.uleb128 0x7
 359 0125 74000000 		.4byte	.LASF24
 360 0129 05       		.byte	0x5
 361 012a 0E01     		.2byte	0x10e
 362 012c A9000000 		.4byte	0xa9
 363 0130 1C       		.byte	0x1c
 364 0131 00       		.byte	0
 365 0132 08       		.uleb128 0x8
 366 0133 5B020000 		.4byte	.LASF25
 367 0137 05       		.byte	0x5
 368 0138 0F01     		.2byte	0x10f
 369 013a C0000000 		.4byte	0xc0
 370 013e 03       		.uleb128 0x3
 371 013f 01       		.byte	0x1
 372 0140 08       		.byte	0x8
 373 0141 30020000 		.4byte	.LASF26
 374 0145 05       		.uleb128 0x5
 375 0146 81000000 		.4byte	0x81
 376 014a 04       		.uleb128 0x4
 377 014b 83020000 		.4byte	.LASF27
 378 014f 06       		.byte	0x6
 379 0150 CE       		.byte	0xce
 380 0151 8C000000 		.4byte	0x8c
 381 0155 09       		.uleb128 0x9
 382 0156 0C       		.byte	0xc
 383 0157 07       		.byte	0x7
 384 0158 38       		.byte	0x38
 385 0159 82010000 		.4byte	0x182
 386 015d 0A       		.uleb128 0xa
 387 015e 6F647200 		.ascii	"odr\000"
 388 0162 07       		.byte	0x7
 389 0163 3A       		.byte	0x3a
 390 0164 8C000000 		.4byte	0x8c
 391 0168 00       		.byte	0
 392 0169 0A       		.uleb128 0xa
ARM GAS  /tmp/ccAuIJ1a.s 			page 8


 393 016a 63726C00 		.ascii	"crl\000"
 394 016e 07       		.byte	0x7
 395 016f 3C       		.byte	0x3c
 396 0170 8C000000 		.4byte	0x8c
 397 0174 04       		.byte	0x4
 398 0175 0A       		.uleb128 0xa
 399 0176 63726800 		.ascii	"crh\000"
 400 017a 07       		.byte	0x7
 401 017b 3E       		.byte	0x3e
 402 017c 8C000000 		.4byte	0x8c
 403 0180 08       		.byte	0x8
 404 0181 00       		.byte	0
 405 0182 04       		.uleb128 0x4
 406 0183 F7010000 		.4byte	.LASF28
 407 0187 07       		.byte	0x7
 408 0188 3F       		.byte	0x3f
 409 0189 55010000 		.4byte	0x155
 410 018d 09       		.uleb128 0x9
 411 018e 54       		.byte	0x54
 412 018f 07       		.byte	0x7
 413 0190 48       		.byte	0x48
 414 0191 EA010000 		.4byte	0x1ea
 415 0195 0B       		.uleb128 0xb
 416 0196 40010000 		.4byte	.LASF29
 417 019a 07       		.byte	0x7
 418 019b 4A       		.byte	0x4a
 419 019c 82010000 		.4byte	0x182
 420 01a0 00       		.byte	0
 421 01a1 0B       		.uleb128 0xb
 422 01a2 4E020000 		.4byte	.LASF30
 423 01a6 07       		.byte	0x7
 424 01a7 4C       		.byte	0x4c
 425 01a8 82010000 		.4byte	0x182
 426 01ac 0C       		.byte	0xc
 427 01ad 0B       		.uleb128 0xb
 428 01ae 9C010000 		.4byte	.LASF31
 429 01b2 07       		.byte	0x7
 430 01b3 4E       		.byte	0x4e
 431 01b4 82010000 		.4byte	0x182
 432 01b8 18       		.byte	0x18
 433 01b9 0B       		.uleb128 0xb
 434 01ba 75010000 		.4byte	.LASF32
 435 01be 07       		.byte	0x7
 436 01bf 50       		.byte	0x50
 437 01c0 82010000 		.4byte	0x182
 438 01c4 24       		.byte	0x24
 439 01c5 0B       		.uleb128 0xb
 440 01c6 63020000 		.4byte	.LASF33
 441 01ca 07       		.byte	0x7
 442 01cb 53       		.byte	0x53
 443 01cc 82010000 		.4byte	0x182
 444 01d0 30       		.byte	0x30
 445 01d1 0B       		.uleb128 0xb
 446 01d2 6D000000 		.4byte	.LASF34
 447 01d6 07       		.byte	0x7
 448 01d7 56       		.byte	0x56
 449 01d8 82010000 		.4byte	0x182
ARM GAS  /tmp/ccAuIJ1a.s 			page 9


 450 01dc 3C       		.byte	0x3c
 451 01dd 0B       		.uleb128 0xb
 452 01de 95010000 		.4byte	.LASF35
 453 01e2 07       		.byte	0x7
 454 01e3 59       		.byte	0x59
 455 01e4 82010000 		.4byte	0x182
 456 01e8 48       		.byte	0x48
 457 01e9 00       		.byte	0
 458 01ea 04       		.uleb128 0x4
 459 01eb 44020000 		.4byte	.LASF36
 460 01ef 07       		.byte	0x7
 461 01f0 5D       		.byte	0x5d
 462 01f1 8D010000 		.4byte	0x18d
 463 01f5 0C       		.uleb128 0xc
 464 01f6 19030000 		.4byte	.LASF55
 465 01fa 01       		.byte	0x1
 466 01fb AE       		.byte	0xae
 467 01fc 97000000 		.4byte	0x97
 468 0200 01       		.byte	0x1
 469 0201 27020000 		.4byte	0x227
 470 0205 0D       		.uleb128 0xd
 471 0206 17020000 		.4byte	.LASF37
 472 020a 01       		.byte	0x1
 473 020b AE       		.byte	0xae
 474 020c 4A010000 		.4byte	0x14a
 475 0210 0E       		.uleb128 0xe
 476 0211 656E6400 		.ascii	"end\000"
 477 0215 01       		.byte	0x1
 478 0216 AE       		.byte	0xae
 479 0217 4A010000 		.4byte	0x14a
 480 021b 0F       		.uleb128 0xf
 481 021c 6E6F7700 		.ascii	"now\000"
 482 0220 01       		.byte	0x1
 483 0221 AF       		.byte	0xaf
 484 0222 4A010000 		.4byte	0x14a
 485 0226 00       		.byte	0
 486 0227 10       		.uleb128 0x10
 487 0228 55010000 		.4byte	.LASF38
 488 022c 01       		.byte	0x1
 489 022d 44       		.byte	0x44
 490 022e 00000000 		.4byte	.LFB63
 491 0232 36000000 		.4byte	.LFE63-.LFB63
 492 0236 01       		.uleb128 0x1
 493 0237 9C       		.byte	0x9c
 494 0238 97020000 		.4byte	0x297
 495 023c 11       		.uleb128 0x11
 496 023d 06000000 		.4byte	.LVL0
 497 0241 49030000 		.4byte	0x349
 498 0245 11       		.uleb128 0x11
 499 0246 0A000000 		.4byte	.LVL1
 500 024a 50030000 		.4byte	0x350
 501 024e 11       		.uleb128 0x11
 502 024f 16000000 		.4byte	.LVL2
 503 0253 57030000 		.4byte	0x357
 504 0257 11       		.uleb128 0x11
 505 0258 1A000000 		.4byte	.LVL3
 506 025c 6F030000 		.4byte	0x36f
ARM GAS  /tmp/ccAuIJ1a.s 			page 10


 507 0260 11       		.uleb128 0x11
 508 0261 1E000000 		.4byte	.LVL4
 509 0265 77030000 		.4byte	0x377
 510 0269 11       		.uleb128 0x11
 511 026a 22000000 		.4byte	.LVL5
 512 026e 7E030000 		.4byte	0x37e
 513 0272 11       		.uleb128 0x11
 514 0273 26000000 		.4byte	.LVL6
 515 0277 85030000 		.4byte	0x385
 516 027b 11       		.uleb128 0x11
 517 027c 2A000000 		.4byte	.LVL7
 518 0280 8C030000 		.4byte	0x38c
 519 0284 11       		.uleb128 0x11
 520 0285 2E000000 		.4byte	.LVL8
 521 0289 94030000 		.4byte	0x394
 522 028d 12       		.uleb128 0x12
 523 028e 36000000 		.4byte	.LVL9
 524 0292 9C030000 		.4byte	0x39c
 525 0296 00       		.byte	0
 526 0297 13       		.uleb128 0x13
 527 0298 F5010000 		.4byte	0x1f5
 528 029c 00000000 		.4byte	.LFB64
 529 02a0 34000000 		.4byte	.LFE64-.LFB64
 530 02a4 01       		.uleb128 0x1
 531 02a5 9C       		.byte	0x9c
 532 02a6 C2020000 		.4byte	0x2c2
 533 02aa 14       		.uleb128 0x14
 534 02ab 05020000 		.4byte	0x205
 535 02af 00000000 		.4byte	.LLST0
 536 02b3 15       		.uleb128 0x15
 537 02b4 10020000 		.4byte	0x210
 538 02b8 01       		.uleb128 0x1
 539 02b9 51       		.byte	0x51
 540 02ba 16       		.uleb128 0x16
 541 02bb 1B020000 		.4byte	0x21b
 542 02bf 01       		.uleb128 0x1
 543 02c0 53       		.byte	0x53
 544 02c1 00       		.byte	0
 545 02c2 10       		.uleb128 0x10
 546 02c3 7C010000 		.4byte	.LASF39
 547 02c7 01       		.byte	0x1
 548 02c8 C1       		.byte	0xc1
 549 02c9 00000000 		.4byte	.LFB65
 550 02cd 42000000 		.4byte	.LFE65-.LFB65
 551 02d1 01       		.uleb128 0x1
 552 02d2 9C       		.byte	0x9c
 553 02d3 2C030000 		.4byte	0x32c
 554 02d7 17       		.uleb128 0x17
 555 02d8 00000000 		.4byte	.LASF56
 556 02dc 01       		.byte	0x1
 557 02dd C1       		.byte	0xc1
 558 02de 4A010000 		.4byte	0x14a
 559 02e2 37000000 		.4byte	.LLST1
 560 02e6 18       		.uleb128 0x18
 561 02e7 17020000 		.4byte	.LASF37
 562 02eb 01       		.byte	0x1
 563 02ec C2       		.byte	0xc2
ARM GAS  /tmp/ccAuIJ1a.s 			page 11


 564 02ed 4A010000 		.4byte	0x14a
 565 02f1 01       		.uleb128 0x1
 566 02f2 52       		.byte	0x52
 567 02f3 18       		.uleb128 0x18
 568 02f4 33030000 		.4byte	.LASF40
 569 02f8 01       		.byte	0x1
 570 02f9 C3       		.byte	0xc3
 571 02fa 4A010000 		.4byte	0x14a
 572 02fe 01       		.uleb128 0x1
 573 02ff 50       		.byte	0x50
 574 0300 19       		.uleb128 0x19
 575 0301 F5010000 		.4byte	0x1f5
 576 0305 0E000000 		.4byte	.LBB4
 577 0309 00000000 		.4byte	.Ldebug_ranges0+0
 578 030d 01       		.byte	0x1
 579 030e C4       		.byte	0xc4
 580 030f 15       		.uleb128 0x15
 581 0310 10020000 		.4byte	0x210
 582 0314 01       		.uleb128 0x1
 583 0315 50       		.byte	0x50
 584 0316 15       		.uleb128 0x15
 585 0317 05020000 		.4byte	0x205
 586 031b 01       		.uleb128 0x1
 587 031c 52       		.byte	0x52
 588 031d 1A       		.uleb128 0x1a
 589 031e 00000000 		.4byte	.Ldebug_ranges0+0
 590 0322 16       		.uleb128 0x16
 591 0323 1B020000 		.4byte	0x21b
 592 0327 01       		.uleb128 0x1
 593 0328 53       		.byte	0x53
 594 0329 00       		.byte	0
 595 032a 00       		.byte	0
 596 032b 00       		.byte	0
 597 032c 1B       		.uleb128 0x1b
 598 032d 05030000 		.4byte	.LASF41
 599 0331 08       		.byte	0x8
 600 0332 0706     		.2byte	0x607
 601 0334 45010000 		.4byte	0x145
 602 0338 1B       		.uleb128 0x1b
 603 0339 47000000 		.4byte	.LASF42
 604 033d 07       		.byte	0x7
 605 033e 3D01     		.2byte	0x13d
 606 0340 44030000 		.4byte	0x344
 607 0344 1C       		.uleb128 0x1c
 608 0345 EA010000 		.4byte	0x1ea
 609 0349 1D       		.uleb128 0x1d
 610 034a 0A020000 		.4byte	.LASF43
 611 034e 06       		.byte	0x6
 612 034f F7       		.byte	0xf7
 613 0350 1D       		.uleb128 0x1d
 614 0351 12030000 		.4byte	.LASF44
 615 0355 09       		.byte	0x9
 616 0356 73       		.byte	0x73
 617 0357 1E       		.uleb128 0x1e
 618 0358 0E000000 		.4byte	.LASF57
 619 035c 07       		.byte	0x7
 620 035d 4201     		.2byte	0x142
ARM GAS  /tmp/ccAuIJ1a.s 			page 12


 621 035f 69030000 		.4byte	0x369
 622 0363 1F       		.uleb128 0x1f
 623 0364 69030000 		.4byte	0x369
 624 0368 00       		.byte	0
 625 0369 20       		.uleb128 0x20
 626 036a 04       		.byte	0x4
 627 036b 44030000 		.4byte	0x344
 628 036f 21       		.uleb128 0x21
 629 0370 FD020000 		.4byte	.LASF45
 630 0374 0A       		.byte	0xa
 631 0375 1C01     		.2byte	0x11c
 632 0377 1D       		.uleb128 0x1d
 633 0378 64010000 		.4byte	.LASF46
 634 037c 0B       		.byte	0xb
 635 037d 90       		.byte	0x90
 636 037e 1D       		.uleb128 0x1d
 637 037f B1010000 		.4byte	.LASF47
 638 0383 0C       		.byte	0xc
 639 0384 6E       		.byte	0x6e
 640 0385 1D       		.uleb128 0x1d
 641 0386 06000000 		.4byte	.LASF48
 642 038a 0D       		.byte	0xd
 643 038b 7F       		.byte	0x7f
 644 038c 21       		.uleb128 0x21
 645 038d 31010000 		.4byte	.LASF49
 646 0391 0E       		.byte	0xe
 647 0392 3501     		.2byte	0x135
 648 0394 21       		.uleb128 0x21
 649 0395 81000000 		.4byte	.LASF50
 650 0399 0F       		.byte	0xf
 651 039a 2E01     		.2byte	0x12e
 652 039c 1D       		.uleb128 0x1d
 653 039d 8B010000 		.4byte	.LASF51
 654 03a1 10       		.byte	0x10
 655 03a2 EA       		.byte	0xea
 656 03a3 00       		.byte	0
 657              		.section	.debug_abbrev,"",%progbits
 658              	.Ldebug_abbrev0:
 659 0000 01       		.uleb128 0x1
 660 0001 11       		.uleb128 0x11
 661 0002 01       		.byte	0x1
 662 0003 25       		.uleb128 0x25
 663 0004 0E       		.uleb128 0xe
 664 0005 13       		.uleb128 0x13
 665 0006 0B       		.uleb128 0xb
 666 0007 03       		.uleb128 0x3
 667 0008 0E       		.uleb128 0xe
 668 0009 1B       		.uleb128 0x1b
 669 000a 0E       		.uleb128 0xe
 670 000b 55       		.uleb128 0x55
 671 000c 17       		.uleb128 0x17
 672 000d 11       		.uleb128 0x11
 673 000e 01       		.uleb128 0x1
 674 000f 10       		.uleb128 0x10
 675 0010 17       		.uleb128 0x17
 676 0011 00       		.byte	0
 677 0012 00       		.byte	0
ARM GAS  /tmp/ccAuIJ1a.s 			page 13


 678 0013 02       		.uleb128 0x2
 679 0014 24       		.uleb128 0x24
 680 0015 00       		.byte	0
 681 0016 0B       		.uleb128 0xb
 682 0017 0B       		.uleb128 0xb
 683 0018 3E       		.uleb128 0x3e
 684 0019 0B       		.uleb128 0xb
 685 001a 03       		.uleb128 0x3
 686 001b 08       		.uleb128 0x8
 687 001c 00       		.byte	0
 688 001d 00       		.byte	0
 689 001e 03       		.uleb128 0x3
 690 001f 24       		.uleb128 0x24
 691 0020 00       		.byte	0
 692 0021 0B       		.uleb128 0xb
 693 0022 0B       		.uleb128 0xb
 694 0023 3E       		.uleb128 0x3e
 695 0024 0B       		.uleb128 0xb
 696 0025 03       		.uleb128 0x3
 697 0026 0E       		.uleb128 0xe
 698 0027 00       		.byte	0
 699 0028 00       		.byte	0
 700 0029 04       		.uleb128 0x4
 701 002a 16       		.uleb128 0x16
 702 002b 00       		.byte	0
 703 002c 03       		.uleb128 0x3
 704 002d 0E       		.uleb128 0xe
 705 002e 3A       		.uleb128 0x3a
 706 002f 0B       		.uleb128 0xb
 707 0030 3B       		.uleb128 0x3b
 708 0031 0B       		.uleb128 0xb
 709 0032 49       		.uleb128 0x49
 710 0033 13       		.uleb128 0x13
 711 0034 00       		.byte	0
 712 0035 00       		.byte	0
 713 0036 05       		.uleb128 0x5
 714 0037 35       		.uleb128 0x35
 715 0038 00       		.byte	0
 716 0039 49       		.uleb128 0x49
 717 003a 13       		.uleb128 0x13
 718 003b 00       		.byte	0
 719 003c 00       		.byte	0
 720 003d 06       		.uleb128 0x6
 721 003e 13       		.uleb128 0x13
 722 003f 01       		.byte	0x1
 723 0040 0B       		.uleb128 0xb
 724 0041 0B       		.uleb128 0xb
 725 0042 3A       		.uleb128 0x3a
 726 0043 0B       		.uleb128 0xb
 727 0044 3B       		.uleb128 0x3b
 728 0045 05       		.uleb128 0x5
 729 0046 01       		.uleb128 0x1
 730 0047 13       		.uleb128 0x13
 731 0048 00       		.byte	0
 732 0049 00       		.byte	0
 733 004a 07       		.uleb128 0x7
 734 004b 0D       		.uleb128 0xd
ARM GAS  /tmp/ccAuIJ1a.s 			page 14


 735 004c 00       		.byte	0
 736 004d 03       		.uleb128 0x3
 737 004e 0E       		.uleb128 0xe
 738 004f 3A       		.uleb128 0x3a
 739 0050 0B       		.uleb128 0xb
 740 0051 3B       		.uleb128 0x3b
 741 0052 05       		.uleb128 0x5
 742 0053 49       		.uleb128 0x49
 743 0054 13       		.uleb128 0x13
 744 0055 38       		.uleb128 0x38
 745 0056 0B       		.uleb128 0xb
 746 0057 00       		.byte	0
 747 0058 00       		.byte	0
 748 0059 08       		.uleb128 0x8
 749 005a 16       		.uleb128 0x16
 750 005b 00       		.byte	0
 751 005c 03       		.uleb128 0x3
 752 005d 0E       		.uleb128 0xe
 753 005e 3A       		.uleb128 0x3a
 754 005f 0B       		.uleb128 0xb
 755 0060 3B       		.uleb128 0x3b
 756 0061 05       		.uleb128 0x5
 757 0062 49       		.uleb128 0x49
 758 0063 13       		.uleb128 0x13
 759 0064 00       		.byte	0
 760 0065 00       		.byte	0
 761 0066 09       		.uleb128 0x9
 762 0067 13       		.uleb128 0x13
 763 0068 01       		.byte	0x1
 764 0069 0B       		.uleb128 0xb
 765 006a 0B       		.uleb128 0xb
 766 006b 3A       		.uleb128 0x3a
 767 006c 0B       		.uleb128 0xb
 768 006d 3B       		.uleb128 0x3b
 769 006e 0B       		.uleb128 0xb
 770 006f 01       		.uleb128 0x1
 771 0070 13       		.uleb128 0x13
 772 0071 00       		.byte	0
 773 0072 00       		.byte	0
 774 0073 0A       		.uleb128 0xa
 775 0074 0D       		.uleb128 0xd
 776 0075 00       		.byte	0
 777 0076 03       		.uleb128 0x3
 778 0077 08       		.uleb128 0x8
 779 0078 3A       		.uleb128 0x3a
 780 0079 0B       		.uleb128 0xb
 781 007a 3B       		.uleb128 0x3b
 782 007b 0B       		.uleb128 0xb
 783 007c 49       		.uleb128 0x49
 784 007d 13       		.uleb128 0x13
 785 007e 38       		.uleb128 0x38
 786 007f 0B       		.uleb128 0xb
 787 0080 00       		.byte	0
 788 0081 00       		.byte	0
 789 0082 0B       		.uleb128 0xb
 790 0083 0D       		.uleb128 0xd
 791 0084 00       		.byte	0
ARM GAS  /tmp/ccAuIJ1a.s 			page 15


 792 0085 03       		.uleb128 0x3
 793 0086 0E       		.uleb128 0xe
 794 0087 3A       		.uleb128 0x3a
 795 0088 0B       		.uleb128 0xb
 796 0089 3B       		.uleb128 0x3b
 797 008a 0B       		.uleb128 0xb
 798 008b 49       		.uleb128 0x49
 799 008c 13       		.uleb128 0x13
 800 008d 38       		.uleb128 0x38
 801 008e 0B       		.uleb128 0xb
 802 008f 00       		.byte	0
 803 0090 00       		.byte	0
 804 0091 0C       		.uleb128 0xc
 805 0092 2E       		.uleb128 0x2e
 806 0093 01       		.byte	0x1
 807 0094 3F       		.uleb128 0x3f
 808 0095 19       		.uleb128 0x19
 809 0096 03       		.uleb128 0x3
 810 0097 0E       		.uleb128 0xe
 811 0098 3A       		.uleb128 0x3a
 812 0099 0B       		.uleb128 0xb
 813 009a 3B       		.uleb128 0x3b
 814 009b 0B       		.uleb128 0xb
 815 009c 27       		.uleb128 0x27
 816 009d 19       		.uleb128 0x19
 817 009e 49       		.uleb128 0x49
 818 009f 13       		.uleb128 0x13
 819 00a0 20       		.uleb128 0x20
 820 00a1 0B       		.uleb128 0xb
 821 00a2 01       		.uleb128 0x1
 822 00a3 13       		.uleb128 0x13
 823 00a4 00       		.byte	0
 824 00a5 00       		.byte	0
 825 00a6 0D       		.uleb128 0xd
 826 00a7 05       		.uleb128 0x5
 827 00a8 00       		.byte	0
 828 00a9 03       		.uleb128 0x3
 829 00aa 0E       		.uleb128 0xe
 830 00ab 3A       		.uleb128 0x3a
 831 00ac 0B       		.uleb128 0xb
 832 00ad 3B       		.uleb128 0x3b
 833 00ae 0B       		.uleb128 0xb
 834 00af 49       		.uleb128 0x49
 835 00b0 13       		.uleb128 0x13
 836 00b1 00       		.byte	0
 837 00b2 00       		.byte	0
 838 00b3 0E       		.uleb128 0xe
 839 00b4 05       		.uleb128 0x5
 840 00b5 00       		.byte	0
 841 00b6 03       		.uleb128 0x3
 842 00b7 08       		.uleb128 0x8
 843 00b8 3A       		.uleb128 0x3a
 844 00b9 0B       		.uleb128 0xb
 845 00ba 3B       		.uleb128 0x3b
 846 00bb 0B       		.uleb128 0xb
 847 00bc 49       		.uleb128 0x49
 848 00bd 13       		.uleb128 0x13
ARM GAS  /tmp/ccAuIJ1a.s 			page 16


 849 00be 00       		.byte	0
 850 00bf 00       		.byte	0
 851 00c0 0F       		.uleb128 0xf
 852 00c1 34       		.uleb128 0x34
 853 00c2 00       		.byte	0
 854 00c3 03       		.uleb128 0x3
 855 00c4 08       		.uleb128 0x8
 856 00c5 3A       		.uleb128 0x3a
 857 00c6 0B       		.uleb128 0xb
 858 00c7 3B       		.uleb128 0x3b
 859 00c8 0B       		.uleb128 0xb
 860 00c9 49       		.uleb128 0x49
 861 00ca 13       		.uleb128 0x13
 862 00cb 00       		.byte	0
 863 00cc 00       		.byte	0
 864 00cd 10       		.uleb128 0x10
 865 00ce 2E       		.uleb128 0x2e
 866 00cf 01       		.byte	0x1
 867 00d0 3F       		.uleb128 0x3f
 868 00d1 19       		.uleb128 0x19
 869 00d2 03       		.uleb128 0x3
 870 00d3 0E       		.uleb128 0xe
 871 00d4 3A       		.uleb128 0x3a
 872 00d5 0B       		.uleb128 0xb
 873 00d6 3B       		.uleb128 0x3b
 874 00d7 0B       		.uleb128 0xb
 875 00d8 27       		.uleb128 0x27
 876 00d9 19       		.uleb128 0x19
 877 00da 11       		.uleb128 0x11
 878 00db 01       		.uleb128 0x1
 879 00dc 12       		.uleb128 0x12
 880 00dd 06       		.uleb128 0x6
 881 00de 40       		.uleb128 0x40
 882 00df 18       		.uleb128 0x18
 883 00e0 9742     		.uleb128 0x2117
 884 00e2 19       		.uleb128 0x19
 885 00e3 01       		.uleb128 0x1
 886 00e4 13       		.uleb128 0x13
 887 00e5 00       		.byte	0
 888 00e6 00       		.byte	0
 889 00e7 11       		.uleb128 0x11
 890 00e8 898201   		.uleb128 0x4109
 891 00eb 00       		.byte	0
 892 00ec 11       		.uleb128 0x11
 893 00ed 01       		.uleb128 0x1
 894 00ee 31       		.uleb128 0x31
 895 00ef 13       		.uleb128 0x13
 896 00f0 00       		.byte	0
 897 00f1 00       		.byte	0
 898 00f2 12       		.uleb128 0x12
 899 00f3 898201   		.uleb128 0x4109
 900 00f6 00       		.byte	0
 901 00f7 11       		.uleb128 0x11
 902 00f8 01       		.uleb128 0x1
 903 00f9 9542     		.uleb128 0x2115
 904 00fb 19       		.uleb128 0x19
 905 00fc 31       		.uleb128 0x31
ARM GAS  /tmp/ccAuIJ1a.s 			page 17


 906 00fd 13       		.uleb128 0x13
 907 00fe 00       		.byte	0
 908 00ff 00       		.byte	0
 909 0100 13       		.uleb128 0x13
 910 0101 2E       		.uleb128 0x2e
 911 0102 01       		.byte	0x1
 912 0103 31       		.uleb128 0x31
 913 0104 13       		.uleb128 0x13
 914 0105 11       		.uleb128 0x11
 915 0106 01       		.uleb128 0x1
 916 0107 12       		.uleb128 0x12
 917 0108 06       		.uleb128 0x6
 918 0109 40       		.uleb128 0x40
 919 010a 18       		.uleb128 0x18
 920 010b 9742     		.uleb128 0x2117
 921 010d 19       		.uleb128 0x19
 922 010e 01       		.uleb128 0x1
 923 010f 13       		.uleb128 0x13
 924 0110 00       		.byte	0
 925 0111 00       		.byte	0
 926 0112 14       		.uleb128 0x14
 927 0113 05       		.uleb128 0x5
 928 0114 00       		.byte	0
 929 0115 31       		.uleb128 0x31
 930 0116 13       		.uleb128 0x13
 931 0117 02       		.uleb128 0x2
 932 0118 17       		.uleb128 0x17
 933 0119 00       		.byte	0
 934 011a 00       		.byte	0
 935 011b 15       		.uleb128 0x15
 936 011c 05       		.uleb128 0x5
 937 011d 00       		.byte	0
 938 011e 31       		.uleb128 0x31
 939 011f 13       		.uleb128 0x13
 940 0120 02       		.uleb128 0x2
 941 0121 18       		.uleb128 0x18
 942 0122 00       		.byte	0
 943 0123 00       		.byte	0
 944 0124 16       		.uleb128 0x16
 945 0125 34       		.uleb128 0x34
 946 0126 00       		.byte	0
 947 0127 31       		.uleb128 0x31
 948 0128 13       		.uleb128 0x13
 949 0129 02       		.uleb128 0x2
 950 012a 18       		.uleb128 0x18
 951 012b 00       		.byte	0
 952 012c 00       		.byte	0
 953 012d 17       		.uleb128 0x17
 954 012e 05       		.uleb128 0x5
 955 012f 00       		.byte	0
 956 0130 03       		.uleb128 0x3
 957 0131 0E       		.uleb128 0xe
 958 0132 3A       		.uleb128 0x3a
 959 0133 0B       		.uleb128 0xb
 960 0134 3B       		.uleb128 0x3b
 961 0135 0B       		.uleb128 0xb
 962 0136 49       		.uleb128 0x49
ARM GAS  /tmp/ccAuIJ1a.s 			page 18


 963 0137 13       		.uleb128 0x13
 964 0138 02       		.uleb128 0x2
 965 0139 17       		.uleb128 0x17
 966 013a 00       		.byte	0
 967 013b 00       		.byte	0
 968 013c 18       		.uleb128 0x18
 969 013d 34       		.uleb128 0x34
 970 013e 00       		.byte	0
 971 013f 03       		.uleb128 0x3
 972 0140 0E       		.uleb128 0xe
 973 0141 3A       		.uleb128 0x3a
 974 0142 0B       		.uleb128 0xb
 975 0143 3B       		.uleb128 0x3b
 976 0144 0B       		.uleb128 0xb
 977 0145 49       		.uleb128 0x49
 978 0146 13       		.uleb128 0x13
 979 0147 02       		.uleb128 0x2
 980 0148 18       		.uleb128 0x18
 981 0149 00       		.byte	0
 982 014a 00       		.byte	0
 983 014b 19       		.uleb128 0x19
 984 014c 1D       		.uleb128 0x1d
 985 014d 01       		.byte	0x1
 986 014e 31       		.uleb128 0x31
 987 014f 13       		.uleb128 0x13
 988 0150 52       		.uleb128 0x52
 989 0151 01       		.uleb128 0x1
 990 0152 55       		.uleb128 0x55
 991 0153 17       		.uleb128 0x17
 992 0154 58       		.uleb128 0x58
 993 0155 0B       		.uleb128 0xb
 994 0156 59       		.uleb128 0x59
 995 0157 0B       		.uleb128 0xb
 996 0158 00       		.byte	0
 997 0159 00       		.byte	0
 998 015a 1A       		.uleb128 0x1a
 999 015b 0B       		.uleb128 0xb
 1000 015c 01       		.byte	0x1
 1001 015d 55       		.uleb128 0x55
 1002 015e 17       		.uleb128 0x17
 1003 015f 00       		.byte	0
 1004 0160 00       		.byte	0
 1005 0161 1B       		.uleb128 0x1b
 1006 0162 34       		.uleb128 0x34
 1007 0163 00       		.byte	0
 1008 0164 03       		.uleb128 0x3
 1009 0165 0E       		.uleb128 0xe
 1010 0166 3A       		.uleb128 0x3a
 1011 0167 0B       		.uleb128 0xb
 1012 0168 3B       		.uleb128 0x3b
 1013 0169 05       		.uleb128 0x5
 1014 016a 49       		.uleb128 0x49
 1015 016b 13       		.uleb128 0x13
 1016 016c 3F       		.uleb128 0x3f
 1017 016d 19       		.uleb128 0x19
 1018 016e 3C       		.uleb128 0x3c
 1019 016f 19       		.uleb128 0x19
ARM GAS  /tmp/ccAuIJ1a.s 			page 19


 1020 0170 00       		.byte	0
 1021 0171 00       		.byte	0
 1022 0172 1C       		.uleb128 0x1c
 1023 0173 26       		.uleb128 0x26
 1024 0174 00       		.byte	0
 1025 0175 49       		.uleb128 0x49
 1026 0176 13       		.uleb128 0x13
 1027 0177 00       		.byte	0
 1028 0178 00       		.byte	0
 1029 0179 1D       		.uleb128 0x1d
 1030 017a 2E       		.uleb128 0x2e
 1031 017b 00       		.byte	0
 1032 017c 3F       		.uleb128 0x3f
 1033 017d 19       		.uleb128 0x19
 1034 017e 03       		.uleb128 0x3
 1035 017f 0E       		.uleb128 0xe
 1036 0180 3A       		.uleb128 0x3a
 1037 0181 0B       		.uleb128 0xb
 1038 0182 3B       		.uleb128 0x3b
 1039 0183 0B       		.uleb128 0xb
 1040 0184 27       		.uleb128 0x27
 1041 0185 19       		.uleb128 0x19
 1042 0186 3C       		.uleb128 0x3c
 1043 0187 19       		.uleb128 0x19
 1044 0188 00       		.byte	0
 1045 0189 00       		.byte	0
 1046 018a 1E       		.uleb128 0x1e
 1047 018b 2E       		.uleb128 0x2e
 1048 018c 01       		.byte	0x1
 1049 018d 3F       		.uleb128 0x3f
 1050 018e 19       		.uleb128 0x19
 1051 018f 03       		.uleb128 0x3
 1052 0190 0E       		.uleb128 0xe
 1053 0191 3A       		.uleb128 0x3a
 1054 0192 0B       		.uleb128 0xb
 1055 0193 3B       		.uleb128 0x3b
 1056 0194 05       		.uleb128 0x5
 1057 0195 27       		.uleb128 0x27
 1058 0196 19       		.uleb128 0x19
 1059 0197 3C       		.uleb128 0x3c
 1060 0198 19       		.uleb128 0x19
 1061 0199 01       		.uleb128 0x1
 1062 019a 13       		.uleb128 0x13
 1063 019b 00       		.byte	0
 1064 019c 00       		.byte	0
 1065 019d 1F       		.uleb128 0x1f
 1066 019e 05       		.uleb128 0x5
 1067 019f 00       		.byte	0
 1068 01a0 49       		.uleb128 0x49
 1069 01a1 13       		.uleb128 0x13
 1070 01a2 00       		.byte	0
 1071 01a3 00       		.byte	0
 1072 01a4 20       		.uleb128 0x20
 1073 01a5 0F       		.uleb128 0xf
 1074 01a6 00       		.byte	0
 1075 01a7 0B       		.uleb128 0xb
 1076 01a8 0B       		.uleb128 0xb
ARM GAS  /tmp/ccAuIJ1a.s 			page 20


 1077 01a9 49       		.uleb128 0x49
 1078 01aa 13       		.uleb128 0x13
 1079 01ab 00       		.byte	0
 1080 01ac 00       		.byte	0
 1081 01ad 21       		.uleb128 0x21
 1082 01ae 2E       		.uleb128 0x2e
 1083 01af 00       		.byte	0
 1084 01b0 3F       		.uleb128 0x3f
 1085 01b1 19       		.uleb128 0x19
 1086 01b2 03       		.uleb128 0x3
 1087 01b3 0E       		.uleb128 0xe
 1088 01b4 3A       		.uleb128 0x3a
 1089 01b5 0B       		.uleb128 0xb
 1090 01b6 3B       		.uleb128 0x3b
 1091 01b7 05       		.uleb128 0x5
 1092 01b8 27       		.uleb128 0x27
 1093 01b9 19       		.uleb128 0x19
 1094 01ba 3C       		.uleb128 0x3c
 1095 01bb 19       		.uleb128 0x19
 1096 01bc 00       		.byte	0
 1097 01bd 00       		.byte	0
 1098 01be 00       		.byte	0
 1099              		.section	.debug_loc,"",%progbits
 1100              	.Ldebug_loc0:
 1101              	.LLST0:
 1102 0000 00000000 		.4byte	.LVL10
 1103 0004 22000000 		.4byte	.LVL12
 1104 0008 0100     		.2byte	0x1
 1105 000a 50       		.byte	0x50
 1106 000b 22000000 		.4byte	.LVL12
 1107 000f 24000000 		.4byte	.LVL13
 1108 0013 0400     		.2byte	0x4
 1109 0015 F3       		.byte	0xf3
 1110 0016 01       		.uleb128 0x1
 1111 0017 50       		.byte	0x50
 1112 0018 9F       		.byte	0x9f
 1113 0019 24000000 		.4byte	.LVL13
 1114 001d 2A000000 		.4byte	.LVL14
 1115 0021 0100     		.2byte	0x1
 1116 0023 50       		.byte	0x50
 1117 0024 2A000000 		.4byte	.LVL14
 1118 0028 34000000 		.4byte	.LFE64
 1119 002c 0100     		.2byte	0x1
 1120 002e 52       		.byte	0x52
 1121 002f 00000000 		.4byte	0
 1122 0033 00000000 		.4byte	0
 1123              	.LLST1:
 1124 0037 00000000 		.4byte	.LVL15
 1125 003b 0E000000 		.4byte	.LVL17
 1126 003f 0100     		.2byte	0x1
 1127 0041 50       		.byte	0x50
 1128 0042 0E000000 		.4byte	.LVL17
 1129 0046 42000000 		.4byte	.LFE65
 1130 004a 0400     		.2byte	0x4
 1131 004c F3       		.byte	0xf3
 1132 004d 01       		.uleb128 0x1
 1133 004e 50       		.byte	0x50
ARM GAS  /tmp/ccAuIJ1a.s 			page 21


 1134 004f 9F       		.byte	0x9f
 1135 0050 00000000 		.4byte	0
 1136 0054 00000000 		.4byte	0
 1137              		.section	.debug_aranges,"",%progbits
 1138 0000 2C000000 		.4byte	0x2c
 1139 0004 0200     		.2byte	0x2
 1140 0006 00000000 		.4byte	.Ldebug_info0
 1141 000a 04       		.byte	0x4
 1142 000b 00       		.byte	0
 1143 000c 0000     		.2byte	0
 1144 000e 0000     		.2byte	0
 1145 0010 00000000 		.4byte	.LFB63
 1146 0014 36000000 		.4byte	.LFE63-.LFB63
 1147 0018 00000000 		.4byte	.LFB64
 1148 001c 34000000 		.4byte	.LFE64-.LFB64
 1149 0020 00000000 		.4byte	.LFB65
 1150 0024 42000000 		.4byte	.LFE65-.LFB65
 1151 0028 00000000 		.4byte	0
 1152 002c 00000000 		.4byte	0
 1153              		.section	.debug_ranges,"",%progbits
 1154              	.Ldebug_ranges0:
 1155 0000 0E000000 		.4byte	.LBB4
 1156 0004 22000000 		.4byte	.LBE4
 1157 0008 2C000000 		.4byte	.LBB7
 1158 000c 3C000000 		.4byte	.LBE7
 1159 0010 00000000 		.4byte	0
 1160 0014 00000000 		.4byte	0
 1161 0018 00000000 		.4byte	.LFB63
 1162 001c 36000000 		.4byte	.LFE63
 1163 0020 00000000 		.4byte	.LFB64
 1164 0024 34000000 		.4byte	.LFE64
 1165 0028 00000000 		.4byte	.LFB65
 1166 002c 42000000 		.4byte	.LFE65
 1167 0030 00000000 		.4byte	0
 1168 0034 00000000 		.4byte	0
 1169              		.section	.debug_line,"",%progbits
 1170              	.Ldebug_line0:
 1171 0000 E7020000 		.section	.debug_str,"MS",%progbits,1
 1171      02006E02 
 1171      00000201 
 1171      FB0E0D00 
 1171      01010101 
 1172              	.LASF56:
 1173 0000 7469636B 		.ascii	"ticks\000"
 1173      7300
 1174              	.LASF48:
 1175 0006 69326349 		.ascii	"i2cInit\000"
 1175      6E697400 
 1176              	.LASF57:
 1177 000e 5F70616C 		.ascii	"_pal_lld_init\000"
 1177      5F6C6C64 
 1177      5F696E69 
 1177      7400
 1178              	.LASF53:
 1179 001c 2E2E2F2E 		.ascii	"../../../../ChibiOS_2.6.2/os/hal/src/hal.c\000"
 1179      2E2F2E2E 
 1179      2F2E2E2F 
ARM GAS  /tmp/ccAuIJ1a.s 			page 22


 1179      43686962 
 1179      694F535F 
 1180              	.LASF42:
 1181 0047 70616C5F 		.ascii	"pal_default_config\000"
 1181      64656661 
 1181      756C745F 
 1181      636F6E66 
 1181      696700
 1182              	.LASF3:
 1183 005a 73686F72 		.ascii	"short int\000"
 1183      7420696E 
 1183      7400
 1184              	.LASF16:
 1185 0064 73697A65 		.ascii	"sizetype\000"
 1185      74797065 
 1185      00
 1186              	.LASF34:
 1187 006d 50464461 		.ascii	"PFData\000"
 1187      746100
 1188              	.LASF24:
 1189 0074 50435352 		.ascii	"PCSR\000"
 1189      00
 1190              	.LASF23:
 1191 0079 464F4C44 		.ascii	"FOLDCNT\000"
 1191      434E5400 
 1192              	.LASF50:
 1193 0081 73706949 		.ascii	"spiInit\000"
 1193      6E697400 
 1194              	.LASF7:
 1195 0089 5F5F7569 		.ascii	"__uint32_t\000"
 1195      6E743332 
 1195      5F7400
 1196              	.LASF52:
 1197 0094 474E5520 		.ascii	"GNU C 4.8.2 -mcpu=cortex-m3 -mno-thumb-interwork -m"
 1197      4320342E 
 1197      382E3220 
 1197      2D6D6370 
 1197      753D636F 
 1198 00c7 7468756D 		.ascii	"thumb -ggdb -O2 -fomit-frame-pointer -falign-functi"
 1198      62202D67 
 1198      67646220 
 1198      2D4F3220 
 1198      2D666F6D 
 1199 00fa 6F6E733D 		.ascii	"ons=16 -ffunction-sections -fdata-sections -fno-com"
 1199      3136202D 
 1199      6666756E 
 1199      6374696F 
 1199      6E2D7365 
 1200 012d 6D6F6E00 		.ascii	"mon\000"
 1201              	.LASF49:
 1202 0131 7364496E 		.ascii	"sdInit\000"
 1202      697400
 1203              	.LASF15:
 1204 0138 494F5245 		.ascii	"IOREG32\000"
 1204      47333200 
 1205              	.LASF29:
 1206 0140 50414461 		.ascii	"PAData\000"
ARM GAS  /tmp/ccAuIJ1a.s 			page 23


 1206      746100
 1207              	.LASF9:
 1208 0147 6C6F6E67 		.ascii	"long long int\000"
 1208      206C6F6E 
 1208      6720696E 
 1208      7400
 1209              	.LASF38:
 1210 0155 68616C49 		.ascii	"halInit\000"
 1210      6E697400 
 1211              	.LASF18:
 1212 015d 43594343 		.ascii	"CYCCNT\000"
 1212      4E5400
 1213              	.LASF46:
 1214 0164 65787449 		.ascii	"extInit\000"
 1214      6E697400 
 1215              	.LASF5:
 1216 016c 6C6F6E67 		.ascii	"long int\000"
 1216      20696E74 
 1216      00
 1217              	.LASF32:
 1218 0175 50444461 		.ascii	"PDData\000"
 1218      746100
 1219              	.LASF39:
 1220 017c 68616C50 		.ascii	"halPolledDelay\000"
 1220      6F6C6C65 
 1220      6444656C 
 1220      617900
 1221              	.LASF51:
 1222 018b 626F6172 		.ascii	"boardInit\000"
 1222      64496E69 
 1222      7400
 1223              	.LASF35:
 1224 0195 50474461 		.ascii	"PGData\000"
 1224      746100
 1225              	.LASF31:
 1226 019c 50434461 		.ascii	"PCData\000"
 1226      746100
 1227              	.LASF2:
 1228 01a3 756E7369 		.ascii	"unsigned char\000"
 1228      676E6564 
 1228      20636861 
 1228      7200
 1229              	.LASF47:
 1230 01b1 67707449 		.ascii	"gptInit\000"
 1230      6E697400 
 1231              	.LASF17:
 1232 01b9 4354524C 		.ascii	"CTRL\000"
 1232      00
 1233              	.LASF1:
 1234 01be 7369676E 		.ascii	"signed char\000"
 1234      65642063 
 1234      68617200 
 1235              	.LASF10:
 1236 01ca 6C6F6E67 		.ascii	"long long unsigned int\000"
 1236      206C6F6E 
 1236      6720756E 
 1236      7369676E 
ARM GAS  /tmp/ccAuIJ1a.s 			page 24


 1236      65642069 
 1237              	.LASF12:
 1238 01e1 75696E74 		.ascii	"uint32_t\000"
 1238      33325F74 
 1238      00
 1239              	.LASF0:
 1240 01ea 756E7369 		.ascii	"unsigned int\000"
 1240      676E6564 
 1240      20696E74 
 1240      00
 1241              	.LASF28:
 1242 01f7 73746D33 		.ascii	"stm32_gpio_setup_t\000"
 1242      325F6770 
 1242      696F5F73 
 1242      65747570 
 1242      5F7400
 1243              	.LASF43:
 1244 020a 68616C5F 		.ascii	"hal_lld_init\000"
 1244      6C6C645F 
 1244      696E6974 
 1244      00
 1245              	.LASF37:
 1246 0217 73746172 		.ascii	"start\000"
 1246      7400
 1247              	.LASF4:
 1248 021d 73686F72 		.ascii	"short unsigned int\000"
 1248      7420756E 
 1248      7369676E 
 1248      65642069 
 1248      6E7400
 1249              	.LASF26:
 1250 0230 63686172 		.ascii	"char\000"
 1250      00
 1251              	.LASF11:
 1252 0235 696E7433 		.ascii	"int32_t\000"
 1252      325F7400 
 1253              	.LASF13:
 1254 023d 626F6F6C 		.ascii	"bool_t\000"
 1254      5F7400
 1255              	.LASF36:
 1256 0244 50414C43 		.ascii	"PALConfig\000"
 1256      6F6E6669 
 1256      6700
 1257              	.LASF30:
 1258 024e 50424461 		.ascii	"PBData\000"
 1258      746100
 1259              	.LASF14:
 1260 0255 5F426F6F 		.ascii	"_Bool\000"
 1260      6C00
 1261              	.LASF25:
 1262 025b 434D785F 		.ascii	"CMx_DWT\000"
 1262      44575400 
 1263              	.LASF33:
 1264 0263 50454461 		.ascii	"PEData\000"
 1264      746100
 1265              	.LASF19:
 1266 026a 43504943 		.ascii	"CPICNT\000"
ARM GAS  /tmp/ccAuIJ1a.s 			page 25


 1266      4E5400
 1267              	.LASF8:
 1268 0271 6C6F6E67 		.ascii	"long unsigned int\000"
 1268      20756E73 
 1268      69676E65 
 1268      6420696E 
 1268      7400
 1269              	.LASF27:
 1270 0283 68616C72 		.ascii	"halrtcnt_t\000"
 1270      74636E74 
 1270      5F7400
 1271              	.LASF21:
 1272 028e 534C4545 		.ascii	"SLEEPCNT\000"
 1272      50434E54 
 1272      00
 1273              	.LASF6:
 1274 0297 5F5F696E 		.ascii	"__int32_t\000"
 1274      7433325F 
 1274      7400
 1275              	.LASF22:
 1276 02a1 4C535543 		.ascii	"LSUCNT\000"
 1276      4E5400
 1277              	.LASF54:
 1278 02a8 2F6D6E74 		.ascii	"/mnt/c/Users/DQ Sullivan/Downloads/Convex/convex/co"
 1278      2F632F55 
 1278      73657273 
 1278      2F445120 
 1278      53756C6C 
 1279 02db 72746578 		.ascii	"rtex/projects/Vex2016 CyberBrains\000"
 1279      2F70726F 
 1279      6A656374 
 1279      732F5665 
 1279      78323031 
 1280              	.LASF45:
 1281 02fd 61646349 		.ascii	"adcInit\000"
 1281      6E697400 
 1282              	.LASF41:
 1283 0305 49544D5F 		.ascii	"ITM_RxBuffer\000"
 1283      52784275 
 1283      66666572 
 1283      00
 1284              	.LASF44:
 1285 0312 746D496E 		.ascii	"tmInit\000"
 1285      697400
 1286              	.LASF55:
 1287 0319 68616C49 		.ascii	"halIsCounterWithin\000"
 1287      73436F75 
 1287      6E746572 
 1287      57697468 
 1287      696E00
 1288              	.LASF20:
 1289 032c 45584343 		.ascii	"EXCCNT\000"
 1289      4E5400
 1290              	.LASF40:
 1291 0333 74696D65 		.ascii	"timeout\000"
 1291      6F757400 
 1292              		.ident	"GCC: (4.8.2-14ubuntu1+6) 4.8.2"
ARM GAS  /tmp/ccAuIJ1a.s 			page 26


ARM GAS  /tmp/ccAuIJ1a.s 			page 27


DEFINED SYMBOLS
                            *ABS*:0000000000000000 hal.c
     /tmp/ccAuIJ1a.s:19     .text.halInit:0000000000000000 $t
     /tmp/ccAuIJ1a.s:25     .text.halInit:0000000000000000 halInit
     /tmp/ccAuIJ1a.s:74     .text.halIsCounterWithin:0000000000000000 $t
     /tmp/ccAuIJ1a.s:80     .text.halIsCounterWithin:0000000000000000 halIsCounterWithin
     /tmp/ccAuIJ1a.s:128    .text.halPolledDelay:0000000000000000 $t
     /tmp/ccAuIJ1a.s:134    .text.halPolledDelay:0000000000000000 halPolledDelay
                     .debug_frame:0000000000000010 $d

UNDEFINED SYMBOLS
hal_lld_init
tmInit
pal_default_config
_pal_lld_init
adcInit
extInit
gptInit
i2cInit
sdInit
spiInit
boardInit
