ARM GAS  /tmp/ccAuIJ1a.s 			page 1


   1              		.syntax unified
   2              		.cpu cortex-m3
   3              		.fpu softvfp
   4              		.eabi_attribute 20, 1
   5              		.eabi_attribute 21, 1
   6              		.eabi_attribute 23, 3
   7              		.eabi_attribute 24, 1
   8              		.eabi_attribute 25, 1
   9              		.eabi_attribute 26, 1
  10              		.eabi_attribute 30, 2
  11              		.eabi_attribute 34, 1
  12              		.eabi_attribute 18, 4
  13              		.thumb
  14              		.file	"hal.c"
  15              		.text
  16              	.Ltext0:
  17              		.cfi_sections	.debug_frame
  18              		.section	.text.halInit,"ax",%progbits
  19              		.align	2
  20              		.p2align 4,,15
  21              		.global	halInit
  22              		.thumb
  23              		.thumb_func
  24              		.type	halInit, %function
  25              	halInit:
  26              	.LFB63:
  27              		.file 1 "../../../../ChibiOS_2.6.2/os/hal/src/hal.c"
  28              		.loc 1 68 0
  29              		.cfi_startproc
  30              		@ args = 0, pretend = 0, frame = 0
  31              		@ frame_needed = 0, uses_anonymous_args = 0
  32 0000 08B5     		push	{r3, lr}
  33              		.cfi_def_cfa_offset 8
  34              		.cfi_offset 3, -8
  35              		.cfi_offset 14, -4
  36              		.loc 1 70 0
  37 0002 FFF7FEFF 		bl	hal_lld_init
  38              	.LVL0:
  39              		.loc 1 73 0
  40 0006 FFF7FEFF 		bl	tmInit
  41              	.LVL1:
  42              		.loc 1 76 0
  43 000a 40F20000 		movw	r0, #:lower16:pal_default_config
  44 000e C0F20000 		movt	r0, #:upper16:pal_default_config
  45 0012 FFF7FEFF 		bl	_pal_lld_init
  46              	.LVL2:
  47              		.loc 1 79 0
  48 0016 FFF7FEFF 		bl	adcInit
  49              	.LVL3:
  50              		.loc 1 85 0
  51 001a FFF7FEFF 		bl	extInit
  52              	.LVL4:
  53              		.loc 1 88 0
  54 001e FFF7FEFF 		bl	gptInit
  55              	.LVL5:
  56              		.loc 1 91 0
  57 0022 FFF7FEFF 		bl	i2cInit
ARM GAS  /tmp/ccAuIJ1a.s 			page 2


  58              	.LVL6:
  59              		.loc 1 103 0
  60 0026 FFF7FEFF 		bl	sdInit
  61              	.LVL7:
  62              		.loc 1 109 0
  63 002a FFF7FEFF 		bl	spiInit
  64              	.LVL8:
  65              		.loc 1 128 0
  66 002e BDE80840 		pop	{r3, lr}
  67              		.loc 1 127 0
  68 0032 FFF7FEBF 		b	boardInit
  69              	.LVL9:
  70              		.cfi_endproc
  71              	.LFE63:
  72              		.size	halInit, .-halInit
  73 0036 00BFAFF3 		.section	.text.halIsCounterWithin,"ax",%progbits
  73      0080AFF3 
  73      0080
  74              		.align	2
  75              		.p2align 4,,15
  76              		.global	halIsCounterWithin
  77              		.thumb
  78              		.thumb_func
  79              		.type	halIsCounterWithin, %function
  80              	halIsCounterWithin:
  81              	.LFB64:
  82              		.loc 1 174 0
  83              		.cfi_startproc
  84              		@ args = 0, pretend = 0, frame = 0
  85              		@ frame_needed = 0, uses_anonymous_args = 0
  86              		@ link register save eliminated.
  87              	.LVL10:
  88              		.loc 1 175 0
  89 0000 4FF48053 		mov	r3, #4096
  90 0004 CEF20003 		movt	r3, 57344
  91              		.loc 1 177 0
  92 0008 8142     		cmp	r1, r0
  93              		.loc 1 174 0
  94 000a 0246     		mov	r2, r0
  95              		.loc 1 175 0
  96 000c 5B68     		ldr	r3, [r3, #4]
  97              	.LVL11:
  98              		.loc 1 177 0
  99 000e 09D8     		bhi	.L6
 100              		.loc 1 178 0 discriminator 2
 101 0010 8342     		cmp	r3, r0
 102 0012 34BF     		ite	cc
 103 0014 0022     		movcc	r2, #0
 104 0016 0122     		movcs	r2, #1
 105 0018 8B42     		cmp	r3, r1
 106 001a 2CBF     		ite	cs
 107 001c 1046     		movcs	r0, r2
 108 001e 42F00100 		orrcc	r0, r2, #1
 109              	.LVL12:
 110              		.loc 1 179 0 discriminator 2
 111 0022 7047     		bx	lr
 112              	.LVL13:
ARM GAS  /tmp/ccAuIJ1a.s 			page 3


 113              	.L6:
 114              		.loc 1 177 0 discriminator 1
 115 0024 8B42     		cmp	r3, r1
 116 0026 2CBF     		ite	cs
 117 0028 0020     		movcs	r0, #0
 118              	.LVL14:
 119 002a 0120     		movcc	r0, #1
 120 002c 9342     		cmp	r3, r2
 121 002e 38BF     		it	cc
 122 0030 0020     		movcc	r0, #0
 123 0032 7047     		bx	lr
 124              		.cfi_endproc
 125              	.LFE64:
 126              		.size	halIsCounterWithin, .-halIsCounterWithin
 127 0034 AFF30080 		.section	.text.halPolledDelay,"ax",%progbits
 127      AFF30080 
 127      AFF30080 
 128              		.align	2
 129              		.p2align 4,,15
 130              		.global	halPolledDelay
 131              		.thumb
 132              		.thumb_func
 133              		.type	halPolledDelay, %function
 134              	halPolledDelay:
 135              	.LFB65:
 136              		.loc 1 193 0
 137              		.cfi_startproc
 138              		@ args = 0, pretend = 0, frame = 0
 139              		@ frame_needed = 0, uses_anonymous_args = 0
 140              		@ link register save eliminated.
 141              	.LVL15:
 142 0000 10B4     		push	{r4}
 143              		.cfi_def_cfa_offset 4
 144              		.cfi_offset 4, -4
 145              		.loc 1 194 0
 146 0002 4FF48054 		mov	r4, #4096
 147 0006 CEF20004 		movt	r4, 57344
 148 000a 6268     		ldr	r2, [r4, #4]
 149              	.LVL16:
 150              		.loc 1 195 0
 151 000c 1044     		add	r0, r0, r2
 152              	.LVL17:
 153              	.L11:
 154              	.LBB4:
 155              	.LBB5:
 156              		.loc 1 177 0 discriminator 1
 157 000e 8242     		cmp	r2, r0
 158              		.loc 1 175 0 discriminator 1
 159 0010 6368     		ldr	r3, [r4, #4]
 160              	.LVL18:
 161              		.loc 1 177 0 discriminator 1
 162 0012 0BD2     		bcs	.L8
 163              		.loc 1 177 0 is_stmt 0
 164 0014 9842     		cmp	r0, r3
 165 0016 94BF     		ite	ls
 166 0018 0021     		movls	r1, #0
 167 001a 0121     		movhi	r1, #1
ARM GAS  /tmp/ccAuIJ1a.s 			page 4


 168 001c 9A42     		cmp	r2, r3
 169 001e 88BF     		it	hi
 170 0020 0021     		movhi	r1, #0
 171              	.LBE5:
 172              	.LBE4:
 173              		.loc 1 196 0 is_stmt 1
 174 0022 0029     		cmp	r1, #0
 175 0024 F3D1     		bne	.L11
 176              	.L12:
 177              		.loc 1 198 0
 178 0026 5DF8044B 		ldr	r4, [sp], #4
 179 002a 7047     		bx	lr
 180              	.L8:
 181              	.LBB7:
 182              	.LBB6:
 183              		.loc 1 178 0
 184 002c 9A42     		cmp	r2, r3
 185 002e 8CBF     		ite	hi
 186 0030 0021     		movhi	r1, #0
 187 0032 0121     		movls	r1, #1
 188 0034 9842     		cmp	r0, r3
 189 0036 88BF     		it	hi
 190 0038 41F00101 		orrhi	r1, r1, #1
 191              	.LBE6:
 192              	.LBE7:
 193              		.loc 1 196 0
 194 003c 0029     		cmp	r1, #0
 195 003e E6D1     		bne	.L11
 196 0040 F1E7     		b	.L12
 197              		.cfi_endproc
 198              	.LFE65:
 199              		.size	halPolledDelay, .-halPolledDelay
 200 0042 00BFAFF3 		.text
 200      0080AFF3 
 200      0080AFF3 
 200      0080
 201              	.Letext0:
 202              		.file 2 "/usr/include/newlib/machine/_default_types.h"
 203              		.file 3 "/usr/include/newlib/stdint.h"
 204              		.file 4 "../../../../ChibiOS_2.6.2/os/ports/GCC/ARMCMx/chtypes.h"
 205              		.file 5 "../../../../ChibiOS_2.6.2/os/ports/common/ARMCMx/nvic.h"
 206              		.file 6 "../../../../ChibiOS_2.6.2/os/hal/platforms/STM32F1xx/hal_lld.h"
 207              		.file 7 "../../../../ChibiOS_2.6.2/os/hal/platforms/STM32/GPIOv1/pal_lld.h"
 208              		.file 8 "../../../../ChibiOS_2.6.2/os/ports/common/ARMCMx/CMSIS/include/core_cm3.h"
 209              		.file 9 "../../../../ChibiOS_2.6.2/os/hal/include/tm.h"
 210              		.file 10 "../../../../ChibiOS_2.6.2/os/hal/include/adc.h"
 211              		.file 11 "../../../../ChibiOS_2.6.2/os/hal/include/ext.h"
 212              		.file 12 "../../../../ChibiOS_2.6.2/os/hal/include/gpt.h"
 213              		.file 13 "../../../../ChibiOS_2.6.2/os/hal/include/i2c.h"
 214              		.file 14 "../../../../ChibiOS_2.6.2/os/hal/include/serial.h"
 215              		.file 15 "../../../../ChibiOS_2.6.2/os/hal/include/spi.h"
 216              		.file 16 "../../boards/VEX_STM32_CORTEX/board.h"