ARM GAS  /tmp/ccRkmKFm.s 			page 1


   1              		.syntax unified
   2              		.cpu cortex-m3
   3              		.fpu softvfp
   4              		.eabi_attribute 20, 1
   5              		.eabi_attribute 21, 1
   6              		.eabi_attribute 23, 3
   7              		.eabi_attribute 24, 1
   8              		.eabi_attribute 25, 1
   9              		.eabi_attribute 26, 1
  10              		.eabi_attribute 30, 2
  11              		.eabi_attribute 34, 1
  12              		.eabi_attribute 18, 4
  13              		.thumb
  14              		.file	"i2c.c"
  15              		.text
  16              	.Ltext0:
  17              		.cfi_sections	.debug_frame
  18              		.section	.text.i2cInit,"ax",%progbits
  19              		.align	2
  20              		.p2align 4,,15
  21              		.global	i2cInit
  22              		.thumb
  23              		.thumb_func
  24              		.type	i2cInit, %function
  25              	i2cInit:
  26              	.LFB63:
  27              		.file 1 "../../../../ChibiOS_2.6.2/os/hal/src/i2c.c"
  28              		.loc 1 71 0
  29              		.cfi_startproc
  30              		@ args = 0, pretend = 0, frame = 0
  31              		@ frame_needed = 0, uses_anonymous_args = 0
  32              		@ link register save eliminated.
  33              		.loc 1 72 0
  34 0000 FFF7FEBF 		b	i2c_lld_init
  35              	.LVL0:
  36              		.cfi_endproc
  37              	.LFE63:
  38              		.size	i2cInit, .-i2cInit
  39 0004 AFF30080 		.section	.text.i2cObjectInit,"ax",%progbits
  39      AFF30080 
  39      AFF30080 
  40              		.align	2
  41              		.p2align 4,,15
  42              		.global	i2cObjectInit
  43              		.thumb
  44              		.thumb_func
  45              		.type	i2cObjectInit, %function
  46              	i2cObjectInit:
  47              	.LFB64:
  48              		.loc 1 82 0
  49              		.cfi_startproc
  50              		@ args = 0, pretend = 0, frame = 0
  51              		@ frame_needed = 0, uses_anonymous_args = 0
  52              		@ link register save eliminated.
  53              	.LVL1:
  54              		.loc 1 84 0
  55 0000 0122     		movs	r2, #1
ARM GAS  /tmp/ccRkmKFm.s 			page 2


  56              		.loc 1 85 0
  57 0002 0023     		movs	r3, #0
  58              		.loc 1 84 0
  59 0004 0270     		strb	r2, [r0]
  60              		.loc 1 85 0
  61 0006 4360     		str	r3, [r0, #4]
  62              		.loc 1 89 0
  63 0008 0C30     		adds	r0, r0, #12
  64              	.LVL2:
  65 000a FFF7FEBF 		b	chMtxInit
  66              	.LVL3:
  67              		.cfi_endproc
  68              	.LFE64:
  69              		.size	i2cObjectInit, .-i2cObjectInit
  70 000e 00BF     		.section	.text.i2cStart,"ax",%progbits
  71              		.align	2
  72              		.p2align 4,,15
  73              		.global	i2cStart
  74              		.thumb
  75              		.thumb_func
  76              		.type	i2cStart, %function
  77              	i2cStart:
  78              	.LFB65:
  79              		.loc 1 108 0
  80              		.cfi_startproc
  81              		@ args = 0, pretend = 0, frame = 0
  82              		@ frame_needed = 0, uses_anonymous_args = 0
  83              	.LVL4:
  84 0000 10B5     		push	{r4, lr}
  85              		.cfi_def_cfa_offset 8
  86              		.cfi_offset 4, -8
  87              		.cfi_offset 14, -4
  88              	.LBB2:
  89              		.loc 1 116 0
  90 0002 2023     		movs	r3, #32
  91              	.LBE2:
  92              		.loc 1 108 0
  93 0004 0446     		mov	r4, r0
  94              	.LBB3:
  95              		.loc 1 116 0
  96              	@ 116 "../../../../ChibiOS_2.6.2/os/hal/src/i2c.c" 1
  97 0006 83F31188 		msr     BASEPRI, r3
  98              	@ 0 "" 2
  99              		.thumb
 100              	.LBE3:
 101              		.loc 1 117 0
 102 000a 4160     		str	r1, [r0, #4]
 103              		.loc 1 118 0
 104 000c FFF7FEFF 		bl	i2c_lld_start
 105              	.LVL5:
 106              		.loc 1 119 0
 107 0010 0223     		movs	r3, #2
 108 0012 2370     		strb	r3, [r4]
 109              	.LBB4:
 110              		.loc 1 120 0
 111 0014 0023     		movs	r3, #0
 112              	@ 120 "../../../../ChibiOS_2.6.2/os/hal/src/i2c.c" 1
ARM GAS  /tmp/ccRkmKFm.s 			page 3


 113 0016 83F31188 		msr     BASEPRI, r3
 114              	@ 0 "" 2
 115              		.thumb
 116 001a 10BD     		pop	{r4, pc}
 117              	.LBE4:
 118              		.cfi_endproc
 119              	.LFE65:
 120              		.size	i2cStart, .-i2cStart
 121 001c AFF30080 		.section	.text.i2cStop,"ax",%progbits
 122              		.align	2
 123              		.p2align 4,,15
 124              		.global	i2cStop
 125              		.thumb
 126              		.thumb_func
 127              		.type	i2cStop, %function
 128              	i2cStop:
 129              	.LFB66:
 130              		.loc 1 130 0
 131              		.cfi_startproc
 132              		@ args = 0, pretend = 0, frame = 0
 133              		@ frame_needed = 0, uses_anonymous_args = 0
 134              	.LVL6:
 135 0000 10B5     		push	{r4, lr}
 136              		.cfi_def_cfa_offset 8
 137              		.cfi_offset 4, -8
 138              		.cfi_offset 14, -4
 139              	.LBB5:
 140              		.loc 1 138 0
 141 0002 2023     		movs	r3, #32
 142              	.LBE5:
 143              		.loc 1 130 0
 144 0004 0446     		mov	r4, r0
 145              	.LBB6:
 146              		.loc 1 138 0
 147              	@ 138 "../../../../ChibiOS_2.6.2/os/hal/src/i2c.c" 1
 148 0006 83F31188 		msr     BASEPRI, r3
 149              	@ 0 "" 2
 150              		.thumb
 151              	.LBE6:
 152              		.loc 1 139 0
 153 000a FFF7FEFF 		bl	i2c_lld_stop
 154              	.LVL7:
 155              		.loc 1 140 0
 156 000e 0123     		movs	r3, #1
 157 0010 2370     		strb	r3, [r4]
 158              	.LBB7:
 159              		.loc 1 141 0
 160 0012 0023     		movs	r3, #0
 161              	@ 141 "../../../../ChibiOS_2.6.2/os/hal/src/i2c.c" 1
 162 0014 83F31188 		msr     BASEPRI, r3
 163              	@ 0 "" 2
 164              		.thumb
 165 0018 10BD     		pop	{r4, pc}
 166              	.LBE7:
 167              		.cfi_endproc
 168              	.LFE66:
 169              		.size	i2cStop, .-i2cStop
ARM GAS  /tmp/ccRkmKFm.s 			page 4


 170 001a 00BFAFF3 		.section	.text.i2cGetErrors,"ax",%progbits
 170      0080
 171              		.align	2
 172              		.p2align 4,,15
 173              		.global	i2cGetErrors
 174              		.thumb
 175              		.thumb_func
 176              		.type	i2cGetErrors, %function
 177              	i2cGetErrors:
 178              	.LFB67:
 179              		.loc 1 152 0
 180              		.cfi_startproc
 181              		@ args = 0, pretend = 0, frame = 0
 182              		@ frame_needed = 0, uses_anonymous_args = 0
 183              		@ link register save eliminated.
 184              	.LVL8:
 185              		.loc 1 157 0
 186 0000 8068     		ldr	r0, [r0, #8]
 187              	.LVL9:
 188 0002 7047     		bx	lr
 189              		.cfi_endproc
 190              	.LFE67:
 191              		.size	i2cGetErrors, .-i2cGetErrors
 192 0004 AFF30080 		.section	.text.i2cMasterTransmitTimeout,"ax",%progbits
 192      AFF30080 
 192      AFF30080 
 193              		.align	2
 194              		.p2align 4,,15
 195              		.global	i2cMasterTransmitTimeout
 196              		.thumb
 197              		.thumb_func
 198              		.type	i2cMasterTransmitTimeout, %function
 199              	i2cMasterTransmitTimeout:
 200              	.LFB68:
 201              		.loc 1 191 0
 202              		.cfi_startproc
 203              		@ args = 12, pretend = 0, frame = 0
 204              		@ frame_needed = 0, uses_anonymous_args = 0
 205              	.LVL10:
 206 0000 F0B5     		push	{r4, r5, r6, r7, lr}
 207              		.cfi_def_cfa_offset 20
 208              		.cfi_offset 4, -20
 209              		.cfi_offset 5, -16
 210              		.cfi_offset 6, -12
 211              		.cfi_offset 7, -8
 212              		.cfi_offset 14, -4
 213 0002 85B0     		sub	sp, sp, #20
 214              		.cfi_def_cfa_offset 40
 215              		.loc 1 191 0
 216 0004 1F46     		mov	r7, r3
 217 0006 0446     		mov	r4, r0
 218 0008 0A9E     		ldr	r6, [sp, #40]
 219 000a 0B9D     		ldr	r5, [sp, #44]
 220              	.LBB8:
 221              		.loc 1 203 0
 222 000c 2023     		movs	r3, #32
 223              	.LVL11:
ARM GAS  /tmp/ccRkmKFm.s 			page 5


 224              	@ 203 "../../../../ChibiOS_2.6.2/os/hal/src/i2c.c" 1
 225 000e 83F31188 		msr     BASEPRI, r3
 226              	@ 0 "" 2
 227              		.thumb
 228              	.LBE8:
 229              		.loc 1 206 0
 230 0012 0C9B     		ldr	r3, [sp, #48]
 231              		.loc 1 205 0
 232 0014 4FF0030E 		mov	lr, #3
 233              		.loc 1 204 0
 234 0018 0020     		movs	r0, #0
 235              	.LVL12:
 236              		.loc 1 206 0
 237 001a 0293     		str	r3, [sp, #8]
 238 001c 0096     		str	r6, [sp]
 239 001e 0195     		str	r5, [sp, #4]
 240 0020 3B46     		mov	r3, r7
 241              		.loc 1 204 0
 242 0022 A060     		str	r0, [r4, #8]
 243              		.loc 1 205 0
 244 0024 84F800E0 		strb	lr, [r4]
 245              		.loc 1 206 0
 246 0028 2046     		mov	r0, r4
 247 002a FFF7FEFF 		bl	i2c_lld_master_transmit_timeout
 248              	.LVL13:
 249              		.loc 1 208 0
 250 002e 431C     		adds	r3, r0, #1
 251              		.loc 1 209 0
 252 0030 0CBF     		ite	eq
 253 0032 0523     		moveq	r3, #5
 254              		.loc 1 211 0
 255 0034 0223     		movne	r3, #2
 256 0036 2370     		strb	r3, [r4]
 257              	.LBB9:
 258              		.loc 1 212 0
 259 0038 0023     		movs	r3, #0
 260              	@ 212 "../../../../ChibiOS_2.6.2/os/hal/src/i2c.c" 1
 261 003a 83F31188 		msr     BASEPRI, r3
 262              	@ 0 "" 2
 263              		.thumb
 264              	.LBE9:
 265              		.loc 1 214 0
 266 003e 05B0     		add	sp, sp, #20
 267              		@ sp needed
 268 0040 F0BD     		pop	{r4, r5, r6, r7, pc}
 269              		.cfi_endproc
 270              	.LFE68:
 271              		.size	i2cMasterTransmitTimeout, .-i2cMasterTransmitTimeout
 272 0042 00BFAFF3 		.section	.text.i2cMasterReceiveTimeout,"ax",%progbits
 272      0080AFF3 
 272      0080AFF3 
 272      0080
 273              		.align	2
 274              		.p2align 4,,15
 275              		.global	i2cMasterReceiveTimeout
 276              		.thumb
 277              		.thumb_func
ARM GAS  /tmp/ccRkmKFm.s 			page 6


 278              		.type	i2cMasterReceiveTimeout, %function
 279              	i2cMasterReceiveTimeout:
 280              	.LFB69:
 281              		.loc 1 240 0
 282              		.cfi_startproc
 283              		@ args = 4, pretend = 0, frame = 0
 284              		@ frame_needed = 0, uses_anonymous_args = 0
 285              	.LVL14:
 286 0000 F0B5     		push	{r4, r5, r6, r7, lr}
 287              		.cfi_def_cfa_offset 20
 288              		.cfi_offset 4, -20
 289              		.cfi_offset 5, -16
 290              		.cfi_offset 6, -12
 291              		.cfi_offset 7, -8
 292              		.cfi_offset 14, -4
 293 0002 83B0     		sub	sp, sp, #12
 294              		.cfi_def_cfa_offset 32
 295              		.loc 1 240 0
 296 0004 1D46     		mov	r5, r3
 297 0006 0446     		mov	r4, r0
 298              	.LBB10:
 299              		.loc 1 252 0
 300 0008 2023     		movs	r3, #32
 301              	.LVL15:
 302              	.LBE10:
 303              		.loc 1 240 0
 304 000a 0898     		ldr	r0, [sp, #32]
 305              	.LVL16:
 306              	.LBB11:
 307              		.loc 1 252 0
 308              	@ 252 "../../../../ChibiOS_2.6.2/os/hal/src/i2c.c" 1
 309 000c 83F31188 		msr     BASEPRI, r3
 310              	@ 0 "" 2
 311              		.thumb
 312              	.LBE11:
 313              		.loc 1 253 0
 314 0010 0027     		movs	r7, #0
 315              		.loc 1 254 0
 316 0012 0426     		movs	r6, #4
 317              		.loc 1 255 0
 318 0014 2B46     		mov	r3, r5
 319 0016 0090     		str	r0, [sp]
 320              		.loc 1 253 0
 321 0018 A760     		str	r7, [r4, #8]
 322              		.loc 1 254 0
 323 001a 2670     		strb	r6, [r4]
 324              		.loc 1 255 0
 325 001c 2046     		mov	r0, r4
 326 001e FFF7FEFF 		bl	i2c_lld_master_receive_timeout
 327              	.LVL17:
 328              		.loc 1 256 0
 329 0022 421C     		adds	r2, r0, #1
 330              		.loc 1 257 0
 331 0024 0CBF     		ite	eq
 332 0026 0523     		moveq	r3, #5
 333              		.loc 1 259 0
 334 0028 0223     		movne	r3, #2
ARM GAS  /tmp/ccRkmKFm.s 			page 7


 335 002a 2370     		strb	r3, [r4]
 336              	.LBB12:
 337              		.loc 1 260 0
 338 002c 0023     		movs	r3, #0
 339              	@ 260 "../../../../ChibiOS_2.6.2/os/hal/src/i2c.c" 1
 340 002e 83F31188 		msr     BASEPRI, r3
 341              	@ 0 "" 2
 342              		.thumb
 343              	.LBE12:
 344              		.loc 1 262 0
 345 0032 03B0     		add	sp, sp, #12
 346              		@ sp needed
 347 0034 F0BD     		pop	{r4, r5, r6, r7, pc}
 348              		.cfi_endproc
 349              	.LFE69:
 350              		.size	i2cMasterReceiveTimeout, .-i2cMasterReceiveTimeout
 351 0036 00BFAFF3 		.section	.text.i2cAcquireBus,"ax",%progbits
 351      0080AFF3 
 351      0080
 352              		.align	2
 353              		.p2align 4,,15
 354              		.global	i2cAcquireBus
 355              		.thumb
 356              		.thumb_func
 357              		.type	i2cAcquireBus, %function
 358              	i2cAcquireBus:
 359              	.LFB70:
 360              		.loc 1 276 0
 361              		.cfi_startproc
 362              		@ args = 0, pretend = 0, frame = 0
 363              		@ frame_needed = 0, uses_anonymous_args = 0
 364              		@ link register save eliminated.
 365              	.LVL18:
 366              		.loc 1 281 0
 367 0000 0C30     		adds	r0, r0, #12
 368              	.LVL19:
 369 0002 FFF7FEBF 		b	chMtxLock
 370              	.LVL20:
 371              		.cfi_endproc
 372              	.LFE70:
 373              		.size	i2cAcquireBus, .-i2cAcquireBus
 374 0006 00BFAFF3 		.section	.text.i2cReleaseBus,"ax",%progbits
 374      0080AFF3 
 374      0080
 375              		.align	2
 376              		.p2align 4,,15
 377              		.global	i2cReleaseBus
 378              		.thumb
 379              		.thumb_func
 380              		.type	i2cReleaseBus, %function
 381              	i2cReleaseBus:
 382              	.LFB71:
 383              		.loc 1 296 0
 384              		.cfi_startproc
 385              		@ args = 0, pretend = 0, frame = 0
 386              		@ frame_needed = 0, uses_anonymous_args = 0
 387              		@ link register save eliminated.
ARM GAS  /tmp/ccRkmKFm.s 			page 8


 388              	.LVL21:
 389              		.loc 1 301 0
 390 0000 FFF7FEBF 		b	chMtxUnlock
 391              	.LVL22:
 392              		.cfi_endproc
 393              	.LFE71:
 394              		.size	i2cReleaseBus, .-i2cReleaseBus
 395 0004 AFF30080 		.text
 395      AFF30080 
 395      AFF30080 
 396              	.Letext0:
 397              		.file 2 "/usr/lib/gcc/arm-none-eabi/4.8.2/include/stddef.h"
 398              		.file 3 "/usr/include/newlib/machine/_default_types.h"
 399              		.file 4 "/usr/include/newlib/stdint.h"
 400              		.file 5 "../../../../ChibiOS_2.6.2/os/ports/GCC/ARMCMx/chtypes.h"
 401              		.file 6 "../../../../ChibiOS_2.6.2/os/kernel/include/chlists.h"
 402              		.file 7 "../../../../ChibiOS_2.6.2/os/kernel/include/chthreads.h"
 403              		.file 8 "../../../../ChibiOS_2.6.2/os/ports/GCC/ARMCMx/chcore_v7m.h"
 404              		.file 9 "../../../../ChibiOS_2.6.2/os/kernel/include/chmtx.h"
 405              		.file 10 "../../../../ChibiOS_2.6.2/os/hal/platforms/STM32F1xx/stm32f10x.h"
 406              		.file 11 "../../../../ChibiOS_2.6.2/os/hal/platforms/STM32F1xx/stm32_dma.h"
 407              		.file 12 "../../../../ChibiOS_2.6.2/os/hal/include/i2c.h"
 408              		.file 13 "../../../../ChibiOS_2.6.2/os/hal/platforms/STM32/I2Cv1/i2c_lld.h"
 409              		.file 14 "../../../../ChibiOS_2.6.2/os/ports/common/ARMCMx/CMSIS/include/core_cm3.h"
 410              		.section	.debug_info,"",%progbits
 411              	.Ldebug_info0:
 412 0000 610B0000 		.4byte	0xb61
 413 0004 0400     		.2byte	0x4
 414 0006 00000000 		.4byte	.Ldebug_abbrev0
 415 000a 04       		.byte	0x4
 416 000b 01       		.uleb128 0x1
 417 000c 8F020000 		.4byte	.LASF138
 418 0010 01       		.byte	0x1
 419 0011 63030000 		.4byte	.LASF139
 420 0015 3A020000 		.4byte	.LASF140
 421 0019 48000000 		.4byte	.Ldebug_ranges0+0x48
 422 001d 00000000 		.4byte	0
 423 0021 00000000 		.4byte	.Ldebug_line0
 424 0025 02       		.uleb128 0x2
 425 0026 04       		.byte	0x4
 426 0027 05       		.byte	0x5
 427 0028 696E7400 		.ascii	"int\000"
 428 002c 03       		.uleb128 0x3
 429 002d 2F000000 		.4byte	.LASF2
 430 0031 02       		.byte	0x2
 431 0032 D4       		.byte	0xd4
 432 0033 37000000 		.4byte	0x37
 433 0037 04       		.uleb128 0x4
 434 0038 04       		.byte	0x4
 435 0039 07       		.byte	0x7
 436 003a F4010000 		.4byte	.LASF0
 437 003e 04       		.uleb128 0x4
 438 003f 01       		.byte	0x1
 439 0040 06       		.byte	0x6
 440 0041 FC000000 		.4byte	.LASF1
 441 0045 03       		.uleb128 0x3
 442 0046 3D000000 		.4byte	.LASF3
ARM GAS  /tmp/ccRkmKFm.s 			page 9


 443 004a 03       		.byte	0x3
 444 004b 1C       		.byte	0x1c
 445 004c 50000000 		.4byte	0x50
 446 0050 04       		.uleb128 0x4
 447 0051 01       		.byte	0x1
 448 0052 08       		.byte	0x8
 449 0053 EA040000 		.4byte	.LASF4
 450 0057 04       		.uleb128 0x4
 451 0058 02       		.byte	0x2
 452 0059 05       		.byte	0x5
 453 005a B7030000 		.4byte	.LASF5
 454 005e 03       		.uleb128 0x3
 455 005f C9050000 		.4byte	.LASF6
 456 0063 03       		.byte	0x3
 457 0064 26       		.byte	0x26
 458 0065 69000000 		.4byte	0x69
 459 0069 04       		.uleb128 0x4
 460 006a 02       		.byte	0x2
 461 006b 07       		.byte	0x7
 462 006c 40030000 		.4byte	.LASF7
 463 0070 03       		.uleb128 0x3
 464 0071 F0050000 		.4byte	.LASF8
 465 0075 03       		.byte	0x3
 466 0076 37       		.byte	0x37
 467 0077 7B000000 		.4byte	0x7b
 468 007b 04       		.uleb128 0x4
 469 007c 04       		.byte	0x4
 470 007d 05       		.byte	0x5
 471 007e 5E010000 		.4byte	.LASF9
 472 0082 03       		.uleb128 0x3
 473 0083 C7010000 		.4byte	.LASF10
 474 0087 03       		.byte	0x3
 475 0088 38       		.byte	0x38
 476 0089 8D000000 		.4byte	0x8d
 477 008d 04       		.uleb128 0x4
 478 008e 04       		.byte	0x4
 479 008f 07       		.byte	0x7
 480 0090 AB050000 		.4byte	.LASF11
 481 0094 04       		.uleb128 0x4
 482 0095 08       		.byte	0x8
 483 0096 05       		.byte	0x5
 484 0097 7E010000 		.4byte	.LASF12
 485 009b 04       		.uleb128 0x4
 486 009c 08       		.byte	0x8
 487 009d 07       		.byte	0x7
 488 009e 7B000000 		.4byte	.LASF13
 489 00a2 03       		.uleb128 0x3
 490 00a3 43060000 		.4byte	.LASF14
 491 00a7 04       		.byte	0x4
 492 00a8 2A       		.byte	0x2a
 493 00a9 45000000 		.4byte	0x45
 494 00ad 03       		.uleb128 0x3
 495 00ae 96030000 		.4byte	.LASF15
 496 00b2 04       		.byte	0x4
 497 00b3 36       		.byte	0x36
 498 00b4 5E000000 		.4byte	0x5e
 499 00b8 03       		.uleb128 0x3
ARM GAS  /tmp/ccRkmKFm.s 			page 10


 500 00b9 E2040000 		.4byte	.LASF16
 501 00bd 04       		.byte	0x4
 502 00be 41       		.byte	0x41
 503 00bf 70000000 		.4byte	0x70
 504 00c3 03       		.uleb128 0x3
 505 00c4 94050000 		.4byte	.LASF17
 506 00c8 04       		.byte	0x4
 507 00c9 42       		.byte	0x42
 508 00ca 82000000 		.4byte	0x82
 509 00ce 04       		.uleb128 0x4
 510 00cf 01       		.byte	0x1
 511 00d0 02       		.byte	0x2
 512 00d1 DC040000 		.4byte	.LASF18
 513 00d5 03       		.uleb128 0x3
 514 00d6 8E030000 		.4byte	.LASF19
 515 00da 05       		.byte	0x5
 516 00db 2C       		.byte	0x2c
 517 00dc A2000000 		.4byte	0xa2
 518 00e0 03       		.uleb128 0x3
 519 00e1 67010000 		.4byte	.LASF20
 520 00e5 05       		.byte	0x5
 521 00e6 2D       		.byte	0x2d
 522 00e7 A2000000 		.4byte	0xa2
 523 00eb 03       		.uleb128 0x3
 524 00ec 56040000 		.4byte	.LASF21
 525 00f0 05       		.byte	0x5
 526 00f1 2E       		.byte	0x2e
 527 00f2 A2000000 		.4byte	0xa2
 528 00f6 03       		.uleb128 0x3
 529 00f7 44010000 		.4byte	.LASF22
 530 00fb 05       		.byte	0x5
 531 00fc 2F       		.byte	0x2f
 532 00fd A2000000 		.4byte	0xa2
 533 0101 03       		.uleb128 0x3
 534 0102 B5040000 		.4byte	.LASF23
 535 0106 05       		.byte	0x5
 536 0107 30       		.byte	0x30
 537 0108 C3000000 		.4byte	0xc3
 538 010c 03       		.uleb128 0x3
 539 010d 5D030000 		.4byte	.LASF24
 540 0111 05       		.byte	0x5
 541 0112 31       		.byte	0x31
 542 0113 B8000000 		.4byte	0xb8
 543 0117 03       		.uleb128 0x3
 544 0118 AB030000 		.4byte	.LASF25
 545 011c 05       		.byte	0x5
 546 011d 33       		.byte	0x33
 547 011e C3000000 		.4byte	0xc3
 548 0122 03       		.uleb128 0x3
 549 0123 DB050000 		.4byte	.LASF26
 550 0127 05       		.byte	0x5
 551 0128 35       		.byte	0x35
 552 0129 C3000000 		.4byte	0xc3
 553 012d 03       		.uleb128 0x3
 554 012e ED010000 		.4byte	.LASF27
 555 0132 06       		.byte	0x6
 556 0133 2A       		.byte	0x2a
ARM GAS  /tmp/ccRkmKFm.s 			page 11


 557 0134 38010000 		.4byte	0x138
 558 0138 05       		.uleb128 0x5
 559 0139 ED010000 		.4byte	.LASF27
 560 013d 48       		.byte	0x48
 561 013e 07       		.byte	0x7
 562 013f 5E       		.byte	0x5e
 563 0140 35020000 		.4byte	0x235
 564 0144 06       		.uleb128 0x6
 565 0145 46050000 		.4byte	.LASF28
 566 0149 07       		.byte	0x7
 567 014a 5F       		.byte	0x5f
 568 014b 56020000 		.4byte	0x256
 569 014f 00       		.byte	0
 570 0150 06       		.uleb128 0x6
 571 0151 90040000 		.4byte	.LASF29
 572 0155 07       		.byte	0x7
 573 0156 61       		.byte	0x61
 574 0157 56020000 		.4byte	0x256
 575 015b 04       		.byte	0x4
 576 015c 06       		.uleb128 0x6
 577 015d D0000000 		.4byte	.LASF30
 578 0161 07       		.byte	0x7
 579 0162 63       		.byte	0x63
 580 0163 01010000 		.4byte	0x101
 581 0167 08       		.byte	0x8
 582 0168 06       		.uleb128 0x6
 583 0169 B7060000 		.4byte	.LASF31
 584 016d 07       		.byte	0x7
 585 016e 64       		.byte	0x64
 586 016f 10030000 		.4byte	0x310
 587 0173 0C       		.byte	0xc
 588 0174 06       		.uleb128 0x6
 589 0175 9D010000 		.4byte	.LASF32
 590 0179 07       		.byte	0x7
 591 017a 66       		.byte	0x66
 592 017b 56020000 		.4byte	0x256
 593 017f 10       		.byte	0x10
 594 0180 06       		.uleb128 0x6
 595 0181 07040000 		.4byte	.LASF33
 596 0185 07       		.byte	0x7
 597 0186 67       		.byte	0x67
 598 0187 56020000 		.4byte	0x256
 599 018b 14       		.byte	0x14
 600 018c 06       		.uleb128 0x6
 601 018d 74060000 		.4byte	.LASF34
 602 0191 07       		.byte	0x7
 603 0192 6E       		.byte	0x6e
 604 0193 B9030000 		.4byte	0x3b9
 605 0197 18       		.byte	0x18
 606 0198 06       		.uleb128 0x6
 607 0199 20050000 		.4byte	.LASF35
 608 019d 07       		.byte	0x7
 609 019e 79       		.byte	0x79
 610 019f E0000000 		.4byte	0xe0
 611 01a3 1C       		.byte	0x1c
 612 01a4 06       		.uleb128 0x6
 613 01a5 4D050000 		.4byte	.LASF36
ARM GAS  /tmp/ccRkmKFm.s 			page 12


 614 01a9 07       		.byte	0x7
 615 01aa 7D       		.byte	0x7d
 616 01ab D5000000 		.4byte	0xd5
 617 01af 1D       		.byte	0x1d
 618 01b0 06       		.uleb128 0x6
 619 01b1 77010000 		.4byte	.LASF37
 620 01b5 07       		.byte	0x7
 621 01b6 82       		.byte	0x82
 622 01b7 EB000000 		.4byte	0xeb
 623 01bb 1E       		.byte	0x1e
 624 01bc 06       		.uleb128 0x6
 625 01bd 28050000 		.4byte	.LASF38
 626 01c1 07       		.byte	0x7
 627 01c2 88       		.byte	0x88
 628 01c3 F6000000 		.4byte	0xf6
 629 01c7 1F       		.byte	0x1f
 630 01c8 06       		.uleb128 0x6
 631 01c9 96010000 		.4byte	.LASF39
 632 01cd 07       		.byte	0x7
 633 01ce 8F       		.byte	0x8f
 634 01cf 3D030000 		.4byte	0x33d
 635 01d3 20       		.byte	0x20
 636 01d4 07       		.uleb128 0x7
 637 01d5 705F7500 		.ascii	"p_u\000"
 638 01d9 07       		.byte	0x7
 639 01da B4       		.byte	0xb4
 640 01db 84030000 		.4byte	0x384
 641 01df 24       		.byte	0x24
 642 01e0 06       		.uleb128 0x6
 643 01e1 BD060000 		.4byte	.LASF40
 644 01e5 07       		.byte	0x7
 645 01e6 B9       		.byte	0xb9
 646 01e7 7C020000 		.4byte	0x27c
 647 01eb 28       		.byte	0x28
 648 01ec 06       		.uleb128 0x6
 649 01ed 0C020000 		.4byte	.LASF41
 650 01f1 07       		.byte	0x7
 651 01f2 BF       		.byte	0xbf
 652 01f3 5C020000 		.4byte	0x25c
 653 01f7 2C       		.byte	0x2c
 654 01f8 06       		.uleb128 0x6
 655 01f9 83060000 		.4byte	.LASF42
 656 01fd 07       		.byte	0x7
 657 01fe C3       		.byte	0xc3
 658 01ff 0C010000 		.4byte	0x10c
 659 0203 34       		.byte	0x34
 660 0204 06       		.uleb128 0x6
 661 0205 7A050000 		.4byte	.LASF43
 662 0209 07       		.byte	0x7
 663 020a C9       		.byte	0xc9
 664 020b 17010000 		.4byte	0x117
 665 020f 38       		.byte	0x38
 666 0210 06       		.uleb128 0x6
 667 0211 0B050000 		.4byte	.LASF44
 668 0215 07       		.byte	0x7
 669 0216 D0       		.byte	0xd0
 670 0217 CB030000 		.4byte	0x3cb
ARM GAS  /tmp/ccRkmKFm.s 			page 13


 671 021b 3C       		.byte	0x3c
 672 021c 06       		.uleb128 0x6
 673 021d E5050000 		.4byte	.LASF45
 674 0221 07       		.byte	0x7
 675 0222 D4       		.byte	0xd4
 676 0223 01010000 		.4byte	0x101
 677 0227 40       		.byte	0x40
 678 0228 06       		.uleb128 0x6
 679 0229 14010000 		.4byte	.LASF46
 680 022d 07       		.byte	0x7
 681 022e DA       		.byte	0xda
 682 022f 92020000 		.4byte	0x292
 683 0233 44       		.byte	0x44
 684 0234 00       		.byte	0
 685 0235 08       		.uleb128 0x8
 686 0236 08       		.byte	0x8
 687 0237 06       		.byte	0x6
 688 0238 61       		.byte	0x61
 689 0239 56020000 		.4byte	0x256
 690 023d 06       		.uleb128 0x6
 691 023e 46050000 		.4byte	.LASF28
 692 0242 06       		.byte	0x6
 693 0243 62       		.byte	0x62
 694 0244 56020000 		.4byte	0x256
 695 0248 00       		.byte	0
 696 0249 06       		.uleb128 0x6
 697 024a 90040000 		.4byte	.LASF29
 698 024e 06       		.byte	0x6
 699 024f 64       		.byte	0x64
 700 0250 56020000 		.4byte	0x256
 701 0254 04       		.byte	0x4
 702 0255 00       		.byte	0
 703 0256 09       		.uleb128 0x9
 704 0257 04       		.byte	0x4
 705 0258 2D010000 		.4byte	0x12d
 706 025c 03       		.uleb128 0x3
 707 025d 1F040000 		.4byte	.LASF47
 708 0261 06       		.byte	0x6
 709 0262 66       		.byte	0x66
 710 0263 35020000 		.4byte	0x235
 711 0267 08       		.uleb128 0x8
 712 0268 04       		.byte	0x4
 713 0269 06       		.byte	0x6
 714 026a 6B       		.byte	0x6b
 715 026b 7C020000 		.4byte	0x27c
 716 026f 06       		.uleb128 0x6
 717 0270 46050000 		.4byte	.LASF28
 718 0274 06       		.byte	0x6
 719 0275 6D       		.byte	0x6d
 720 0276 56020000 		.4byte	0x256
 721 027a 00       		.byte	0
 722 027b 00       		.byte	0
 723 027c 03       		.uleb128 0x3
 724 027d 9F030000 		.4byte	.LASF48
 725 0281 06       		.byte	0x6
 726 0282 70       		.byte	0x70
 727 0283 67020000 		.4byte	0x267
ARM GAS  /tmp/ccRkmKFm.s 			page 14


 728 0287 03       		.uleb128 0x3
 729 0288 D2010000 		.4byte	.LASF49
 730 028c 08       		.byte	0x8
 731 028d E5       		.byte	0xe5
 732 028e 92020000 		.4byte	0x292
 733 0292 0A       		.uleb128 0xa
 734 0293 04       		.byte	0x4
 735 0294 0B       		.uleb128 0xb
 736 0295 0C060000 		.4byte	.LASF50
 737 0299 24       		.byte	0x24
 738 029a 08       		.byte	0x8
 739 029b 0C01     		.2byte	0x10c
 740 029d 10030000 		.4byte	0x310
 741 02a1 0C       		.uleb128 0xc
 742 02a2 723400   		.ascii	"r4\000"
 743 02a5 08       		.byte	0x8
 744 02a6 1F01     		.2byte	0x11f
 745 02a8 87020000 		.4byte	0x287
 746 02ac 00       		.byte	0
 747 02ad 0C       		.uleb128 0xc
 748 02ae 723500   		.ascii	"r5\000"
 749 02b1 08       		.byte	0x8
 750 02b2 2001     		.2byte	0x120
 751 02b4 87020000 		.4byte	0x287
 752 02b8 04       		.byte	0x4
 753 02b9 0C       		.uleb128 0xc
 754 02ba 723600   		.ascii	"r6\000"
 755 02bd 08       		.byte	0x8
 756 02be 2101     		.2byte	0x121
 757 02c0 87020000 		.4byte	0x287
 758 02c4 08       		.byte	0x8
 759 02c5 0C       		.uleb128 0xc
 760 02c6 723700   		.ascii	"r7\000"
 761 02c9 08       		.byte	0x8
 762 02ca 2201     		.2byte	0x122
 763 02cc 87020000 		.4byte	0x287
 764 02d0 0C       		.byte	0xc
 765 02d1 0C       		.uleb128 0xc
 766 02d2 723800   		.ascii	"r8\000"
 767 02d5 08       		.byte	0x8
 768 02d6 2301     		.2byte	0x123
 769 02d8 87020000 		.4byte	0x287
 770 02dc 10       		.byte	0x10
 771 02dd 0C       		.uleb128 0xc
 772 02de 723900   		.ascii	"r9\000"
 773 02e1 08       		.byte	0x8
 774 02e2 2401     		.2byte	0x124
 775 02e4 87020000 		.4byte	0x287
 776 02e8 14       		.byte	0x14
 777 02e9 0C       		.uleb128 0xc
 778 02ea 72313000 		.ascii	"r10\000"
 779 02ee 08       		.byte	0x8
 780 02ef 2501     		.2byte	0x125
 781 02f1 87020000 		.4byte	0x287
 782 02f5 18       		.byte	0x18
 783 02f6 0C       		.uleb128 0xc
 784 02f7 72313100 		.ascii	"r11\000"
ARM GAS  /tmp/ccRkmKFm.s 			page 15


 785 02fb 08       		.byte	0x8
 786 02fc 2601     		.2byte	0x126
 787 02fe 87020000 		.4byte	0x287
 788 0302 1C       		.byte	0x1c
 789 0303 0C       		.uleb128 0xc
 790 0304 6C7200   		.ascii	"lr\000"
 791 0307 08       		.byte	0x8
 792 0308 2701     		.2byte	0x127
 793 030a 87020000 		.4byte	0x287
 794 030e 20       		.byte	0x20
 795 030f 00       		.byte	0
 796 0310 0B       		.uleb128 0xb
 797 0311 04060000 		.4byte	.LASF51
 798 0315 04       		.byte	0x4
 799 0316 08       		.byte	0x8
 800 0317 3101     		.2byte	0x131
 801 0319 2B030000 		.4byte	0x32b
 802 031d 0C       		.uleb128 0xc
 803 031e 72313300 		.ascii	"r13\000"
 804 0322 08       		.byte	0x8
 805 0323 3201     		.2byte	0x132
 806 0325 2B030000 		.4byte	0x32b
 807 0329 00       		.byte	0
 808 032a 00       		.byte	0
 809 032b 09       		.uleb128 0x9
 810 032c 04       		.byte	0x4
 811 032d 94020000 		.4byte	0x294
 812 0331 0D       		.uleb128 0xd
 813 0332 C3000000 		.4byte	0xc3
 814 0336 04       		.uleb128 0x4
 815 0337 04       		.byte	0x4
 816 0338 07       		.byte	0x7
 817 0339 DC030000 		.4byte	.LASF52
 818 033d 0D       		.uleb128 0xd
 819 033e 22010000 		.4byte	0x122
 820 0342 05       		.uleb128 0x5
 821 0343 E5030000 		.4byte	.LASF53
 822 0347 10       		.byte	0x10
 823 0348 09       		.byte	0x9
 824 0349 2C       		.byte	0x2c
 825 034a 73030000 		.4byte	0x373
 826 034e 06       		.uleb128 0x6
 827 034f 1C010000 		.4byte	.LASF54
 828 0353 09       		.byte	0x9
 829 0354 2D       		.byte	0x2d
 830 0355 5C020000 		.4byte	0x25c
 831 0359 00       		.byte	0
 832 035a 06       		.uleb128 0x6
 833 035b AF060000 		.4byte	.LASF55
 834 035f 09       		.byte	0x9
 835 0360 2F       		.byte	0x2f
 836 0361 56020000 		.4byte	0x256
 837 0365 08       		.byte	0x8
 838 0366 06       		.uleb128 0x6
 839 0367 D4050000 		.4byte	.LASF56
 840 036b 09       		.byte	0x9
 841 036c 31       		.byte	0x31
ARM GAS  /tmp/ccRkmKFm.s 			page 16


 842 036d 73030000 		.4byte	0x373
 843 0371 0C       		.byte	0xc
 844 0372 00       		.byte	0
 845 0373 09       		.uleb128 0x9
 846 0374 04       		.byte	0x4
 847 0375 42030000 		.4byte	0x342
 848 0379 03       		.uleb128 0x3
 849 037a E5030000 		.4byte	.LASF53
 850 037e 09       		.byte	0x9
 851 037f 33       		.byte	0x33
 852 0380 42030000 		.4byte	0x342
 853 0384 0E       		.uleb128 0xe
 854 0385 04       		.byte	0x4
 855 0386 07       		.byte	0x7
 856 0387 96       		.byte	0x96
 857 0388 B9030000 		.4byte	0x3b9
 858 038c 0F       		.uleb128 0xf
 859 038d 36000000 		.4byte	.LASF57
 860 0391 07       		.byte	0x7
 861 0392 9D       		.byte	0x9d
 862 0393 0C010000 		.4byte	0x10c
 863 0397 0F       		.uleb128 0xf
 864 0398 A0000000 		.4byte	.LASF58
 865 039c 07       		.byte	0x7
 866 039d A4       		.byte	0xa4
 867 039e 0C010000 		.4byte	0x10c
 868 03a2 0F       		.uleb128 0xf
 869 03a3 6D060000 		.4byte	.LASF59
 870 03a7 07       		.byte	0x7
 871 03a8 AB       		.byte	0xab
 872 03a9 92020000 		.4byte	0x292
 873 03ad 0F       		.uleb128 0xf
 874 03ae 3F050000 		.4byte	.LASF60
 875 03b2 07       		.byte	0x7
 876 03b3 B2       		.byte	0xb2
 877 03b4 17010000 		.4byte	0x117
 878 03b8 00       		.byte	0
 879 03b9 09       		.uleb128 0x9
 880 03ba 04       		.byte	0x4
 881 03bb BF030000 		.4byte	0x3bf
 882 03bf 10       		.uleb128 0x10
 883 03c0 C4030000 		.4byte	0x3c4
 884 03c4 04       		.uleb128 0x4
 885 03c5 01       		.byte	0x1
 886 03c6 08       		.byte	0x8
 887 03c7 BD050000 		.4byte	.LASF61
 888 03cb 09       		.uleb128 0x9
 889 03cc 04       		.byte	0x4
 890 03cd 79030000 		.4byte	0x379
 891 03d1 09       		.uleb128 0x9
 892 03d2 04       		.byte	0x4
 893 03d3 A2000000 		.4byte	0xa2
 894 03d7 09       		.uleb128 0x9
 895 03d8 04       		.byte	0x4
 896 03d9 DD030000 		.4byte	0x3dd
 897 03dd 10       		.uleb128 0x10
 898 03de A2000000 		.4byte	0xa2
ARM GAS  /tmp/ccRkmKFm.s 			page 17


 899 03e2 0D       		.uleb128 0xd
 900 03e3 AD000000 		.4byte	0xad
 901 03e7 0D       		.uleb128 0xd
 902 03e8 B8000000 		.4byte	0xb8
 903 03ec 11       		.uleb128 0x11
 904 03ed 10       		.byte	0x10
 905 03ee 0A       		.byte	0xa
 906 03ef 2D03     		.2byte	0x32d
 907 03f1 2A040000 		.4byte	0x42a
 908 03f5 0C       		.uleb128 0xc
 909 03f6 43435200 		.ascii	"CCR\000"
 910 03fa 0A       		.byte	0xa
 911 03fb 2F03     		.2byte	0x32f
 912 03fd 31030000 		.4byte	0x331
 913 0401 00       		.byte	0
 914 0402 12       		.uleb128 0x12
 915 0403 38060000 		.4byte	.LASF62
 916 0407 0A       		.byte	0xa
 917 0408 3003     		.2byte	0x330
 918 040a 31030000 		.4byte	0x331
 919 040e 04       		.byte	0x4
 920 040f 12       		.uleb128 0x12
 921 0410 07020000 		.4byte	.LASF63
 922 0414 0A       		.byte	0xa
 923 0415 3103     		.2byte	0x331
 924 0417 31030000 		.4byte	0x331
 925 041b 08       		.byte	0x8
 926 041c 12       		.uleb128 0x12
 927 041d 3E060000 		.4byte	.LASF64
 928 0421 0A       		.byte	0xa
 929 0422 3203     		.2byte	0x332
 930 0424 31030000 		.4byte	0x331
 931 0428 0C       		.byte	0xc
 932 0429 00       		.byte	0
 933 042a 13       		.uleb128 0x13
 934 042b 1F020000 		.4byte	.LASF65
 935 042f 0A       		.byte	0xa
 936 0430 3303     		.2byte	0x333
 937 0432 EC030000 		.4byte	0x3ec
 938 0436 11       		.uleb128 0x11
 939 0437 24       		.byte	0x24
 940 0438 0A       		.byte	0xa
 941 0439 1304     		.2byte	0x413
 942 043b 29050000 		.4byte	0x529
 943 043f 0C       		.uleb128 0xc
 944 0440 43523100 		.ascii	"CR1\000"
 945 0444 0A       		.byte	0xa
 946 0445 1504     		.2byte	0x415
 947 0447 E2030000 		.4byte	0x3e2
 948 044b 00       		.byte	0
 949 044c 12       		.uleb128 0x12
 950 044d 5E040000 		.4byte	.LASF66
 951 0451 0A       		.byte	0xa
 952 0452 1604     		.2byte	0x416
 953 0454 AD000000 		.4byte	0xad
 954 0458 02       		.byte	0x2
 955 0459 0C       		.uleb128 0xc
ARM GAS  /tmp/ccRkmKFm.s 			page 18


 956 045a 43523200 		.ascii	"CR2\000"
 957 045e 0A       		.byte	0xa
 958 045f 1704     		.2byte	0x417
 959 0461 E2030000 		.4byte	0x3e2
 960 0465 04       		.byte	0x4
 961 0466 12       		.uleb128 0x12
 962 0467 68040000 		.4byte	.LASF67
 963 046b 0A       		.byte	0xa
 964 046c 1804     		.2byte	0x418
 965 046e AD000000 		.4byte	0xad
 966 0472 06       		.byte	0x6
 967 0473 12       		.uleb128 0x12
 968 0474 4B060000 		.4byte	.LASF68
 969 0478 0A       		.byte	0xa
 970 0479 1904     		.2byte	0x419
 971 047b E2030000 		.4byte	0x3e2
 972 047f 08       		.byte	0x8
 973 0480 12       		.uleb128 0x12
 974 0481 72040000 		.4byte	.LASF69
 975 0485 0A       		.byte	0xa
 976 0486 1A04     		.2byte	0x41a
 977 0488 AD000000 		.4byte	0xad
 978 048c 0A       		.byte	0xa
 979 048d 12       		.uleb128 0x12
 980 048e 50060000 		.4byte	.LASF70
 981 0492 0A       		.byte	0xa
 982 0493 1B04     		.2byte	0x41b
 983 0495 E2030000 		.4byte	0x3e2
 984 0499 0C       		.byte	0xc
 985 049a 12       		.uleb128 0x12
 986 049b 7C040000 		.4byte	.LASF71
 987 049f 0A       		.byte	0xa
 988 04a0 1C04     		.2byte	0x41c
 989 04a2 AD000000 		.4byte	0xad
 990 04a6 0E       		.byte	0xe
 991 04a7 0C       		.uleb128 0xc
 992 04a8 445200   		.ascii	"DR\000"
 993 04ab 0A       		.byte	0xa
 994 04ac 1D04     		.2byte	0x41d
 995 04ae E2030000 		.4byte	0x3e2
 996 04b2 10       		.byte	0x10
 997 04b3 12       		.uleb128 0x12
 998 04b4 86040000 		.4byte	.LASF72
 999 04b8 0A       		.byte	0xa
 1000 04b9 1E04     		.2byte	0x41e
 1001 04bb AD000000 		.4byte	0xad
 1002 04bf 12       		.byte	0x12
 1003 04c0 0C       		.uleb128 0xc
 1004 04c1 53523100 		.ascii	"SR1\000"
 1005 04c5 0A       		.byte	0xa
 1006 04c6 1F04     		.2byte	0x41f
 1007 04c8 E2030000 		.4byte	0x3e2
 1008 04cc 14       		.byte	0x14
 1009 04cd 12       		.uleb128 0x12
 1010 04ce 8A050000 		.4byte	.LASF73
 1011 04d2 0A       		.byte	0xa
 1012 04d3 2004     		.2byte	0x420
ARM GAS  /tmp/ccRkmKFm.s 			page 19


 1013 04d5 AD000000 		.4byte	0xad
 1014 04d9 16       		.byte	0x16
 1015 04da 0C       		.uleb128 0xc
 1016 04db 53523200 		.ascii	"SR2\000"
 1017 04df 0A       		.byte	0xa
 1018 04e0 2104     		.2byte	0x421
 1019 04e2 E2030000 		.4byte	0x3e2
 1020 04e6 18       		.byte	0x18
 1021 04e7 12       		.uleb128 0x12
 1022 04e8 97040000 		.4byte	.LASF74
 1023 04ec 0A       		.byte	0xa
 1024 04ed 2204     		.2byte	0x422
 1025 04ef AD000000 		.4byte	0xad
 1026 04f3 1A       		.byte	0x1a
 1027 04f4 0C       		.uleb128 0xc
 1028 04f5 43435200 		.ascii	"CCR\000"
 1029 04f9 0A       		.byte	0xa
 1030 04fa 2304     		.2byte	0x423
 1031 04fc E2030000 		.4byte	0x3e2
 1032 0500 1C       		.byte	0x1c
 1033 0501 12       		.uleb128 0x12
 1034 0502 A1040000 		.4byte	.LASF75
 1035 0506 0A       		.byte	0xa
 1036 0507 2404     		.2byte	0x424
 1037 0509 AD000000 		.4byte	0xad
 1038 050d 1E       		.byte	0x1e
 1039 050e 12       		.uleb128 0x12
 1040 050f 6F000000 		.4byte	.LASF76
 1041 0513 0A       		.byte	0xa
 1042 0514 2504     		.2byte	0x425
 1043 0516 E2030000 		.4byte	0x3e2
 1044 051a 20       		.byte	0x20
 1045 051b 12       		.uleb128 0x12
 1046 051c AB040000 		.4byte	.LASF77
 1047 0520 0A       		.byte	0xa
 1048 0521 2604     		.2byte	0x426
 1049 0523 AD000000 		.4byte	0xad
 1050 0527 22       		.byte	0x22
 1051 0528 00       		.byte	0
 1052 0529 13       		.uleb128 0x13
 1053 052a 89060000 		.4byte	.LASF78
 1054 052e 0A       		.byte	0xa
 1055 052f 2704     		.2byte	0x427
 1056 0531 36040000 		.4byte	0x436
 1057 0535 08       		.uleb128 0x8
 1058 0536 0C       		.byte	0xc
 1059 0537 0B       		.byte	0xb
 1060 0538 C1       		.byte	0xc1
 1061 0539 7A050000 		.4byte	0x57a
 1062 053d 06       		.uleb128 0x6
 1063 053e 67050000 		.4byte	.LASF79
 1064 0542 0B       		.byte	0xb
 1065 0543 C2       		.byte	0xc2
 1066 0544 7A050000 		.4byte	0x57a
 1067 0548 00       		.byte	0
 1068 0549 06       		.uleb128 0x6
 1069 054a 85050000 		.4byte	.LASF80
ARM GAS  /tmp/ccRkmKFm.s 			page 20


 1070 054e 0B       		.byte	0xb
 1071 054f C3       		.byte	0xc3
 1072 0550 80050000 		.4byte	0x580
 1073 0554 04       		.byte	0x4
 1074 0555 06       		.uleb128 0x6
 1075 0556 33020000 		.4byte	.LASF81
 1076 055a 0B       		.byte	0xb
 1077 055b C4       		.byte	0xc4
 1078 055c A2000000 		.4byte	0xa2
 1079 0560 08       		.byte	0x8
 1080 0561 06       		.uleb128 0x6
 1081 0562 DB010000 		.4byte	.LASF82
 1082 0566 0B       		.byte	0xb
 1083 0567 C6       		.byte	0xc6
 1084 0568 A2000000 		.4byte	0xa2
 1085 056c 09       		.byte	0x9
 1086 056d 06       		.uleb128 0x6
 1087 056e A9000000 		.4byte	.LASF83
 1088 0572 0B       		.byte	0xb
 1089 0573 C7       		.byte	0xc7
 1090 0574 A2000000 		.4byte	0xa2
 1091 0578 0A       		.byte	0xa
 1092 0579 00       		.byte	0
 1093 057a 09       		.uleb128 0x9
 1094 057b 04       		.byte	0x4
 1095 057c 2A040000 		.4byte	0x42a
 1096 0580 09       		.uleb128 0x9
 1097 0581 04       		.byte	0x4
 1098 0582 31030000 		.4byte	0x331
 1099 0586 03       		.uleb128 0x3
 1100 0587 F8040000 		.4byte	.LASF84
 1101 058b 0B       		.byte	0xb
 1102 058c C8       		.byte	0xc8
 1103 058d 35050000 		.4byte	0x535
 1104 0591 09       		.uleb128 0x9
 1105 0592 04       		.byte	0x4
 1106 0593 97050000 		.4byte	0x597
 1107 0597 10       		.uleb128 0x10
 1108 0598 86050000 		.4byte	0x586
 1109 059c 14       		.uleb128 0x14
 1110 059d 01       		.byte	0x1
 1111 059e 0C       		.byte	0xc
 1112 059f 5A       		.byte	0x5a
 1113 05a0 C9050000 		.4byte	0x5c9
 1114 05a4 15       		.uleb128 0x15
 1115 05a5 15050000 		.4byte	.LASF85
 1116 05a9 00       		.sleb128 0
 1117 05aa 15       		.uleb128 0x15
 1118 05ab 47000000 		.4byte	.LASF86
 1119 05af 01       		.sleb128 1
 1120 05b0 15       		.uleb128 0x15
 1121 05b1 FA050000 		.4byte	.LASF87
 1122 05b5 02       		.sleb128 2
 1123 05b6 15       		.uleb128 0x15
 1124 05b7 BD040000 		.4byte	.LASF88
 1125 05bb 03       		.sleb128 3
 1126 05bc 15       		.uleb128 0x15
ARM GAS  /tmp/ccRkmKFm.s 			page 21


 1127 05bd 9D050000 		.4byte	.LASF89
 1128 05c1 04       		.sleb128 4
 1129 05c2 15       		.uleb128 0x15
 1130 05c3 6F050000 		.4byte	.LASF90
 1131 05c7 05       		.sleb128 5
 1132 05c8 00       		.byte	0
 1133 05c9 03       		.uleb128 0x3
 1134 05ca 24000000 		.4byte	.LASF91
 1135 05ce 0C       		.byte	0xc
 1136 05cf 61       		.byte	0x61
 1137 05d0 9C050000 		.4byte	0x59c
 1138 05d4 13       		.uleb128 0x13
 1139 05d5 4E010000 		.4byte	.LASF92
 1140 05d9 0D       		.byte	0xd
 1141 05da 3501     		.2byte	0x135
 1142 05dc AD000000 		.4byte	0xad
 1143 05e0 13       		.uleb128 0x13
 1144 05e1 CB040000 		.4byte	.LASF93
 1145 05e5 0D       		.byte	0xd
 1146 05e6 3A01     		.2byte	0x13a
 1147 05e8 C3000000 		.4byte	0xc3
 1148 05ec 16       		.uleb128 0x16
 1149 05ed 01       		.byte	0x1
 1150 05ee 0D       		.byte	0xd
 1151 05ef 3F01     		.2byte	0x13f
 1152 05f1 08060000 		.4byte	0x608
 1153 05f5 15       		.uleb128 0x15
 1154 05f6 36040000 		.4byte	.LASF94
 1155 05fa 01       		.sleb128 1
 1156 05fb 15       		.uleb128 0x15
 1157 05fc 2C030000 		.4byte	.LASF95
 1158 0600 02       		.sleb128 2
 1159 0601 15       		.uleb128 0x15
 1160 0602 B5010000 		.4byte	.LASF96
 1161 0606 03       		.sleb128 3
 1162 0607 00       		.byte	0
 1163 0608 13       		.uleb128 0x13
 1164 0609 95060000 		.4byte	.LASF97
 1165 060d 0D       		.byte	0xd
 1166 060e 4301     		.2byte	0x143
 1167 0610 EC050000 		.4byte	0x5ec
 1168 0614 16       		.uleb128 0x16
 1169 0615 01       		.byte	0x1
 1170 0616 0D       		.byte	0xd
 1171 0617 4801     		.2byte	0x148
 1172 0619 30060000 		.4byte	0x630
 1173 061d 15       		.uleb128 0x15
 1174 061e 00000000 		.4byte	.LASF98
 1175 0622 01       		.sleb128 1
 1176 0623 15       		.uleb128 0x15
 1177 0624 55050000 		.4byte	.LASF99
 1178 0628 02       		.sleb128 2
 1179 0629 15       		.uleb128 0x15
 1180 062a 41040000 		.4byte	.LASF100
 1181 062e 03       		.sleb128 3
 1182 062f 00       		.byte	0
 1183 0630 13       		.uleb128 0x13
ARM GAS  /tmp/ccRkmKFm.s 			page 22


 1184 0631 15000000 		.4byte	.LASF101
 1185 0635 0D       		.byte	0xd
 1186 0636 4C01     		.2byte	0x14c
 1187 0638 14060000 		.4byte	0x614
 1188 063c 11       		.uleb128 0x11
 1189 063d 0C       		.byte	0xc
 1190 063e 0D       		.byte	0xd
 1191 063f 5101     		.2byte	0x151
 1192 0641 6D060000 		.4byte	0x66d
 1193 0645 12       		.uleb128 0x12
 1194 0646 E5010000 		.4byte	.LASF102
 1195 064a 0D       		.byte	0xd
 1196 064b 5201     		.2byte	0x152
 1197 064d 08060000 		.4byte	0x608
 1198 0651 00       		.byte	0
 1199 0652 12       		.uleb128 0x12
 1200 0653 08010000 		.4byte	.LASF103
 1201 0657 0D       		.byte	0xd
 1202 0658 5301     		.2byte	0x153
 1203 065a C3000000 		.4byte	0xc3
 1204 065e 04       		.byte	0x4
 1205 065f 12       		.uleb128 0x12
 1206 0660 F2030000 		.4byte	.LASF104
 1207 0664 0D       		.byte	0xd
 1208 0665 5601     		.2byte	0x156
 1209 0667 30060000 		.4byte	0x630
 1210 066b 08       		.byte	0x8
 1211 066c 00       		.byte	0
 1212 066d 13       		.uleb128 0x13
 1213 066e 8C010000 		.4byte	.LASF105
 1214 0672 0D       		.byte	0xd
 1215 0673 5801     		.2byte	0x158
 1216 0675 3C060000 		.4byte	0x63c
 1217 0679 13       		.uleb128 0x13
 1218 067a 53030000 		.4byte	.LASF106
 1219 067e 0D       		.byte	0xd
 1220 067f 5D01     		.2byte	0x15d
 1221 0681 85060000 		.4byte	0x685
 1222 0685 0B       		.uleb128 0xb
 1223 0686 53030000 		.4byte	.LASF106
 1224 068a 38       		.byte	0x38
 1225 068b 0D       		.byte	0xd
 1226 068c 6201     		.2byte	0x162
 1227 068e 22070000 		.4byte	0x722
 1228 0692 12       		.uleb128 0x12
 1229 0693 58010000 		.4byte	.LASF107
 1230 0697 0D       		.byte	0xd
 1231 0698 6601     		.2byte	0x166
 1232 069a C9050000 		.4byte	0x5c9
 1233 069e 00       		.byte	0
 1234 069f 12       		.uleb128 0x12
 1235 06a0 C2050000 		.4byte	.LASF108
 1236 06a4 0D       		.byte	0xd
 1237 06a5 6A01     		.2byte	0x16a
 1238 06a7 22070000 		.4byte	0x722
 1239 06ab 04       		.byte	0x4
 1240 06ac 12       		.uleb128 0x12
ARM GAS  /tmp/ccRkmKFm.s 			page 23


 1241 06ad EB030000 		.4byte	.LASF109
 1242 06b1 0D       		.byte	0xd
 1243 06b2 6E01     		.2byte	0x16e
 1244 06b4 E0050000 		.4byte	0x5e0
 1245 06b8 08       		.byte	0x8
 1246 06b9 12       		.uleb128 0x12
 1247 06ba D6040000 		.4byte	.LASF110
 1248 06be 0D       		.byte	0xd
 1249 06bf 7401     		.2byte	0x174
 1250 06c1 79030000 		.4byte	0x379
 1251 06c5 0C       		.byte	0xc
 1252 06c6 12       		.uleb128 0x12
 1253 06c7 70010000 		.4byte	.LASF111
 1254 06cb 0D       		.byte	0xd
 1255 06cc 8001     		.2byte	0x180
 1256 06ce 56020000 		.4byte	0x256
 1257 06d2 1C       		.byte	0x1c
 1258 06d3 12       		.uleb128 0x12
 1259 06d4 92000000 		.4byte	.LASF112
 1260 06d8 0D       		.byte	0xd
 1261 06d9 8401     		.2byte	0x184
 1262 06db D4050000 		.4byte	0x5d4
 1263 06df 20       		.byte	0x20
 1264 06e0 12       		.uleb128 0x12
 1265 06e1 A5010000 		.4byte	.LASF113
 1266 06e5 0D       		.byte	0xd
 1267 06e6 8801     		.2byte	0x188
 1268 06e8 C3000000 		.4byte	0xc3
 1269 06ec 24       		.byte	0x24
 1270 06ed 12       		.uleb128 0x12
 1271 06ee 2C040000 		.4byte	.LASF114
 1272 06f2 0D       		.byte	0xd
 1273 06f3 8C01     		.2byte	0x18c
 1274 06f5 C3000000 		.4byte	0xc3
 1275 06f9 28       		.byte	0x28
 1276 06fa 12       		.uleb128 0x12
 1277 06fb 0F000000 		.4byte	.LASF115
 1278 06ff 0D       		.byte	0xd
 1279 0700 9001     		.2byte	0x190
 1280 0702 91050000 		.4byte	0x591
 1281 0706 2C       		.byte	0x2c
 1282 0707 12       		.uleb128 0x12
 1283 0708 AF010000 		.4byte	.LASF116
 1284 070c 0D       		.byte	0xd
 1285 070d 9401     		.2byte	0x194
 1286 070f 91050000 		.4byte	0x591
 1287 0713 30       		.byte	0x30
 1288 0714 0C       		.uleb128 0xc
 1289 0715 69326300 		.ascii	"i2c\000"
 1290 0719 0D       		.byte	0xd
 1291 071a 9801     		.2byte	0x198
 1292 071c 2D070000 		.4byte	0x72d
 1293 0720 34       		.byte	0x34
 1294 0721 00       		.byte	0
 1295 0722 09       		.uleb128 0x9
 1296 0723 04       		.byte	0x4
 1297 0724 28070000 		.4byte	0x728
ARM GAS  /tmp/ccRkmKFm.s 			page 24


 1298 0728 10       		.uleb128 0x10
 1299 0729 6D060000 		.4byte	0x66d
 1300 072d 09       		.uleb128 0x9
 1301 072e 04       		.byte	0x4
 1302 072f 29050000 		.4byte	0x529
 1303 0733 17       		.uleb128 0x17
 1304 0734 7B060000 		.4byte	.LASF117
 1305 0738 01       		.byte	0x1
 1306 0739 47       		.byte	0x47
 1307 073a 00000000 		.4byte	.LFB63
 1308 073e 04000000 		.4byte	.LFE63-.LFB63
 1309 0742 01       		.uleb128 0x1
 1310 0743 9C       		.byte	0x9c
 1311 0744 52070000 		.4byte	0x752
 1312 0748 18       		.uleb128 0x18
 1313 0749 04000000 		.4byte	.LVL0
 1314 074d AD0A0000 		.4byte	0xaad
 1315 0751 00       		.byte	0
 1316 0752 17       		.uleb128 0x17
 1317 0753 A1060000 		.4byte	.LASF118
 1318 0757 01       		.byte	0x1
 1319 0758 52       		.byte	0x52
 1320 0759 00000000 		.4byte	.LFB64
 1321 075d 0E000000 		.4byte	.LFE64-.LFB64
 1322 0761 01       		.uleb128 0x1
 1323 0762 9C       		.byte	0x9c
 1324 0763 8A070000 		.4byte	0x78a
 1325 0767 19       		.uleb128 0x19
 1326 0768 CB000000 		.4byte	.LASF120
 1327 076c 01       		.byte	0x1
 1328 076d 52       		.byte	0x52
 1329 076e 8A070000 		.4byte	0x78a
 1330 0772 00000000 		.4byte	.LLST0
 1331 0776 1A       		.uleb128 0x1a
 1332 0777 0E000000 		.4byte	.LVL3
 1333 077b B50A0000 		.4byte	0xab5
 1334 077f 1B       		.uleb128 0x1b
 1335 0780 01       		.uleb128 0x1
 1336 0781 50       		.byte	0x50
 1337 0782 05       		.uleb128 0x5
 1338 0783 F3       		.byte	0xf3
 1339 0784 01       		.uleb128 0x1
 1340 0785 50       		.byte	0x50
 1341 0786 23       		.byte	0x23
 1342 0787 0C       		.uleb128 0xc
 1343 0788 00       		.byte	0
 1344 0789 00       		.byte	0
 1345 078a 09       		.uleb128 0x9
 1346 078b 04       		.byte	0x4
 1347 078c 79060000 		.4byte	0x679
 1348 0790 17       		.uleb128 0x17
 1349 0791 97000000 		.4byte	.LASF119
 1350 0795 01       		.byte	0x1
 1351 0796 6C       		.byte	0x6c
 1352 0797 00000000 		.4byte	.LFB65
 1353 079b 1C000000 		.4byte	.LFE65-.LFB65
 1354 079f 01       		.uleb128 0x1
ARM GAS  /tmp/ccRkmKFm.s 			page 25


 1355 07a0 9C       		.byte	0x9c
 1356 07a1 06080000 		.4byte	0x806
 1357 07a5 19       		.uleb128 0x19
 1358 07a6 CB000000 		.4byte	.LASF120
 1359 07aa 01       		.byte	0x1
 1360 07ab 6C       		.byte	0x6c
 1361 07ac 8A070000 		.4byte	0x78a
 1362 07b0 2E000000 		.4byte	.LLST1
 1363 07b4 19       		.uleb128 0x19
 1364 07b5 C2050000 		.4byte	.LASF108
 1365 07b9 01       		.byte	0x1
 1366 07ba 6C       		.byte	0x6c
 1367 07bb 22070000 		.4byte	0x722
 1368 07bf 4C000000 		.4byte	.LLST2
 1369 07c3 1C       		.uleb128 0x1c
 1370 07c4 00000000 		.4byte	.Ldebug_ranges0+0
 1371 07c8 DA070000 		.4byte	0x7da
 1372 07cc 1D       		.uleb128 0x1d
 1373 07cd 746D7000 		.ascii	"tmp\000"
 1374 07d1 01       		.byte	0x1
 1375 07d2 74       		.byte	0x74
 1376 07d3 C3000000 		.4byte	0xc3
 1377 07d7 01       		.uleb128 0x1
 1378 07d8 53       		.byte	0x53
 1379 07d9 00       		.byte	0
 1380 07da 1E       		.uleb128 0x1e
 1381 07db 14000000 		.4byte	.LBB4
 1382 07df 08000000 		.4byte	.LBE4-.LBB4
 1383 07e3 F5070000 		.4byte	0x7f5
 1384 07e7 1D       		.uleb128 0x1d
 1385 07e8 746D7000 		.ascii	"tmp\000"
 1386 07ec 01       		.byte	0x1
 1387 07ed 78       		.byte	0x78
 1388 07ee C3000000 		.4byte	0xc3
 1389 07f2 01       		.uleb128 0x1
 1390 07f3 53       		.byte	0x53
 1391 07f4 00       		.byte	0
 1392 07f5 1F       		.uleb128 0x1f
 1393 07f6 10000000 		.4byte	.LVL5
 1394 07fa C60A0000 		.4byte	0xac6
 1395 07fe 1B       		.uleb128 0x1b
 1396 07ff 01       		.uleb128 0x1
 1397 0800 50       		.byte	0x50
 1398 0801 02       		.uleb128 0x2
 1399 0802 74       		.byte	0x74
 1400 0803 00       		.sleb128 0
 1401 0804 00       		.byte	0
 1402 0805 00       		.byte	0
 1403 0806 17       		.uleb128 0x17
 1404 0807 17040000 		.4byte	.LASF121
 1405 080b 01       		.byte	0x1
 1406 080c 82       		.byte	0x82
 1407 080d 00000000 		.4byte	.LFB66
 1408 0811 1A000000 		.4byte	.LFE66-.LFB66
 1409 0815 01       		.uleb128 0x1
 1410 0816 9C       		.byte	0x9c
 1411 0817 6D080000 		.4byte	0x86d
ARM GAS  /tmp/ccRkmKFm.s 			page 26


 1412 081b 19       		.uleb128 0x19
 1413 081c CB000000 		.4byte	.LASF120
 1414 0820 01       		.byte	0x1
 1415 0821 82       		.byte	0x82
 1416 0822 8A070000 		.4byte	0x78a
 1417 0826 6D000000 		.4byte	.LLST3
 1418 082a 1C       		.uleb128 0x1c
 1419 082b 18000000 		.4byte	.Ldebug_ranges0+0x18
 1420 082f 41080000 		.4byte	0x841
 1421 0833 1D       		.uleb128 0x1d
 1422 0834 746D7000 		.ascii	"tmp\000"
 1423 0838 01       		.byte	0x1
 1424 0839 8A       		.byte	0x8a
 1425 083a C3000000 		.4byte	0xc3
 1426 083e 01       		.uleb128 0x1
 1427 083f 53       		.byte	0x53
 1428 0840 00       		.byte	0
 1429 0841 1E       		.uleb128 0x1e
 1430 0842 12000000 		.4byte	.LBB7
 1431 0846 08000000 		.4byte	.LBE7-.LBB7
 1432 084a 5C080000 		.4byte	0x85c
 1433 084e 1D       		.uleb128 0x1d
 1434 084f 746D7000 		.ascii	"tmp\000"
 1435 0853 01       		.byte	0x1
 1436 0854 8D       		.byte	0x8d
 1437 0855 C3000000 		.4byte	0xc3
 1438 0859 01       		.uleb128 0x1
 1439 085a 53       		.byte	0x53
 1440 085b 00       		.byte	0
 1441 085c 1F       		.uleb128 0x1f
 1442 085d 0E000000 		.4byte	.LVL7
 1443 0861 D80A0000 		.4byte	0xad8
 1444 0865 1B       		.uleb128 0x1b
 1445 0866 01       		.uleb128 0x1
 1446 0867 50       		.byte	0x50
 1447 0868 02       		.uleb128 0x2
 1448 0869 74       		.byte	0x74
 1449 086a 00       		.sleb128 0
 1450 086b 00       		.byte	0
 1451 086c 00       		.byte	0
 1452 086d 20       		.uleb128 0x20
 1453 086e 32050000 		.4byte	.LASF122
 1454 0872 01       		.byte	0x1
 1455 0873 98       		.byte	0x98
 1456 0874 E0050000 		.4byte	0x5e0
 1457 0878 00000000 		.4byte	.LFB67
 1458 087c 04000000 		.4byte	.LFE67-.LFB67
 1459 0880 01       		.uleb128 0x1
 1460 0881 9C       		.byte	0x9c
 1461 0882 96080000 		.4byte	0x896
 1462 0886 19       		.uleb128 0x19
 1463 0887 CB000000 		.4byte	.LASF120
 1464 088b 01       		.byte	0x1
 1465 088c 98       		.byte	0x98
 1466 088d 8A070000 		.4byte	0x78a
 1467 0891 8B000000 		.4byte	.LLST4
 1468 0895 00       		.byte	0
ARM GAS  /tmp/ccRkmKFm.s 			page 27


 1469 0896 20       		.uleb128 0x20
 1470 0897 D7000000 		.4byte	.LASF123
 1471 089b 01       		.byte	0x1
 1472 089c B9       		.byte	0xb9
 1473 089d 0C010000 		.4byte	0x10c
 1474 08a1 00000000 		.4byte	.LFB68
 1475 08a5 42000000 		.4byte	.LFE68-.LFB68
 1476 08a9 01       		.uleb128 0x1
 1477 08aa 9C       		.byte	0x9c
 1478 08ab 76090000 		.4byte	0x976
 1479 08af 19       		.uleb128 0x19
 1480 08b0 CB000000 		.4byte	.LASF120
 1481 08b4 01       		.byte	0x1
 1482 08b5 B9       		.byte	0xb9
 1483 08b6 8A070000 		.4byte	0x78a
 1484 08ba AC000000 		.4byte	.LLST5
 1485 08be 19       		.uleb128 0x19
 1486 08bf 92000000 		.4byte	.LASF112
 1487 08c3 01       		.byte	0x1
 1488 08c4 BA       		.byte	0xba
 1489 08c5 D4050000 		.4byte	0x5d4
 1490 08c9 CA000000 		.4byte	.LLST6
 1491 08cd 19       		.uleb128 0x19
 1492 08ce 01020000 		.4byte	.LASF124
 1493 08d2 01       		.byte	0x1
 1494 08d3 BB       		.byte	0xbb
 1495 08d4 D7030000 		.4byte	0x3d7
 1496 08d8 EB000000 		.4byte	.LLST7
 1497 08dc 19       		.uleb128 0x19
 1498 08dd C7060000 		.4byte	.LASF125
 1499 08e1 01       		.byte	0x1
 1500 08e2 BC       		.byte	0xbc
 1501 08e3 2C000000 		.4byte	0x2c
 1502 08e7 0C010000 		.4byte	.LLST8
 1503 08eb 21       		.uleb128 0x21
 1504 08ec 75000000 		.4byte	.LASF126
 1505 08f0 01       		.byte	0x1
 1506 08f1 BD       		.byte	0xbd
 1507 08f2 D1030000 		.4byte	0x3d1
 1508 08f6 02       		.uleb128 0x2
 1509 08f7 91       		.byte	0x91
 1510 08f8 00       		.sleb128 0
 1511 08f9 21       		.uleb128 0x21
 1512 08fa 0F040000 		.4byte	.LASF127
 1513 08fe 01       		.byte	0x1
 1514 08ff BE       		.byte	0xbe
 1515 0900 2C000000 		.4byte	0x2c
 1516 0904 02       		.uleb128 0x2
 1517 0905 91       		.byte	0x91
 1518 0906 04       		.sleb128 4
 1519 0907 21       		.uleb128 0x21
 1520 0908 17020000 		.4byte	.LASF128
 1521 090c 01       		.byte	0x1
 1522 090d BF       		.byte	0xbf
 1523 090e 22010000 		.4byte	0x122
 1524 0912 02       		.uleb128 0x2
 1525 0913 91       		.byte	0x91
ARM GAS  /tmp/ccRkmKFm.s 			page 28


 1526 0914 08       		.sleb128 8
 1527 0915 22       		.uleb128 0x22
 1528 0916 36000000 		.4byte	.LASF57
 1529 091a 01       		.byte	0x1
 1530 091b C0       		.byte	0xc0
 1531 091c 0C010000 		.4byte	0x10c
 1532 0920 01       		.uleb128 0x1
 1533 0921 50       		.byte	0x50
 1534 0922 1E       		.uleb128 0x1e
 1535 0923 0C000000 		.4byte	.LBB8
 1536 0927 06000000 		.4byte	.LBE8-.LBB8
 1537 092b 3D090000 		.4byte	0x93d
 1538 092f 1D       		.uleb128 0x1d
 1539 0930 746D7000 		.ascii	"tmp\000"
 1540 0934 01       		.byte	0x1
 1541 0935 CB       		.byte	0xcb
 1542 0936 C3000000 		.4byte	0xc3
 1543 093a 01       		.uleb128 0x1
 1544 093b 53       		.byte	0x53
 1545 093c 00       		.byte	0
 1546 093d 1E       		.uleb128 0x1e
 1547 093e 38000000 		.4byte	.LBB9
 1548 0942 06000000 		.4byte	.LBE9-.LBB9
 1549 0946 58090000 		.4byte	0x958
 1550 094a 1D       		.uleb128 0x1d
 1551 094b 746D7000 		.ascii	"tmp\000"
 1552 094f 01       		.byte	0x1
 1553 0950 D4       		.byte	0xd4
 1554 0951 C3000000 		.4byte	0xc3
 1555 0955 01       		.uleb128 0x1
 1556 0956 53       		.byte	0x53
 1557 0957 00       		.byte	0
 1558 0958 1F       		.uleb128 0x1f
 1559 0959 2E000000 		.4byte	.LVL13
 1560 095d EA0A0000 		.4byte	0xaea
 1561 0961 1B       		.uleb128 0x1b
 1562 0962 01       		.uleb128 0x1
 1563 0963 53       		.byte	0x53
 1564 0964 02       		.uleb128 0x2
 1565 0965 77       		.byte	0x77
 1566 0966 00       		.sleb128 0
 1567 0967 1B       		.uleb128 0x1b
 1568 0968 01       		.uleb128 0x1
 1569 0969 52       		.byte	0x52
 1570 096a 03       		.uleb128 0x3
 1571 096b F3       		.byte	0xf3
 1572 096c 01       		.uleb128 0x1
 1573 096d 52       		.byte	0x52
 1574 096e 1B       		.uleb128 0x1b
 1575 096f 01       		.uleb128 0x1
 1576 0970 50       		.byte	0x50
 1577 0971 02       		.uleb128 0x2
 1578 0972 74       		.byte	0x74
 1579 0973 00       		.sleb128 0
 1580 0974 00       		.byte	0
 1581 0975 00       		.byte	0
 1582 0976 20       		.uleb128 0x20
ARM GAS  /tmp/ccRkmKFm.s 			page 29


 1583 0977 55060000 		.4byte	.LASF129
 1584 097b 01       		.byte	0x1
 1585 097c EC       		.byte	0xec
 1586 097d 0C010000 		.4byte	0x10c
 1587 0981 00000000 		.4byte	.LFB69
 1588 0985 36000000 		.4byte	.LFE69-.LFB69
 1589 0989 01       		.uleb128 0x1
 1590 098a 9C       		.byte	0x9c
 1591 098b 370A0000 		.4byte	0xa37
 1592 098f 19       		.uleb128 0x19
 1593 0990 CB000000 		.4byte	.LASF120
 1594 0994 01       		.byte	0x1
 1595 0995 EC       		.byte	0xec
 1596 0996 8A070000 		.4byte	0x78a
 1597 099a 2A010000 		.4byte	.LLST9
 1598 099e 19       		.uleb128 0x19
 1599 099f 92000000 		.4byte	.LASF112
 1600 09a3 01       		.byte	0x1
 1601 09a4 ED       		.byte	0xed
 1602 09a5 D4050000 		.4byte	0x5d4
 1603 09a9 48010000 		.4byte	.LLST10
 1604 09ad 19       		.uleb128 0x19
 1605 09ae 75000000 		.4byte	.LASF126
 1606 09b2 01       		.byte	0x1
 1607 09b3 EE       		.byte	0xee
 1608 09b4 D1030000 		.4byte	0x3d1
 1609 09b8 69010000 		.4byte	.LLST11
 1610 09bc 19       		.uleb128 0x19
 1611 09bd 0F040000 		.4byte	.LASF127
 1612 09c1 01       		.byte	0x1
 1613 09c2 EF       		.byte	0xef
 1614 09c3 2C000000 		.4byte	0x2c
 1615 09c7 8A010000 		.4byte	.LLST12
 1616 09cb 21       		.uleb128 0x21
 1617 09cc 17020000 		.4byte	.LASF128
 1618 09d0 01       		.byte	0x1
 1619 09d1 F0       		.byte	0xf0
 1620 09d2 22010000 		.4byte	0x122
 1621 09d6 02       		.uleb128 0x2
 1622 09d7 91       		.byte	0x91
 1623 09d8 00       		.sleb128 0
 1624 09d9 22       		.uleb128 0x22
 1625 09da 36000000 		.4byte	.LASF57
 1626 09de 01       		.byte	0x1
 1627 09df F2       		.byte	0xf2
 1628 09e0 0C010000 		.4byte	0x10c
 1629 09e4 01       		.uleb128 0x1
 1630 09e5 50       		.byte	0x50
 1631 09e6 1C       		.uleb128 0x1c
 1632 09e7 30000000 		.4byte	.Ldebug_ranges0+0x30
 1633 09eb FD090000 		.4byte	0x9fd
 1634 09ef 1D       		.uleb128 0x1d
 1635 09f0 746D7000 		.ascii	"tmp\000"
 1636 09f4 01       		.byte	0x1
 1637 09f5 FC       		.byte	0xfc
 1638 09f6 C3000000 		.4byte	0xc3
 1639 09fa 01       		.uleb128 0x1
ARM GAS  /tmp/ccRkmKFm.s 			page 30


 1640 09fb 53       		.byte	0x53
 1641 09fc 00       		.byte	0
 1642 09fd 1E       		.uleb128 0x1e
 1643 09fe 2C000000 		.4byte	.LBB12
 1644 0a02 06000000 		.4byte	.LBE12-.LBB12
 1645 0a06 190A0000 		.4byte	0xa19
 1646 0a0a 23       		.uleb128 0x23
 1647 0a0b 746D7000 		.ascii	"tmp\000"
 1648 0a0f 01       		.byte	0x1
 1649 0a10 0401     		.2byte	0x104
 1650 0a12 C3000000 		.4byte	0xc3
 1651 0a16 01       		.uleb128 0x1
 1652 0a17 53       		.byte	0x53
 1653 0a18 00       		.byte	0
 1654 0a19 1F       		.uleb128 0x1f
 1655 0a1a 22000000 		.4byte	.LVL17
 1656 0a1e 1E0B0000 		.4byte	0xb1e
 1657 0a22 1B       		.uleb128 0x1b
 1658 0a23 01       		.uleb128 0x1
 1659 0a24 53       		.byte	0x53
 1660 0a25 02       		.uleb128 0x2
 1661 0a26 75       		.byte	0x75
 1662 0a27 00       		.sleb128 0
 1663 0a28 1B       		.uleb128 0x1b
 1664 0a29 01       		.uleb128 0x1
 1665 0a2a 52       		.byte	0x52
 1666 0a2b 03       		.uleb128 0x3
 1667 0a2c F3       		.byte	0xf3
 1668 0a2d 01       		.uleb128 0x1
 1669 0a2e 52       		.byte	0x52
 1670 0a2f 1B       		.uleb128 0x1b
 1671 0a30 01       		.uleb128 0x1
 1672 0a31 50       		.byte	0x50
 1673 0a32 02       		.uleb128 0x2
 1674 0a33 74       		.byte	0x74
 1675 0a34 00       		.sleb128 0
 1676 0a35 00       		.byte	0
 1677 0a36 00       		.byte	0
 1678 0a37 24       		.uleb128 0x24
 1679 0a38 2A060000 		.4byte	.LASF130
 1680 0a3c 01       		.byte	0x1
 1681 0a3d 1401     		.2byte	0x114
 1682 0a3f 00000000 		.4byte	.LFB70
 1683 0a43 06000000 		.4byte	.LFE70-.LFB70
 1684 0a47 01       		.uleb128 0x1
 1685 0a48 9C       		.byte	0x9c
 1686 0a49 710A0000 		.4byte	0xa71
 1687 0a4d 25       		.uleb128 0x25
 1688 0a4e CB000000 		.4byte	.LASF120
 1689 0a52 01       		.byte	0x1
 1690 0a53 1401     		.2byte	0x114
 1691 0a55 8A070000 		.4byte	0x78a
 1692 0a59 A8010000 		.4byte	.LLST13
 1693 0a5d 1A       		.uleb128 0x1a
 1694 0a5e 06000000 		.4byte	.LVL20
 1695 0a62 480B0000 		.4byte	0xb48
 1696 0a66 1B       		.uleb128 0x1b
ARM GAS  /tmp/ccRkmKFm.s 			page 31


 1697 0a67 01       		.uleb128 0x1
 1698 0a68 50       		.byte	0x50
 1699 0a69 05       		.uleb128 0x5
 1700 0a6a F3       		.byte	0xf3
 1701 0a6b 01       		.uleb128 0x1
 1702 0a6c 50       		.byte	0x50
 1703 0a6d 23       		.byte	0x23
 1704 0a6e 0C       		.uleb128 0xc
 1705 0a6f 00       		.byte	0
 1706 0a70 00       		.byte	0
 1707 0a71 24       		.uleb128 0x24
 1708 0a72 B0000000 		.4byte	.LASF131
 1709 0a76 01       		.byte	0x1
 1710 0a77 2801     		.2byte	0x128
 1711 0a79 00000000 		.4byte	.LFB71
 1712 0a7d 04000000 		.4byte	.LFE71-.LFB71
 1713 0a81 01       		.uleb128 0x1
 1714 0a82 9C       		.byte	0x9c
 1715 0a83 A10A0000 		.4byte	0xaa1
 1716 0a87 25       		.uleb128 0x25
 1717 0a88 CB000000 		.4byte	.LASF120
 1718 0a8c 01       		.byte	0x1
 1719 0a8d 2801     		.2byte	0x128
 1720 0a8f 8A070000 		.4byte	0x78a
 1721 0a93 D6010000 		.4byte	.LLST14
 1722 0a97 18       		.uleb128 0x18
 1723 0a98 04000000 		.4byte	.LVL22
 1724 0a9c 590B0000 		.4byte	0xb59
 1725 0aa0 00       		.byte	0
 1726 0aa1 26       		.uleb128 0x26
 1727 0aa2 BE000000 		.4byte	.LASF141
 1728 0aa6 0E       		.byte	0xe
 1729 0aa7 0706     		.2byte	0x607
 1730 0aa9 E7030000 		.4byte	0x3e7
 1731 0aad 27       		.uleb128 0x27
 1732 0aae 1D060000 		.4byte	.LASF142
 1733 0ab2 0D       		.byte	0xd
 1734 0ab3 BD01     		.2byte	0x1bd
 1735 0ab5 28       		.uleb128 0x28
 1736 0ab6 13060000 		.4byte	.LASF132
 1737 0aba 09       		.byte	0x9
 1738 0abb 38       		.byte	0x38
 1739 0abc C60A0000 		.4byte	0xac6
 1740 0ac0 29       		.uleb128 0x29
 1741 0ac1 CB030000 		.4byte	0x3cb
 1742 0ac5 00       		.byte	0
 1743 0ac6 2A       		.uleb128 0x2a
 1744 0ac7 CE030000 		.4byte	.LASF133
 1745 0acb 0D       		.byte	0xd
 1746 0acc BE01     		.2byte	0x1be
 1747 0ace D80A0000 		.4byte	0xad8
 1748 0ad2 29       		.uleb128 0x29
 1749 0ad3 8A070000 		.4byte	0x78a
 1750 0ad7 00       		.byte	0
 1751 0ad8 2A       		.uleb128 0x2a
 1752 0ad9 C1030000 		.4byte	.LASF134
 1753 0add 0D       		.byte	0xd
ARM GAS  /tmp/ccRkmKFm.s 			page 32


 1754 0ade BF01     		.2byte	0x1bf
 1755 0ae0 EA0A0000 		.4byte	0xaea
 1756 0ae4 29       		.uleb128 0x29
 1757 0ae5 8A070000 		.4byte	0x78a
 1758 0ae9 00       		.byte	0
 1759 0aea 2B       		.uleb128 0x2b
 1760 0aeb 24010000 		.4byte	.LASF135
 1761 0aef 0D       		.byte	0xd
 1762 0af0 C001     		.2byte	0x1c0
 1763 0af2 0C010000 		.4byte	0x10c
 1764 0af6 1E0B0000 		.4byte	0xb1e
 1765 0afa 29       		.uleb128 0x29
 1766 0afb 8A070000 		.4byte	0x78a
 1767 0aff 29       		.uleb128 0x29
 1768 0b00 D4050000 		.4byte	0x5d4
 1769 0b04 29       		.uleb128 0x29
 1770 0b05 D7030000 		.4byte	0x3d7
 1771 0b09 29       		.uleb128 0x29
 1772 0b0a 2C000000 		.4byte	0x2c
 1773 0b0e 29       		.uleb128 0x29
 1774 0b0f D1030000 		.4byte	0x3d1
 1775 0b13 29       		.uleb128 0x29
 1776 0b14 2C000000 		.4byte	0x2c
 1777 0b18 29       		.uleb128 0x29
 1778 0b19 22010000 		.4byte	0x122
 1779 0b1d 00       		.byte	0
 1780 0b1e 2B       		.uleb128 0x2b
 1781 0b1f 50000000 		.4byte	.LASF136
 1782 0b23 0D       		.byte	0xd
 1783 0b24 C401     		.2byte	0x1c4
 1784 0b26 0C010000 		.4byte	0x10c
 1785 0b2a 480B0000 		.4byte	0xb48
 1786 0b2e 29       		.uleb128 0x29
 1787 0b2f 8A070000 		.4byte	0x78a
 1788 0b33 29       		.uleb128 0x29
 1789 0b34 D4050000 		.4byte	0x5d4
 1790 0b38 29       		.uleb128 0x29
 1791 0b39 D1030000 		.4byte	0x3d1
 1792 0b3d 29       		.uleb128 0x29
 1793 0b3e 2C000000 		.4byte	0x2c
 1794 0b42 29       		.uleb128 0x29
 1795 0b43 22010000 		.4byte	0x122
 1796 0b47 00       		.byte	0
 1797 0b48 28       		.uleb128 0x28
 1798 0b49 FD030000 		.4byte	.LASF137
 1799 0b4d 09       		.byte	0x9
 1800 0b4e 39       		.byte	0x39
 1801 0b4f 590B0000 		.4byte	0xb59
 1802 0b53 29       		.uleb128 0x29
 1803 0b54 CB030000 		.4byte	0x3cb
 1804 0b58 00       		.byte	0
 1805 0b59 2C       		.uleb128 0x2c
 1806 0b5a F0000000 		.4byte	.LASF143
 1807 0b5e 09       		.byte	0x9
 1808 0b5f 3D       		.byte	0x3d
 1809 0b60 CB030000 		.4byte	0x3cb
 1810 0b64 00       		.byte	0
ARM GAS  /tmp/ccRkmKFm.s 			page 33


 1811              		.section	.debug_abbrev,"",%progbits
 1812              	.Ldebug_abbrev0:
 1813 0000 01       		.uleb128 0x1
 1814 0001 11       		.uleb128 0x11
 1815 0002 01       		.byte	0x1
 1816 0003 25       		.uleb128 0x25
 1817 0004 0E       		.uleb128 0xe
 1818 0005 13       		.uleb128 0x13
 1819 0006 0B       		.uleb128 0xb
 1820 0007 03       		.uleb128 0x3
 1821 0008 0E       		.uleb128 0xe
 1822 0009 1B       		.uleb128 0x1b
 1823 000a 0E       		.uleb128 0xe
 1824 000b 55       		.uleb128 0x55
 1825 000c 17       		.uleb128 0x17
 1826 000d 11       		.uleb128 0x11
 1827 000e 01       		.uleb128 0x1
 1828 000f 10       		.uleb128 0x10
 1829 0010 17       		.uleb128 0x17
 1830 0011 00       		.byte	0
 1831 0012 00       		.byte	0
 1832 0013 02       		.uleb128 0x2
 1833 0014 24       		.uleb128 0x24
 1834 0015 00       		.byte	0
 1835 0016 0B       		.uleb128 0xb
 1836 0017 0B       		.uleb128 0xb
 1837 0018 3E       		.uleb128 0x3e
 1838 0019 0B       		.uleb128 0xb
 1839 001a 03       		.uleb128 0x3
 1840 001b 08       		.uleb128 0x8
 1841 001c 00       		.byte	0
 1842 001d 00       		.byte	0
 1843 001e 03       		.uleb128 0x3
 1844 001f 16       		.uleb128 0x16
 1845 0020 00       		.byte	0
 1846 0021 03       		.uleb128 0x3
 1847 0022 0E       		.uleb128 0xe
 1848 0023 3A       		.uleb128 0x3a
 1849 0024 0B       		.uleb128 0xb
 1850 0025 3B       		.uleb128 0x3b
 1851 0026 0B       		.uleb128 0xb
 1852 0027 49       		.uleb128 0x49
 1853 0028 13       		.uleb128 0x13
 1854 0029 00       		.byte	0
 1855 002a 00       		.byte	0
 1856 002b 04       		.uleb128 0x4
 1857 002c 24       		.uleb128 0x24
 1858 002d 00       		.byte	0
 1859 002e 0B       		.uleb128 0xb
 1860 002f 0B       		.uleb128 0xb
 1861 0030 3E       		.uleb128 0x3e
 1862 0031 0B       		.uleb128 0xb
 1863 0032 03       		.uleb128 0x3
 1864 0033 0E       		.uleb128 0xe
 1865 0034 00       		.byte	0
 1866 0035 00       		.byte	0
 1867 0036 05       		.uleb128 0x5
ARM GAS  /tmp/ccRkmKFm.s 			page 34


 1868 0037 13       		.uleb128 0x13
 1869 0038 01       		.byte	0x1
 1870 0039 03       		.uleb128 0x3
 1871 003a 0E       		.uleb128 0xe
 1872 003b 0B       		.uleb128 0xb
 1873 003c 0B       		.uleb128 0xb
 1874 003d 3A       		.uleb128 0x3a
 1875 003e 0B       		.uleb128 0xb
 1876 003f 3B       		.uleb128 0x3b
 1877 0040 0B       		.uleb128 0xb
 1878 0041 01       		.uleb128 0x1
 1879 0042 13       		.uleb128 0x13
 1880 0043 00       		.byte	0
 1881 0044 00       		.byte	0
 1882 0045 06       		.uleb128 0x6
 1883 0046 0D       		.uleb128 0xd
 1884 0047 00       		.byte	0
 1885 0048 03       		.uleb128 0x3
 1886 0049 0E       		.uleb128 0xe
 1887 004a 3A       		.uleb128 0x3a
 1888 004b 0B       		.uleb128 0xb
 1889 004c 3B       		.uleb128 0x3b
 1890 004d 0B       		.uleb128 0xb
 1891 004e 49       		.uleb128 0x49
 1892 004f 13       		.uleb128 0x13
 1893 0050 38       		.uleb128 0x38
 1894 0051 0B       		.uleb128 0xb
 1895 0052 00       		.byte	0
 1896 0053 00       		.byte	0
 1897 0054 07       		.uleb128 0x7
 1898 0055 0D       		.uleb128 0xd
 1899 0056 00       		.byte	0
 1900 0057 03       		.uleb128 0x3
 1901 0058 08       		.uleb128 0x8
 1902 0059 3A       		.uleb128 0x3a
 1903 005a 0B       		.uleb128 0xb
 1904 005b 3B       		.uleb128 0x3b
 1905 005c 0B       		.uleb128 0xb
 1906 005d 49       		.uleb128 0x49
 1907 005e 13       		.uleb128 0x13
 1908 005f 38       		.uleb128 0x38
 1909 0060 0B       		.uleb128 0xb
 1910 0061 00       		.byte	0
 1911 0062 00       		.byte	0
 1912 0063 08       		.uleb128 0x8
 1913 0064 13       		.uleb128 0x13
 1914 0065 01       		.byte	0x1
 1915 0066 0B       		.uleb128 0xb
 1916 0067 0B       		.uleb128 0xb
 1917 0068 3A       		.uleb128 0x3a
 1918 0069 0B       		.uleb128 0xb
 1919 006a 3B       		.uleb128 0x3b
 1920 006b 0B       		.uleb128 0xb
 1921 006c 01       		.uleb128 0x1
 1922 006d 13       		.uleb128 0x13
 1923 006e 00       		.byte	0
 1924 006f 00       		.byte	0
ARM GAS  /tmp/ccRkmKFm.s 			page 35


 1925 0070 09       		.uleb128 0x9
 1926 0071 0F       		.uleb128 0xf
 1927 0072 00       		.byte	0
 1928 0073 0B       		.uleb128 0xb
 1929 0074 0B       		.uleb128 0xb
 1930 0075 49       		.uleb128 0x49
 1931 0076 13       		.uleb128 0x13
 1932 0077 00       		.byte	0
 1933 0078 00       		.byte	0
 1934 0079 0A       		.uleb128 0xa
 1935 007a 0F       		.uleb128 0xf
 1936 007b 00       		.byte	0
 1937 007c 0B       		.uleb128 0xb
 1938 007d 0B       		.uleb128 0xb
 1939 007e 00       		.byte	0
 1940 007f 00       		.byte	0
 1941 0080 0B       		.uleb128 0xb
 1942 0081 13       		.uleb128 0x13
 1943 0082 01       		.byte	0x1
 1944 0083 03       		.uleb128 0x3
 1945 0084 0E       		.uleb128 0xe
 1946 0085 0B       		.uleb128 0xb
 1947 0086 0B       		.uleb128 0xb
 1948 0087 3A       		.uleb128 0x3a
 1949 0088 0B       		.uleb128 0xb
 1950 0089 3B       		.uleb128 0x3b
 1951 008a 05       		.uleb128 0x5
 1952 008b 01       		.uleb128 0x1
 1953 008c 13       		.uleb128 0x13
 1954 008d 00       		.byte	0
 1955 008e 00       		.byte	0
 1956 008f 0C       		.uleb128 0xc
 1957 0090 0D       		.uleb128 0xd
 1958 0091 00       		.byte	0
 1959 0092 03       		.uleb128 0x3
 1960 0093 08       		.uleb128 0x8
 1961 0094 3A       		.uleb128 0x3a
 1962 0095 0B       		.uleb128 0xb
 1963 0096 3B       		.uleb128 0x3b
 1964 0097 05       		.uleb128 0x5
 1965 0098 49       		.uleb128 0x49
 1966 0099 13       		.uleb128 0x13
 1967 009a 38       		.uleb128 0x38
 1968 009b 0B       		.uleb128 0xb
 1969 009c 00       		.byte	0
 1970 009d 00       		.byte	0
 1971 009e 0D       		.uleb128 0xd
 1972 009f 35       		.uleb128 0x35
 1973 00a0 00       		.byte	0
 1974 00a1 49       		.uleb128 0x49
 1975 00a2 13       		.uleb128 0x13
 1976 00a3 00       		.byte	0
 1977 00a4 00       		.byte	0
 1978 00a5 0E       		.uleb128 0xe
 1979 00a6 17       		.uleb128 0x17
 1980 00a7 01       		.byte	0x1
 1981 00a8 0B       		.uleb128 0xb
ARM GAS  /tmp/ccRkmKFm.s 			page 36


 1982 00a9 0B       		.uleb128 0xb
 1983 00aa 3A       		.uleb128 0x3a
 1984 00ab 0B       		.uleb128 0xb
 1985 00ac 3B       		.uleb128 0x3b
 1986 00ad 0B       		.uleb128 0xb
 1987 00ae 01       		.uleb128 0x1
 1988 00af 13       		.uleb128 0x13
 1989 00b0 00       		.byte	0
 1990 00b1 00       		.byte	0
 1991 00b2 0F       		.uleb128 0xf
 1992 00b3 0D       		.uleb128 0xd
 1993 00b4 00       		.byte	0
 1994 00b5 03       		.uleb128 0x3
 1995 00b6 0E       		.uleb128 0xe
 1996 00b7 3A       		.uleb128 0x3a
 1997 00b8 0B       		.uleb128 0xb
 1998 00b9 3B       		.uleb128 0x3b
 1999 00ba 0B       		.uleb128 0xb
 2000 00bb 49       		.uleb128 0x49
 2001 00bc 13       		.uleb128 0x13
 2002 00bd 00       		.byte	0
 2003 00be 00       		.byte	0
 2004 00bf 10       		.uleb128 0x10
 2005 00c0 26       		.uleb128 0x26
 2006 00c1 00       		.byte	0
 2007 00c2 49       		.uleb128 0x49
 2008 00c3 13       		.uleb128 0x13
 2009 00c4 00       		.byte	0
 2010 00c5 00       		.byte	0
 2011 00c6 11       		.uleb128 0x11
 2012 00c7 13       		.uleb128 0x13
 2013 00c8 01       		.byte	0x1
 2014 00c9 0B       		.uleb128 0xb
 2015 00ca 0B       		.uleb128 0xb
 2016 00cb 3A       		.uleb128 0x3a
 2017 00cc 0B       		.uleb128 0xb
 2018 00cd 3B       		.uleb128 0x3b
 2019 00ce 05       		.uleb128 0x5
 2020 00cf 01       		.uleb128 0x1
 2021 00d0 13       		.uleb128 0x13
 2022 00d1 00       		.byte	0
 2023 00d2 00       		.byte	0
 2024 00d3 12       		.uleb128 0x12
 2025 00d4 0D       		.uleb128 0xd
 2026 00d5 00       		.byte	0
 2027 00d6 03       		.uleb128 0x3
 2028 00d7 0E       		.uleb128 0xe
 2029 00d8 3A       		.uleb128 0x3a
 2030 00d9 0B       		.uleb128 0xb
 2031 00da 3B       		.uleb128 0x3b
 2032 00db 05       		.uleb128 0x5
 2033 00dc 49       		.uleb128 0x49
 2034 00dd 13       		.uleb128 0x13
 2035 00de 38       		.uleb128 0x38
 2036 00df 0B       		.uleb128 0xb
 2037 00e0 00       		.byte	0
 2038 00e1 00       		.byte	0
ARM GAS  /tmp/ccRkmKFm.s 			page 37


 2039 00e2 13       		.uleb128 0x13
 2040 00e3 16       		.uleb128 0x16
 2041 00e4 00       		.byte	0
 2042 00e5 03       		.uleb128 0x3
 2043 00e6 0E       		.uleb128 0xe
 2044 00e7 3A       		.uleb128 0x3a
 2045 00e8 0B       		.uleb128 0xb
 2046 00e9 3B       		.uleb128 0x3b
 2047 00ea 05       		.uleb128 0x5
 2048 00eb 49       		.uleb128 0x49
 2049 00ec 13       		.uleb128 0x13
 2050 00ed 00       		.byte	0
 2051 00ee 00       		.byte	0
 2052 00ef 14       		.uleb128 0x14
 2053 00f0 04       		.uleb128 0x4
 2054 00f1 01       		.byte	0x1
 2055 00f2 0B       		.uleb128 0xb
 2056 00f3 0B       		.uleb128 0xb
 2057 00f4 3A       		.uleb128 0x3a
 2058 00f5 0B       		.uleb128 0xb
 2059 00f6 3B       		.uleb128 0x3b
 2060 00f7 0B       		.uleb128 0xb
 2061 00f8 01       		.uleb128 0x1
 2062 00f9 13       		.uleb128 0x13
 2063 00fa 00       		.byte	0
 2064 00fb 00       		.byte	0
 2065 00fc 15       		.uleb128 0x15
 2066 00fd 28       		.uleb128 0x28
 2067 00fe 00       		.byte	0
 2068 00ff 03       		.uleb128 0x3
 2069 0100 0E       		.uleb128 0xe
 2070 0101 1C       		.uleb128 0x1c
 2071 0102 0D       		.uleb128 0xd
 2072 0103 00       		.byte	0
 2073 0104 00       		.byte	0
 2074 0105 16       		.uleb128 0x16
 2075 0106 04       		.uleb128 0x4
 2076 0107 01       		.byte	0x1
 2077 0108 0B       		.uleb128 0xb
 2078 0109 0B       		.uleb128 0xb
 2079 010a 3A       		.uleb128 0x3a
 2080 010b 0B       		.uleb128 0xb
 2081 010c 3B       		.uleb128 0x3b
 2082 010d 05       		.uleb128 0x5
 2083 010e 01       		.uleb128 0x1
 2084 010f 13       		.uleb128 0x13
 2085 0110 00       		.byte	0
 2086 0111 00       		.byte	0
 2087 0112 17       		.uleb128 0x17
 2088 0113 2E       		.uleb128 0x2e
 2089 0114 01       		.byte	0x1
 2090 0115 3F       		.uleb128 0x3f
 2091 0116 19       		.uleb128 0x19
 2092 0117 03       		.uleb128 0x3
 2093 0118 0E       		.uleb128 0xe
 2094 0119 3A       		.uleb128 0x3a
 2095 011a 0B       		.uleb128 0xb
ARM GAS  /tmp/ccRkmKFm.s 			page 38


 2096 011b 3B       		.uleb128 0x3b
 2097 011c 0B       		.uleb128 0xb
 2098 011d 27       		.uleb128 0x27
 2099 011e 19       		.uleb128 0x19
 2100 011f 11       		.uleb128 0x11
 2101 0120 01       		.uleb128 0x1
 2102 0121 12       		.uleb128 0x12
 2103 0122 06       		.uleb128 0x6
 2104 0123 40       		.uleb128 0x40
 2105 0124 18       		.uleb128 0x18
 2106 0125 9742     		.uleb128 0x2117
 2107 0127 19       		.uleb128 0x19
 2108 0128 01       		.uleb128 0x1
 2109 0129 13       		.uleb128 0x13
 2110 012a 00       		.byte	0
 2111 012b 00       		.byte	0
 2112 012c 18       		.uleb128 0x18
 2113 012d 898201   		.uleb128 0x4109
 2114 0130 00       		.byte	0
 2115 0131 11       		.uleb128 0x11
 2116 0132 01       		.uleb128 0x1
 2117 0133 9542     		.uleb128 0x2115
 2118 0135 19       		.uleb128 0x19
 2119 0136 31       		.uleb128 0x31
 2120 0137 13       		.uleb128 0x13
 2121 0138 00       		.byte	0
 2122 0139 00       		.byte	0
 2123 013a 19       		.uleb128 0x19
 2124 013b 05       		.uleb128 0x5
 2125 013c 00       		.byte	0
 2126 013d 03       		.uleb128 0x3
 2127 013e 0E       		.uleb128 0xe
 2128 013f 3A       		.uleb128 0x3a
 2129 0140 0B       		.uleb128 0xb
 2130 0141 3B       		.uleb128 0x3b
 2131 0142 0B       		.uleb128 0xb
 2132 0143 49       		.uleb128 0x49
 2133 0144 13       		.uleb128 0x13
 2134 0145 02       		.uleb128 0x2
 2135 0146 17       		.uleb128 0x17
 2136 0147 00       		.byte	0
 2137 0148 00       		.byte	0
 2138 0149 1A       		.uleb128 0x1a
 2139 014a 898201   		.uleb128 0x4109
 2140 014d 01       		.byte	0x1
 2141 014e 11       		.uleb128 0x11
 2142 014f 01       		.uleb128 0x1
 2143 0150 9542     		.uleb128 0x2115
 2144 0152 19       		.uleb128 0x19
 2145 0153 31       		.uleb128 0x31
 2146 0154 13       		.uleb128 0x13
 2147 0155 00       		.byte	0
 2148 0156 00       		.byte	0
 2149 0157 1B       		.uleb128 0x1b
 2150 0158 8A8201   		.uleb128 0x410a
 2151 015b 00       		.byte	0
 2152 015c 02       		.uleb128 0x2
ARM GAS  /tmp/ccRkmKFm.s 			page 39


 2153 015d 18       		.uleb128 0x18
 2154 015e 9142     		.uleb128 0x2111
 2155 0160 18       		.uleb128 0x18
 2156 0161 00       		.byte	0
 2157 0162 00       		.byte	0
 2158 0163 1C       		.uleb128 0x1c
 2159 0164 0B       		.uleb128 0xb
 2160 0165 01       		.byte	0x1
 2161 0166 55       		.uleb128 0x55
 2162 0167 17       		.uleb128 0x17
 2163 0168 01       		.uleb128 0x1
 2164 0169 13       		.uleb128 0x13
 2165 016a 00       		.byte	0
 2166 016b 00       		.byte	0
 2167 016c 1D       		.uleb128 0x1d
 2168 016d 34       		.uleb128 0x34
 2169 016e 00       		.byte	0
 2170 016f 03       		.uleb128 0x3
 2171 0170 08       		.uleb128 0x8
 2172 0171 3A       		.uleb128 0x3a
 2173 0172 0B       		.uleb128 0xb
 2174 0173 3B       		.uleb128 0x3b
 2175 0174 0B       		.uleb128 0xb
 2176 0175 49       		.uleb128 0x49
 2177 0176 13       		.uleb128 0x13
 2178 0177 02       		.uleb128 0x2
 2179 0178 18       		.uleb128 0x18
 2180 0179 00       		.byte	0
 2181 017a 00       		.byte	0
 2182 017b 1E       		.uleb128 0x1e
 2183 017c 0B       		.uleb128 0xb
 2184 017d 01       		.byte	0x1
 2185 017e 11       		.uleb128 0x11
 2186 017f 01       		.uleb128 0x1
 2187 0180 12       		.uleb128 0x12
 2188 0181 06       		.uleb128 0x6
 2189 0182 01       		.uleb128 0x1
 2190 0183 13       		.uleb128 0x13
 2191 0184 00       		.byte	0
 2192 0185 00       		.byte	0
 2193 0186 1F       		.uleb128 0x1f
 2194 0187 898201   		.uleb128 0x4109
 2195 018a 01       		.byte	0x1
 2196 018b 11       		.uleb128 0x11
 2197 018c 01       		.uleb128 0x1
 2198 018d 31       		.uleb128 0x31
 2199 018e 13       		.uleb128 0x13
 2200 018f 00       		.byte	0
 2201 0190 00       		.byte	0
 2202 0191 20       		.uleb128 0x20
 2203 0192 2E       		.uleb128 0x2e
 2204 0193 01       		.byte	0x1
 2205 0194 3F       		.uleb128 0x3f
 2206 0195 19       		.uleb128 0x19
 2207 0196 03       		.uleb128 0x3
 2208 0197 0E       		.uleb128 0xe
 2209 0198 3A       		.uleb128 0x3a
ARM GAS  /tmp/ccRkmKFm.s 			page 40


 2210 0199 0B       		.uleb128 0xb
 2211 019a 3B       		.uleb128 0x3b
 2212 019b 0B       		.uleb128 0xb
 2213 019c 27       		.uleb128 0x27
 2214 019d 19       		.uleb128 0x19
 2215 019e 49       		.uleb128 0x49
 2216 019f 13       		.uleb128 0x13
 2217 01a0 11       		.uleb128 0x11
 2218 01a1 01       		.uleb128 0x1
 2219 01a2 12       		.uleb128 0x12
 2220 01a3 06       		.uleb128 0x6
 2221 01a4 40       		.uleb128 0x40
 2222 01a5 18       		.uleb128 0x18
 2223 01a6 9742     		.uleb128 0x2117
 2224 01a8 19       		.uleb128 0x19
 2225 01a9 01       		.uleb128 0x1
 2226 01aa 13       		.uleb128 0x13
 2227 01ab 00       		.byte	0
 2228 01ac 00       		.byte	0
 2229 01ad 21       		.uleb128 0x21
 2230 01ae 05       		.uleb128 0x5
 2231 01af 00       		.byte	0
 2232 01b0 03       		.uleb128 0x3
 2233 01b1 0E       		.uleb128 0xe
 2234 01b2 3A       		.uleb128 0x3a
 2235 01b3 0B       		.uleb128 0xb
 2236 01b4 3B       		.uleb128 0x3b
 2237 01b5 0B       		.uleb128 0xb
 2238 01b6 49       		.uleb128 0x49
 2239 01b7 13       		.uleb128 0x13
 2240 01b8 02       		.uleb128 0x2
 2241 01b9 18       		.uleb128 0x18
 2242 01ba 00       		.byte	0
 2243 01bb 00       		.byte	0
 2244 01bc 22       		.uleb128 0x22
 2245 01bd 34       		.uleb128 0x34
 2246 01be 00       		.byte	0
 2247 01bf 03       		.uleb128 0x3
 2248 01c0 0E       		.uleb128 0xe
 2249 01c1 3A       		.uleb128 0x3a
 2250 01c2 0B       		.uleb128 0xb
 2251 01c3 3B       		.uleb128 0x3b
 2252 01c4 0B       		.uleb128 0xb
 2253 01c5 49       		.uleb128 0x49
 2254 01c6 13       		.uleb128 0x13
 2255 01c7 02       		.uleb128 0x2
 2256 01c8 18       		.uleb128 0x18
 2257 01c9 00       		.byte	0
 2258 01ca 00       		.byte	0
 2259 01cb 23       		.uleb128 0x23
 2260 01cc 34       		.uleb128 0x34
 2261 01cd 00       		.byte	0
 2262 01ce 03       		.uleb128 0x3
 2263 01cf 08       		.uleb128 0x8
 2264 01d0 3A       		.uleb128 0x3a
 2265 01d1 0B       		.uleb128 0xb
 2266 01d2 3B       		.uleb128 0x3b
ARM GAS  /tmp/ccRkmKFm.s 			page 41


 2267 01d3 05       		.uleb128 0x5
 2268 01d4 49       		.uleb128 0x49
 2269 01d5 13       		.uleb128 0x13
 2270 01d6 02       		.uleb128 0x2
 2271 01d7 18       		.uleb128 0x18
 2272 01d8 00       		.byte	0
 2273 01d9 00       		.byte	0
 2274 01da 24       		.uleb128 0x24
 2275 01db 2E       		.uleb128 0x2e
 2276 01dc 01       		.byte	0x1
 2277 01dd 3F       		.uleb128 0x3f
 2278 01de 19       		.uleb128 0x19
 2279 01df 03       		.uleb128 0x3
 2280 01e0 0E       		.uleb128 0xe
 2281 01e1 3A       		.uleb128 0x3a
 2282 01e2 0B       		.uleb128 0xb
 2283 01e3 3B       		.uleb128 0x3b
 2284 01e4 05       		.uleb128 0x5
 2285 01e5 27       		.uleb128 0x27
 2286 01e6 19       		.uleb128 0x19
 2287 01e7 11       		.uleb128 0x11
 2288 01e8 01       		.uleb128 0x1
 2289 01e9 12       		.uleb128 0x12
 2290 01ea 06       		.uleb128 0x6
 2291 01eb 40       		.uleb128 0x40
 2292 01ec 18       		.uleb128 0x18
 2293 01ed 9742     		.uleb128 0x2117
 2294 01ef 19       		.uleb128 0x19
 2295 01f0 01       		.uleb128 0x1
 2296 01f1 13       		.uleb128 0x13
 2297 01f2 00       		.byte	0
 2298 01f3 00       		.byte	0
 2299 01f4 25       		.uleb128 0x25
 2300 01f5 05       		.uleb128 0x5
 2301 01f6 00       		.byte	0
 2302 01f7 03       		.uleb128 0x3
 2303 01f8 0E       		.uleb128 0xe
 2304 01f9 3A       		.uleb128 0x3a
 2305 01fa 0B       		.uleb128 0xb
 2306 01fb 3B       		.uleb128 0x3b
 2307 01fc 05       		.uleb128 0x5
 2308 01fd 49       		.uleb128 0x49
 2309 01fe 13       		.uleb128 0x13
 2310 01ff 02       		.uleb128 0x2
 2311 0200 17       		.uleb128 0x17
 2312 0201 00       		.byte	0
 2313 0202 00       		.byte	0
 2314 0203 26       		.uleb128 0x26
 2315 0204 34       		.uleb128 0x34
 2316 0205 00       		.byte	0
 2317 0206 03       		.uleb128 0x3
 2318 0207 0E       		.uleb128 0xe
 2319 0208 3A       		.uleb128 0x3a
 2320 0209 0B       		.uleb128 0xb
 2321 020a 3B       		.uleb128 0x3b
 2322 020b 05       		.uleb128 0x5
 2323 020c 49       		.uleb128 0x49
ARM GAS  /tmp/ccRkmKFm.s 			page 42


 2324 020d 13       		.uleb128 0x13
 2325 020e 3F       		.uleb128 0x3f
 2326 020f 19       		.uleb128 0x19
 2327 0210 3C       		.uleb128 0x3c
 2328 0211 19       		.uleb128 0x19
 2329 0212 00       		.byte	0
 2330 0213 00       		.byte	0
 2331 0214 27       		.uleb128 0x27
 2332 0215 2E       		.uleb128 0x2e
 2333 0216 00       		.byte	0
 2334 0217 3F       		.uleb128 0x3f
 2335 0218 19       		.uleb128 0x19
 2336 0219 03       		.uleb128 0x3
 2337 021a 0E       		.uleb128 0xe
 2338 021b 3A       		.uleb128 0x3a
 2339 021c 0B       		.uleb128 0xb
 2340 021d 3B       		.uleb128 0x3b
 2341 021e 05       		.uleb128 0x5
 2342 021f 27       		.uleb128 0x27
 2343 0220 19       		.uleb128 0x19
 2344 0221 3C       		.uleb128 0x3c
 2345 0222 19       		.uleb128 0x19
 2346 0223 00       		.byte	0
 2347 0224 00       		.byte	0
 2348 0225 28       		.uleb128 0x28
 2349 0226 2E       		.uleb128 0x2e
 2350 0227 01       		.byte	0x1
 2351 0228 3F       		.uleb128 0x3f
 2352 0229 19       		.uleb128 0x19
 2353 022a 03       		.uleb128 0x3
 2354 022b 0E       		.uleb128 0xe
 2355 022c 3A       		.uleb128 0x3a
 2356 022d 0B       		.uleb128 0xb
 2357 022e 3B       		.uleb128 0x3b
 2358 022f 0B       		.uleb128 0xb
 2359 0230 27       		.uleb128 0x27
 2360 0231 19       		.uleb128 0x19
 2361 0232 3C       		.uleb128 0x3c
 2362 0233 19       		.uleb128 0x19
 2363 0234 01       		.uleb128 0x1
 2364 0235 13       		.uleb128 0x13
 2365 0236 00       		.byte	0
 2366 0237 00       		.byte	0
 2367 0238 29       		.uleb128 0x29
 2368 0239 05       		.uleb128 0x5
 2369 023a 00       		.byte	0
 2370 023b 49       		.uleb128 0x49
 2371 023c 13       		.uleb128 0x13
 2372 023d 00       		.byte	0
 2373 023e 00       		.byte	0
 2374 023f 2A       		.uleb128 0x2a
 2375 0240 2E       		.uleb128 0x2e
 2376 0241 01       		.byte	0x1
 2377 0242 3F       		.uleb128 0x3f
 2378 0243 19       		.uleb128 0x19
 2379 0244 03       		.uleb128 0x3
 2380 0245 0E       		.uleb128 0xe
ARM GAS  /tmp/ccRkmKFm.s 			page 43


 2381 0246 3A       		.uleb128 0x3a
 2382 0247 0B       		.uleb128 0xb
 2383 0248 3B       		.uleb128 0x3b
 2384 0249 05       		.uleb128 0x5
 2385 024a 27       		.uleb128 0x27
 2386 024b 19       		.uleb128 0x19
 2387 024c 3C       		.uleb128 0x3c
 2388 024d 19       		.uleb128 0x19
 2389 024e 01       		.uleb128 0x1
 2390 024f 13       		.uleb128 0x13
 2391 0250 00       		.byte	0
 2392 0251 00       		.byte	0
 2393 0252 2B       		.uleb128 0x2b
 2394 0253 2E       		.uleb128 0x2e
 2395 0254 01       		.byte	0x1
 2396 0255 3F       		.uleb128 0x3f
 2397 0256 19       		.uleb128 0x19
 2398 0257 03       		.uleb128 0x3
 2399 0258 0E       		.uleb128 0xe
 2400 0259 3A       		.uleb128 0x3a
 2401 025a 0B       		.uleb128 0xb
 2402 025b 3B       		.uleb128 0x3b
 2403 025c 05       		.uleb128 0x5
 2404 025d 27       		.uleb128 0x27
 2405 025e 19       		.uleb128 0x19
 2406 025f 49       		.uleb128 0x49
 2407 0260 13       		.uleb128 0x13
 2408 0261 3C       		.uleb128 0x3c
 2409 0262 19       		.uleb128 0x19
 2410 0263 01       		.uleb128 0x1
 2411 0264 13       		.uleb128 0x13
 2412 0265 00       		.byte	0
 2413 0266 00       		.byte	0
 2414 0267 2C       		.uleb128 0x2c
 2415 0268 2E       		.uleb128 0x2e
 2416 0269 00       		.byte	0
 2417 026a 3F       		.uleb128 0x3f
 2418 026b 19       		.uleb128 0x19
 2419 026c 03       		.uleb128 0x3
 2420 026d 0E       		.uleb128 0xe
 2421 026e 3A       		.uleb128 0x3a
 2422 026f 0B       		.uleb128 0xb
 2423 0270 3B       		.uleb128 0x3b
 2424 0271 0B       		.uleb128 0xb
 2425 0272 27       		.uleb128 0x27
 2426 0273 19       		.uleb128 0x19
 2427 0274 49       		.uleb128 0x49
 2428 0275 13       		.uleb128 0x13
 2429 0276 3C       		.uleb128 0x3c
 2430 0277 19       		.uleb128 0x19
 2431 0278 00       		.byte	0
 2432 0279 00       		.byte	0
 2433 027a 00       		.byte	0
 2434              		.section	.debug_loc,"",%progbits
 2435              	.Ldebug_loc0:
 2436              	.LLST0:
 2437 0000 00000000 		.4byte	.LVL1
ARM GAS  /tmp/ccRkmKFm.s 			page 44


 2438 0004 0A000000 		.4byte	.LVL2
 2439 0008 0100     		.2byte	0x1
 2440 000a 50       		.byte	0x50
 2441 000b 0A000000 		.4byte	.LVL2
 2442 000f 0D000000 		.4byte	.LVL3-1
 2443 0013 0300     		.2byte	0x3
 2444 0015 70       		.byte	0x70
 2445 0016 74       		.sleb128 -12
 2446 0017 9F       		.byte	0x9f
 2447 0018 0D000000 		.4byte	.LVL3-1
 2448 001c 0E000000 		.4byte	.LFE64
 2449 0020 0400     		.2byte	0x4
 2450 0022 F3       		.byte	0xf3
 2451 0023 01       		.uleb128 0x1
 2452 0024 50       		.byte	0x50
 2453 0025 9F       		.byte	0x9f
 2454 0026 00000000 		.4byte	0
 2455 002a 00000000 		.4byte	0
 2456              	.LLST1:
 2457 002e 00000000 		.4byte	.LVL4
 2458 0032 0F000000 		.4byte	.LVL5-1
 2459 0036 0100     		.2byte	0x1
 2460 0038 50       		.byte	0x50
 2461 0039 0F000000 		.4byte	.LVL5-1
 2462 003d 1C000000 		.4byte	.LFE65
 2463 0041 0100     		.2byte	0x1
 2464 0043 54       		.byte	0x54
 2465 0044 00000000 		.4byte	0
 2466 0048 00000000 		.4byte	0
 2467              	.LLST2:
 2468 004c 00000000 		.4byte	.LVL4
 2469 0050 0F000000 		.4byte	.LVL5-1
 2470 0054 0100     		.2byte	0x1
 2471 0056 51       		.byte	0x51
 2472 0057 0F000000 		.4byte	.LVL5-1
 2473 005b 1C000000 		.4byte	.LFE65
 2474 005f 0400     		.2byte	0x4
 2475 0061 F3       		.byte	0xf3
 2476 0062 01       		.uleb128 0x1
 2477 0063 51       		.byte	0x51
 2478 0064 9F       		.byte	0x9f
 2479 0065 00000000 		.4byte	0
 2480 0069 00000000 		.4byte	0
 2481              	.LLST3:
 2482 006d 00000000 		.4byte	.LVL6
 2483 0071 0D000000 		.4byte	.LVL7-1
 2484 0075 0100     		.2byte	0x1
 2485 0077 50       		.byte	0x50
 2486 0078 0D000000 		.4byte	.LVL7-1
 2487 007c 1A000000 		.4byte	.LFE66
 2488 0080 0100     		.2byte	0x1
 2489 0082 54       		.byte	0x54
 2490 0083 00000000 		.4byte	0
 2491 0087 00000000 		.4byte	0
 2492              	.LLST4:
 2493 008b 00000000 		.4byte	.LVL8
 2494 008f 02000000 		.4byte	.LVL9
ARM GAS  /tmp/ccRkmKFm.s 			page 45


 2495 0093 0100     		.2byte	0x1
 2496 0095 50       		.byte	0x50
 2497 0096 02000000 		.4byte	.LVL9
 2498 009a 04000000 		.4byte	.LFE67
 2499 009e 0400     		.2byte	0x4
 2500 00a0 F3       		.byte	0xf3
 2501 00a1 01       		.uleb128 0x1
 2502 00a2 50       		.byte	0x50
 2503 00a3 9F       		.byte	0x9f
 2504 00a4 00000000 		.4byte	0
 2505 00a8 00000000 		.4byte	0
 2506              	.LLST5:
 2507 00ac 00000000 		.4byte	.LVL10
 2508 00b0 1A000000 		.4byte	.LVL12
 2509 00b4 0100     		.2byte	0x1
 2510 00b6 50       		.byte	0x50
 2511 00b7 1A000000 		.4byte	.LVL12
 2512 00bb 42000000 		.4byte	.LFE68
 2513 00bf 0100     		.2byte	0x1
 2514 00c1 54       		.byte	0x54
 2515 00c2 00000000 		.4byte	0
 2516 00c6 00000000 		.4byte	0
 2517              	.LLST6:
 2518 00ca 00000000 		.4byte	.LVL10
 2519 00ce 2D000000 		.4byte	.LVL13-1
 2520 00d2 0100     		.2byte	0x1
 2521 00d4 51       		.byte	0x51
 2522 00d5 2D000000 		.4byte	.LVL13-1
 2523 00d9 42000000 		.4byte	.LFE68
 2524 00dd 0400     		.2byte	0x4
 2525 00df F3       		.byte	0xf3
 2526 00e0 01       		.uleb128 0x1
 2527 00e1 51       		.byte	0x51
 2528 00e2 9F       		.byte	0x9f
 2529 00e3 00000000 		.4byte	0
 2530 00e7 00000000 		.4byte	0
 2531              	.LLST7:
 2532 00eb 00000000 		.4byte	.LVL10
 2533 00ef 2D000000 		.4byte	.LVL13-1
 2534 00f3 0100     		.2byte	0x1
 2535 00f5 52       		.byte	0x52
 2536 00f6 2D000000 		.4byte	.LVL13-1
 2537 00fa 42000000 		.4byte	.LFE68
 2538 00fe 0400     		.2byte	0x4
 2539 0100 F3       		.byte	0xf3
 2540 0101 01       		.uleb128 0x1
 2541 0102 52       		.byte	0x52
 2542 0103 9F       		.byte	0x9f
 2543 0104 00000000 		.4byte	0
 2544 0108 00000000 		.4byte	0
 2545              	.LLST8:
 2546 010c 00000000 		.4byte	.LVL10
 2547 0110 0E000000 		.4byte	.LVL11
 2548 0114 0100     		.2byte	0x1
 2549 0116 53       		.byte	0x53
 2550 0117 0E000000 		.4byte	.LVL11
 2551 011b 42000000 		.4byte	.LFE68
ARM GAS  /tmp/ccRkmKFm.s 			page 46


 2552 011f 0100     		.2byte	0x1
 2553 0121 57       		.byte	0x57
 2554 0122 00000000 		.4byte	0
 2555 0126 00000000 		.4byte	0
 2556              	.LLST9:
 2557 012a 00000000 		.4byte	.LVL14
 2558 012e 0C000000 		.4byte	.LVL16
 2559 0132 0100     		.2byte	0x1
 2560 0134 50       		.byte	0x50
 2561 0135 0C000000 		.4byte	.LVL16
 2562 0139 36000000 		.4byte	.LFE69
 2563 013d 0100     		.2byte	0x1
 2564 013f 54       		.byte	0x54
 2565 0140 00000000 		.4byte	0
 2566 0144 00000000 		.4byte	0
 2567              	.LLST10:
 2568 0148 00000000 		.4byte	.LVL14
 2569 014c 21000000 		.4byte	.LVL17-1
 2570 0150 0100     		.2byte	0x1
 2571 0152 51       		.byte	0x51
 2572 0153 21000000 		.4byte	.LVL17-1
 2573 0157 36000000 		.4byte	.LFE69
 2574 015b 0400     		.2byte	0x4
 2575 015d F3       		.byte	0xf3
 2576 015e 01       		.uleb128 0x1
 2577 015f 51       		.byte	0x51
 2578 0160 9F       		.byte	0x9f
 2579 0161 00000000 		.4byte	0
 2580 0165 00000000 		.4byte	0
 2581              	.LLST11:
 2582 0169 00000000 		.4byte	.LVL14
 2583 016d 21000000 		.4byte	.LVL17-1
 2584 0171 0100     		.2byte	0x1
 2585 0173 52       		.byte	0x52
 2586 0174 21000000 		.4byte	.LVL17-1
 2587 0178 36000000 		.4byte	.LFE69
 2588 017c 0400     		.2byte	0x4
 2589 017e F3       		.byte	0xf3
 2590 017f 01       		.uleb128 0x1
 2591 0180 52       		.byte	0x52
 2592 0181 9F       		.byte	0x9f
 2593 0182 00000000 		.4byte	0
 2594 0186 00000000 		.4byte	0
 2595              	.LLST12:
 2596 018a 00000000 		.4byte	.LVL14
 2597 018e 0A000000 		.4byte	.LVL15
 2598 0192 0100     		.2byte	0x1
 2599 0194 53       		.byte	0x53
 2600 0195 0A000000 		.4byte	.LVL15
 2601 0199 36000000 		.4byte	.LFE69
 2602 019d 0100     		.2byte	0x1
 2603 019f 55       		.byte	0x55
 2604 01a0 00000000 		.4byte	0
 2605 01a4 00000000 		.4byte	0
 2606              	.LLST13:
 2607 01a8 00000000 		.4byte	.LVL18
 2608 01ac 02000000 		.4byte	.LVL19
ARM GAS  /tmp/ccRkmKFm.s 			page 47


 2609 01b0 0100     		.2byte	0x1
 2610 01b2 50       		.byte	0x50
 2611 01b3 02000000 		.4byte	.LVL19
 2612 01b7 05000000 		.4byte	.LVL20-1
 2613 01bb 0300     		.2byte	0x3
 2614 01bd 70       		.byte	0x70
 2615 01be 74       		.sleb128 -12
 2616 01bf 9F       		.byte	0x9f
 2617 01c0 05000000 		.4byte	.LVL20-1
 2618 01c4 06000000 		.4byte	.LFE70
 2619 01c8 0400     		.2byte	0x4
 2620 01ca F3       		.byte	0xf3
 2621 01cb 01       		.uleb128 0x1
 2622 01cc 50       		.byte	0x50
 2623 01cd 9F       		.byte	0x9f
 2624 01ce 00000000 		.4byte	0
 2625 01d2 00000000 		.4byte	0
 2626              	.LLST14:
 2627 01d6 00000000 		.4byte	.LVL21
 2628 01da 03000000 		.4byte	.LVL22-1
 2629 01de 0100     		.2byte	0x1
 2630 01e0 50       		.byte	0x50
 2631 01e1 03000000 		.4byte	.LVL22-1
 2632 01e5 04000000 		.4byte	.LFE71
 2633 01e9 0400     		.2byte	0x4
 2634 01eb F3       		.byte	0xf3
 2635 01ec 01       		.uleb128 0x1
 2636 01ed 50       		.byte	0x50
 2637 01ee 9F       		.byte	0x9f
 2638 01ef 00000000 		.4byte	0
 2639 01f3 00000000 		.4byte	0
 2640              		.section	.debug_aranges,"",%progbits
 2641 0000 5C000000 		.4byte	0x5c
 2642 0004 0200     		.2byte	0x2
 2643 0006 00000000 		.4byte	.Ldebug_info0
 2644 000a 04       		.byte	0x4
 2645 000b 00       		.byte	0
 2646 000c 0000     		.2byte	0
 2647 000e 0000     		.2byte	0
 2648 0010 00000000 		.4byte	.LFB63
 2649 0014 04000000 		.4byte	.LFE63-.LFB63
 2650 0018 00000000 		.4byte	.LFB64
 2651 001c 0E000000 		.4byte	.LFE64-.LFB64
 2652 0020 00000000 		.4byte	.LFB65
 2653 0024 1C000000 		.4byte	.LFE65-.LFB65
 2654 0028 00000000 		.4byte	.LFB66
 2655 002c 1A000000 		.4byte	.LFE66-.LFB66
 2656 0030 00000000 		.4byte	.LFB67
 2657 0034 04000000 		.4byte	.LFE67-.LFB67
 2658 0038 00000000 		.4byte	.LFB68
 2659 003c 42000000 		.4byte	.LFE68-.LFB68
 2660 0040 00000000 		.4byte	.LFB69
 2661 0044 36000000 		.4byte	.LFE69-.LFB69
 2662 0048 00000000 		.4byte	.LFB70
 2663 004c 06000000 		.4byte	.LFE70-.LFB70
 2664 0050 00000000 		.4byte	.LFB71
 2665 0054 04000000 		.4byte	.LFE71-.LFB71
ARM GAS  /tmp/ccRkmKFm.s 			page 48


 2666 0058 00000000 		.4byte	0
 2667 005c 00000000 		.4byte	0
 2668              		.section	.debug_ranges,"",%progbits
 2669              	.Ldebug_ranges0:
 2670 0000 02000000 		.4byte	.LBB2
 2671 0004 04000000 		.4byte	.LBE2
 2672 0008 06000000 		.4byte	.LBB3
 2673 000c 0A000000 		.4byte	.LBE3
 2674 0010 00000000 		.4byte	0
 2675 0014 00000000 		.4byte	0
 2676 0018 02000000 		.4byte	.LBB5
 2677 001c 04000000 		.4byte	.LBE5
 2678 0020 06000000 		.4byte	.LBB6
 2679 0024 0A000000 		.4byte	.LBE6
 2680 0028 00000000 		.4byte	0
 2681 002c 00000000 		.4byte	0
 2682 0030 08000000 		.4byte	.LBB10
 2683 0034 0A000000 		.4byte	.LBE10
 2684 0038 0C000000 		.4byte	.LBB11
 2685 003c 10000000 		.4byte	.LBE11
 2686 0040 00000000 		.4byte	0
 2687 0044 00000000 		.4byte	0
 2688 0048 00000000 		.4byte	.LFB63
 2689 004c 04000000 		.4byte	.LFE63
 2690 0050 00000000 		.4byte	.LFB64
 2691 0054 0E000000 		.4byte	.LFE64
 2692 0058 00000000 		.4byte	.LFB65
 2693 005c 1C000000 		.4byte	.LFE65
 2694 0060 00000000 		.4byte	.LFB66
 2695 0064 1A000000 		.4byte	.LFE66
 2696 0068 00000000 		.4byte	.LFB67
 2697 006c 04000000 		.4byte	.LFE67
 2698 0070 00000000 		.4byte	.LFB68
 2699 0074 42000000 		.4byte	.LFE68
 2700 0078 00000000 		.4byte	.LFB69
 2701 007c 36000000 		.4byte	.LFE69
 2702 0080 00000000 		.4byte	.LFB70
 2703 0084 06000000 		.4byte	.LFE70
 2704 0088 00000000 		.4byte	.LFB71
 2705 008c 04000000 		.4byte	.LFE71
 2706 0090 00000000 		.4byte	0
 2707 0094 00000000 		.4byte	0
 2708              		.section	.debug_line,"",%progbits
 2709              	.Ldebug_line0:
 2710 0000 4F030000 		.section	.debug_str,"MS",%progbits,1
 2710      02007A02 
 2710      00000201 
 2710      FB0E0D00 
 2710      01010101 
 2711              	.LASF98:
 2712 0000 5354445F 		.ascii	"STD_DUTY_CYCLE\000"
 2712      44555459 
 2712      5F435943 
 2712      4C4500
 2713              	.LASF115:
 2714 000f 646D6172 		.ascii	"dmarx\000"
 2714      7800
ARM GAS  /tmp/ccRkmKFm.s 			page 49


 2715              	.LASF101:
 2716 0015 69326364 		.ascii	"i2cdutycycle_t\000"
 2716      75747963 
 2716      79636C65 
 2716      5F7400
 2717              	.LASF91:
 2718 0024 69326373 		.ascii	"i2cstate_t\000"
 2718      74617465 
 2718      5F7400
 2719              	.LASF2:
 2720 002f 73697A65 		.ascii	"size_t\000"
 2720      5F7400
 2721              	.LASF57:
 2722 0036 7264796D 		.ascii	"rdymsg\000"
 2722      736700
 2723              	.LASF3:
 2724 003d 5F5F7569 		.ascii	"__uint8_t\000"
 2724      6E74385F 
 2724      7400
 2725              	.LASF86:
 2726 0047 4932435F 		.ascii	"I2C_STOP\000"
 2726      53544F50 
 2726      00
 2727              	.LASF136:
 2728 0050 6932635F 		.ascii	"i2c_lld_master_receive_timeout\000"
 2728      6C6C645F 
 2728      6D617374 
 2728      65725F72 
 2728      65636569 
 2729              	.LASF76:
 2730 006f 54524953 		.ascii	"TRISE\000"
 2730      4500
 2731              	.LASF126:
 2732 0075 72786275 		.ascii	"rxbuf\000"
 2732      6600
 2733              	.LASF13:
 2734 007b 6C6F6E67 		.ascii	"long long unsigned int\000"
 2734      206C6F6E 
 2734      6720756E 
 2734      7369676E 
 2734      65642069 
 2735              	.LASF112:
 2736 0092 61646472 		.ascii	"addr\000"
 2736      00
 2737              	.LASF119:
 2738 0097 69326353 		.ascii	"i2cStart\000"
 2738      74617274 
 2738      00
 2739              	.LASF58:
 2740 00a0 65786974 		.ascii	"exitcode\000"
 2740      636F6465 
 2740      00
 2741              	.LASF83:
 2742 00a9 76656374 		.ascii	"vector\000"
 2742      6F7200
 2743              	.LASF131:
 2744 00b0 69326352 		.ascii	"i2cReleaseBus\000"
ARM GAS  /tmp/ccRkmKFm.s 			page 50


 2744      656C6561 
 2744      73654275 
 2744      7300
 2745              	.LASF141:
 2746 00be 49544D5F 		.ascii	"ITM_RxBuffer\000"
 2746      52784275 
 2746      66666572 
 2746      00
 2747              	.LASF120:
 2748 00cb 69326370 		.ascii	"i2cp\000"
 2748      00
 2749              	.LASF30:
 2750 00d0 705F7072 		.ascii	"p_prio\000"
 2750      696F00
 2751              	.LASF123:
 2752 00d7 6932634D 		.ascii	"i2cMasterTransmitTimeout\000"
 2752      61737465 
 2752      72547261 
 2752      6E736D69 
 2752      7454696D 
 2753              	.LASF143:
 2754 00f0 63684D74 		.ascii	"chMtxUnlock\000"
 2754      78556E6C 
 2754      6F636B00 
 2755              	.LASF1:
 2756 00fc 7369676E 		.ascii	"signed char\000"
 2756      65642063 
 2756      68617200 
 2757              	.LASF103:
 2758 0108 636C6F63 		.ascii	"clock_speed\000"
 2758      6B5F7370 
 2758      65656400 
 2759              	.LASF46:
 2760 0114 705F6D70 		.ascii	"p_mpool\000"
 2760      6F6F6C00 
 2761              	.LASF54:
 2762 011c 6D5F7175 		.ascii	"m_queue\000"
 2762      65756500 
 2763              	.LASF135:
 2764 0124 6932635F 		.ascii	"i2c_lld_master_transmit_timeout\000"
 2764      6C6C645F 
 2764      6D617374 
 2764      65725F74 
 2764      72616E73 
 2765              	.LASF22:
 2766 0144 74736C69 		.ascii	"tslices_t\000"
 2766      6365735F 
 2766      7400
 2767              	.LASF92:
 2768 014e 69326361 		.ascii	"i2caddr_t\000"
 2768      6464725F 
 2768      7400
 2769              	.LASF107:
 2770 0158 73746174 		.ascii	"state\000"
 2770      6500
 2771              	.LASF9:
 2772 015e 6C6F6E67 		.ascii	"long int\000"
ARM GAS  /tmp/ccRkmKFm.s 			page 51


 2772      20696E74 
 2772      00
 2773              	.LASF20:
 2774 0167 74737461 		.ascii	"tstate_t\000"
 2774      74655F74 
 2774      00
 2775              	.LASF111:
 2776 0170 74687265 		.ascii	"thread\000"
 2776      616400
 2777              	.LASF37:
 2778 0177 705F7265 		.ascii	"p_refs\000"
 2778      667300
 2779              	.LASF12:
 2780 017e 6C6F6E67 		.ascii	"long long int\000"
 2780      206C6F6E 
 2780      6720696E 
 2780      7400
 2781              	.LASF105:
 2782 018c 49324343 		.ascii	"I2CConfig\000"
 2782      6F6E6669 
 2782      6700
 2783              	.LASF39:
 2784 0196 705F7469 		.ascii	"p_time\000"
 2784      6D6500
 2785              	.LASF32:
 2786 019d 705F6E65 		.ascii	"p_newer\000"
 2786      77657200 
 2787              	.LASF113:
 2788 01a5 7278646D 		.ascii	"rxdmamode\000"
 2788      616D6F64 
 2788      6500
 2789              	.LASF116:
 2790 01af 646D6174 		.ascii	"dmatx\000"
 2790      7800
 2791              	.LASF96:
 2792 01b5 4F504D4F 		.ascii	"OPMODE_SMBUS_HOST\000"
 2792      44455F53 
 2792      4D425553 
 2792      5F484F53 
 2792      5400
 2793              	.LASF10:
 2794 01c7 5F5F7569 		.ascii	"__uint32_t\000"
 2794      6E743332 
 2794      5F7400
 2795              	.LASF49:
 2796 01d2 72656761 		.ascii	"regarm_t\000"
 2796      726D5F74 
 2796      00
 2797              	.LASF82:
 2798 01db 73656C66 		.ascii	"selfindex\000"
 2798      696E6465 
 2798      7800
 2799              	.LASF102:
 2800 01e5 6F705F6D 		.ascii	"op_mode\000"
 2800      6F646500 
 2801              	.LASF27:
 2802 01ed 54687265 		.ascii	"Thread\000"
ARM GAS  /tmp/ccRkmKFm.s 			page 52


 2802      616400
 2803              	.LASF0:
 2804 01f4 756E7369 		.ascii	"unsigned int\000"
 2804      676E6564 
 2804      20696E74 
 2804      00
 2805              	.LASF124:
 2806 0201 74786275 		.ascii	"txbuf\000"
 2806      6600
 2807              	.LASF63:
 2808 0207 43504152 		.ascii	"CPAR\000"
 2808      00
 2809              	.LASF41:
 2810 020c 705F6D73 		.ascii	"p_msgqueue\000"
 2810      67717565 
 2810      756500
 2811              	.LASF128:
 2812 0217 74696D65 		.ascii	"timeout\000"
 2812      6F757400 
 2813              	.LASF65:
 2814 021f 444D415F 		.ascii	"DMA_Channel_TypeDef\000"
 2814      4368616E 
 2814      6E656C5F 
 2814      54797065 
 2814      44656600 
 2815              	.LASF81:
 2816 0233 69736869 		.ascii	"ishift\000"
 2816      667400
 2817              	.LASF140:
 2818 023a 2F6D6E74 		.ascii	"/mnt/c/Users/DQ Sullivan/Downloads/Convex/convex/co"
 2818      2F632F55 
 2818      73657273 
 2818      2F445120 
 2818      53756C6C 
 2819 026d 72746578 		.ascii	"rtex/projects/Vex2016 CyberBrains\000"
 2819      2F70726F 
 2819      6A656374 
 2819      732F5665 
 2819      78323031 
 2820              	.LASF138:
 2821 028f 474E5520 		.ascii	"GNU C 4.8.2 -mcpu=cortex-m3 -mno-thumb-interwork -m"
 2821      4320342E 
 2821      382E3220 
 2821      2D6D6370 
 2821      753D636F 
 2822 02c2 7468756D 		.ascii	"thumb -ggdb -O2 -fomit-frame-pointer -falign-functi"
 2822      62202D67 
 2822      67646220 
 2822      2D4F3220 
 2822      2D666F6D 
 2823 02f5 6F6E733D 		.ascii	"ons=16 -ffunction-sections -fdata-sections -fno-com"
 2823      3136202D 
 2823      6666756E 
 2823      6374696F 
 2823      6E2D7365 
 2824 0328 6D6F6E00 		.ascii	"mon\000"
 2825              	.LASF95:
ARM GAS  /tmp/ccRkmKFm.s 			page 53


 2826 032c 4F504D4F 		.ascii	"OPMODE_SMBUS_DEVICE\000"
 2826      44455F53 
 2826      4D425553 
 2826      5F444556 
 2826      49434500 
 2827              	.LASF7:
 2828 0340 73686F72 		.ascii	"short unsigned int\000"
 2828      7420756E 
 2828      7369676E 
 2828      65642069 
 2828      6E7400
 2829              	.LASF106:
 2830 0353 49324344 		.ascii	"I2CDriver\000"
 2830      72697665 
 2830      7200
 2831              	.LASF24:
 2832 035d 6D73675F 		.ascii	"msg_t\000"
 2832      7400
 2833              	.LASF139:
 2834 0363 2E2E2F2E 		.ascii	"../../../../ChibiOS_2.6.2/os/hal/src/i2c.c\000"
 2834      2E2F2E2E 
 2834      2F2E2E2F 
 2834      43686962 
 2834      694F535F 
 2835              	.LASF19:
 2836 038e 746D6F64 		.ascii	"tmode_t\000"
 2836      655F7400 
 2837              	.LASF15:
 2838 0396 75696E74 		.ascii	"uint16_t\000"
 2838      31365F74 
 2838      00
 2839              	.LASF48:
 2840 039f 54687265 		.ascii	"ThreadsList\000"
 2840      6164734C 
 2840      69737400 
 2841              	.LASF25:
 2842 03ab 6576656E 		.ascii	"eventmask_t\000"
 2842      746D6173 
 2842      6B5F7400 
 2843              	.LASF5:
 2844 03b7 73686F72 		.ascii	"short int\000"
 2844      7420696E 
 2844      7400
 2845              	.LASF134:
 2846 03c1 6932635F 		.ascii	"i2c_lld_stop\000"
 2846      6C6C645F 
 2846      73746F70 
 2846      00
 2847              	.LASF133:
 2848 03ce 6932635F 		.ascii	"i2c_lld_start\000"
 2848      6C6C645F 
 2848      73746172 
 2848      7400
 2849              	.LASF52:
 2850 03dc 73697A65 		.ascii	"sizetype\000"
 2850      74797065 
 2850      00
ARM GAS  /tmp/ccRkmKFm.s 			page 54


 2851              	.LASF53:
 2852 03e5 4D757465 		.ascii	"Mutex\000"
 2852      7800
 2853              	.LASF109:
 2854 03eb 6572726F 		.ascii	"errors\000"
 2854      727300
 2855              	.LASF104:
 2856 03f2 64757479 		.ascii	"duty_cycle\000"
 2856      5F637963 
 2856      6C6500
 2857              	.LASF137:
 2858 03fd 63684D74 		.ascii	"chMtxLock\000"
 2858      784C6F63 
 2858      6B00
 2859              	.LASF33:
 2860 0407 705F6F6C 		.ascii	"p_older\000"
 2860      64657200 
 2861              	.LASF127:
 2862 040f 72786279 		.ascii	"rxbytes\000"
 2862      74657300 
 2863              	.LASF121:
 2864 0417 69326353 		.ascii	"i2cStop\000"
 2864      746F7000 
 2865              	.LASF47:
 2866 041f 54687265 		.ascii	"ThreadsQueue\000"
 2866      61647351 
 2866      75657565 
 2866      00
 2867              	.LASF114:
 2868 042c 7478646D 		.ascii	"txdmamode\000"
 2868      616D6F64 
 2868      6500
 2869              	.LASF94:
 2870 0436 4F504D4F 		.ascii	"OPMODE_I2C\000"
 2870      44455F49 
 2870      324300
 2871              	.LASF100:
 2872 0441 46415354 		.ascii	"FAST_DUTY_CYCLE_16_9\000"
 2872      5F445554 
 2872      595F4359 
 2872      434C455F 
 2872      31365F39 
 2873              	.LASF21:
 2874 0456 74726566 		.ascii	"trefs_t\000"
 2874      735F7400 
 2875              	.LASF66:
 2876 045e 52455345 		.ascii	"RESERVED0\000"
 2876      52564544 
 2876      3000
 2877              	.LASF67:
 2878 0468 52455345 		.ascii	"RESERVED1\000"
 2878      52564544 
 2878      3100
 2879              	.LASF69:
 2880 0472 52455345 		.ascii	"RESERVED2\000"
 2880      52564544 
 2880      3200
ARM GAS  /tmp/ccRkmKFm.s 			page 55


 2881              	.LASF71:
 2882 047c 52455345 		.ascii	"RESERVED3\000"
 2882      52564544 
 2882      3300
 2883              	.LASF72:
 2884 0486 52455345 		.ascii	"RESERVED4\000"
 2884      52564544 
 2884      3400
 2885              	.LASF29:
 2886 0490 705F7072 		.ascii	"p_prev\000"
 2886      657600
 2887              	.LASF74:
 2888 0497 52455345 		.ascii	"RESERVED6\000"
 2888      52564544 
 2888      3600
 2889              	.LASF75:
 2890 04a1 52455345 		.ascii	"RESERVED7\000"
 2890      52564544 
 2890      3700
 2891              	.LASF77:
 2892 04ab 52455345 		.ascii	"RESERVED8\000"
 2892      52564544 
 2892      3800
 2893              	.LASF23:
 2894 04b5 74707269 		.ascii	"tprio_t\000"
 2894      6F5F7400 
 2895              	.LASF88:
 2896 04bd 4932435F 		.ascii	"I2C_ACTIVE_TX\000"
 2896      41435449 
 2896      56455F54 
 2896      5800
 2897              	.LASF93:
 2898 04cb 69326366 		.ascii	"i2cflags_t\000"
 2898      6C616773 
 2898      5F7400
 2899              	.LASF110:
 2900 04d6 6D757465 		.ascii	"mutex\000"
 2900      7800
 2901              	.LASF18:
 2902 04dc 5F426F6F 		.ascii	"_Bool\000"
 2902      6C00
 2903              	.LASF16:
 2904 04e2 696E7433 		.ascii	"int32_t\000"
 2904      325F7400 
 2905              	.LASF4:
 2906 04ea 756E7369 		.ascii	"unsigned char\000"
 2906      676E6564 
 2906      20636861 
 2906      7200
 2907              	.LASF84:
 2908 04f8 73746D33 		.ascii	"stm32_dma_stream_t\000"
 2908      325F646D 
 2908      615F7374 
 2908      7265616D 
 2908      5F7400
 2909              	.LASF44:
 2910 050b 705F6D74 		.ascii	"p_mtxlist\000"
ARM GAS  /tmp/ccRkmKFm.s 			page 56


 2910      786C6973 
 2910      7400
 2911              	.LASF85:
 2912 0515 4932435F 		.ascii	"I2C_UNINIT\000"
 2912      554E494E 
 2912      495400
 2913              	.LASF35:
 2914 0520 705F7374 		.ascii	"p_state\000"
 2914      61746500 
 2915              	.LASF38:
 2916 0528 705F7072 		.ascii	"p_preempt\000"
 2916      65656D70 
 2916      7400
 2917              	.LASF122:
 2918 0532 69326347 		.ascii	"i2cGetErrors\000"
 2918      65744572 
 2918      726F7273 
 2918      00
 2919              	.LASF60:
 2920 053f 65776D61 		.ascii	"ewmask\000"
 2920      736B00
 2921              	.LASF28:
 2922 0546 705F6E65 		.ascii	"p_next\000"
 2922      787400
 2923              	.LASF36:
 2924 054d 705F666C 		.ascii	"p_flags\000"
 2924      61677300 
 2925              	.LASF99:
 2926 0555 46415354 		.ascii	"FAST_DUTY_CYCLE_2\000"
 2926      5F445554 
 2926      595F4359 
 2926      434C455F 
 2926      3200
 2927              	.LASF79:
 2928 0567 6368616E 		.ascii	"channel\000"
 2928      6E656C00 
 2929              	.LASF90:
 2930 056f 4932435F 		.ascii	"I2C_LOCKED\000"
 2930      4C4F434B 
 2930      454400
 2931              	.LASF43:
 2932 057a 705F6570 		.ascii	"p_epending\000"
 2932      656E6469 
 2932      6E6700
 2933              	.LASF80:
 2934 0585 69666372 		.ascii	"ifcr\000"
 2934      00
 2935              	.LASF73:
 2936 058a 52455345 		.ascii	"RESERVED5\000"
 2936      52564544 
 2936      3500
 2937              	.LASF17:
 2938 0594 75696E74 		.ascii	"uint32_t\000"
 2938      33325F74 
 2938      00
 2939              	.LASF89:
 2940 059d 4932435F 		.ascii	"I2C_ACTIVE_RX\000"
ARM GAS  /tmp/ccRkmKFm.s 			page 57


 2940      41435449 
 2940      56455F52 
 2940      5800
 2941              	.LASF11:
 2942 05ab 6C6F6E67 		.ascii	"long unsigned int\000"
 2942      20756E73 
 2942      69676E65 
 2942      6420696E 
 2942      7400
 2943              	.LASF61:
 2944 05bd 63686172 		.ascii	"char\000"
 2944      00
 2945              	.LASF108:
 2946 05c2 636F6E66 		.ascii	"config\000"
 2946      696700
 2947              	.LASF6:
 2948 05c9 5F5F7569 		.ascii	"__uint16_t\000"
 2948      6E743136 
 2948      5F7400
 2949              	.LASF56:
 2950 05d4 6D5F6E65 		.ascii	"m_next\000"
 2950      787400
 2951              	.LASF26:
 2952 05db 73797374 		.ascii	"systime_t\000"
 2952      696D655F 
 2952      7400
 2953              	.LASF45:
 2954 05e5 705F7265 		.ascii	"p_realprio\000"
 2954      616C7072 
 2954      696F00
 2955              	.LASF8:
 2956 05f0 5F5F696E 		.ascii	"__int32_t\000"
 2956      7433325F 
 2956      7400
 2957              	.LASF87:
 2958 05fa 4932435F 		.ascii	"I2C_READY\000"
 2958      52454144 
 2958      5900
 2959              	.LASF51:
 2960 0604 636F6E74 		.ascii	"context\000"
 2960      65787400 
 2961              	.LASF50:
 2962 060c 696E7463 		.ascii	"intctx\000"
 2962      747800
 2963              	.LASF132:
 2964 0613 63684D74 		.ascii	"chMtxInit\000"
 2964      78496E69 
 2964      7400
 2965              	.LASF142:
 2966 061d 6932635F 		.ascii	"i2c_lld_init\000"
 2966      6C6C645F 
 2966      696E6974 
 2966      00
 2967              	.LASF130:
 2968 062a 69326341 		.ascii	"i2cAcquireBus\000"
 2968      63717569 
 2968      72654275 
ARM GAS  /tmp/ccRkmKFm.s 			page 58


 2968      7300
 2969              	.LASF62:
 2970 0638 434E4454 		.ascii	"CNDTR\000"
 2970      5200
 2971              	.LASF64:
 2972 063e 434D4152 		.ascii	"CMAR\000"
 2972      00
 2973              	.LASF14:
 2974 0643 75696E74 		.ascii	"uint8_t\000"
 2974      385F7400 
 2975              	.LASF68:
 2976 064b 4F415231 		.ascii	"OAR1\000"
 2976      00
 2977              	.LASF70:
 2978 0650 4F415232 		.ascii	"OAR2\000"
 2978      00
 2979              	.LASF129:
 2980 0655 6932634D 		.ascii	"i2cMasterReceiveTimeout\000"
 2980      61737465 
 2980      72526563 
 2980      65697665 
 2980      54696D65 
 2981              	.LASF59:
 2982 066d 77746F62 		.ascii	"wtobjp\000"
 2982      6A7000
 2983              	.LASF34:
 2984 0674 705F6E61 		.ascii	"p_name\000"
 2984      6D6500
 2985              	.LASF117:
 2986 067b 69326349 		.ascii	"i2cInit\000"
 2986      6E697400 
 2987              	.LASF42:
 2988 0683 705F6D73 		.ascii	"p_msg\000"
 2988      6700
 2989              	.LASF78:
 2990 0689 4932435F 		.ascii	"I2C_TypeDef\000"
 2990      54797065 
 2990      44656600 
 2991              	.LASF97:
 2992 0695 6932636F 		.ascii	"i2copmode_t\000"
 2992      706D6F64 
 2992      655F7400 
 2993              	.LASF118:
 2994 06a1 6932634F 		.ascii	"i2cObjectInit\000"
 2994      626A6563 
 2994      74496E69 
 2994      7400
 2995              	.LASF55:
 2996 06af 6D5F6F77 		.ascii	"m_owner\000"
 2996      6E657200 
 2997              	.LASF31:
 2998 06b7 705F6374 		.ascii	"p_ctx\000"
 2998      7800
 2999              	.LASF40:
 3000 06bd 705F7761 		.ascii	"p_waiting\000"
 3000      6974696E 
 3000      6700
ARM GAS  /tmp/ccRkmKFm.s 			page 59


 3001              	.LASF125:
 3002 06c7 74786279 		.ascii	"txbytes\000"
 3002      74657300 
 3003              		.ident	"GCC: (4.8.2-14ubuntu1+6) 4.8.2"
ARM GAS  /tmp/ccRkmKFm.s 			page 60


DEFINED SYMBOLS
                            *ABS*:0000000000000000 i2c.c
     /tmp/ccRkmKFm.s:19     .text.i2cInit:0000000000000000 $t
     /tmp/ccRkmKFm.s:25     .text.i2cInit:0000000000000000 i2cInit
     /tmp/ccRkmKFm.s:40     .text.i2cObjectInit:0000000000000000 $t
     /tmp/ccRkmKFm.s:46     .text.i2cObjectInit:0000000000000000 i2cObjectInit
     /tmp/ccRkmKFm.s:71     .text.i2cStart:0000000000000000 $t
     /tmp/ccRkmKFm.s:77     .text.i2cStart:0000000000000000 i2cStart
     /tmp/ccRkmKFm.s:122    .text.i2cStop:0000000000000000 $t
     /tmp/ccRkmKFm.s:128    .text.i2cStop:0000000000000000 i2cStop
     /tmp/ccRkmKFm.s:171    .text.i2cGetErrors:0000000000000000 $t
     /tmp/ccRkmKFm.s:177    .text.i2cGetErrors:0000000000000000 i2cGetErrors
     /tmp/ccRkmKFm.s:193    .text.i2cMasterTransmitTimeout:0000000000000000 $t
     /tmp/ccRkmKFm.s:199    .text.i2cMasterTransmitTimeout:0000000000000000 i2cMasterTransmitTimeout
     /tmp/ccRkmKFm.s:273    .text.i2cMasterReceiveTimeout:0000000000000000 $t
     /tmp/ccRkmKFm.s:279    .text.i2cMasterReceiveTimeout:0000000000000000 i2cMasterReceiveTimeout
     /tmp/ccRkmKFm.s:352    .text.i2cAcquireBus:0000000000000000 $t
     /tmp/ccRkmKFm.s:358    .text.i2cAcquireBus:0000000000000000 i2cAcquireBus
     /tmp/ccRkmKFm.s:375    .text.i2cReleaseBus:0000000000000000 $t
     /tmp/ccRkmKFm.s:381    .text.i2cReleaseBus:0000000000000000 i2cReleaseBus
                     .debug_frame:0000000000000010 $d

UNDEFINED SYMBOLS
i2c_lld_init
chMtxInit
i2c_lld_start
i2c_lld_stop
i2c_lld_master_transmit_timeout
i2c_lld_master_receive_timeout
chMtxLock
chMtxUnlock
