ARM GAS  /tmp/ccRkmKFm.s 			page 1


   1              		.syntax unified
   2              		.cpu cortex-m3
   3              		.fpu softvfp
   4              		.eabi_attribute 20, 1
   5              		.eabi_attribute 21, 1
   6              		.eabi_attribute 23, 3
   7              		.eabi_attribute 24, 1
   8              		.eabi_attribute 25, 1
   9              		.eabi_attribute 26, 1
  10              		.eabi_attribute 30, 2
  11              		.eabi_attribute 34, 1
  12              		.eabi_attribute 18, 4
  13              		.thumb
  14              		.file	"i2c.c"
  15              		.text
  16              	.Ltext0:
  17              		.cfi_sections	.debug_frame
  18              		.section	.text.i2cInit,"ax",%progbits
  19              		.align	2
  20              		.p2align 4,,15
  21              		.global	i2cInit
  22              		.thumb
  23              		.thumb_func
  24              		.type	i2cInit, %function
  25              	i2cInit:
  26              	.LFB63:
  27              		.file 1 "../../../../ChibiOS_2.6.2/os/hal/src/i2c.c"
  28              		.loc 1 71 0
  29              		.cfi_startproc
  30              		@ args = 0, pretend = 0, frame = 0
  31              		@ frame_needed = 0, uses_anonymous_args = 0
  32              		@ link register save eliminated.
  33              		.loc 1 72 0
  34 0000 FFF7FEBF 		b	i2c_lld_init
  35              	.LVL0:
  36              		.cfi_endproc
  37              	.LFE63:
  38              		.size	i2cInit, .-i2cInit
  39 0004 AFF30080 		.section	.text.i2cObjectInit,"ax",%progbits
  39      AFF30080 
  39      AFF30080 
  40              		.align	2
  41              		.p2align 4,,15
  42              		.global	i2cObjectInit
  43              		.thumb
  44              		.thumb_func
  45              		.type	i2cObjectInit, %function
  46              	i2cObjectInit:
  47              	.LFB64:
  48              		.loc 1 82 0
  49              		.cfi_startproc
  50              		@ args = 0, pretend = 0, frame = 0
  51              		@ frame_needed = 0, uses_anonymous_args = 0
  52              		@ link register save eliminated.
  53              	.LVL1:
  54              		.loc 1 84 0
  55 0000 0122     		movs	r2, #1
ARM GAS  /tmp/ccRkmKFm.s 			page 2


  56              		.loc 1 85 0
  57 0002 0023     		movs	r3, #0
  58              		.loc 1 84 0
  59 0004 0270     		strb	r2, [r0]
  60              		.loc 1 85 0
  61 0006 4360     		str	r3, [r0, #4]
  62              		.loc 1 89 0
  63 0008 0C30     		adds	r0, r0, #12
  64              	.LVL2:
  65 000a FFF7FEBF 		b	chMtxInit
  66              	.LVL3:
  67              		.cfi_endproc
  68              	.LFE64:
  69              		.size	i2cObjectInit, .-i2cObjectInit
  70 000e 00BF     		.section	.text.i2cStart,"ax",%progbits
  71              		.align	2
  72              		.p2align 4,,15
  73              		.global	i2cStart
  74              		.thumb
  75              		.thumb_func
  76              		.type	i2cStart, %function
  77              	i2cStart:
  78              	.LFB65:
  79              		.loc 1 108 0
  80              		.cfi_startproc
  81              		@ args = 0, pretend = 0, frame = 0
  82              		@ frame_needed = 0, uses_anonymous_args = 0
  83              	.LVL4:
  84 0000 10B5     		push	{r4, lr}
  85              		.cfi_def_cfa_offset 8
  86              		.cfi_offset 4, -8
  87              		.cfi_offset 14, -4
  88              	.LBB2:
  89              		.loc 1 116 0
  90 0002 2023     		movs	r3, #32
  91              	.LBE2:
  92              		.loc 1 108 0
  93 0004 0446     		mov	r4, r0
  94              	.LBB3:
  95              		.loc 1 116 0
  96              	@ 116 "../../../../ChibiOS_2.6.2/os/hal/src/i2c.c" 1
  97 0006 83F31188 		msr     BASEPRI, r3
  98              	@ 0 "" 2
  99              		.thumb
 100              	.LBE3:
 101              		.loc 1 117 0
 102 000a 4160     		str	r1, [r0, #4]
 103              		.loc 1 118 0
 104 000c FFF7FEFF 		bl	i2c_lld_start
 105              	.LVL5:
 106              		.loc 1 119 0
 107 0010 0223     		movs	r3, #2
 108 0012 2370     		strb	r3, [r4]
 109              	.LBB4:
 110              		.loc 1 120 0
 111 0014 0023     		movs	r3, #0
 112              	@ 120 "../../../../ChibiOS_2.6.2/os/hal/src/i2c.c" 1
ARM GAS  /tmp/ccRkmKFm.s 			page 3


 113 0016 83F31188 		msr     BASEPRI, r3
 114              	@ 0 "" 2
 115              		.thumb
 116 001a 10BD     		pop	{r4, pc}
 117              	.LBE4:
 118              		.cfi_endproc
 119              	.LFE65:
 120              		.size	i2cStart, .-i2cStart
 121 001c AFF30080 		.section	.text.i2cStop,"ax",%progbits
 122              		.align	2
 123              		.p2align 4,,15
 124              		.global	i2cStop
 125              		.thumb
 126              		.thumb_func
 127              		.type	i2cStop, %function
 128              	i2cStop:
 129              	.LFB66:
 130              		.loc 1 130 0
 131              		.cfi_startproc
 132              		@ args = 0, pretend = 0, frame = 0
 133              		@ frame_needed = 0, uses_anonymous_args = 0
 134              	.LVL6:
 135 0000 10B5     		push	{r4, lr}
 136              		.cfi_def_cfa_offset 8
 137              		.cfi_offset 4, -8
 138              		.cfi_offset 14, -4
 139              	.LBB5:
 140              		.loc 1 138 0
 141 0002 2023     		movs	r3, #32
 142              	.LBE5:
 143              		.loc 1 130 0
 144 0004 0446     		mov	r4, r0
 145              	.LBB6:
 146              		.loc 1 138 0
 147              	@ 138 "../../../../ChibiOS_2.6.2/os/hal/src/i2c.c" 1
 148 0006 83F31188 		msr     BASEPRI, r3
 149              	@ 0 "" 2
 150              		.thumb
 151              	.LBE6:
 152              		.loc 1 139 0
 153 000a FFF7FEFF 		bl	i2c_lld_stop
 154              	.LVL7:
 155              		.loc 1 140 0
 156 000e 0123     		movs	r3, #1
 157 0010 2370     		strb	r3, [r4]
 158              	.LBB7:
 159              		.loc 1 141 0
 160 0012 0023     		movs	r3, #0
 161              	@ 141 "../../../../ChibiOS_2.6.2/os/hal/src/i2c.c" 1
 162 0014 83F31188 		msr     BASEPRI, r3
 163              	@ 0 "" 2
 164              		.thumb
 165 0018 10BD     		pop	{r4, pc}
 166              	.LBE7:
 167              		.cfi_endproc
 168              	.LFE66:
 169              		.size	i2cStop, .-i2cStop
ARM GAS  /tmp/ccRkmKFm.s 			page 4


 170 001a 00BFAFF3 		.section	.text.i2cGetErrors,"ax",%progbits
 170      0080
 171              		.align	2
 172              		.p2align 4,,15
 173              		.global	i2cGetErrors
 174              		.thumb
 175              		.thumb_func
 176              		.type	i2cGetErrors, %function
 177              	i2cGetErrors:
 178              	.LFB67:
 179              		.loc 1 152 0
 180              		.cfi_startproc
 181              		@ args = 0, pretend = 0, frame = 0
 182              		@ frame_needed = 0, uses_anonymous_args = 0
 183              		@ link register save eliminated.
 184              	.LVL8:
 185              		.loc 1 157 0
 186 0000 8068     		ldr	r0, [r0, #8]
 187              	.LVL9:
 188 0002 7047     		bx	lr
 189              		.cfi_endproc
 190              	.LFE67:
 191              		.size	i2cGetErrors, .-i2cGetErrors
 192 0004 AFF30080 		.section	.text.i2cMasterTransmitTimeout,"ax",%progbits
 192      AFF30080 
 192      AFF30080 
 193              		.align	2
 194              		.p2align 4,,15
 195              		.global	i2cMasterTransmitTimeout
 196              		.thumb
 197              		.thumb_func
 198              		.type	i2cMasterTransmitTimeout, %function
 199              	i2cMasterTransmitTimeout:
 200              	.LFB68:
 201              		.loc 1 191 0
 202              		.cfi_startproc
 203              		@ args = 12, pretend = 0, frame = 0
 204              		@ frame_needed = 0, uses_anonymous_args = 0
 205              	.LVL10:
 206 0000 F0B5     		push	{r4, r5, r6, r7, lr}
 207              		.cfi_def_cfa_offset 20
 208              		.cfi_offset 4, -20
 209              		.cfi_offset 5, -16
 210              		.cfi_offset 6, -12
 211              		.cfi_offset 7, -8
 212              		.cfi_offset 14, -4
 213 0002 85B0     		sub	sp, sp, #20
 214              		.cfi_def_cfa_offset 40
 215              		.loc 1 191 0
 216 0004 1F46     		mov	r7, r3
 217 0006 0446     		mov	r4, r0
 218 0008 0A9E     		ldr	r6, [sp, #40]
 219 000a 0B9D     		ldr	r5, [sp, #44]
 220              	.LBB8:
 221              		.loc 1 203 0
 222 000c 2023     		movs	r3, #32
 223              	.LVL11:
ARM GAS  /tmp/ccRkmKFm.s 			page 5


 224              	@ 203 "../../../../ChibiOS_2.6.2/os/hal/src/i2c.c" 1
 225 000e 83F31188 		msr     BASEPRI, r3
 226              	@ 0 "" 2
 227              		.thumb
 228              	.LBE8:
 229              		.loc 1 206 0
 230 0012 0C9B     		ldr	r3, [sp, #48]
 231              		.loc 1 205 0
 232 0014 4FF0030E 		mov	lr, #3
 233              		.loc 1 204 0
 234 0018 0020     		movs	r0, #0
 235              	.LVL12:
 236              		.loc 1 206 0
 237 001a 0293     		str	r3, [sp, #8]
 238 001c 0096     		str	r6, [sp]
 239 001e 0195     		str	r5, [sp, #4]
 240 0020 3B46     		mov	r3, r7
 241              		.loc 1 204 0
 242 0022 A060     		str	r0, [r4, #8]
 243              		.loc 1 205 0
 244 0024 84F800E0 		strb	lr, [r4]
 245              		.loc 1 206 0
 246 0028 2046     		mov	r0, r4
 247 002a FFF7FEFF 		bl	i2c_lld_master_transmit_timeout
 248              	.LVL13:
 249              		.loc 1 208 0
 250 002e 431C     		adds	r3, r0, #1
 251              		.loc 1 209 0
 252 0030 0CBF     		ite	eq
 253 0032 0523     		moveq	r3, #5
 254              		.loc 1 211 0
 255 0034 0223     		movne	r3, #2
 256 0036 2370     		strb	r3, [r4]
 257              	.LBB9:
 258              		.loc 1 212 0
 259 0038 0023     		movs	r3, #0
 260              	@ 212 "../../../../ChibiOS_2.6.2/os/hal/src/i2c.c" 1
 261 003a 83F31188 		msr     BASEPRI, r3
 262              	@ 0 "" 2
 263              		.thumb
 264              	.LBE9:
 265              		.loc 1 214 0
 266 003e 05B0     		add	sp, sp, #20
 267              		@ sp needed
 268 0040 F0BD     		pop	{r4, r5, r6, r7, pc}
 269              		.cfi_endproc
 270              	.LFE68:
 271              		.size	i2cMasterTransmitTimeout, .-i2cMasterTransmitTimeout
 272 0042 00BFAFF3 		.section	.text.i2cMasterReceiveTimeout,"ax",%progbits
 272      0080AFF3 
 272      0080AFF3 
 272      0080
 273              		.align	2
 274              		.p2align 4,,15
 275              		.global	i2cMasterReceiveTimeout
 276              		.thumb
 277              		.thumb_func
ARM GAS  /tmp/ccRkmKFm.s 			page 6


 278              		.type	i2cMasterReceiveTimeout, %function
 279              	i2cMasterReceiveTimeout:
 280              	.LFB69:
 281              		.loc 1 240 0
 282              		.cfi_startproc
 283              		@ args = 4, pretend = 0, frame = 0
 284              		@ frame_needed = 0, uses_anonymous_args = 0
 285              	.LVL14:
 286 0000 F0B5     		push	{r4, r5, r6, r7, lr}
 287              		.cfi_def_cfa_offset 20
 288              		.cfi_offset 4, -20
 289              		.cfi_offset 5, -16
 290              		.cfi_offset 6, -12
 291              		.cfi_offset 7, -8
 292              		.cfi_offset 14, -4
 293 0002 83B0     		sub	sp, sp, #12
 294              		.cfi_def_cfa_offset 32
 295              		.loc 1 240 0
 296 0004 1D46     		mov	r5, r3
 297 0006 0446     		mov	r4, r0
 298              	.LBB10:
 299              		.loc 1 252 0
 300 0008 2023     		movs	r3, #32
 301              	.LVL15:
 302              	.LBE10:
 303              		.loc 1 240 0
 304 000a 0898     		ldr	r0, [sp, #32]
 305              	.LVL16:
 306              	.LBB11:
 307              		.loc 1 252 0
 308              	@ 252 "../../../../ChibiOS_2.6.2/os/hal/src/i2c.c" 1
 309 000c 83F31188 		msr     BASEPRI, r3
 310              	@ 0 "" 2
 311              		.thumb
 312              	.LBE11:
 313              		.loc 1 253 0
 314 0010 0027     		movs	r7, #0
 315              		.loc 1 254 0
 316 0012 0426     		movs	r6, #4
 317              		.loc 1 255 0
 318 0014 2B46     		mov	r3, r5
 319 0016 0090     		str	r0, [sp]
 320              		.loc 1 253 0
 321 0018 A760     		str	r7, [r4, #8]
 322              		.loc 1 254 0
 323 001a 2670     		strb	r6, [r4]
 324              		.loc 1 255 0
 325 001c 2046     		mov	r0, r4
 326 001e FFF7FEFF 		bl	i2c_lld_master_receive_timeout
 327              	.LVL17:
 328              		.loc 1 256 0
 329 0022 421C     		adds	r2, r0, #1
 330              		.loc 1 257 0
 331 0024 0CBF     		ite	eq
 332 0026 0523     		moveq	r3, #5
 333              		.loc 1 259 0
 334 0028 0223     		movne	r3, #2
ARM GAS  /tmp/ccRkmKFm.s 			page 7


 335 002a 2370     		strb	r3, [r4]
 336              	.LBB12:
 337              		.loc 1 260 0
 338 002c 0023     		movs	r3, #0
 339              	@ 260 "../../../../ChibiOS_2.6.2/os/hal/src/i2c.c" 1
 340 002e 83F31188 		msr     BASEPRI, r3
 341              	@ 0 "" 2
 342              		.thumb
 343              	.LBE12:
 344              		.loc 1 262 0
 345 0032 03B0     		add	sp, sp, #12
 346              		@ sp needed
 347 0034 F0BD     		pop	{r4, r5, r6, r7, pc}
 348              		.cfi_endproc
 349              	.LFE69:
 350              		.size	i2cMasterReceiveTimeout, .-i2cMasterReceiveTimeout
 351 0036 00BFAFF3 		.section	.text.i2cAcquireBus,"ax",%progbits
 351      0080AFF3 
 351      0080
 352              		.align	2
 353              		.p2align 4,,15
 354              		.global	i2cAcquireBus
 355              		.thumb
 356              		.thumb_func
 357              		.type	i2cAcquireBus, %function
 358              	i2cAcquireBus:
 359              	.LFB70:
 360              		.loc 1 276 0
 361              		.cfi_startproc
 362              		@ args = 0, pretend = 0, frame = 0
 363              		@ frame_needed = 0, uses_anonymous_args = 0
 364              		@ link register save eliminated.
 365              	.LVL18:
 366              		.loc 1 281 0
 367 0000 0C30     		adds	r0, r0, #12
 368              	.LVL19:
 369 0002 FFF7FEBF 		b	chMtxLock
 370              	.LVL20:
 371              		.cfi_endproc
 372              	.LFE70:
 373              		.size	i2cAcquireBus, .-i2cAcquireBus
 374 0006 00BFAFF3 		.section	.text.i2cReleaseBus,"ax",%progbits
 374      0080AFF3 
 374      0080
 375              		.align	2
 376              		.p2align 4,,15
 377              		.global	i2cReleaseBus
 378              		.thumb
 379              		.thumb_func
 380              		.type	i2cReleaseBus, %function
 381              	i2cReleaseBus:
 382              	.LFB71:
 383              		.loc 1 296 0
 384              		.cfi_startproc
 385              		@ args = 0, pretend = 0, frame = 0
 386              		@ frame_needed = 0, uses_anonymous_args = 0
 387              		@ link register save eliminated.
ARM GAS  /tmp/ccRkmKFm.s 			page 8


 388              	.LVL21:
 389              		.loc 1 301 0
 390 0000 FFF7FEBF 		b	chMtxUnlock
 391              	.LVL22:
 392              		.cfi_endproc
 393              	.LFE71:
 394              		.size	i2cReleaseBus, .-i2cReleaseBus
 395 0004 AFF30080 		.text
 395      AFF30080 
 395      AFF30080 
 396              	.Letext0:
 397              		.file 2 "/usr/lib/gcc/arm-none-eabi/4.8.2/include/stddef.h"
 398              		.file 3 "/usr/include/newlib/machine/_default_types.h"
 399              		.file 4 "/usr/include/newlib/stdint.h"
 400              		.file 5 "../../../../ChibiOS_2.6.2/os/ports/GCC/ARMCMx/chtypes.h"
 401              		.file 6 "../../../../ChibiOS_2.6.2/os/kernel/include/chlists.h"
 402              		.file 7 "../../../../ChibiOS_2.6.2/os/kernel/include/chthreads.h"
 403              		.file 8 "../../../../ChibiOS_2.6.2/os/ports/GCC/ARMCMx/chcore_v7m.h"
 404              		.file 9 "../../../../ChibiOS_2.6.2/os/kernel/include/chmtx.h"
 405              		.file 10 "../../../../ChibiOS_2.6.2/os/hal/platforms/STM32F1xx/stm32f10x.h"
 406              		.file 11 "../../../../ChibiOS_2.6.2/os/hal/platforms/STM32F1xx/stm32_dma.h"
 407              		.file 12 "../../../../ChibiOS_2.6.2/os/hal/include/i2c.h"
 408              		.file 13 "../../../../ChibiOS_2.6.2/os/hal/platforms/STM32/I2Cv1/i2c_lld.h"
 409              		.file 14 "../../../../ChibiOS_2.6.2/os/ports/common/ARMCMx/CMSIS/include/core_cm3.h"