ARM GAS  /tmp/ccxuUUNx.s 			page 1


   1              		.syntax unified
   2              		.cpu cortex-m3
   3              		.fpu softvfp
   4              		.eabi_attribute 20, 1
   5              		.eabi_attribute 21, 1
   6              		.eabi_attribute 23, 3
   7              		.eabi_attribute 24, 1
   8              		.eabi_attribute 25, 1
   9              		.eabi_attribute 26, 1
  10              		.eabi_attribute 30, 2
  11              		.eabi_attribute 34, 1
  12              		.eabi_attribute 18, 4
  13              		.thumb
  14              		.file	"i2c_lld.c"
  15              		.text
  16              	.Ltext0:
  17              		.cfi_sections	.debug_frame
  18              		.section	.text.i2c_lld_abort_operation,"ax",%progbits
  19              		.align	2
  20              		.p2align 4,,15
  21              		.thumb
  22              		.thumb_func
  23              		.type	i2c_lld_abort_operation, %function
  24              	i2c_lld_abort_operation:
  25              	.LFB63:
  26              		.file 1 "../../../../ChibiOS_2.6.2/os/hal/platforms/STM32/I2Cv1/i2c_lld.c"
  27              		.loc 1 142 0
  28              		.cfi_startproc
  29              		@ args = 0, pretend = 0, frame = 0
  30              		@ frame_needed = 0, uses_anonymous_args = 0
  31              		@ link register save eliminated.
  32              	.LVL0:
  33              		.loc 1 152 0
  34 0000 026B     		ldr	r2, [r0, #48]
  35              		.loc 1 143 0
  36 0002 436B     		ldr	r3, [r0, #52]
  37              	.LVL1:
  38              		.loc 1 142 0
  39 0004 30B4     		push	{r4, r5}
  40              		.cfi_def_cfa_offset 8
  41              		.cfi_offset 4, -8
  42              		.cfi_offset 5, -4
  43              		.loc 1 147 0
  44 0006 0021     		movs	r1, #0
  45              		.loc 1 152 0
  46 0008 1468     		ldr	r4, [r2]
  47              		.loc 1 146 0
  48 000a 4FF40045 		mov	r5, #32768
  49 000e 1D80     		strh	r5, [r3]	@ movhi
  50              		.loc 1 147 0
  51 0010 1980     		strh	r1, [r3]	@ movhi
  52              		.loc 1 148 0
  53 0012 9980     		strh	r1, [r3, #4]	@ movhi
  54              		.loc 1 149 0
  55 0014 9982     		strh	r1, [r3, #20]	@ movhi
  56              		.loc 1 152 0
  57 0016 2368     		ldr	r3, [r4]
ARM GAS  /tmp/ccxuUUNx.s 			page 2


  58              	.LVL2:
  59 0018 0F21     		movs	r1, #15
  60 001a 23F00F03 		bic	r3, r3, #15
  61 001e 2360     		str	r3, [r4]
  62 0020 147A     		ldrb	r4, [r2, #8]	@ zero_extendqisi2
  63              		.loc 1 153 0
  64 0022 C36A     		ldr	r3, [r0, #44]
  65              		.loc 1 152 0
  66 0024 01FA04F4 		lsl	r4, r1, r4
  67 0028 5068     		ldr	r0, [r2, #4]
  68              	.LVL3:
  69              		.loc 1 153 0
  70 002a 1A68     		ldr	r2, [r3]
  71              		.loc 1 152 0
  72 002c 0460     		str	r4, [r0]
  73              		.loc 1 153 0
  74 002e 1468     		ldr	r4, [r2]
  75 0030 5868     		ldr	r0, [r3, #4]
  76 0032 24F00F04 		bic	r4, r4, #15
  77 0036 1460     		str	r4, [r2]
  78 0038 1B7A     		ldrb	r3, [r3, #8]	@ zero_extendqisi2
  79              		.loc 1 154 0
  80 003a 30BC     		pop	{r4, r5}
  81              		.loc 1 153 0
  82 003c 9940     		lsls	r1, r1, r3
  83 003e 0160     		str	r1, [r0]
  84              		.loc 1 154 0
  85 0040 7047     		bx	lr
  86              		.cfi_endproc
  87              	.LFE63:
  88              		.size	i2c_lld_abort_operation, .-i2c_lld_abort_operation
  89 0042 00BFAFF3 		.section	.text.i2c_lld_safety_timeout,"ax",%progbits
  89      0080AFF3 
  89      0080AFF3 
  89      0080
  90              		.align	2
  91              		.p2align 4,,15
  92              		.thumb
  93              		.thumb_func
  94              		.type	i2c_lld_safety_timeout, %function
  95              	i2c_lld_safety_timeout:
  96              	.LFB64:
  97              		.loc 1 163 0
  98              		.cfi_startproc
  99              		@ args = 0, pretend = 0, frame = 0
 100              		@ frame_needed = 0, uses_anonymous_args = 0
 101              	.LVL4:
 102 0000 38B5     		push	{r3, r4, r5, lr}
 103              		.cfi_def_cfa_offset 16
 104              		.cfi_offset 3, -16
 105              		.cfi_offset 4, -12
 106              		.cfi_offset 5, -8
 107              		.cfi_offset 14, -4
 108              		.loc 1 163 0
 109 0002 0446     		mov	r4, r0
 110              	.LVL5:
 111              	.LBB11:
ARM GAS  /tmp/ccxuUUNx.s 			page 3


 112              		.loc 1 166 0
 113 0004 2023     		movs	r3, #32
 114              	@ 166 "../../../../ChibiOS_2.6.2/os/hal/platforms/STM32/I2Cv1/i2c_lld.c" 1
 115 0006 83F31188 		msr     BASEPRI, r3
 116              	@ 0 "" 2
 117              		.thumb
 118              	.LBE11:
 119              		.loc 1 167 0
 120 000a C569     		ldr	r5, [r0, #28]
 121 000c 4DB1     		cbz	r5, .L3
 122              	.LVL6:
 123              	.LBB12:
 124              		.loc 1 169 0
 125 000e FFF7FEFF 		bl	i2c_lld_abort_operation
 126              	.LVL7:
 127              		.loc 1 170 0
 128 0012 0022     		movs	r2, #0
 129              		.loc 1 171 0
 130 0014 4FF0FF33 		mov	r3, #-1
 131              		.loc 1 170 0
 132 0018 E261     		str	r2, [r4, #28]
 133              		.loc 1 172 0
 134 001a 2846     		mov	r0, r5
 135              		.loc 1 171 0
 136 001c 6B62     		str	r3, [r5, #36]
 137              		.loc 1 172 0
 138 001e FFF7FEFF 		bl	chSchReadyI
 139              	.LVL8:
 140              	.L3:
 141              	.LBE12:
 142              	.LBB13:
 143              		.loc 1 174 0
 144 0022 0023     		movs	r3, #0
 145              	@ 174 "../../../../ChibiOS_2.6.2/os/hal/platforms/STM32/I2Cv1/i2c_lld.c" 1
 146 0024 83F31188 		msr     BASEPRI, r3
 147              	@ 0 "" 2
 148              		.thumb
 149 0028 38BD     		pop	{r3, r4, r5, pc}
 150              	.LBE13:
 151              		.cfi_endproc
 152              	.LFE64:
 153              		.size	i2c_lld_safety_timeout, .-i2c_lld_safety_timeout
 154 002a 00BFAFF3 		.section	.text.i2c_lld_serve_tx_end_irq,"ax",%progbits
 154      0080
 155              		.align	2
 156              		.p2align 4,,15
 157              		.thumb
 158              		.thumb_func
 159              		.type	i2c_lld_serve_tx_end_irq, %function
 160              	i2c_lld_serve_tx_end_irq:
 161              	.LFB69:
 162              		.loc 1 380 0
 163              		.cfi_startproc
 164              		@ args = 0, pretend = 0, frame = 0
 165              		@ frame_needed = 0, uses_anonymous_args = 0
 166              	.LVL9:
 167 0000 38B5     		push	{r3, r4, r5, lr}
ARM GAS  /tmp/ccxuUUNx.s 			page 4


 168              		.cfi_def_cfa_offset 16
 169              		.cfi_offset 3, -16
 170              		.cfi_offset 4, -12
 171              		.cfi_offset 5, -8
 172              		.cfi_offset 14, -4
 173              		.loc 1 385 0
 174 0002 0B07     		lsls	r3, r1, #28
 175              		.loc 1 380 0
 176 0004 0546     		mov	r5, r0
 177              		.loc 1 381 0
 178 0006 446B     		ldr	r4, [r0, #52]
 179              	.LVL10:
 180              		.loc 1 385 0
 181 0008 01D5     		bpl	.L9
 182              		.loc 1 386 0
 183 000a FFF7FEFF 		bl	port_halt
 184              	.LVL11:
 185              	.L9:
 186              		.loc 1 392 0
 187 000e 2B6B     		ldr	r3, [r5, #48]
 188 0010 0F20     		movs	r0, #15
 189 0012 1A68     		ldr	r2, [r3]
 190 0014 5968     		ldr	r1, [r3, #4]
 191 0016 1568     		ldr	r5, [r2]
 192              	.LVL12:
 193 0018 25F00F05 		bic	r5, r5, #15
 194 001c 1560     		str	r5, [r2]
 195 001e 1B7A     		ldrb	r3, [r3, #8]	@ zero_extendqisi2
 196 0020 00FA03F3 		lsl	r3, r0, r3
 197 0024 0B60     		str	r3, [r1]
 198              		.loc 1 396 0
 199 0026 A388     		ldrh	r3, [r4, #4]
 200 0028 9BB2     		uxth	r3, r3
 201 002a 43F40073 		orr	r3, r3, #512
 202 002e A380     		strh	r3, [r4, #4]	@ movhi
 203 0030 38BD     		pop	{r3, r4, r5, pc}
 204              		.cfi_endproc
 205              	.LFE69:
 206              		.size	i2c_lld_serve_tx_end_irq, .-i2c_lld_serve_tx_end_irq
 207 0032 00BFAFF3 		.section	.text.i2c_lld_serve_rx_end_irq,"ax",%progbits
 207      0080AFF3 
 207      0080AFF3 
 207      0080
 208              		.align	2
 209              		.p2align 4,,15
 210              		.thumb
 211              		.thumb_func
 212              		.type	i2c_lld_serve_rx_end_irq, %function
 213              	i2c_lld_serve_rx_end_irq:
 214              	.LFB68:
 215              		.loc 1 353 0
 216              		.cfi_startproc
 217              		@ args = 0, pretend = 0, frame = 0
 218              		@ frame_needed = 0, uses_anonymous_args = 0
 219              	.LVL13:
 220              		.loc 1 358 0
 221 0000 0A07     		lsls	r2, r1, #28
ARM GAS  /tmp/ccxuUUNx.s 			page 5


 222              		.loc 1 353 0
 223 0002 F8B5     		push	{r3, r4, r5, r6, r7, lr}
 224              		.cfi_def_cfa_offset 24
 225              		.cfi_offset 3, -24
 226              		.cfi_offset 4, -20
 227              		.cfi_offset 5, -16
 228              		.cfi_offset 6, -12
 229              		.cfi_offset 7, -8
 230              		.cfi_offset 14, -4
 231              		.loc 1 353 0
 232 0004 0546     		mov	r5, r0
 233              		.loc 1 354 0
 234 0006 446B     		ldr	r4, [r0, #52]
 235              	.LVL14:
 236              		.loc 1 358 0
 237 0008 2BD4     		bmi	.L22
 238              	.LVL15:
 239              	.L14:
 240              		.loc 1 365 0
 241 000a EA6A     		ldr	r2, [r5, #44]
 242 000c 0F26     		movs	r6, #15
 243 000e 1168     		ldr	r1, [r2]
 244 0010 5068     		ldr	r0, [r2, #4]
 245 0012 0F68     		ldr	r7, [r1]
 246              	.LBB14:
 247              		.loc 1 370 0
 248 0014 2023     		movs	r3, #32
 249              	.LBE14:
 250              		.loc 1 365 0
 251 0016 27F00F07 		bic	r7, r7, #15
 252 001a 0F60     		str	r7, [r1]
 253 001c 127A     		ldrb	r2, [r2, #8]	@ zero_extendqisi2
 254 001e 06FA02F2 		lsl	r2, r6, r2
 255 0022 0260     		str	r2, [r0]
 256              		.loc 1 367 0
 257 0024 A288     		ldrh	r2, [r4, #4]
 258 0026 22F48052 		bic	r2, r2, #4096
 259 002a 1204     		lsls	r2, r2, #16
 260 002c 120C     		lsrs	r2, r2, #16
 261 002e A280     		strh	r2, [r4, #4]	@ movhi
 262              		.loc 1 368 0
 263 0030 2288     		ldrh	r2, [r4]
 264 0032 22F48062 		bic	r2, r2, #1024
 265 0036 1204     		lsls	r2, r2, #16
 266 0038 120C     		lsrs	r2, r2, #16
 267 003a 2280     		strh	r2, [r4]	@ movhi
 268              		.loc 1 369 0
 269 003c 2288     		ldrh	r2, [r4]
 270 003e 92B2     		uxth	r2, r2
 271 0040 42F40072 		orr	r2, r2, #512
 272 0044 2280     		strh	r2, [r4]	@ movhi
 273              	.LBB15:
 274              		.loc 1 370 0
 275              	@ 370 "../../../../ChibiOS_2.6.2/os/hal/platforms/STM32/I2Cv1/i2c_lld.c" 1
 276 0046 83F31188 		msr     BASEPRI, r3
 277              	@ 0 "" 2
 278              		.thumb
ARM GAS  /tmp/ccxuUUNx.s 			page 6


 279              	.LBE15:
 280 004a EB69     		ldr	r3, [r5, #28]
 281 004c 2BB1     		cbz	r3, .L15
 282              	.LVL16:
 283              	.LBB16:
 284              		.loc 1 370 0 is_stmt 0 discriminator 1
 285 004e 0022     		movs	r2, #0
 286 0050 EA61     		str	r2, [r5, #28]
 287 0052 1846     		mov	r0, r3
 288 0054 5A62     		str	r2, [r3, #36]
 289 0056 FFF7FEFF 		bl	chSchReadyI
 290              	.LVL17:
 291              	.L15:
 292              	.LBE16:
 293              	.LBB17:
 294              		.loc 1 370 0 discriminator 2
 295 005a 0023     		movs	r3, #0
 296              	@ 370 "../../../../ChibiOS_2.6.2/os/hal/platforms/STM32/I2Cv1/i2c_lld.c" 1
 297 005c 83F31188 		msr     BASEPRI, r3
 298              	@ 0 "" 2
 299              		.thumb
 300 0060 F8BD     		pop	{r3, r4, r5, r6, r7, pc}
 301              	.LVL18:
 302              	.L22:
 303              	.LBE17:
 304              		.loc 1 359 0 is_stmt 1
 305 0062 FFF7FEFF 		bl	port_halt
 306              	.LVL19:
 307 0066 D0E7     		b	.L14
 308              		.cfi_endproc
 309              	.LFE68:
 310              		.size	i2c_lld_serve_rx_end_irq, .-i2c_lld_serve_rx_end_irq
 311 0068 AFF30080 		.section	.text.VectorBC,"ax",%progbits
 311      AFF30080 
 312              		.align	2
 313              		.p2align 4,,15
 314              		.global	VectorBC
 315              		.thumb
 316              		.thumb_func
 317              		.type	VectorBC, %function
 318              	VectorBC:
 319              	.LFB71:
 320              		.loc 1 454 0
 321              		.cfi_startproc
 322              		@ args = 0, pretend = 0, frame = 0
 323              		@ frame_needed = 0, uses_anonymous_args = 0
 324              	.LVL20:
 325              	.LBB23:
 326              	.LBB24:
 327              		.loc 1 294 0
 328 0000 40F20002 		movw	r2, #:lower16:.LANCHOR0
 329 0004 C0F20002 		movt	r2, #:upper16:.LANCHOR0
 330              	.LBE24:
 331              	.LBE23:
 332              		.loc 1 454 0
 333 0008 38B5     		push	{r3, r4, r5, lr}
 334              		.cfi_def_cfa_offset 16
ARM GAS  /tmp/ccxuUUNx.s 			page 7


 335              		.cfi_offset 3, -16
 336              		.cfi_offset 4, -12
 337              		.cfi_offset 5, -8
 338              		.cfi_offset 14, -4
 339              	.LBB31:
 340              	.LBB29:
 341              		.loc 1 294 0
 342 000a 546B     		ldr	r4, [r2, #52]
 343              	.LVL21:
 344              		.loc 1 301 0
 345 000c 0821     		movs	r1, #8
 346              		.loc 1 295 0
 347 000e 238B     		ldrh	r3, [r4, #24]
 348              	.LVL22:
 349              		.loc 1 296 0
 350 0010 A58A     		ldrh	r5, [r4, #20]
 351              		.loc 1 301 0
 352 0012 C0F20301 		movt	r1, 3
 353              		.loc 1 296 0
 354 0016 ADB2     		uxth	r5, r5
 355              	.LVL23:
 356              		.loc 1 301 0
 357 0018 45EA0343 		orr	r3, r5, r3, lsl #16
 358              	.LVL24:
 359 001c 23F07F43 		bic	r3, r3, #-16777216
 360 0020 8B42     		cmp	r3, r1
 361 0022 6BD0     		beq	.L25
 362 0024 25D8     		bhi	.L26
 363 0026 0121     		movs	r1, #1
 364 0028 C0F20301 		movt	r1, 3
 365 002c 8B42     		cmp	r3, r1
 366 002e 59D0     		beq	.L27
 367 0030 0221     		movs	r1, #2
 368 0032 C0F20301 		movt	r1, 3
 369 0036 8B42     		cmp	r3, r1
 370 0038 13D1     		bne	.L24
 371              		.loc 1 315 0
 372 003a A388     		ldrh	r3, [r4, #4]
 373              		.loc 1 316 0
 374 003c D26A     		ldr	r2, [r2, #44]
 375              		.loc 1 315 0
 376 003e 23F40073 		bic	r3, r3, #512
 377 0042 1B04     		lsls	r3, r3, #16
 378              		.loc 1 316 0
 379 0044 1268     		ldr	r2, [r2]
 380              		.loc 1 315 0
 381 0046 1B0C     		lsrs	r3, r3, #16
 382 0048 A380     		strh	r3, [r4, #4]	@ movhi
 383              		.loc 1 316 0
 384 004a 1368     		ldr	r3, [r2]
 385 004c 43F00103 		orr	r3, r3, #1
 386 0050 1360     		str	r3, [r2]
 387              		.loc 1 317 0
 388 0052 A388     		ldrh	r3, [r4, #4]
 389 0054 9BB2     		uxth	r3, r3
 390 0056 43F48053 		orr	r3, r3, #4096
 391 005a A380     		strh	r3, [r4, #4]	@ movhi
ARM GAS  /tmp/ccxuUUNx.s 			page 8


 392              		.loc 1 318 0
 393 005c 5368     		ldr	r3, [r2, #4]
 394 005e 012B     		cmp	r3, #1
 395 0060 5BD9     		bls	.L42
 396              	.L24:
 397              		.loc 1 341 0
 398 0062 15F00A0F 		tst	r5, #10
 399              		.loc 1 342 0
 400 0066 18BF     		it	ne
 401 0068 238B     		ldrhne	r3, [r4, #24]
 402              	.L33:
 403              	.LBE29:
 404              	.LBE31:
 405              		.loc 1 461 0
 406 006a BDE83840 		pop	{r3, r4, r5, lr}
 407              	.LVL25:
 408              		.loc 1 460 0
 409 006e FFF7FEBF 		b	_port_irq_epilogue
 410              	.LVL26:
 411              	.L26:
 412              	.LBB32:
 413              	.LBB30:
 414              		.loc 1 301 0
 415 0072 8221     		movs	r1, #130
 416 0074 C0F20701 		movt	r1, 7
 417 0078 8B42     		cmp	r3, r1
 418 007a 26D0     		beq	.L29
 419 007c 8421     		movs	r1, #132
 420 007e C0F20701 		movt	r1, 7
 421 0082 8B42     		cmp	r3, r1
 422 0084 EDD1     		bne	.L24
 423              		.loc 1 327 0
 424 0086 D36A     		ldr	r3, [r2, #44]
 425 0088 1B68     		ldr	r3, [r3]
 426 008a 5B68     		ldr	r3, [r3, #4]
 427 008c 002B     		cmp	r3, #0
 428 008e 3AD1     		bne	.L43
 429              		.loc 1 333 0
 430 0090 A188     		ldrh	r1, [r4, #4]
 431              	.LBB25:
 432              		.loc 1 335 0
 433 0092 2023     		movs	r3, #32
 434              	.LBE25:
 435              		.loc 1 333 0
 436 0094 21F40071 		bic	r1, r1, #512
 437 0098 0904     		lsls	r1, r1, #16
 438 009a 090C     		lsrs	r1, r1, #16
 439 009c A180     		strh	r1, [r4, #4]	@ movhi
 440              		.loc 1 334 0
 441 009e 2188     		ldrh	r1, [r4]
 442 00a0 89B2     		uxth	r1, r1
 443 00a2 41F40071 		orr	r1, r1, #512
 444 00a6 2180     		strh	r1, [r4]	@ movhi
 445              	.LBB26:
 446              		.loc 1 335 0
 447              	@ 335 "../../../../ChibiOS_2.6.2/os/hal/platforms/STM32/I2Cv1/i2c_lld.c" 1
 448 00a8 83F31188 		msr     BASEPRI, r3
ARM GAS  /tmp/ccxuUUNx.s 			page 9


 449              	@ 0 "" 2
 450              		.thumb
 451              	.LBE26:
 452 00ac D069     		ldr	r0, [r2, #28]
 453 00ae 40F20003 		movw	r3, #:lower16:.LANCHOR0
 454 00b2 C0F20003 		movt	r3, #:upper16:.LANCHOR0
 455 00b6 20B1     		cbz	r0, .L34
 456              	.LVL27:
 457              	.LBB27:
 458 00b8 0022     		movs	r2, #0
 459 00ba 4262     		str	r2, [r0, #36]
 460 00bc DA61     		str	r2, [r3, #28]
 461 00be FFF7FEFF 		bl	chSchReadyI
 462              	.LVL28:
 463              	.L34:
 464              	.LBE27:
 465              	.LBB28:
 466 00c2 0023     		movs	r3, #0
 467              	@ 335 "../../../../ChibiOS_2.6.2/os/hal/platforms/STM32/I2Cv1/i2c_lld.c" 1
 468 00c4 83F31188 		msr     BASEPRI, r3
 469              	@ 0 "" 2
 470              		.thumb
 471 00c8 CBE7     		b	.L24
 472              	.L29:
 473              	.LBE28:
 474              		.loc 1 322 0
 475 00ca A388     		ldrh	r3, [r4, #4]
 476              		.loc 1 323 0
 477 00cc 126B     		ldr	r2, [r2, #48]
 478              		.loc 1 322 0
 479 00ce 23F40073 		bic	r3, r3, #512
 480 00d2 1B04     		lsls	r3, r3, #16
 481              		.loc 1 323 0
 482 00d4 1268     		ldr	r2, [r2]
 483              		.loc 1 322 0
 484 00d6 1B0C     		lsrs	r3, r3, #16
 485 00d8 A380     		strh	r3, [r4, #4]	@ movhi
 486              		.loc 1 323 0
 487 00da 1368     		ldr	r3, [r2]
 488 00dc 43F00103 		orr	r3, r3, #1
 489 00e0 1360     		str	r3, [r2]
 490 00e2 BEE7     		b	.L24
 491              	.L27:
 492              		.loc 1 303 0
 493 00e4 138C     		ldrh	r3, [r2, #32]
 494 00e6 1A0A     		lsrs	r2, r3, #8
 495 00e8 0BD0     		beq	.L41
 496              		.loc 1 305 0
 497 00ea 03F00103 		and	r3, r3, #1
 498 00ee 43F0F003 		orr	r3, r3, #240
 499 00f2 02F00602 		and	r2, r2, #6
 500 00f6 1A43     		orrs	r2, r2, r3
 501 00f8 2282     		strh	r2, [r4, #16]	@ movhi
 502 00fa B2E7     		b	.L24
 503              	.L25:
 504              		.loc 1 312 0
 505 00fc 138C     		ldrh	r3, [r2, #32]
ARM GAS  /tmp/ccxuUUNx.s 			page 10


 506 00fe C3F34703 		ubfx	r3, r3, #1, #8
 507              	.L41:
 508 0102 2382     		strh	r3, [r4, #16]	@ movhi
 509 0104 ADE7     		b	.L24
 510              	.L43:
 511              		.loc 1 330 0
 512 0106 2388     		ldrh	r3, [r4]
 513              		.loc 1 329 0
 514 0108 118C     		ldrh	r1, [r2, #32]
 515              		.loc 1 330 0
 516 010a 9BB2     		uxth	r3, r3
 517 010c 43F4A063 		orr	r3, r3, #1280
 518              		.loc 1 329 0
 519 0110 41F00101 		orr	r1, r1, #1
 520 0114 1184     		strh	r1, [r2, #32]	@ movhi
 521              		.loc 1 330 0
 522 0116 2380     		strh	r3, [r4]	@ movhi
 523 0118 A7E7     		b	.L33
 524              	.L42:
 525              		.loc 1 319 0
 526 011a 2388     		ldrh	r3, [r4]
 527 011c 23F48063 		bic	r3, r3, #1024
 528 0120 1B04     		lsls	r3, r3, #16
 529 0122 1B0C     		lsrs	r3, r3, #16
 530 0124 2380     		strh	r3, [r4]	@ movhi
 531 0126 9CE7     		b	.L24
 532              	.LBE30:
 533              	.LBE32:
 534              		.cfi_endproc
 535              	.LFE71:
 536              		.size	VectorBC, .-VectorBC
 537 0128 AFF30080 		.section	.text.VectorC0,"ax",%progbits
 537      AFF30080 
 538              		.align	2
 539              		.p2align 4,,15
 540              		.global	VectorC0
 541              		.thumb
 542              		.thumb_func
 543              		.type	VectorC0, %function
 544              	VectorC0:
 545              	.LFB72:
 546              		.loc 1 466 0
 547              		.cfi_startproc
 548              		@ args = 0, pretend = 0, frame = 0
 549              		@ frame_needed = 0, uses_anonymous_args = 0
 550              		.loc 1 467 0
 551 0000 40F20002 		movw	r2, #:lower16:.LANCHOR0
 552 0004 C0F20002 		movt	r2, #:upper16:.LANCHOR0
 553 0008 506B     		ldr	r0, [r2, #52]
 554              		.loc 1 466 0
 555 000a F8B5     		push	{r3, r4, r5, r6, r7, lr}
 556              		.cfi_def_cfa_offset 24
 557              		.cfi_offset 3, -24
 558              		.cfi_offset 4, -20
 559              		.cfi_offset 5, -16
 560              		.cfi_offset 6, -12
 561              		.cfi_offset 7, -8
ARM GAS  /tmp/ccxuUUNx.s 			page 11


 562              		.cfi_offset 14, -4
 563              		.loc 1 467 0
 564 000c 838A     		ldrh	r3, [r0, #20]
 565              	.LBB38:
 566              	.LBB39:
 567              		.loc 1 410 0
 568 000e 146B     		ldr	r4, [r2, #48]
 569              	.LBE39:
 570              	.LBE38:
 571              		.loc 1 467 0
 572 0010 9BB2     		uxth	r3, r3
 573              	.LVL29:
 574              		.loc 1 471 0
 575 0012 03F45F41 		and	r1, r3, #57088
 576 0016 81F47F41 		eor	r1, r1, #65280
 577              	.LBB46:
 578              	.LBB43:
 579              		.loc 1 410 0
 580 001a 2668     		ldr	r6, [r4]
 581              	.LBE43:
 582              	.LBE46:
 583              		.loc 1 471 0
 584 001c 81F0FF01 		eor	r1, r1, #255
 585 0020 8182     		strh	r1, [r0, #20]	@ movhi
 586              	.LVL30:
 587              	.LBB47:
 588              	.LBB44:
 589              		.loc 1 410 0
 590 0022 3168     		ldr	r1, [r6]
 591 0024 0F25     		movs	r5, #15
 592 0026 21F00F01 		bic	r1, r1, #15
 593 002a 3160     		str	r1, [r6]
 594 002c 277A     		ldrb	r7, [r4, #8]	@ zero_extendqisi2
 595              		.loc 1 411 0
 596 002e D16A     		ldr	r1, [r2, #44]
 597              		.loc 1 410 0
 598 0030 05FA07F7 		lsl	r7, r5, r7
 599 0034 6668     		ldr	r6, [r4, #4]
 600              		.loc 1 411 0
 601 0036 0C68     		ldr	r4, [r1]
 602              		.loc 1 410 0
 603 0038 3760     		str	r7, [r6]
 604              		.loc 1 411 0
 605 003a 2768     		ldr	r7, [r4]
 606 003c 4E68     		ldr	r6, [r1, #4]
 607 003e 27F00F07 		bic	r7, r7, #15
 608 0042 2760     		str	r7, [r4]
 609 0044 0C7A     		ldrb	r4, [r1, #8]	@ zero_extendqisi2
 610              		.loc 1 415 0
 611 0046 03F48071 		and	r1, r3, #256
 612              		.loc 1 411 0
 613 004a A540     		lsls	r5, r5, r4
 614              		.loc 1 415 0
 615 004c 89B2     		uxth	r1, r1
 616              		.loc 1 411 0
 617 004e 3560     		str	r5, [r6]
 618              		.loc 1 415 0
ARM GAS  /tmp/ccxuUUNx.s 			page 12


 619 0050 01B1     		cbz	r1, .L77
 620              		.loc 1 416 0
 621 0052 0121     		movs	r1, #1
 622              	.L77:
 623              		.loc 1 418 0
 624 0054 9C05     		lsls	r4, r3, #22
 625              		.loc 1 416 0
 626 0056 9160     		str	r1, [r2, #8]
 627              		.loc 1 419 0
 628 0058 44BF     		itt	mi
 629 005a 41F00201 		orrmi	r1, r1, #2
 630 005e 9160     		strmi	r1, [r2, #8]
 631              		.loc 1 421 0
 632 0060 5F05     		lsls	r7, r3, #21
 633 0062 0ED5     		bpl	.L48
 634              		.loc 1 422 0
 635 0064 8588     		ldrh	r5, [r0, #4]
 636              		.loc 1 424 0
 637 0066 41F00404 		orr	r4, r1, #4
 638              		.loc 1 422 0
 639 006a 25F40071 		bic	r1, r5, #512
 640 006e 0904     		lsls	r1, r1, #16
 641 0070 090C     		lsrs	r1, r1, #16
 642 0072 8180     		strh	r1, [r0, #4]	@ movhi
 643              		.loc 1 423 0
 644 0074 0588     		ldrh	r5, [r0]
 645              		.loc 1 424 0
 646 0076 2146     		mov	r1, r4
 647              		.loc 1 423 0
 648 0078 ADB2     		uxth	r5, r5
 649 007a 45F40075 		orr	r5, r5, #512
 650 007e 0580     		strh	r5, [r0]	@ movhi
 651              		.loc 1 424 0
 652 0080 9460     		str	r4, [r2, #8]
 653              	.L48:
 654              		.loc 1 427 0
 655 0082 1E05     		lsls	r6, r3, #20
 656              		.loc 1 428 0
 657 0084 44BF     		itt	mi
 658 0086 41F00801 		orrmi	r1, r1, #8
 659 008a 9160     		strmi	r1, [r2, #8]
 660              		.loc 1 430 0
 661 008c 5D04     		lsls	r5, r3, #17
 662              		.loc 1 431 0
 663 008e 44BF     		itt	mi
 664 0090 41F02001 		orrmi	r1, r1, #32
 665 0094 9160     		strmi	r1, [r2, #8]
 666              		.loc 1 433 0
 667 0096 DC04     		lsls	r4, r3, #19
 668              		.loc 1 434 0
 669 0098 44BF     		itt	mi
 670 009a 41F01001 		orrmi	r1, r1, #16
 671 009e 9160     		strmi	r1, [r2, #8]
 672              		.loc 1 436 0
 673 00a0 1804     		lsls	r0, r3, #16
 674              		.loc 1 437 0
 675 00a2 44BF     		itt	mi
ARM GAS  /tmp/ccxuUUNx.s 			page 13


 676 00a4 41F04001 		orrmi	r1, r1, #64
 677 00a8 9160     		strmi	r1, [r2, #8]
 678              		.loc 1 436 0
 679 00aa 04D4     		bmi	.L53
 680              		.loc 1 440 0
 681 00ac 19B9     		cbnz	r1, .L53
 682              	.LBE44:
 683              	.LBE47:
 684              		.loc 1 475 0
 685 00ae BDE8F840 		pop	{r3, r4, r5, r6, r7, lr}
 686              	.LVL31:
 687              		.loc 1 474 0
 688 00b2 FFF7FEBF 		b	_port_irq_epilogue
 689              	.LVL32:
 690              	.L53:
 691              	.LBB48:
 692              	.LBB45:
 693              	.LBB40:
 694              		.loc 1 441 0
 695 00b6 2023     		movs	r3, #32
 696              	.LVL33:
 697              	@ 441 "../../../../ChibiOS_2.6.2/os/hal/platforms/STM32/I2Cv1/i2c_lld.c" 1
 698 00b8 83F31188 		msr     BASEPRI, r3
 699              	@ 0 "" 2
 700              		.thumb
 701              	.LBE40:
 702 00bc D069     		ldr	r0, [r2, #28]
 703 00be 40F20003 		movw	r3, #:lower16:.LANCHOR0
 704 00c2 C0F20003 		movt	r3, #:upper16:.LANCHOR0
 705 00c6 30B1     		cbz	r0, .L55
 706              	.LVL34:
 707              	.LBB41:
 708 00c8 6FF00102 		mvn	r2, #1
 709 00cc 4262     		str	r2, [r0, #36]
 710 00ce 0022     		movs	r2, #0
 711 00d0 DA61     		str	r2, [r3, #28]
 712 00d2 FFF7FEFF 		bl	chSchReadyI
 713              	.LVL35:
 714              	.L55:
 715              	.LBE41:
 716              	.LBB42:
 717 00d6 0023     		movs	r3, #0
 718              	@ 441 "../../../../ChibiOS_2.6.2/os/hal/platforms/STM32/I2Cv1/i2c_lld.c" 1
 719 00d8 83F31188 		msr     BASEPRI, r3
 720              	@ 0 "" 2
 721              		.thumb
 722              	.LBE42:
 723              	.LBE45:
 724              	.LBE48:
 725              		.loc 1 475 0
 726 00dc BDE8F840 		pop	{r3, r4, r5, r6, r7, lr}
 727              		.loc 1 474 0
 728 00e0 FFF7FEBF 		b	_port_irq_epilogue
 729              	.LVL36:
 730              		.cfi_endproc
 731              	.LFE72:
 732              		.size	VectorC0, .-VectorC0
ARM GAS  /tmp/ccxuUUNx.s 			page 14


 733 00e4 AFF30080 		.section	.text.i2c_lld_init,"ax",%progbits
 733      AFF30080 
 733      AFF30080 
 734              		.align	2
 735              		.p2align 4,,15
 736              		.global	i2c_lld_init
 737              		.thumb
 738              		.thumb_func
 739              		.type	i2c_lld_init, %function
 740              	i2c_lld_init:
 741              	.LFB73:
 742              		.loc 1 551 0
 743              		.cfi_startproc
 744              		@ args = 0, pretend = 0, frame = 0
 745              		@ frame_needed = 0, uses_anonymous_args = 0
 746 0000 10B5     		push	{r4, lr}
 747              		.cfi_def_cfa_offset 8
 748              		.cfi_offset 4, -8
 749              		.cfi_offset 14, -4
 750              		.loc 1 554 0
 751 0002 40F20004 		movw	r4, #:lower16:.LANCHOR0
 752 0006 C0F20004 		movt	r4, #:upper16:.LANCHOR0
 753 000a 2046     		mov	r0, r4
 754 000c FFF7FEFF 		bl	i2cObjectInit
 755              	.LVL37:
 756              		.loc 1 557 0
 757 0010 064B     		ldr	r3, .L79
 758              		.loc 1 556 0
 759 0012 4FF4A842 		mov	r2, #21504
 760              		.loc 1 555 0
 761 0016 0020     		movs	r0, #0
 762              		.loc 1 556 0
 763 0018 C4F20002 		movt	r2, 16384
 764              		.loc 1 558 0
 765 001c A3F10C01 		sub	r1, r3, #12
 766              		.loc 1 555 0
 767 0020 E061     		str	r0, [r4, #28]
 768              		.loc 1 556 0
 769 0022 6263     		str	r2, [r4, #52]
 770              		.loc 1 557 0
 771 0024 E362     		str	r3, [r4, #44]
 772              		.loc 1 558 0
 773 0026 2163     		str	r1, [r4, #48]
 774 0028 10BD     		pop	{r4, pc}
 775              	.L80:
 776 002a 00BF     		.align	2
 777              	.L79:
 778 002c 48000000 		.word	_stm32_dma_streams+72
 779              		.cfi_endproc
 780              	.LFE73:
 781              		.size	i2c_lld_init, .-i2c_lld_init
 782              		.section	.text.i2c_lld_start,"ax",%progbits
 783              		.align	2
 784              		.p2align 4,,15
 785              		.global	i2c_lld_start
 786              		.thumb
 787              		.thumb_func
ARM GAS  /tmp/ccxuUUNx.s 			page 15


 788              		.type	i2c_lld_start, %function
 789              	i2c_lld_start:
 790              	.LFB74:
 791              		.loc 1 585 0
 792              		.cfi_startproc
 793              		@ args = 0, pretend = 0, frame = 0
 794              		@ frame_needed = 0, uses_anonymous_args = 0
 795              	.LVL38:
 796 0000 F8B5     		push	{r3, r4, r5, r6, r7, lr}
 797              		.cfi_def_cfa_offset 24
 798              		.cfi_offset 3, -24
 799              		.cfi_offset 4, -20
 800              		.cfi_offset 5, -16
 801              		.cfi_offset 6, -12
 802              		.cfi_offset 7, -8
 803              		.cfi_offset 14, -4
 804              		.loc 1 598 0
 805 0002 0378     		ldrb	r3, [r0]	@ zero_extendqisi2
 806              		.loc 1 588 0
 807 0004 9A21     		movs	r1, #154
 808              		.loc 1 592 0
 809 0006 8A22     		movs	r2, #138
 810              		.loc 1 598 0
 811 0008 012B     		cmp	r3, #1
 812              		.loc 1 585 0
 813 000a 0446     		mov	r4, r0
 814              		.loc 1 588 0
 815 000c 8162     		str	r1, [r0, #40]
 816              		.loc 1 592 0
 817 000e 4262     		str	r2, [r0, #36]
 818              		.loc 1 586 0
 819 0010 456B     		ldr	r5, [r0, #52]
 820              	.LVL39:
 821              		.loc 1 598 0
 822 0012 69D0     		beq	.L95
 823              	.L92:
 824              		.loc 1 586 0
 825 0014 2A46     		mov	r2, r5
 826              	.LVL40:
 827              	.L82:
 828              		.loc 1 686 0
 829 0016 E16A     		ldr	r1, [r4, #44]
 830              		.loc 1 687 0
 831 0018 236B     		ldr	r3, [r4, #48]
 832              		.loc 1 686 0
 833 001a D1F800C0 		ldr	ip, [r1]
 834              		.loc 1 687 0
 835 001e 1F68     		ldr	r7, [r3]
 836              		.loc 1 690 0
 837 0020 4FF40040 		mov	r0, #32768
 838              		.loc 1 686 0
 839 0024 05F11003 		add	r3, r5, #16
 840              		.loc 1 692 0
 841 0028 4FF41061 		mov	r1, #2304
 842              		.loc 1 691 0
 843 002c 0026     		movs	r6, #0
 844              		.loc 1 686 0
ARM GAS  /tmp/ccxuUUNx.s 			page 16


 845 002e CCF80830 		str	r3, [ip, #8]
 846              		.loc 1 687 0
 847 0032 BB60     		str	r3, [r7, #8]
 848              		.loc 1 690 0
 849 0034 2880     		strh	r0, [r5]	@ movhi
 850              		.loc 1 691 0
 851 0036 2E80     		strh	r6, [r5]	@ movhi
 852              		.loc 1 692 0
 853 0038 A980     		strh	r1, [r5, #4]	@ movhi
 854              	.LBB54:
 855              	.LBB55:
 856              		.loc 1 194 0
 857 003a 9388     		ldrh	r3, [r2, #4]
 858              	.LBE55:
 859              	.LBE54:
 860              		.loc 1 585 0
 861 003c 6168     		ldr	r1, [r4, #4]
 862              	.LVL41:
 863              	.LBB59:
 864              	.LBB56:
 865              		.loc 1 194 0
 866 003e 23F03F03 		bic	r3, r3, #63
 867 0042 1B04     		lsls	r3, r3, #16
 868 0044 1B0C     		lsrs	r3, r3, #16
 869              		.loc 1 187 0
 870 0046 4868     		ldr	r0, [r1, #4]
 871              	.LVL42:
 872              		.loc 1 188 0
 873 0048 0F7A     		ldrb	r7, [r1, #8]	@ zero_extendqisi2
 874              	.LVL43:
 875              		.loc 1 194 0
 876 004a 9380     		strh	r3, [r2, #4]	@ movhi
 877              		.loc 1 195 0
 878 004c 9488     		ldrh	r4, [r2, #4]
 879              	.LVL44:
 880              		.loc 1 201 0
 881 004e 48F2A063 		movw	r3, #34464
 882              		.loc 1 195 0
 883 0052 A4B2     		uxth	r4, r4
 884              		.loc 1 201 0
 885 0054 C0F20103 		movt	r3, 1
 886              		.loc 1 195 0
 887 0058 44F02404 		orr	r4, r4, #36
 888              		.loc 1 201 0
 889 005c 9842     		cmp	r0, r3
 890              		.loc 1 195 0
 891 005e 9480     		strh	r4, [r2, #4]	@ movhi
 892              	.LVL45:
 893              		.loc 1 201 0
 894 0060 36DD     		ble	.L96
 895              		.loc 1 221 0
 896 0062 4FF4D453 		mov	r3, #6784
 897 0066 C0F20603 		movt	r3, 6
 898 006a 9842     		cmp	r0, r3
 899 006c 18DC     		bgt	.L84
 900              		.loc 1 227 0
 901 006e 022F     		cmp	r7, #2
ARM GAS  /tmp/ccxuUUNx.s 			page 17


 902 0070 78D0     		beq	.L97
 903              	.LVL46:
 904              		.loc 1 234 0
 905 0072 032F     		cmp	r7, #3
 906              		.loc 1 239 0
 907 0074 01BF     		itttt	eq
 908 0076 00EB8000 		addeq	r0, r0, r0, lsl #2
 909              	.LVL47:
 910 007a 4FF4A243 		moveq	r3, #20736
 911 007e 00EB8000 		addeq	r0, r0, r0, lsl #2
 912 0082 C0F22523 		movteq	r3, 549
 913 0086 01BF     		itttt	eq
 914 0088 93FBF0F6 		sdiveq	r6, r3, r0
 915 008c 6FEA8646 		mvneq	r6, r6, lsl #18
 916 0090 6FEA9646 		mvneq	r6, r6, lsr #18
 917 0094 B6B2     		uxtheq	r6, r6
 918              		.loc 1 234 0
 919 0096 18BF     		it	ne
 920 0098 48F6FF76 		movwne	r6, #36863
 921              	.LVL48:
 922              	.L86:
 923              		.loc 1 249 0
 924 009c 0B23     		movs	r3, #11
 925 009e 1384     		strh	r3, [r2, #32]	@ movhi
 926              	.LVL49:
 927              	.L84:
 928              		.loc 1 255 0
 929 00a0 9683     		strh	r6, [r2, #28]	@ movhi
 930              	.LVL50:
 931              	.LBE56:
 932              	.LBE59:
 933              	.LBB60:
 934              	.LBB61:
 935              		.loc 1 271 0
 936 00a2 0978     		ldrb	r1, [r1]	@ zero_extendqisi2
 937              	.LVL51:
 938              		.loc 1 270 0
 939 00a4 1388     		ldrh	r3, [r2]
 940              		.loc 1 271 0
 941 00a6 0229     		cmp	r1, #2
 942              		.loc 1 270 0
 943 00a8 9BB2     		uxth	r3, r3
 944              	.LVL52:
 945              		.loc 1 271 0
 946 00aa 55D0     		beq	.L88
 947 00ac 0329     		cmp	r1, #3
 948              		.loc 1 280 0
 949 00ae 08BF     		it	eq
 950 00b0 43F00A03 		orreq	r3, r3, #10
 951              	.LVL53:
 952              		.loc 1 271 0
 953 00b4 05D0     		beq	.L87
 954 00b6 0129     		cmp	r1, #1
 955              		.loc 1 273 0
 956 00b8 02BF     		ittt	eq
 957 00ba 23F00A03 		biceq	r3, r3, #10
 958 00be 1B04     		lsleq	r3, r3, #16
ARM GAS  /tmp/ccxuUUNx.s 			page 18


 959 00c0 1B0C     		lsreq	r3, r3, #16
 960              	.LVL54:
 961              	.L87:
 962              		.loc 1 283 0
 963 00c2 1380     		strh	r3, [r2]	@ movhi
 964              	.LVL55:
 965              	.LBE61:
 966              	.LBE60:
 967              		.loc 1 699 0
 968 00c4 2B88     		ldrh	r3, [r5]
 969              	.LVL56:
 970 00c6 9BB2     		uxth	r3, r3
 971 00c8 43F00103 		orr	r3, r3, #1
 972 00cc 2B80     		strh	r3, [r5]	@ movhi
 973 00ce F8BD     		pop	{r3, r4, r5, r6, r7, pc}
 974              	.LVL57:
 975              	.L96:
 976              	.LBB63:
 977              	.LBB57:
 978              		.loc 1 211 0
 979 00d0 4FF4A243 		mov	r3, #20736
 980 00d4 4600     		lsls	r6, r0, #1
 981 00d6 C0F22523 		movt	r3, 549
 982 00da 93FBF6F6 		sdiv	r6, r3, r6
 983              		.loc 1 219 0
 984 00de 2524     		movs	r4, #37
 985              		.loc 1 216 0
 986 00e0 C6F30B06 		ubfx	r6, r6, #0, #12
 987              	.LVL58:
 988              		.loc 1 219 0
 989 00e4 1484     		strh	r4, [r2, #32]	@ movhi
 990 00e6 DBE7     		b	.L84
 991              	.LVL59:
 992              	.L95:
 993              	.LBE57:
 994              	.LBE63:
 995              		.loc 1 601 0
 996 00e8 40F20003 		movw	r3, #:lower16:.LANCHOR0
 997 00ec C0F20003 		movt	r3, #:upper16:.LANCHOR0
 998 00f0 9842     		cmp	r0, r3
 999 00f2 8FD1     		bne	.L92
 1000              	.LBB64:
 1001              		.loc 1 604 0
 1002 00f4 4FF48056 		mov	r6, #4096
 1003 00f8 C4F20206 		movt	r6, 16386
 1004 00fc 3169     		ldr	r1, [r6, #16]
 1005 00fe 0023     		movs	r3, #0
 1006 0100 41F40011 		orr	r1, r1, #2097152
 1007              		.loc 1 605 0
 1008 0104 40F20002 		movw	r2, #:lower16:i2c_lld_serve_rx_end_irq
 1009              		.loc 1 604 0
 1010 0108 3161     		str	r1, [r6, #16]
 1011              		.loc 1 605 0
 1012 010a C0F20002 		movt	r2, #:upper16:i2c_lld_serve_rx_end_irq
 1013              		.loc 1 604 0
 1014 010e 3361     		str	r3, [r6, #16]
 1015              		.loc 1 605 0
ARM GAS  /tmp/ccxuUUNx.s 			page 19


 1016 0110 0A21     		movs	r1, #10
 1017 0112 2346     		mov	r3, r4
 1018 0114 C06A     		ldr	r0, [r0, #44]
 1019              	.LVL60:
 1020 0116 FFF7FEFF 		bl	dmaStreamAllocate
 1021              	.LVL61:
 1022              		.loc 1 610 0
 1023 011a 40F20002 		movw	r2, #:lower16:i2c_lld_serve_tx_end_irq
 1024 011e C0F20002 		movt	r2, #:upper16:i2c_lld_serve_tx_end_irq
 1025 0122 0A21     		movs	r1, #10
 1026 0124 2346     		mov	r3, r4
 1027 0126 206B     		ldr	r0, [r4, #48]
 1028 0128 FFF7FEFF 		bl	dmaStreamAllocate
 1029              	.LVL62:
 1030              		.loc 1 615 0
 1031 012c F369     		ldr	r3, [r6, #28]
 1032              		.loc 1 616 0
 1033 012e 1F20     		movs	r0, #31
 1034              		.loc 1 615 0
 1035 0130 43F40013 		orr	r3, r3, #2097152
 1036 0134 F361     		str	r3, [r6, #28]
 1037              		.loc 1 616 0
 1038 0136 A021     		movs	r1, #160
 1039 0138 FFF7FEFF 		bl	nvicEnableVector
 1040              	.LVL63:
 1041              		.loc 1 618 0
 1042 013c 2020     		movs	r0, #32
 1043 013e A021     		movs	r1, #160
 1044 0140 FFF7FEFF 		bl	nvicEnableVector
 1045              	.LVL64:
 1046              		.loc 1 621 0
 1047 0144 626A     		ldr	r2, [r4, #36]
 1048              		.loc 1 623 0
 1049 0146 A36A     		ldr	r3, [r4, #40]
 1050              		.loc 1 621 0
 1051 0148 42F48052 		orr	r2, r2, #4096
 1052              		.loc 1 623 0
 1053 014c 43F48053 		orr	r3, r3, #4096
 1054              		.loc 1 621 0
 1055 0150 6262     		str	r2, [r4, #36]
 1056              		.loc 1 623 0
 1057 0152 A362     		str	r3, [r4, #40]
 1058 0154 626B     		ldr	r2, [r4, #52]
 1059 0156 5EE7     		b	.L82
 1060              	.LVL65:
 1061              	.L88:
 1062              	.LBE64:
 1063              	.LBB65:
 1064              	.LBB62:
 1065              		.loc 1 277 0
 1066 0158 4FF6F771 		movw	r1, #65527
 1067              	.LVL66:
 1068 015c 1940     		ands	r1, r1, r3
 1069 015e 41F00203 		orr	r3, r1, #2
 1070              	.LVL67:
 1071 0162 AEE7     		b	.L87
 1072              	.LVL68:
ARM GAS  /tmp/ccxuUUNx.s 			page 20


 1073              	.L97:
 1074              	.LBE62:
 1075              	.LBE65:
 1076              	.LBB66:
 1077              	.LBB58:
 1078              		.loc 1 232 0
 1079 0164 4FF4A243 		mov	r3, #20736
 1080 0168 00EB4000 		add	r0, r0, r0, lsl #1
 1081              	.LVL69:
 1082 016c C0F22523 		movt	r3, 549
 1083 0170 93FBF0F6 		sdiv	r6, r3, r0
 1084 0174 6FEA4646 		mvn	r6, r6, lsl #17
 1085 0178 6FEA5646 		mvn	r6, r6, lsr #17
 1086 017c B6B2     		uxth	r6, r6
 1087 017e 8DE7     		b	.L86
 1088              	.LBE58:
 1089              	.LBE66:
 1090              		.cfi_endproc
 1091              	.LFE74:
 1092              		.size	i2c_lld_start, .-i2c_lld_start
 1093              		.section	.text.i2c_lld_stop,"ax",%progbits
 1094              		.align	2
 1095              		.p2align 4,,15
 1096              		.global	i2c_lld_stop
 1097              		.thumb
 1098              		.thumb_func
 1099              		.type	i2c_lld_stop, %function
 1100              	i2c_lld_stop:
 1101              	.LFB75:
 1102              		.loc 1 709 0
 1103              		.cfi_startproc
 1104              		@ args = 0, pretend = 0, frame = 0
 1105              		@ frame_needed = 0, uses_anonymous_args = 0
 1106              	.LVL70:
 1107              		.loc 1 712 0
 1108 0000 0378     		ldrb	r3, [r0]	@ zero_extendqisi2
 1109              		.loc 1 709 0
 1110 0002 10B5     		push	{r4, lr}
 1111              		.cfi_def_cfa_offset 8
 1112              		.cfi_offset 4, -8
 1113              		.cfi_offset 14, -4
 1114              		.loc 1 712 0
 1115 0004 012B     		cmp	r3, #1
 1116              		.loc 1 709 0
 1117 0006 0446     		mov	r4, r0
 1118              		.loc 1 712 0
 1119 0008 0DD0     		beq	.L98
 1120              		.loc 1 715 0
 1121 000a FFF7FEFF 		bl	i2c_lld_abort_operation
 1122              	.LVL71:
 1123              		.loc 1 716 0
 1124 000e 206B     		ldr	r0, [r4, #48]
 1125 0010 FFF7FEFF 		bl	dmaStreamRelease
 1126              	.LVL72:
 1127              		.loc 1 717 0
 1128 0014 E06A     		ldr	r0, [r4, #44]
 1129 0016 FFF7FEFF 		bl	dmaStreamRelease
ARM GAS  /tmp/ccxuUUNx.s 			page 21


 1130              	.LVL73:
 1131              		.loc 1 720 0
 1132 001a 40F20003 		movw	r3, #:lower16:.LANCHOR0
 1133 001e C0F20003 		movt	r3, #:upper16:.LANCHOR0
 1134 0022 9C42     		cmp	r4, r3
 1135 0024 00D0     		beq	.L102
 1136              	.L98:
 1137 0026 10BD     		pop	{r4, pc}
 1138              	.LVL74:
 1139              	.L102:
 1140              		.loc 1 721 0
 1141 0028 1F20     		movs	r0, #31
 1142 002a FFF7FEFF 		bl	nvicDisableVector
 1143              	.LVL75:
 1144              		.loc 1 722 0
 1145 002e 2020     		movs	r0, #32
 1146 0030 FFF7FEFF 		bl	nvicDisableVector
 1147              	.LVL76:
 1148              		.loc 1 723 0
 1149 0034 4FF48053 		mov	r3, #4096
 1150 0038 C4F20203 		movt	r3, 16386
 1151 003c DA69     		ldr	r2, [r3, #28]
 1152 003e 22F40012 		bic	r2, r2, #2097152
 1153 0042 DA61     		str	r2, [r3, #28]
 1154 0044 EFE7     		b	.L98
 1155              		.cfi_endproc
 1156              	.LFE75:
 1157              		.size	i2c_lld_stop, .-i2c_lld_stop
 1158 0046 00BFAFF3 		.section	.text.i2c_lld_master_receive_timeout,"ax",%progbits
 1158      0080AFF3 
 1158      0080
 1159              		.align	2
 1160              		.p2align 4,,15
 1161              		.global	i2c_lld_master_receive_timeout
 1162              		.thumb
 1163              		.thumb_func
 1164              		.type	i2c_lld_master_receive_timeout, %function
 1165              	i2c_lld_master_receive_timeout:
 1166              	.LFB76:
 1167              		.loc 1 770 0
 1168              		.cfi_startproc
 1169              		@ args = 4, pretend = 0, frame = 24
 1170              		@ frame_needed = 0, uses_anonymous_args = 0
 1171              	.LVL77:
 1172 0000 2DE9F043 		push	{r4, r5, r6, r7, r8, r9, lr}
 1173              		.cfi_def_cfa_offset 28
 1174              		.cfi_offset 4, -28
 1175              		.cfi_offset 5, -24
 1176              		.cfi_offset 6, -20
 1177              		.cfi_offset 7, -16
 1178              		.cfi_offset 8, -12
 1179              		.cfi_offset 9, -8
 1180              		.cfi_offset 14, -4
 1181 0004 87B0     		sub	sp, sp, #28
 1182              		.cfi_def_cfa_offset 56
 1183              		.loc 1 770 0
 1184 0006 0E9D     		ldr	r5, [sp, #56]
ARM GAS  /tmp/ccxuUUNx.s 			page 22


 1185 0008 0646     		mov	r6, r0
 1186              		.loc 1 771 0
 1187 000a 446B     		ldr	r4, [r0, #52]
 1188              	.LVL78:
 1189              		.loc 1 779 0
 1190 000c 681C     		adds	r0, r5, #1
 1191              	.LVL79:
 1192              		.loc 1 770 0
 1193 000e 0F46     		mov	r7, r1
 1194 0010 9146     		mov	r9, r2
 1195 0012 9846     		mov	r8, r3
 1196              		.loc 1 779 0
 1197 0014 08D0     		beq	.L104
 1198              		.loc 1 780 0
 1199 0016 40F20002 		movw	r2, #:lower16:i2c_lld_safety_timeout
 1200              	.LVL80:
 1201 001a C0F20002 		movt	r2, #:upper16:i2c_lld_safety_timeout
 1202 001e 01A8     		add	r0, sp, #4
 1203 0020 2946     		mov	r1, r5
 1204              	.LVL81:
 1205 0022 3346     		mov	r3, r6
 1206              	.LVL82:
 1207 0024 FFF7FEFF 		bl	chVTSetI
 1208              	.LVL83:
 1209              	.L104:
 1210              	.LBB67:
 1211              		.loc 1 783 0
 1212 0028 0023     		movs	r3, #0
 1213              	@ 783 "../../../../ChibiOS_2.6.2/os/hal/platforms/STM32/I2Cv1/i2c_lld.c" 1
 1214 002a 83F31188 		msr     BASEPRI, r3
 1215              	@ 0 "" 2
 1216              		.thumb
 1217              	.LBE67:
 1218              		.loc 1 790 0
 1219 002e F06A     		ldr	r0, [r6, #44]
 1220              		.loc 1 786 0
 1221 0030 7A00     		lsls	r2, r7, #1
 1222              		.loc 1 790 0
 1223 0032 0068     		ldr	r0, [r0]
 1224 0034 776A     		ldr	r7, [r6, #36]
 1225              		.loc 1 786 0
 1226 0036 42F00102 		orr	r2, r2, #1
 1227 003a 3284     		strh	r2, [r6, #32]	@ movhi
 1228              		.loc 1 787 0
 1229 003c B360     		str	r3, [r6, #8]
 1230              		.loc 1 790 0
 1231 003e 0760     		str	r7, [r0]
 1232              		.loc 1 791 0
 1233 0040 C0F80C90 		str	r9, [r0, #12]
 1234              		.loc 1 792 0
 1235 0044 C0F80480 		str	r8, [r0, #4]
 1236              		.loc 1 796 0
 1237 0048 02E0     		b	.L105
 1238              	.L106:
 1239              	.LBB68:
 1240              		.loc 1 800 0
 1241 004a 0023     		movs	r3, #0
ARM GAS  /tmp/ccxuUUNx.s 			page 23


 1242              	@ 800 "../../../../ChibiOS_2.6.2/os/hal/platforms/STM32/I2Cv1/i2c_lld.c" 1
 1243 004c 83F31188 		msr     BASEPRI, r3
 1244              	@ 0 "" 2
 1245              		.thumb
 1246              	.L105:
 1247              	.LBE68:
 1248              		.loc 1 796 0 discriminator 1
 1249 0050 228B     		ldrh	r2, [r4, #24]
 1250              	.LBB69:
 1251              		.loc 1 797 0 discriminator 1
 1252 0052 2023     		movs	r3, #32
 1253              	.LBE69:
 1254              		.loc 1 796 0 discriminator 1
 1255 0054 9207     		lsls	r2, r2, #30
 1256 0056 02D4     		bmi	.L108
 1257              		.loc 1 796 0 is_stmt 0 discriminator 2
 1258 0058 2288     		ldrh	r2, [r4]
 1259 005a 9705     		lsls	r7, r2, #22
 1260 005c 0BD5     		bpl	.L125
 1261              	.L108:
 1262              	.LBB70:
 1263              		.loc 1 797 0 is_stmt 1
 1264              	@ 797 "../../../../ChibiOS_2.6.2/os/hal/platforms/STM32/I2Cv1/i2c_lld.c" 1
 1265 005e 83F31188 		msr     BASEPRI, r3
 1266              	@ 0 "" 2
 1267              		.thumb
 1268              	.LBE70:
 1269              		.loc 1 798 0
 1270 0062 691C     		adds	r1, r5, #1
 1271 0064 F1D0     		beq	.L106
 1272              		.loc 1 798 0 is_stmt 0 discriminator 1
 1273 0066 049A     		ldr	r2, [sp, #16]
 1274 0068 002A     		cmp	r2, #0
 1275 006a EED1     		bne	.L106
 1276              	.L110:
 1277              		.loc 1 799 0 is_stmt 1
 1278 006c 4FF0FF30 		mov	r0, #-1
 1279              		.loc 1 822 0
 1280 0070 07B0     		add	sp, sp, #28
 1281              		@ sp needed
 1282 0072 BDE8F083 		pop	{r4, r5, r6, r7, r8, r9, pc}
 1283              	.LVL84:
 1284              	.L125:
 1285              	.LBB71:
 1286              		.loc 1 804 0
 1287              	@ 804 "../../../../ChibiOS_2.6.2/os/hal/platforms/STM32/I2Cv1/i2c_lld.c" 1
 1288 0076 83F31188 		msr     BASEPRI, r3
 1289              	@ 0 "" 2
 1290              		.thumb
 1291              	.LBE71:
 1292              		.loc 1 808 0
 1293 007a 0135     		adds	r5, r5, #1
 1294 007c 1FD0     		beq	.L109
 1295              		.loc 1 808 0 is_stmt 0 discriminator 1
 1296 007e 049B     		ldr	r3, [sp, #16]
 1297 0080 002B     		cmp	r3, #0
 1298 0082 F3D0     		beq	.L110
ARM GAS  /tmp/ccxuUUNx.s 			page 24


 1299              		.loc 1 812 0 is_stmt 1
 1300 0084 A388     		ldrh	r3, [r4, #4]
 1301              		.loc 1 816 0
 1302 0086 40F20005 		movw	r5, #:lower16:rlist
 1303              		.loc 1 812 0
 1304 008a 9BB2     		uxth	r3, r3
 1305 008c 43F40073 		orr	r3, r3, #512
 1306 0090 A380     		strh	r3, [r4, #4]	@ movhi
 1307              		.loc 1 813 0
 1308 0092 2288     		ldrh	r2, [r4]
 1309              		.loc 1 816 0
 1310 0094 C0F20005 		movt	r5, #:upper16:rlist
 1311 0098 AB69     		ldr	r3, [r5, #24]
 1312              		.loc 1 813 0
 1313 009a 92B2     		uxth	r2, r2
 1314 009c 42F4A062 		orr	r2, r2, #1280
 1315 00a0 2280     		strh	r2, [r4]	@ movhi
 1316              		.loc 1 817 0
 1317 00a2 0220     		movs	r0, #2
 1318              		.loc 1 816 0
 1319 00a4 F361     		str	r3, [r6, #28]
 1320              		.loc 1 817 0
 1321 00a6 FFF7FEFF 		bl	chSchGoSleepS
 1322              	.LVL85:
 1323              		.loc 1 818 0
 1324 00aa 049B     		ldr	r3, [sp, #16]
 1325 00ac 13B1     		cbz	r3, .L112
 1326              		.loc 1 819 0
 1327 00ae 01A8     		add	r0, sp, #4
 1328 00b0 FFF7FEFF 		bl	chVTResetI
 1329              	.LVL86:
 1330              	.L112:
 1331              		.loc 1 821 0
 1332 00b4 AB69     		ldr	r3, [r5, #24]
 1333 00b6 586A     		ldr	r0, [r3, #36]
 1334              		.loc 1 822 0
 1335 00b8 07B0     		add	sp, sp, #28
 1336              		@ sp needed
 1337 00ba BDE8F083 		pop	{r4, r5, r6, r7, r8, r9, pc}
 1338              	.LVL87:
 1339              	.L109:
 1340              		.loc 1 812 0
 1341 00be A388     		ldrh	r3, [r4, #4]
 1342              		.loc 1 816 0
 1343 00c0 40F20005 		movw	r5, #:lower16:rlist
 1344              		.loc 1 812 0
 1345 00c4 9BB2     		uxth	r3, r3
 1346 00c6 43F40073 		orr	r3, r3, #512
 1347 00ca A380     		strh	r3, [r4, #4]	@ movhi
 1348              		.loc 1 813 0
 1349 00cc 2288     		ldrh	r2, [r4]
 1350              		.loc 1 816 0
 1351 00ce C0F20005 		movt	r5, #:upper16:rlist
 1352 00d2 AB69     		ldr	r3, [r5, #24]
 1353              		.loc 1 813 0
 1354 00d4 92B2     		uxth	r2, r2
 1355 00d6 42F4A062 		orr	r2, r2, #1280
ARM GAS  /tmp/ccxuUUNx.s 			page 25


 1356 00da 2280     		strh	r2, [r4]	@ movhi
 1357              		.loc 1 817 0
 1358 00dc 0220     		movs	r0, #2
 1359              		.loc 1 816 0
 1360 00de F361     		str	r3, [r6, #28]
 1361              		.loc 1 817 0
 1362 00e0 FFF7FEFF 		bl	chSchGoSleepS
 1363              	.LVL88:
 1364 00e4 E6E7     		b	.L112
 1365              		.cfi_endproc
 1366              	.LFE76:
 1367              		.size	i2c_lld_master_receive_timeout, .-i2c_lld_master_receive_timeout
 1368 00e6 00BFAFF3 		.section	.text.i2c_lld_master_transmit_timeout,"ax",%progbits
 1368      0080AFF3 
 1368      0080
 1369              		.align	2
 1370              		.p2align 4,,15
 1371              		.global	i2c_lld_master_transmit_timeout
 1372              		.thumb
 1373              		.thumb_func
 1374              		.type	i2c_lld_master_transmit_timeout, %function
 1375              	i2c_lld_master_transmit_timeout:
 1376              	.LFB77:
 1377              		.loc 1 852 0
 1378              		.cfi_startproc
 1379              		@ args = 12, pretend = 0, frame = 24
 1380              		@ frame_needed = 0, uses_anonymous_args = 0
 1381              	.LVL89:
 1382 0000 2DE9F049 		push	{r4, r5, r6, r7, r8, fp, lr}
 1383              		.cfi_def_cfa_offset 28
 1384              		.cfi_offset 4, -28
 1385              		.cfi_offset 5, -24
 1386              		.cfi_offset 6, -20
 1387              		.cfi_offset 7, -16
 1388              		.cfi_offset 8, -12
 1389              		.cfi_offset 11, -8
 1390              		.cfi_offset 14, -4
 1391 0004 87B0     		sub	sp, sp, #28
 1392              		.cfi_def_cfa_offset 56
 1393              		.loc 1 852 0
 1394 0006 109D     		ldr	r5, [sp, #64]
 1395 0008 1746     		mov	r7, r2
 1396              		.loc 1 862 0
 1397 000a 6A1C     		adds	r2, r5, #1
 1398              	.LVL90:
 1399              		.loc 1 852 0
 1400 000c 8046     		mov	r8, r0
 1401 000e 8B46     		mov	fp, r1
 1402 0010 1E46     		mov	r6, r3
 1403              		.loc 1 853 0
 1404 0012 446B     		ldr	r4, [r0, #52]
 1405              	.LVL91:
 1406              		.loc 1 862 0
 1407 0014 08D0     		beq	.L127
 1408              		.loc 1 863 0
 1409 0016 40F20002 		movw	r2, #:lower16:i2c_lld_safety_timeout
 1410 001a C0F20002 		movt	r2, #:upper16:i2c_lld_safety_timeout
ARM GAS  /tmp/ccxuUUNx.s 			page 26


 1411 001e 01A8     		add	r0, sp, #4
 1412              	.LVL92:
 1413 0020 2946     		mov	r1, r5
 1414              	.LVL93:
 1415 0022 4346     		mov	r3, r8
 1416              	.LVL94:
 1417 0024 FFF7FEFF 		bl	chVTSetI
 1418              	.LVL95:
 1419              	.L127:
 1420              	.LBB72:
 1421              		.loc 1 866 0
 1422 0028 0023     		movs	r3, #0
 1423              	@ 866 "../../../../ChibiOS_2.6.2/os/hal/platforms/STM32/I2Cv1/i2c_lld.c" 1
 1424 002a 83F31188 		msr     BASEPRI, r3
 1425              	@ 0 "" 2
 1426              		.thumb
 1427              	.LBE72:
 1428              		.loc 1 878 0
 1429 002e D8F82C10 		ldr	r1, [r8, #44]
 1430              		.loc 1 873 0
 1431 0032 D8F83030 		ldr	r3, [r8, #48]
 1432              		.loc 1 870 0
 1433 0036 0022     		movs	r2, #0
 1434              		.loc 1 873 0
 1435 0038 1B68     		ldr	r3, [r3]
 1436              		.loc 1 878 0
 1437 003a 0868     		ldr	r0, [r1]
 1438              		.loc 1 870 0
 1439 003c C8F80820 		str	r2, [r8, #8]
 1440              		.loc 1 873 0
 1441 0040 D8F82820 		ldr	r2, [r8, #40]
 1442              		.loc 1 869 0
 1443 0044 4FEA4B0B 		lsl	fp, fp, #1
 1444              		.loc 1 878 0
 1445 0048 D8F82410 		ldr	r1, [r8, #36]
 1446              		.loc 1 869 0
 1447 004c A8F820B0 		strh	fp, [r8, #32]	@ movhi
 1448              		.loc 1 873 0
 1449 0050 1A60     		str	r2, [r3]
 1450              		.loc 1 874 0
 1451 0052 DF60     		str	r7, [r3, #12]
 1452              		.loc 1 880 0
 1453 0054 0F9A     		ldr	r2, [sp, #60]
 1454              		.loc 1 875 0
 1455 0056 5E60     		str	r6, [r3, #4]
 1456              		.loc 1 879 0
 1457 0058 0E9B     		ldr	r3, [sp, #56]
 1458              		.loc 1 878 0
 1459 005a 0160     		str	r1, [r0]
 1460              		.loc 1 879 0
 1461 005c C360     		str	r3, [r0, #12]
 1462              		.loc 1 880 0
 1463 005e 4260     		str	r2, [r0, #4]
 1464              		.loc 1 884 0
 1465 0060 02E0     		b	.L128
 1466              	.LVL96:
 1467              	.L129:
ARM GAS  /tmp/ccxuUUNx.s 			page 27


 1468              	.LBB73:
 1469              		.loc 1 888 0
 1470 0062 0023     		movs	r3, #0
 1471              	@ 888 "../../../../ChibiOS_2.6.2/os/hal/platforms/STM32/I2Cv1/i2c_lld.c" 1
 1472 0064 83F31188 		msr     BASEPRI, r3
 1473              	@ 0 "" 2
 1474              		.thumb
 1475              	.L128:
 1476              	.LBE73:
 1477              		.loc 1 884 0 discriminator 1
 1478 0068 228B     		ldrh	r2, [r4, #24]
 1479              	.LBB74:
 1480              		.loc 1 885 0 discriminator 1
 1481 006a 2023     		movs	r3, #32
 1482              	.LBE74:
 1483              		.loc 1 884 0 discriminator 1
 1484 006c 9707     		lsls	r7, r2, #30
 1485 006e 02D4     		bmi	.L131
 1486              		.loc 1 884 0 is_stmt 0 discriminator 2
 1487 0070 2288     		ldrh	r2, [r4]
 1488 0072 9605     		lsls	r6, r2, #22
 1489 0074 0BD5     		bpl	.L148
 1490              	.L131:
 1491              	.LBB75:
 1492              		.loc 1 885 0 is_stmt 1
 1493              	@ 885 "../../../../ChibiOS_2.6.2/os/hal/platforms/STM32/I2Cv1/i2c_lld.c" 1
 1494 0076 83F31188 		msr     BASEPRI, r3
 1495              	@ 0 "" 2
 1496              		.thumb
 1497              	.LBE75:
 1498              		.loc 1 886 0
 1499 007a 6B1C     		adds	r3, r5, #1
 1500 007c F1D0     		beq	.L129
 1501              		.loc 1 886 0 is_stmt 0 discriminator 1
 1502 007e 049A     		ldr	r2, [sp, #16]
 1503 0080 002A     		cmp	r2, #0
 1504 0082 EED1     		bne	.L129
 1505              	.L133:
 1506              		.loc 1 887 0 is_stmt 1
 1507 0084 4FF0FF30 		mov	r0, #-1
 1508              		.loc 1 910 0
 1509 0088 07B0     		add	sp, sp, #28
 1510              		@ sp needed
 1511 008a BDE8F089 		pop	{r4, r5, r6, r7, r8, fp, pc}
 1512              	.LVL97:
 1513              	.L148:
 1514              	.LBB76:
 1515              		.loc 1 892 0
 1516              	@ 892 "../../../../ChibiOS_2.6.2/os/hal/platforms/STM32/I2Cv1/i2c_lld.c" 1
 1517 008e 83F31188 		msr     BASEPRI, r3
 1518              	@ 0 "" 2
 1519              		.thumb
 1520              	.LBE76:
 1521              		.loc 1 896 0
 1522 0092 0135     		adds	r5, r5, #1
 1523 0094 20D0     		beq	.L132
 1524              		.loc 1 896 0 is_stmt 0 discriminator 1
ARM GAS  /tmp/ccxuUUNx.s 			page 28


 1525 0096 049B     		ldr	r3, [sp, #16]
 1526 0098 002B     		cmp	r3, #0
 1527 009a F3D0     		beq	.L133
 1528              		.loc 1 900 0 is_stmt 1
 1529 009c A388     		ldrh	r3, [r4, #4]
 1530              		.loc 1 904 0
 1531 009e 40F20005 		movw	r5, #:lower16:rlist
 1532              		.loc 1 900 0
 1533 00a2 9BB2     		uxth	r3, r3
 1534 00a4 43F40073 		orr	r3, r3, #512
 1535 00a8 A380     		strh	r3, [r4, #4]	@ movhi
 1536              		.loc 1 901 0
 1537 00aa 2288     		ldrh	r2, [r4]
 1538              		.loc 1 904 0
 1539 00ac C0F20005 		movt	r5, #:upper16:rlist
 1540 00b0 AB69     		ldr	r3, [r5, #24]
 1541              		.loc 1 901 0
 1542 00b2 92B2     		uxth	r2, r2
 1543 00b4 42F48072 		orr	r2, r2, #256
 1544 00b8 2280     		strh	r2, [r4]	@ movhi
 1545              		.loc 1 905 0
 1546 00ba 0220     		movs	r0, #2
 1547              		.loc 1 904 0
 1548 00bc C8F81C30 		str	r3, [r8, #28]
 1549              		.loc 1 905 0
 1550 00c0 FFF7FEFF 		bl	chSchGoSleepS
 1551              	.LVL98:
 1552              		.loc 1 906 0
 1553 00c4 049B     		ldr	r3, [sp, #16]
 1554 00c6 13B1     		cbz	r3, .L135
 1555              		.loc 1 907 0
 1556 00c8 01A8     		add	r0, sp, #4
 1557 00ca FFF7FEFF 		bl	chVTResetI
 1558              	.LVL99:
 1559              	.L135:
 1560              		.loc 1 909 0
 1561 00ce AB69     		ldr	r3, [r5, #24]
 1562 00d0 586A     		ldr	r0, [r3, #36]
 1563              		.loc 1 910 0
 1564 00d2 07B0     		add	sp, sp, #28
 1565              		@ sp needed
 1566 00d4 BDE8F089 		pop	{r4, r5, r6, r7, r8, fp, pc}
 1567              	.LVL100:
 1568              	.L132:
 1569              		.loc 1 900 0
 1570 00d8 A388     		ldrh	r3, [r4, #4]
 1571              		.loc 1 904 0
 1572 00da 40F20005 		movw	r5, #:lower16:rlist
 1573              		.loc 1 900 0
 1574 00de 9BB2     		uxth	r3, r3
 1575 00e0 43F40073 		orr	r3, r3, #512
 1576 00e4 A380     		strh	r3, [r4, #4]	@ movhi
 1577              		.loc 1 901 0
 1578 00e6 2288     		ldrh	r2, [r4]
 1579              		.loc 1 904 0
 1580 00e8 C0F20005 		movt	r5, #:upper16:rlist
 1581 00ec AB69     		ldr	r3, [r5, #24]
ARM GAS  /tmp/ccxuUUNx.s 			page 29


 1582              		.loc 1 901 0
 1583 00ee 92B2     		uxth	r2, r2
 1584 00f0 42F48072 		orr	r2, r2, #256
 1585 00f4 2280     		strh	r2, [r4]	@ movhi
 1586              		.loc 1 905 0
 1587 00f6 0220     		movs	r0, #2
 1588              		.loc 1 904 0
 1589 00f8 C8F81C30 		str	r3, [r8, #28]
 1590              		.loc 1 905 0
 1591 00fc FFF7FEFF 		bl	chSchGoSleepS
 1592              	.LVL101:
 1593 0100 E5E7     		b	.L135
 1594              		.cfi_endproc
 1595              	.LFE77:
 1596              		.size	i2c_lld_master_transmit_timeout, .-i2c_lld_master_transmit_timeout
 1597              		.global	I2CD1
 1598 0102 00BFAFF3 		.section	.bss.I2CD1,"aw",%nobits
 1598      0080AFF3 
 1598      0080AFF3 
 1598      0080
 1599              		.align	2
 1600              		.set	.LANCHOR0,. + 0
 1601              		.type	I2CD1, %object
 1602              		.size	I2CD1, 56
 1603              	I2CD1:
 1604 0000 00000000 		.space	56
 1604      00000000 
 1604      00000000 
 1604      00000000 
 1604      00000000 
 1605              		.text
 1606              	.Letext0:
 1607              		.file 2 "/usr/lib/gcc/arm-none-eabi/4.8.2/include/stddef.h"
 1608              		.file 3 "/usr/include/newlib/machine/_default_types.h"
 1609              		.file 4 "/usr/include/newlib/stdint.h"
 1610              		.file 5 "../../../../ChibiOS_2.6.2/os/ports/GCC/ARMCMx/chtypes.h"
 1611              		.file 6 "../../../../ChibiOS_2.6.2/os/kernel/include/chlists.h"
 1612              		.file 7 "../../../../ChibiOS_2.6.2/os/kernel/include/chthreads.h"
 1613              		.file 8 "../../../../ChibiOS_2.6.2/os/ports/GCC/ARMCMx/chcore_v7m.h"
 1614              		.file 9 "../../../../ChibiOS_2.6.2/os/kernel/include/chvt.h"
 1615              		.file 10 "../../../../ChibiOS_2.6.2/os/kernel/include/chschd.h"
 1616              		.file 11 "../../../../ChibiOS_2.6.2/os/kernel/include/chmtx.h"
 1617              		.file 12 "../../../../ChibiOS_2.6.2/os/hal/platforms/STM32F1xx/stm32f10x.h"
 1618              		.file 13 "../../../../ChibiOS_2.6.2/os/hal/platforms/STM32F1xx/stm32_dma.h"
 1619              		.file 14 "../../../../ChibiOS_2.6.2/os/hal/include/i2c.h"
 1620              		.file 15 "../../../../ChibiOS_2.6.2/os/hal/platforms/STM32/I2Cv1/i2c_lld.h"
 1621              		.file 16 "../../../../ChibiOS_2.6.2/os/ports/common/ARMCMx/CMSIS/include/core_cm3.h"
 1622              		.file 17 "../../../../ChibiOS_2.6.2/os/ports/common/ARMCMx/nvic.h"