ARM GAS  /tmp/ccTavmdd.s 			page 1


   1              		.syntax unified
   2              		.cpu cortex-m3
   3              		.fpu softvfp
   4              		.eabi_attribute 20, 1
   5              		.eabi_attribute 21, 1
   6              		.eabi_attribute 23, 3
   7              		.eabi_attribute 24, 1
   8              		.eabi_attribute 25, 1
   9              		.eabi_attribute 26, 1
  10              		.eabi_attribute 30, 2
  11              		.eabi_attribute 34, 1
  12              		.eabi_attribute 18, 4
  13              		.thumb
  14              		.file	"pal_lld.c"
  15              		.text
  16              	.Ltext0:
  17              		.cfi_sections	.debug_frame
  18              		.section	.text._pal_lld_init,"ax",%progbits
  19              		.align	2
  20              		.p2align 4,,15
  21              		.global	_pal_lld_init
  22              		.thumb
  23              		.thumb_func
  24              		.type	_pal_lld_init, %function
  25              	_pal_lld_init:
  26              	.LFB63:
  27              		.file 1 "../../../../ChibiOS_2.6.2/os/hal/platforms/STM32/GPIOv1/pal_lld.c"
  28              		.loc 1 77 0
  29              		.cfi_startproc
  30              		@ args = 0, pretend = 0, frame = 0
  31              		@ frame_needed = 0, uses_anonymous_args = 0
  32              		@ link register save eliminated.
  33              	.LVL0:
  34              		.loc 1 82 0
  35 0000 4FF48053 		mov	r3, #4096
  36 0004 C4F20203 		movt	r3, 16386
  37 0008 9A69     		ldr	r2, [r3, #24]
  38              		.loc 1 77 0
  39 000a 30B4     		push	{r4, r5}
  40              		.cfi_def_cfa_offset 8
  41              		.cfi_offset 4, -8
  42              		.cfi_offset 5, -4
  43              		.loc 1 82 0
  44 000c 42F4FE72 		orr	r2, r2, #508
  45 0010 42F00102 		orr	r2, r2, #1
  46 0014 9A61     		str	r2, [r3, #24]
  47              		.loc 1 87 0
  48 0016 0268     		ldr	r2, [r0]
  49 0018 4FF40063 		mov	r3, #2048
  50 001c C4F20103 		movt	r3, 16385
  51 0020 DA60     		str	r2, [r3, #12]
  52              		.loc 1 88 0
  53 0022 8168     		ldr	r1, [r0, #8]
  54              		.loc 1 90 0
  55 0024 4FF44062 		mov	r2, #3072
  56              		.loc 1 88 0
  57 0028 5960     		str	r1, [r3, #4]
ARM GAS  /tmp/ccTavmdd.s 			page 2


  58              		.loc 1 89 0
  59 002a 4168     		ldr	r1, [r0, #4]
  60              		.loc 1 90 0
  61 002c C4F20102 		movt	r2, 16385
  62              		.loc 1 89 0
  63 0030 1960     		str	r1, [r3]
  64              		.loc 1 90 0
  65 0032 C168     		ldr	r1, [r0, #12]
  66              		.loc 1 93 0
  67 0034 4FF48053 		mov	r3, #4096
  68              		.loc 1 90 0
  69 0038 D160     		str	r1, [r2, #12]
  70              		.loc 1 91 0
  71 003a 4169     		ldr	r1, [r0, #20]
  72              		.loc 1 93 0
  73 003c C4F20103 		movt	r3, 16385
  74              		.loc 1 91 0
  75 0040 5160     		str	r1, [r2, #4]
  76              		.loc 1 92 0
  77 0042 0169     		ldr	r1, [r0, #16]
  78              		.loc 1 96 0
  79 0044 4FF4A054 		mov	r4, #5120
  80              		.loc 1 92 0
  81 0048 1160     		str	r1, [r2]
  82              		.loc 1 93 0
  83 004a 8269     		ldr	r2, [r0, #24]
  84              		.loc 1 96 0
  85 004c C4F20104 		movt	r4, 16385
  86              		.loc 1 93 0
  87 0050 DA60     		str	r2, [r3, #12]
  88              		.loc 1 94 0
  89 0052 026A     		ldr	r2, [r0, #32]
  90              		.loc 1 100 0
  91 0054 4FF4C051 		mov	r1, #6144
  92              		.loc 1 94 0
  93 0058 5A60     		str	r2, [r3, #4]
  94              		.loc 1 95 0
  95 005a C269     		ldr	r2, [r0, #28]
  96              		.loc 1 100 0
  97 005c C4F20101 		movt	r1, 16385
  98              		.loc 1 95 0
  99 0060 1A60     		str	r2, [r3]
 100              		.loc 1 96 0
 101 0062 436A     		ldr	r3, [r0, #36]
 102              		.loc 1 104 0
 103 0064 4FF4E052 		mov	r2, #7168
 104              		.loc 1 96 0
 105 0068 E360     		str	r3, [r4, #12]
 106              		.loc 1 97 0
 107 006a C36A     		ldr	r3, [r0, #44]
 108              		.loc 1 104 0
 109 006c C4F20102 		movt	r2, 16385
 110              		.loc 1 97 0
 111 0070 6360     		str	r3, [r4, #4]
 112              		.loc 1 98 0
 113 0072 856A     		ldr	r5, [r0, #40]
 114              		.loc 1 108 0
ARM GAS  /tmp/ccTavmdd.s 			page 3


 115 0074 4FF40053 		mov	r3, #8192
 116              		.loc 1 98 0
 117 0078 2560     		str	r5, [r4]
 118              		.loc 1 100 0
 119 007a 046B     		ldr	r4, [r0, #48]
 120              		.loc 1 108 0
 121 007c C4F20103 		movt	r3, 16385
 122              		.loc 1 100 0
 123 0080 CC60     		str	r4, [r1, #12]
 124              		.loc 1 101 0
 125 0082 846B     		ldr	r4, [r0, #56]
 126 0084 4C60     		str	r4, [r1, #4]
 127              		.loc 1 102 0
 128 0086 446B     		ldr	r4, [r0, #52]
 129 0088 0C60     		str	r4, [r1]
 130              		.loc 1 104 0
 131 008a C16B     		ldr	r1, [r0, #60]
 132 008c D160     		str	r1, [r2, #12]
 133              		.loc 1 105 0
 134 008e 416C     		ldr	r1, [r0, #68]
 135              		.loc 1 114 0
 136 0090 30BC     		pop	{r4, r5}
 137              		.loc 1 105 0
 138 0092 5160     		str	r1, [r2, #4]
 139              		.loc 1 106 0
 140 0094 016C     		ldr	r1, [r0, #64]
 141 0096 1160     		str	r1, [r2]
 142              		.loc 1 108 0
 143 0098 826C     		ldr	r2, [r0, #72]
 144 009a DA60     		str	r2, [r3, #12]
 145              		.loc 1 109 0
 146 009c 026D     		ldr	r2, [r0, #80]
 147 009e 5A60     		str	r2, [r3, #4]
 148              		.loc 1 110 0
 149 00a0 C26C     		ldr	r2, [r0, #76]
 150 00a2 1A60     		str	r2, [r3]
 151              		.loc 1 114 0
 152 00a4 7047     		bx	lr
 153              		.cfi_endproc
 154              	.LFE63:
 155              		.size	_pal_lld_init, .-_pal_lld_init
 156 00a6 00BFAFF3 		.section	.text._pal_lld_setgroupmode,"ax",%progbits
 156      0080AFF3 
 156      0080
 157              		.align	2
 158              		.p2align 4,,15
 159              		.global	_pal_lld_setgroupmode
 160              		.thumb
 161              		.thumb_func
 162              		.type	_pal_lld_setgroupmode, %function
 163              	_pal_lld_setgroupmode:
 164              	.LFB64:
 165              		.loc 1 133 0
 166              		.cfi_startproc
 167              		@ args = 0, pretend = 0, frame = 0
 168              		@ frame_needed = 0, uses_anonymous_args = 0
 169              		@ link register save eliminated.
ARM GAS  /tmp/ccTavmdd.s 			page 4


 170              	.LVL1:
 171              		.loc 1 157 0
 172 0000 032A     		cmp	r2, #3
 173              		.loc 1 133 0
 174 0002 F0B4     		push	{r4, r5, r6, r7}
 175              		.cfi_def_cfa_offset 16
 176              		.cfi_offset 4, -16
 177              		.cfi_offset 5, -12
 178              		.cfi_offset 6, -8
 179              		.cfi_offset 7, -4
 180              		.loc 1 158 0
 181 0004 08BF     		it	eq
 182 0006 0161     		streq	r1, [r0, #16]
 183              		.loc 1 157 0
 184 0008 02D0     		beq	.L4
 185              		.loc 1 159 0
 186 000a 042A     		cmp	r2, #4
 187              		.loc 1 160 0
 188 000c 08BF     		it	eq
 189 000e 4161     		streq	r1, [r0, #20]
 190              	.L4:
 191              		.loc 1 161 0
 192 0010 40F20003 		movw	r3, #:lower16:.LANCHOR0
 193 0014 C0F20003 		movt	r3, #:upper16:.LANCHOR0
 194 0018 9F5C     		ldrb	r7, [r3, r2]	@ zero_extendqisi2
 195              	.LVL2:
 196              		.loc 1 162 0
 197 001a 0023     		movs	r3, #0
 198 001c 1C46     		mov	r4, r3
 199 001e 1A46     		mov	r2, r3
 200              	.LVL3:
 201 0020 1D46     		mov	r5, r3
 202              		.loc 1 161 0
 203 0022 0826     		movs	r6, #8
 204              	.LVL4:
 205              	.L10:
 206              		.loc 1 168 0
 207 0024 11F0800F 		tst	r1, #128
 208              		.loc 1 164 0
 209 0028 4FEA0212 		lsl	r2, r2, #4
 210              	.LVL5:
 211              		.loc 1 166 0
 212 002c 4FEA0313 		lsl	r3, r3, #4
 213              	.LVL6:
 214              		.loc 1 165 0
 215 0030 4FEA0515 		lsl	r5, r5, #4
 216              	.LVL7:
 217              		.loc 1 167 0
 218 0034 4FEA0414 		lsl	r4, r4, #4
 219              	.LVL8:
 220              		.loc 1 169 0
 221 0038 0CBF     		ite	eq
 222 003a 42F00F02 		orreq	r2, r2, #15
 223              	.LVL9:
 224              		.loc 1 171 0
 225 003e 3B43     		orrne	r3, r3, r7
 226              	.LVL10:
ARM GAS  /tmp/ccTavmdd.s 			page 5


 227              		.loc 1 172 0
 228 0040 11F4004F 		tst	r1, #32768
 229              		.loc 1 173 0
 230 0044 0CBF     		ite	eq
 231 0046 45F00F05 		orreq	r5, r5, #15
 232              	.LVL11:
 233              		.loc 1 175 0
 234 004a 3C43     		orrne	r4, r4, r7
 235              	.LVL12:
 236              		.loc 1 163 0
 237 004c 013E     		subs	r6, r6, #1
 238              	.LVL13:
 239              		.loc 1 176 0
 240 004e 4FEA4101 		lsl	r1, r1, #1
 241              	.LVL14:
 242              		.loc 1 163 0
 243 0052 E7D1     		bne	.L10
 244              		.loc 1 178 0
 245 0054 4168     		ldr	r1, [r0, #4]
 246              	.LVL15:
 247 0056 0D40     		ands	r5, r5, r1
 248              	.LVL16:
 249 0058 2C43     		orrs	r4, r4, r5
 250              	.LVL17:
 251 005a 4460     		str	r4, [r0, #4]
 252              		.loc 1 179 0
 253 005c 0168     		ldr	r1, [r0]
 254              		.loc 1 180 0
 255 005e F0BC     		pop	{r4, r5, r6, r7}
 256              	.LVL18:
 257              		.loc 1 179 0
 258 0060 0A40     		ands	r2, r2, r1
 259              	.LVL19:
 260 0062 1343     		orrs	r3, r3, r2
 261              	.LVL20:
 262 0064 0360     		str	r3, [r0]
 263              		.loc 1 180 0
 264 0066 7047     		bx	lr
 265              		.cfi_endproc
 266              	.LFE64:
 267              		.size	_pal_lld_setgroupmode, .-_pal_lld_setgroupmode
 268 0068 AFF30080 		.section	.rodata.cfgtab.6509,"a",%progbits
 268      AFF30080 
 269              		.align	2
 270              		.set	.LANCHOR0,. + 0
 271              		.type	cfgtab.6509, %object
 272              		.size	cfgtab.6509, 18
 273              	cfgtab.6509:
 274 0000 04       		.byte	4
 275 0001 02       		.byte	2
 276 0002 04       		.byte	4
 277 0003 08       		.byte	8
 278 0004 08       		.byte	8
 279 0005 00       		.byte	0
 280 0006 03       		.byte	3
 281 0007 07       		.byte	7
 282 0008 08       		.byte	8
ARM GAS  /tmp/ccTavmdd.s 			page 6


 283 0009 08       		.byte	8
 284 000a 08       		.byte	8
 285 000b 08       		.byte	8
 286 000c 08       		.byte	8
 287 000d 08       		.byte	8
 288 000e 08       		.byte	8
 289 000f 08       		.byte	8
 290 0010 0B       		.byte	11
 291 0011 0F       		.byte	15
 292 0012 0000     		.text
 293              	.Letext0:
 294              		.file 2 "/usr/include/newlib/machine/_default_types.h"
 295              		.file 3 "/usr/include/newlib/stdint.h"
 296              		.file 4 "../../../../ChibiOS_2.6.2/os/hal/platforms/STM32F1xx/stm32f10x.h"
 297              		.file 5 "../../../../ChibiOS_2.6.2/os/hal/platforms/STM32/GPIOv1/pal_lld.h"
 298              		.file 6 "../../../../ChibiOS_2.6.2/os/ports/common/ARMCMx/CMSIS/include/core_cm3.h"