ARM GAS  /tmp/ccVE4ZNw.s 			page 1


   1              		.syntax unified
   2              		.cpu cortex-m3
   3              		.fpu softvfp
   4              		.eabi_attribute 20, 1
   5              		.eabi_attribute 21, 1
   6              		.eabi_attribute 23, 3
   7              		.eabi_attribute 24, 1
   8              		.eabi_attribute 25, 1
   9              		.eabi_attribute 26, 1
  10              		.eabi_attribute 30, 2
  11              		.eabi_attribute 34, 1
  12              		.eabi_attribute 18, 4
  13              		.thumb
  14              		.file	"pidlib.c"
  15              		.text
  16              	.Ltext0:
  17              		.cfi_sections	.debug_frame
  18              		.global	__aeabi_i2f
  19              		.global	__aeabi_fcmplt
  20              		.global	__aeabi_fcmpeq
  21              		.global	__aeabi_fadd
  22              		.global	__aeabi_fcmpgt
  23              		.global	__aeabi_fmul
  24              		.global	__aeabi_fsub
  25              		.global	__aeabi_f2d
  26              		.global	__aeabi_dmul
  27              		.global	__aeabi_d2iz
  28              		.global	__aeabi_f2iz
  29              		.section	.text.PidControllerUpdate,"ax",%progbits
  30              		.align	2
  31              		.p2align 4,,15
  32              		.global	PidControllerUpdate
  33              		.thumb
  34              		.thumb_func
  35              		.type	PidControllerUpdate, %function
  36              	PidControllerUpdate:
  37              	.LFB71:
  38              		.file 1 "../../opt/pidlib.c"
  39              		.loc 1 160 0
  40              		.cfi_startproc
  41              		@ args = 0, pretend = 0, frame = 0
  42              		@ frame_needed = 0, uses_anonymous_args = 0
  43              	.LVL0:
  44 0000 2DE9F047 		push	{r4, r5, r6, r7, r8, r9, r10, lr}
  45              		.cfi_def_cfa_offset 32
  46              		.cfi_offset 4, -32
  47              		.cfi_offset 5, -28
  48              		.cfi_offset 6, -24
  49              		.cfi_offset 7, -20
  50              		.cfi_offset 8, -16
  51              		.cfi_offset 9, -12
  52              		.cfi_offset 10, -8
  53              		.cfi_offset 14, -4
  54              		.loc 1 161 0
  55 0004 0446     		mov	r4, r0
  56 0006 0028     		cmp	r0, #0
  57 0008 00F0E880 		beq	.L23
ARM GAS  /tmp/ccVE4ZNw.s 			page 2


  58              		.loc 1 164 0
  59 000c B0F90030 		ldrsh	r3, [r0]
  60 0010 002B     		cmp	r3, #0
  61 0012 00F09380 		beq	.L3
  62              		.loc 1 168 0
  63 0016 90F93400 		ldrsb	r0, [r0, #52]
  64              	.LVL1:
  65 001a 0028     		cmp	r0, #0
  66 001c 80F2A980 		bge	.L4
  67 0020 6569     		ldr	r5, [r4, #20]	@ float
  68              	.L5:
  69              		.loc 1 188 0
  70 0022 25F00040 		bic	r0, r5, #-2147483648
  71 0026 A16A     		ldr	r1, [r4, #40]	@ float
  72 0028 FFF7FEFF 		bl	__aeabi_fcmplt
  73              	.LVL2:
  74 002c 08B1     		cbz	r0, .L8
  75              		.loc 1 189 0
  76 002e 0025     		movs	r5, #0
  77 0030 6561     		str	r5, [r4, #20]	@ float
  78              	.L8:
  79              		.loc 1 192 0
  80 0032 A768     		ldr	r7, [r4, #8]	@ float
  81 0034 0026     		movs	r6, #0
  82 0036 3846     		mov	r0, r7
  83 0038 3146     		mov	r1, r6
  84 003a FFF7FEFF 		bl	__aeabi_fcmpeq
  85              	.LVL3:
  86 003e 0028     		cmp	r0, #0
  87 0040 40F0A480 		bne	.L37
  88              		.loc 1 194 0
  89 0044 E169     		ldr	r1, [r4, #28]	@ float
  90 0046 2846     		mov	r0, r5
  91 0048 FFF7FEFF 		bl	__aeabi_fadd
  92              	.LVL4:
  93              		.loc 1 197 0
  94 004c D4F820A0 		ldr	r10, [r4, #32]	@ float
  95              		.loc 1 194 0
  96 0050 8146     		mov	r9, r0
  97 0052 C4F81C90 		str	r9, [r4, #28]	@ float
  98              		.loc 1 197 0
  99 0056 20F00040 		bic	r0, r0, #-2147483648
 100 005a 5146     		mov	r1, r10
 101              		.loc 1 194 0
 102 005c C846     		mov	r8, r9
 103              		.loc 1 197 0
 104 005e FFF7FEFF 		bl	__aeabi_fcmpgt
 105              	.LVL5:
 106 0062 98B1     		cbz	r0, .L12
 107              	.LVL6:
 108              	.LBB12:
 109              	.LBB13:
 110              		.loc 1 74 0
 111 0064 3146     		mov	r1, r6
 112 0066 4846     		mov	r0, r9
 113 0068 FFF7FEFF 		bl	__aeabi_fcmpeq
 114              	.LVL7:
ARM GAS  /tmp/ccVE4ZNw.s 			page 3


 115 006c 3146     		mov	r1, r6
 116 006e 40B9     		cbnz	r0, .L14
 117              		.loc 1 75 0
 118 0070 3146     		mov	r1, r6
 119 0072 4846     		mov	r0, r9
 120 0074 FFF7FEFF 		bl	__aeabi_fcmpgt
 121              	.LVL8:
 122 0078 4FF07E51 		mov	r1, #1065353216
 123 007c 0028     		cmp	r0, #0
 124 007e 00F0B480 		beq	.L43
 125              	.L14:
 126              	.LBE13:
 127              	.LBE12:
 128              		.loc 1 198 0
 129 0082 5046     		mov	r0, r10
 130 0084 FFF7FEFF 		bl	__aeabi_fmul
 131              	.LVL9:
 132 0088 8046     		mov	r8, r0
 133              	.LVL10:
 134 008a E061     		str	r0, [r4, #28]	@ float
 135              	.LVL11:
 136              	.L12:
 137              		.loc 1 204 0
 138 008c A169     		ldr	r1, [r4, #24]	@ float
 139 008e 2846     		mov	r0, r5
 140 0090 FFF7FEFF 		bl	__aeabi_fsub
 141              	.LVL12:
 142              		.loc 1 205 0
 143 0094 A561     		str	r5, [r4, #24]	@ float
 144              		.loc 1 204 0
 145 0096 0646     		mov	r6, r0
 146 0098 6062     		str	r0, [r4, #36]	@ float
 147              		.loc 1 208 0
 148 009a 6168     		ldr	r1, [r4, #4]	@ float
 149 009c 2846     		mov	r0, r5
 150 009e FFF7FEFF 		bl	__aeabi_fmul
 151              	.LVL13:
 152 00a2 4146     		mov	r1, r8
 153 00a4 0546     		mov	r5, r0
 154 00a6 3846     		mov	r0, r7
 155 00a8 FFF7FEFF 		bl	__aeabi_fmul
 156              	.LVL14:
 157 00ac 0146     		mov	r1, r0
 158 00ae 2846     		mov	r0, r5
 159 00b0 FFF7FEFF 		bl	__aeabi_fadd
 160              	.LVL15:
 161 00b4 E168     		ldr	r1, [r4, #12]	@ float
 162 00b6 0546     		mov	r5, r0
 163 00b8 3046     		mov	r0, r6
 164 00ba FFF7FEFF 		bl	__aeabi_fmul
 165              	.LVL16:
 166 00be 0146     		mov	r1, r0
 167 00c0 2846     		mov	r0, r5
 168 00c2 FFF7FEFF 		bl	__aeabi_fadd
 169              	.LVL17:
 170 00c6 2169     		ldr	r1, [r4, #16]	@ float
 171 00c8 FFF7FEFF 		bl	__aeabi_fadd
ARM GAS  /tmp/ccVE4ZNw.s 			page 4


 172              	.LVL18:
 173              		.loc 1 211 0
 174 00cc 4FF07E51 		mov	r1, #1065353216
 175              		.loc 1 208 0
 176 00d0 0546     		mov	r5, r0
 177              		.loc 1 211 0
 178 00d2 20F00040 		bic	r0, r0, #-2147483648
 179 00d6 FFF7FEFF 		bl	__aeabi_fcmpgt
 180              	.LVL19:
 181 00da 0028     		cmp	r0, #0
 182 00dc 69D0     		beq	.L44
 183              	.LVL20:
 184              	.LBB15:
 185              	.LBB16:
 186              		.loc 1 74 0
 187 00de 2846     		mov	r0, r5
 188 00e0 0021     		movs	r1, #0
 189 00e2 FFF7FEFF 		bl	__aeabi_fcmpeq
 190              	.LVL21:
 191 00e6 0028     		cmp	r0, #0
 192 00e8 53D1     		bne	.L27
 193              		.loc 1 75 0
 194 00ea 2846     		mov	r0, r5
 195 00ec 0021     		movs	r1, #0
 196 00ee FFF7FEFF 		bl	__aeabi_fcmpgt
 197              	.LVL22:
 198 00f2 0028     		cmp	r0, #0
 199 00f4 7DD0     		beq	.L39
 200 00f6 7F26     		movs	r6, #127
 201 00f8 0025     		movs	r5, #0
 202              	.LVL23:
 203 00fa 3746     		mov	r7, r6
 204 00fc C4F2FE25 		movt	r5, 17150
 205 0100 4FF07E53 		mov	r3, #1065353216
 206              	.L18:
 207              	.LBE16:
 208              	.LBE15:
 209              		.loc 1 212 0
 210 0104 E362     		str	r3, [r4, #44]	@ float
 211              	.L17:
 212              		.loc 1 230 0
 213 0106 40F20003 		movw	r3, #:lower16:.LANCHOR0
 214 010a C0F20003 		movt	r3, #:upper16:.LANCHOR0
 215 010e 33F91600 		ldrsh	r0, [r3, r6, lsl #1]
 216              		.loc 1 215 0
 217 0112 2786     		strh	r7, [r4, #48]	@ movhi
 218              		.loc 1 230 0
 219 0114 FFF7FEFF 		bl	__aeabi_i2f
 220              	.LVL24:
 221              	.LBB19:
 222              	.LBB20:
 223              		.loc 1 74 0
 224 0118 0021     		movs	r1, #0
 225              	.LBE20:
 226              	.LBE19:
 227              		.loc 1 230 0
 228 011a 0646     		mov	r6, r0
ARM GAS  /tmp/ccVE4ZNw.s 			page 5


 229              	.LVL25:
 230              	.LBB24:
 231              	.LBB21:
 232              		.loc 1 74 0
 233 011c 2846     		mov	r0, r5
 234 011e FFF7FEFF 		bl	__aeabi_fcmpeq
 235              	.LVL26:
 236 0122 0028     		cmp	r0, #0
 237 0124 6FD1     		bne	.L45
 238              		.loc 1 75 0
 239 0126 0021     		movs	r1, #0
 240 0128 2846     		mov	r0, r5
 241 012a FFF7FEFF 		bl	__aeabi_fcmpgt
 242              	.LVL27:
 243 012e 4FF07E51 		mov	r1, #1065353216
 244 0132 A0B9     		cbnz	r0, .L20
 245 0134 0021     		movs	r1, #0
 246 0136 CBF68071 		movt	r1, 49024
 247 013a 10E0     		b	.L20
 248              	.LVL28:
 249              	.L3:
 250              	.LBE21:
 251              	.LBE24:
 252              		.loc 1 230 0
 253 013c 40F20002 		movw	r2, #:lower16:.LANCHOR0
 254              		.loc 1 221 0
 255 0140 0025     		movs	r5, #0
 256              		.loc 1 230 0
 257 0142 C0F20002 		movt	r2, #:upper16:.LANCHOR0
 258              		.loc 1 226 0
 259 0146 0386     		strh	r3, [r0, #48]	@ movhi
 260              		.loc 1 230 0
 261 0148 B2F90000 		ldrsh	r0, [r2]
 262              	.LVL29:
 263              		.loc 1 221 0
 264 014c 6561     		str	r5, [r4, #20]	@ float
 265              		.loc 1 222 0
 266 014e A561     		str	r5, [r4, #24]	@ float
 267              		.loc 1 223 0
 268 0150 E561     		str	r5, [r4, #28]	@ float
 269              		.loc 1 224 0
 270 0152 6562     		str	r5, [r4, #36]	@ float
 271              		.loc 1 225 0
 272 0154 E562     		str	r5, [r4, #44]	@ float
 273              		.loc 1 230 0
 274 0156 FFF7FEFF 		bl	__aeabi_i2f
 275              	.LVL30:
 276              	.LBB25:
 277              	.LBB22:
 278              		.loc 1 74 0
 279 015a 2946     		mov	r1, r5
 280              	.LBE22:
 281              	.LBE25:
 282              		.loc 1 230 0
 283 015c 0646     		mov	r6, r0
 284              	.LVL31:
 285              	.L20:
ARM GAS  /tmp/ccVE4ZNw.s 			page 6


 286 015e 3046     		mov	r0, r6
 287 0160 FFF7FEFF 		bl	__aeabi_fmul
 288              	.LVL32:
 289 0164 FFF7FEFF 		bl	__aeabi_f2iz
 290              	.LVL33:
 291 0168 80B2     		uxth	r0, r0
 292 016a 6086     		strh	r0, [r4, #50]	@ movhi
 293              		.loc 1 234 0
 294 016c 00B2     		sxth	r0, r0
 295 016e BDE8F087 		pop	{r4, r5, r6, r7, r8, r9, r10, pc}
 296              	.LVL34:
 297              	.L4:
 298              		.loc 1 171 0
 299 0172 FFF7FEFF 		bl	vexSensorValueGet
 300              	.LVL35:
 301              		.loc 1 174 0
 302 0176 B4F93630 		ldrsh	r3, [r4, #54]
 303              		.loc 1 171 0
 304 017a A063     		str	r0, [r4, #56]
 305              		.loc 1 174 0
 306 017c 73B9     		cbnz	r3, .L46
 307              	.L6:
 308              		.loc 1 184 0
 309 017e E36B     		ldr	r3, [r4, #60]
 310 0180 181A     		subs	r0, r3, r0
 311 0182 FFF7FEFF 		bl	__aeabi_i2f
 312              	.LVL36:
 313 0186 0546     		mov	r5, r0
 314 0188 6061     		str	r0, [r4, #20]	@ float
 315 018a 4AE7     		b	.L5
 316              	.L37:
 317              		.loc 1 201 0
 318 018c E661     		str	r6, [r4, #28]	@ float
 319 018e B046     		mov	r8, r6
 320 0190 7CE7     		b	.L12
 321              	.LVL37:
 322              	.L27:
 323              	.LBB26:
 324              	.LBB17:
 325              		.loc 1 74 0
 326 0192 0025     		movs	r5, #0
 327              	.LVL38:
 328 0194 0026     		movs	r6, #0
 329 0196 2B46     		mov	r3, r5
 330 0198 3746     		mov	r7, r6
 331 019a B3E7     		b	.L18
 332              	.L46:
 333              	.LBE17:
 334              	.LBE26:
 335              		.loc 1 176 0
 336 019c 94F93400 		ldrsb	r0, [r4, #52]
 337 01a0 FFF7FEFF 		bl	vexSensorIsAnalog
 338              	.LVL39:
 339 01a4 E8B1     		cbz	r0, .L7
 340              		.loc 1 178 0
 341 01a6 A06B     		ldr	r0, [r4, #56]
 342 01a8 C0F57F60 		rsb	r0, r0, #4080
ARM GAS  /tmp/ccVE4ZNw.s 			page 7


 343 01ac 0F30     		adds	r0, r0, #15
 344 01ae A063     		str	r0, [r4, #56]
 345 01b0 E5E7     		b	.L6
 346              	.L44:
 347              		.loc 1 208 0
 348 01b2 E562     		str	r5, [r4, #44]	@ float
 349 01b4 2846     		mov	r0, r5
 350 01b6 FFF7FEFF 		bl	__aeabi_f2d
 351              	.LVL40:
 352 01ba 15A3     		adr	r3, .L47
 353 01bc D3E90023 		ldrd	r2, [r3]
 354 01c0 FFF7FEFF 		bl	__aeabi_dmul
 355              	.LVL41:
 356 01c4 FFF7FEFF 		bl	__aeabi_d2iz
 357              	.LVL42:
 358 01c8 87B2     		uxth	r7, r0
 359 01ca 3EB2     		sxth	r6, r7
 360 01cc 3046     		mov	r0, r6
 361 01ce FFF7FEFF 		bl	__aeabi_i2f
 362              	.LVL43:
 363 01d2 002E     		cmp	r6, #0
 364 01d4 B8BF     		it	lt
 365 01d6 7642     		rsblt	r6, r6, #0
 366 01d8 0546     		mov	r5, r0
 367 01da 94E7     		b	.L17
 368              	.LVL44:
 369              	.L23:
 370              		.loc 1 234 0
 371 01dc 00B2     		sxth	r0, r0
 372              	.LVL45:
 373 01de BDE8F087 		pop	{r4, r5, r6, r7, r8, r9, r10, pc}
 374              	.LVL46:
 375              	.L7:
 376              		.loc 1 181 0
 377 01e2 A06B     		ldr	r0, [r4, #56]
 378 01e4 4042     		negs	r0, r0
 379 01e6 A063     		str	r0, [r4, #56]
 380 01e8 C9E7     		b	.L6
 381              	.LVL47:
 382              	.L43:
 383              	.LBB27:
 384              	.LBB14:
 385              		.loc 1 75 0
 386 01ea 0021     		movs	r1, #0
 387 01ec CBF68071 		movt	r1, 49024
 388 01f0 47E7     		b	.L14
 389              	.LVL48:
 390              	.L39:
 391              	.LBE14:
 392              	.LBE27:
 393              	.LBB28:
 394              	.LBB18:
 395 01f2 0025     		movs	r5, #0
 396              	.LVL49:
 397 01f4 0023     		movs	r3, #0
 398 01f6 CCF2FE25 		movt	r5, 49918
 399 01fa CBF68073 		movt	r3, 49024
ARM GAS  /tmp/ccVE4ZNw.s 			page 8


 400 01fe 7F26     		movs	r6, #127
 401 0200 4FF68177 		movw	r7, #65409
 402 0204 7EE7     		b	.L18
 403              	.LVL50:
 404              	.L45:
 405              	.LBE18:
 406              	.LBE28:
 407              	.LBB29:
 408              	.LBB23:
 409              		.loc 1 74 0
 410 0206 0021     		movs	r1, #0
 411 0208 A9E7     		b	.L20
 412              	.L48:
 413 020a 00BFAFF3 		.align	3
 413      0080
 414              	.L47:
 415 0210 00000000 		.word	0
 416 0214 00C05F40 		.word	1080016896
 417              	.LBE23:
 418              	.LBE29:
 419              		.cfi_endproc
 420              	.LFE71:
 421              		.size	PidControllerUpdate, .-PidControllerUpdate
 422              		.global	__aeabi_fdiv
 423              		.global	__aeabi_f2uiz
 424              		.global	__aeabi_dsub
 425              		.global	__aeabi_ddiv
 426              		.global	__aeabi_dadd
 427 0218 AFF30080 		.section	.text.PidControllerMakeLut,"ax",%progbits
 427      AFF30080 
 428              		.align	2
 429              		.p2align 4,,15
 430              		.global	PidControllerMakeLut
 431              		.thumb
 432              		.thumb_func
 433              		.type	PidControllerMakeLut, %function
 434              	PidControllerMakeLut:
 435              	.LFB72:
 436              		.loc 1 243 0
 437              		.cfi_startproc
 438              		@ args = 0, pretend = 0, frame = 0
 439              		@ frame_needed = 0, uses_anonymous_args = 0
 440              	.LVL51:
 441 0000 2DE9F84F 		push	{r3, r4, r5, r6, r7, r8, r9, r10, fp, lr}
 442              		.cfi_def_cfa_offset 40
 443              		.cfi_offset 3, -40
 444              		.cfi_offset 4, -36
 445              		.cfi_offset 5, -32
 446              		.cfi_offset 6, -28
 447              		.cfi_offset 7, -24
 448              		.cfi_offset 8, -20
 449              		.cfi_offset 9, -16
 450              		.cfi_offset 10, -12
 451              		.cfi_offset 11, -8
 452              		.cfi_offset 14, -4
 453              		.loc 1 243 0
 454 0004 0024     		movs	r4, #0
ARM GAS  /tmp/ccVE4ZNw.s 			page 9


 455 0006 40F20009 		movw	r9, #:lower16:.LANCHOR0
 456              		.loc 1 247 0
 457 000a 2646     		mov	r6, r4
 458 000c C0F20009 		movt	r9, #:upper16:.LANCHOR0
 459 0010 60E0     		b	.L56
 460              	.LVL52:
 461              	.L63:
 462 0012 2846     		mov	r0, r5
 463 0014 FFF7FEFF 		bl	__aeabi_f2iz
 464              	.LVL53:
 465 0018 FFF7FEFF 		bl	__aeabi_i2f
 466              	.LVL54:
 467 001c 0146     		mov	r1, r0
 468 001e 2846     		mov	r0, r5
 469 0020 FFF7FEFF 		bl	__aeabi_fsub
 470              	.LVL55:
 471 0024 48F65141 		movw	r1, #35921
 472 0028 8346     		mov	fp, r0
 473 002a C4F2F221 		movt	r1, 17138
 474 002e 2846     		mov	r0, r5
 475 0030 FFF7FEFF 		bl	__aeabi_fadd
 476              	.LVL56:
 477 0034 8246     		mov	r10, r0
 478              	.L52:
 479              	.LBB36:
 480              	.LBB37:
 481              	.LBB38:
 482              	.LBB39:
 483              		.file 2 "../../opt/fastmath.c"
 484              		.loc 2 64 0
 485 0036 4046     		mov	r0, r8
 486 0038 5946     		mov	r1, fp
 487 003a FFF7FEFF 		bl	__aeabi_fadd
 488              	.LVL57:
 489              		.loc 2 65 0
 490 003e 0146     		mov	r1, r0
 491              		.loc 2 64 0
 492 0040 0546     		mov	r5, r0
 493              	.LVL58:
 494              		.loc 2 65 0
 495 0042 4FF2F850 		movw	r0, #62968
 496              	.LVL59:
 497 0046 C4F29A00 		movt	r0, 16538
 498 004a FFF7FEFF 		bl	__aeabi_fsub
 499              	.LVL60:
 500 004e 0146     		mov	r1, r0
 501 0050 4DF2FE20 		movw	r0, #54014
 502 0054 C4F2DD10 		movt	r0, 16861
 503 0058 FFF7FEFF 		bl	__aeabi_fdiv
 504              	.LVL61:
 505 005c 5146     		mov	r1, r10
 506 005e FFF7FEFF 		bl	__aeabi_fadd
 507              	.LVL62:
 508 0062 4BF68D41 		movw	r1, #48269
 509 0066 8046     		mov	r8, r0
 510              	.LVL63:
 511 0068 C3F6BE71 		movt	r1, 16318
ARM GAS  /tmp/ccVE4ZNw.s 			page 10


 512 006c 2846     		mov	r0, r5
 513 006e FFF7FEFF 		bl	__aeabi_fmul
 514              	.LVL64:
 515 0072 0146     		mov	r1, r0
 516 0074 4046     		mov	r0, r8
 517 0076 FFF7FEFF 		bl	__aeabi_fsub
 518              	.LVL65:
 519 007a 4FF09641 		mov	r1, #1258291200
 520 007e FFF7FEFF 		bl	__aeabi_fmul
 521              	.LVL66:
 522 0082 FFF7FEFF 		bl	__aeabi_f2uiz
 523              	.LVL67:
 524              	.LBE39:
 525              	.LBE38:
 526              	.LBE37:
 527              	.LBE36:
 528              		.loc 1 254 0
 529 0086 042F     		cmp	r7, #4
 530 0088 4CDD     		ble	.L53
 531              		.loc 1 255 0
 532 008a FFF7FEFF 		bl	__aeabi_f2d
 533              	.LVL68:
 534 008e 0023     		movs	r3, #0
 535 0090 0022     		movs	r2, #0
 536 0092 C3F6F073 		movt	r3, 16368
 537 0096 FFF7FEFF 		bl	__aeabi_dsub
 538              	.LVL69:
 539 009a 0023     		movs	r3, #0
 540 009c 0022     		movs	r2, #0
 541 009e C4F23303 		movt	r3, 16435
 542 00a2 FFF7FEFF 		bl	__aeabi_ddiv
 543              	.LVL70:
 544 00a6 4FF48043 		mov	r3, #16384
 545 00aa 0022     		movs	r2, #0
 546 00ac C4F25D03 		movt	r3, 16477
 547 00b0 FFF7FEFF 		bl	__aeabi_dmul
 548              	.LVL71:
 549 00b4 0023     		movs	r3, #0
 550 00b6 0022     		movs	r2, #0
 551 00b8 C4F22403 		movt	r3, 16420
 552 00bc FFF7FEFF 		bl	__aeabi_dadd
 553              	.LVL72:
 554 00c0 FFF7FEFF 		bl	__aeabi_d2iz
 555              	.LVL73:
 556 00c4 29F80400 		strh	r0, [r9, r4]	@ movhi
 557              	.L54:
 558 00c8 0234     		adds	r4, r4, #2
 559 00ca 0136     		adds	r6, r6, #1
 560              	.LVL74:
 561              		.loc 1 247 0
 562 00cc B4F5807F 		cmp	r4, #256
 563 00d0 B6B2     		uxth	r6, r6
 564              	.LVL75:
 565 00d2 2AD0     		beq	.L61
 566              	.LVL76:
 567              	.L56:
 568              		.loc 1 252 0
ARM GAS  /tmp/ccVE4ZNw.s 			page 11


 569 00d4 37B2     		sxth	r7, r6
 570 00d6 3846     		mov	r0, r7
 571 00d8 FFF7FEFF 		bl	__aeabi_i2f
 572              	.LVL77:
 573 00dc 0021     		movs	r1, #0
 574 00de C4F2FE21 		movt	r1, 17150
 575 00e2 FFF7FEFF 		bl	__aeabi_fdiv
 576              	.LVL78:
 577              	.LBB45:
 578              	.LBB44:
 579              		.loc 2 93 0
 580 00e6 44F6B741 		movw	r1, #19639
 581 00ea C4F28A01 		movt	r1, 16522
 582 00ee FFF7FEFF 		bl	__aeabi_fmul
 583              	.LVL79:
 584              	.LBB42:
 585              	.LBB40:
 586              		.loc 2 61 0
 587 00f2 0021     		movs	r1, #0
 588              	.LBE40:
 589              	.LBE42:
 590              		.loc 2 93 0
 591 00f4 0546     		mov	r5, r0
 592              	.LVL80:
 593              	.LBB43:
 594              	.LBB41:
 595              		.loc 2 61 0
 596 00f6 FFF7FEFF 		bl	__aeabi_fcmplt
 597              	.LVL81:
 598 00fa 4FF00008 		mov	r8, #0
 599 00fe 70B9     		cbnz	r0, .L62
 600              	.L50:
 601              	.LVL82:
 602              		.loc 2 62 0
 603 0100 0021     		movs	r1, #0
 604 0102 2846     		mov	r0, r5
 605 0104 CCF2FC21 		movt	r1, 49916
 606 0108 FFF7FEFF 		bl	__aeabi_fcmplt
 607              	.LVL83:
 608 010c 0028     		cmp	r0, #0
 609 010e 80D0     		beq	.L63
 610 0110 43F6F02A 		movw	r10, #15088
 611 0114 CCF2970A 		movt	r10, 49303
 612 0118 4FF0000B 		mov	fp, #0
 613 011c 8BE7     		b	.L52
 614              	.LVL84:
 615              	.L62:
 616              		.loc 2 61 0
 617 011e 4FF07E58 		mov	r8, #1065353216
 618 0122 EDE7     		b	.L50
 619              	.LVL85:
 620              	.L53:
 621              	.LBE41:
 622              	.LBE43:
 623              	.LBE44:
 624              	.LBE45:
 625              		.loc 1 257 0
ARM GAS  /tmp/ccVE4ZNw.s 			page 12


 626 0124 29F80440 		strh	r4, [r9, r4]	@ movhi
 627 0128 CEE7     		b	.L54
 628              	.LVL86:
 629              	.L61:
 630              		.loc 1 265 0
 631 012a BDE8F88F 		pop	{r3, r4, r5, r6, r7, r8, r9, r10, fp, pc}
 632              		.cfi_endproc
 633              	.LFE72:
 634              		.size	PidControllerMakeLut, .-PidControllerMakeLut
 635 012e 00BF     		.section	.text.PidControllerInit,"ax",%progbits
 636              		.align	2
 637              		.p2align 4,,15
 638              		.global	PidControllerInit
 639              		.thumb
 640              		.thumb_func
 641              		.type	PidControllerInit, %function
 642              	PidControllerInit:
 643              	.LFB69:
 644              		.loc 1 88 0
 645              		.cfi_startproc
 646              		@ args = 4, pretend = 0, frame = 0
 647              		@ frame_needed = 0, uses_anonymous_args = 0
 648              	.LVL87:
 649 0000 2DE9F047 		push	{r4, r5, r6, r7, r8, r9, r10, lr}
 650              		.cfi_def_cfa_offset 32
 651              		.cfi_offset 4, -32
 652              		.cfi_offset 5, -28
 653              		.cfi_offset 6, -24
 654              		.cfi_offset 7, -20
 655              		.cfi_offset 8, -16
 656              		.cfi_offset 9, -12
 657              		.cfi_offset 10, -8
 658              		.cfi_offset 14, -4
 659              		.loc 1 88 0
 660 0004 0E46     		mov	r6, r1
 661 0006 0746     		mov	r7, r0
 662              		.loc 1 97 0
 663 0008 4021     		movs	r1, #64
 664              	.LVL88:
 665 000a 0020     		movs	r0, #0
 666              	.LVL89:
 667              		.loc 1 88 0
 668 000c 9046     		mov	r8, r2
 669 000e 9A46     		mov	r10, r3
 670 0010 BDF92090 		ldrsh	r9, [sp, #32]
 671              		.loc 1 97 0
 672 0014 FFF7FEFF 		bl	chHeapAlloc
 673              	.LVL90:
 674              		.loc 1 104 0
 675 0018 0025     		movs	r5, #0
 676              		.loc 1 112 0
 677 001a 0023     		movs	r3, #0
 678              		.loc 1 97 0
 679 001c 0446     		mov	r4, r0
 680              	.LVL91:
 681              		.loc 1 101 0
 682 001e 4760     		str	r7, [r0, #4]	@ float
ARM GAS  /tmp/ccVE4ZNw.s 			page 13


 683              		.loc 1 102 0
 684 0020 8660     		str	r6, [r0, #8]	@ float
 685              		.loc 1 103 0
 686 0022 C0F80C80 		str	r8, [r0, #12]	@ float
 687              		.loc 1 112 0
 688 0026 4386     		strh	r3, [r0, #50]	@ movhi
 689              		.loc 1 104 0
 690 0028 0561     		str	r5, [r0, #16]	@ float
 691              		.loc 1 107 0
 692 002a 4561     		str	r5, [r0, #20]	@ float
 693              		.loc 1 108 0
 694 002c 8561     		str	r5, [r0, #24]	@ float
 695              		.loc 1 109 0
 696 002e C561     		str	r5, [r0, #28]	@ float
 697              		.loc 1 110 0
 698 0030 4562     		str	r5, [r0, #36]	@ float
 699              		.loc 1 111 0
 700 0032 C562     		str	r5, [r0, #44]	@ float
 701              		.loc 1 113 0
 702 0034 2946     		mov	r1, r5
 703 0036 3046     		mov	r0, r6
 704              	.LVL92:
 705 0038 FFF7FEFF 		bl	__aeabi_fcmpeq
 706              	.LVL93:
 707 003c B8B9     		cbnz	r0, .L69
 708              		.loc 1 114 0
 709 003e 3146     		mov	r1, r6
 710 0040 4FF07A50 		mov	r0, #1048576000
 711 0044 FFF7FEFF 		bl	__aeabi_fdiv
 712              	.LVL94:
 713 0048 2062     		str	r0, [r4, #32]	@ float
 714              	.L67:
 715              		.loc 1 118 0
 716 004a 0021     		movs	r1, #0
 717              		.loc 1 123 0
 718 004c 0022     		movs	r2, #0
 719              		.loc 1 118 0
 720 004e C4F22011 		movt	r1, 16672
 721              		.loc 1 130 0
 722 0052 0123     		movs	r3, #1
 723              		.loc 1 121 0
 724 0054 84F834A0 		strb	r10, [r4, #52]
 725              		.loc 1 122 0
 726 0058 A4F83690 		strh	r9, [r4, #54]	@ movhi
 727              		.loc 1 118 0
 728 005c A162     		str	r1, [r4, #40]	@ float
 729              		.loc 1 123 0
 730 005e A263     		str	r2, [r4, #56]
 731              		.loc 1 125 0
 732 0060 E263     		str	r2, [r4, #60]
 733              		.loc 1 130 0
 734 0062 2380     		strh	r3, [r4]	@ movhi
 735              		.loc 1 134 0
 736 0064 FFF7FEFF 		bl	PidControllerMakeLut
 737              	.LVL95:
 738              		.loc 1 137 0
 739 0068 2046     		mov	r0, r4
ARM GAS  /tmp/ccVE4ZNw.s 			page 14


 740 006a BDE8F087 		pop	{r4, r5, r6, r7, r8, r9, r10, pc}
 741              	.LVL96:
 742              	.L69:
 743              		.loc 1 116 0
 744 006e 2562     		str	r5, [r4, #32]	@ float
 745 0070 EBE7     		b	.L67
 746              		.cfi_endproc
 747              	.LFE69:
 748              		.size	PidControllerInit, .-PidControllerInit
 749 0072 00BFAFF3 		.section	.text.PidControllerInitWithBias,"ax",%progbits
 749      0080AFF3 
 749      0080AFF3 
 749      0080
 750              		.align	2
 751              		.p2align 4,,15
 752              		.global	PidControllerInitWithBias
 753              		.thumb
 754              		.thumb_func
 755              		.type	PidControllerInitWithBias, %function
 756              	PidControllerInitWithBias:
 757              	.LFB70:
 758              		.loc 1 145 0
 759              		.cfi_startproc
 760              		@ args = 8, pretend = 0, frame = 0
 761              		@ frame_needed = 0, uses_anonymous_args = 0
 762              	.LVL97:
 763 0000 70B5     		push	{r4, r5, r6, lr}
 764              		.cfi_def_cfa_offset 16
 765              		.cfi_offset 4, -16
 766              		.cfi_offset 5, -12
 767              		.cfi_offset 6, -8
 768              		.cfi_offset 14, -4
 769 0002 82B0     		sub	sp, sp, #8
 770              		.cfi_def_cfa_offset 24
 771              		.loc 1 145 0
 772 0004 9DF91840 		ldrsb	r4, [sp, #24]
 773 0008 BDF91C50 		ldrsh	r5, [sp, #28]
 774 000c 1E46     		mov	r6, r3
 775              		.loc 1 147 0
 776 000e 0095     		str	r5, [sp]
 777 0010 2346     		mov	r3, r4
 778              	.LVL98:
 779 0012 FFF7FEFF 		bl	PidControllerInit
 780              	.LVL99:
 781              		.loc 1 148 0
 782 0016 00B1     		cbz	r0, .L71
 783              		.loc 1 149 0
 784 0018 0661     		str	r6, [r0, #16]	@ float
 785              	.L71:
 786              		.loc 1 152 0
 787 001a 02B0     		add	sp, sp, #8
 788              		@ sp needed
 789 001c 70BD     		pop	{r4, r5, r6, pc}
 790              		.cfi_endproc
 791              	.LFE70:
 792              		.size	PidControllerInitWithBias, .-PidControllerInitWithBias
 793 001e 00BF     		.section	.bss.PidDriveLut,"aw",%nobits
ARM GAS  /tmp/ccVE4ZNw.s 			page 15


 794              		.align	2
 795              		.set	.LANCHOR0,. + 0
 796              		.type	PidDriveLut, %object
 797              		.size	PidDriveLut, 256
 798              	PidDriveLut:
 799 0000 00000000 		.space	256
 799      00000000 
 799      00000000 
 799      00000000 
 799      00000000 
 800              		.text
 801              	.Letext0:
 802              		.file 3 "/usr/lib/gcc/arm-none-eabi/4.8.2/include/stddef.h"
 803              		.file 4 "/usr/include/newlib/machine/_default_types.h"
 804              		.file 5 "/usr/include/newlib/stdint.h"
 805              		.file 6 "../../../../ChibiOS_2.6.2/os/ports/GCC/ARMCMx/chtypes.h"
 806              		.file 7 "../../../../ChibiOS_2.6.2/os/kernel/include/chlists.h"
 807              		.file 8 "../../../../ChibiOS_2.6.2/os/kernel/include/chthreads.h"
 808              		.file 9 "../../../../ChibiOS_2.6.2/os/ports/GCC/ARMCMx/chcore_v7m.h"
 809              		.file 10 "../../../../ChibiOS_2.6.2/os/kernel/include/chmtx.h"
 810              		.file 11 "../../../../ChibiOS_2.6.2/os/kernel/include/chmemcore.h"
 811              		.file 12 "../../../../ChibiOS_2.6.2/os/kernel/include/chheap.h"
 812              		.file 13 "../../fw/vexsensor.h"
 813              		.file 14 "../../opt/pidlib.h"
 814              		.file 15 "../../../../ChibiOS_2.6.2/os/ports/common/ARMCMx/CMSIS/include/core_cm3.h"