ARM GAS  /tmp/ccVE4ZNw.s 			page 1


   1              		.syntax unified
   2              		.cpu cortex-m3
   3              		.fpu softvfp
   4              		.eabi_attribute 20, 1
   5              		.eabi_attribute 21, 1
   6              		.eabi_attribute 23, 3
   7              		.eabi_attribute 24, 1
   8              		.eabi_attribute 25, 1
   9              		.eabi_attribute 26, 1
  10              		.eabi_attribute 30, 2
  11              		.eabi_attribute 34, 1
  12              		.eabi_attribute 18, 4
  13              		.thumb
  14              		.file	"pidlib.c"
  15              		.text
  16              	.Ltext0:
  17              		.cfi_sections	.debug_frame
  18              		.global	__aeabi_i2f
  19              		.global	__aeabi_fcmplt
  20              		.global	__aeabi_fcmpeq
  21              		.global	__aeabi_fadd
  22              		.global	__aeabi_fcmpgt
  23              		.global	__aeabi_fmul
  24              		.global	__aeabi_fsub
  25              		.global	__aeabi_f2d
  26              		.global	__aeabi_dmul
  27              		.global	__aeabi_d2iz
  28              		.global	__aeabi_f2iz
  29              		.section	.text.PidControllerUpdate,"ax",%progbits
  30              		.align	2
  31              		.p2align 4,,15
  32              		.global	PidControllerUpdate
  33              		.thumb
  34              		.thumb_func
  35              		.type	PidControllerUpdate, %function
  36              	PidControllerUpdate:
  37              	.LFB71:
  38              		.file 1 "../../opt/pidlib.c"
  39              		.loc 1 160 0
  40              		.cfi_startproc
  41              		@ args = 0, pretend = 0, frame = 0
  42              		@ frame_needed = 0, uses_anonymous_args = 0
  43              	.LVL0:
  44 0000 2DE9F047 		push	{r4, r5, r6, r7, r8, r9, r10, lr}
  45              		.cfi_def_cfa_offset 32
  46              		.cfi_offset 4, -32
  47              		.cfi_offset 5, -28
  48              		.cfi_offset 6, -24
  49              		.cfi_offset 7, -20
  50              		.cfi_offset 8, -16
  51              		.cfi_offset 9, -12
  52              		.cfi_offset 10, -8
  53              		.cfi_offset 14, -4
  54              		.loc 1 161 0
  55 0004 0446     		mov	r4, r0
  56 0006 0028     		cmp	r0, #0
  57 0008 00F0E880 		beq	.L23
ARM GAS  /tmp/ccVE4ZNw.s 			page 2


  58              		.loc 1 164 0
  59 000c B0F90030 		ldrsh	r3, [r0]
  60 0010 002B     		cmp	r3, #0
  61 0012 00F09380 		beq	.L3
  62              		.loc 1 168 0
  63 0016 90F93400 		ldrsb	r0, [r0, #52]
  64              	.LVL1:
  65 001a 0028     		cmp	r0, #0
  66 001c 80F2A980 		bge	.L4
  67 0020 6569     		ldr	r5, [r4, #20]	@ float
  68              	.L5:
  69              		.loc 1 188 0
  70 0022 25F00040 		bic	r0, r5, #-2147483648
  71 0026 A16A     		ldr	r1, [r4, #40]	@ float
  72 0028 FFF7FEFF 		bl	__aeabi_fcmplt
  73              	.LVL2:
  74 002c 08B1     		cbz	r0, .L8
  75              		.loc 1 189 0
  76 002e 0025     		movs	r5, #0
  77 0030 6561     		str	r5, [r4, #20]	@ float
  78              	.L8:
  79              		.loc 1 192 0
  80 0032 A768     		ldr	r7, [r4, #8]	@ float
  81 0034 0026     		movs	r6, #0
  82 0036 3846     		mov	r0, r7
  83 0038 3146     		mov	r1, r6
  84 003a FFF7FEFF 		bl	__aeabi_fcmpeq
  85              	.LVL3:
  86 003e 0028     		cmp	r0, #0
  87 0040 40F0A480 		bne	.L37
  88              		.loc 1 194 0
  89 0044 E169     		ldr	r1, [r4, #28]	@ float
  90 0046 2846     		mov	r0, r5
  91 0048 FFF7FEFF 		bl	__aeabi_fadd
  92              	.LVL4:
  93              		.loc 1 197 0
  94 004c D4F820A0 		ldr	r10, [r4, #32]	@ float
  95              		.loc 1 194 0
  96 0050 8146     		mov	r9, r0
  97 0052 C4F81C90 		str	r9, [r4, #28]	@ float
  98              		.loc 1 197 0
  99 0056 20F00040 		bic	r0, r0, #-2147483648
 100 005a 5146     		mov	r1, r10
 101              		.loc 1 194 0
 102 005c C846     		mov	r8, r9
 103              		.loc 1 197 0
 104 005e FFF7FEFF 		bl	__aeabi_fcmpgt
 105              	.LVL5:
 106 0062 98B1     		cbz	r0, .L12
 107              	.LVL6:
 108              	.LBB12:
 109              	.LBB13:
 110              		.loc 1 74 0
 111 0064 3146     		mov	r1, r6
 112 0066 4846     		mov	r0, r9
 113 0068 FFF7FEFF 		bl	__aeabi_fcmpeq
 114              	.LVL7:
ARM GAS  /tmp/ccVE4ZNw.s 			page 3


 115 006c 3146     		mov	r1, r6
 116 006e 40B9     		cbnz	r0, .L14
 117              		.loc 1 75 0
 118 0070 3146     		mov	r1, r6
 119 0072 4846     		mov	r0, r9
 120 0074 FFF7FEFF 		bl	__aeabi_fcmpgt
 121              	.LVL8:
 122 0078 4FF07E51 		mov	r1, #1065353216
 123 007c 0028     		cmp	r0, #0
 124 007e 00F0B480 		beq	.L43
 125              	.L14:
 126              	.LBE13:
 127              	.LBE12:
 128              		.loc 1 198 0
 129 0082 5046     		mov	r0, r10
 130 0084 FFF7FEFF 		bl	__aeabi_fmul
 131              	.LVL9:
 132 0088 8046     		mov	r8, r0
 133              	.LVL10:
 134 008a E061     		str	r0, [r4, #28]	@ float
 135              	.LVL11:
 136              	.L12:
 137              		.loc 1 204 0
 138 008c A169     		ldr	r1, [r4, #24]	@ float
 139 008e 2846     		mov	r0, r5
 140 0090 FFF7FEFF 		bl	__aeabi_fsub
 141              	.LVL12:
 142              		.loc 1 205 0
 143 0094 A561     		str	r5, [r4, #24]	@ float
 144              		.loc 1 204 0
 145 0096 0646     		mov	r6, r0
 146 0098 6062     		str	r0, [r4, #36]	@ float
 147              		.loc 1 208 0
 148 009a 6168     		ldr	r1, [r4, #4]	@ float
 149 009c 2846     		mov	r0, r5
 150 009e FFF7FEFF 		bl	__aeabi_fmul
 151              	.LVL13:
 152 00a2 4146     		mov	r1, r8
 153 00a4 0546     		mov	r5, r0
 154 00a6 3846     		mov	r0, r7
 155 00a8 FFF7FEFF 		bl	__aeabi_fmul
 156              	.LVL14:
 157 00ac 0146     		mov	r1, r0
 158 00ae 2846     		mov	r0, r5
 159 00b0 FFF7FEFF 		bl	__aeabi_fadd
 160              	.LVL15:
 161 00b4 E168     		ldr	r1, [r4, #12]	@ float
 162 00b6 0546     		mov	r5, r0
 163 00b8 3046     		mov	r0, r6
 164 00ba FFF7FEFF 		bl	__aeabi_fmul
 165              	.LVL16:
 166 00be 0146     		mov	r1, r0
 167 00c0 2846     		mov	r0, r5
 168 00c2 FFF7FEFF 		bl	__aeabi_fadd
 169              	.LVL17:
 170 00c6 2169     		ldr	r1, [r4, #16]	@ float
 171 00c8 FFF7FEFF 		bl	__aeabi_fadd
ARM GAS  /tmp/ccVE4ZNw.s 			page 4


 172              	.LVL18:
 173              		.loc 1 211 0
 174 00cc 4FF07E51 		mov	r1, #1065353216
 175              		.loc 1 208 0
 176 00d0 0546     		mov	r5, r0
 177              		.loc 1 211 0
 178 00d2 20F00040 		bic	r0, r0, #-2147483648
 179 00d6 FFF7FEFF 		bl	__aeabi_fcmpgt
 180              	.LVL19:
 181 00da 0028     		cmp	r0, #0
 182 00dc 69D0     		beq	.L44
 183              	.LVL20:
 184              	.LBB15:
 185              	.LBB16:
 186              		.loc 1 74 0
 187 00de 2846     		mov	r0, r5
 188 00e0 0021     		movs	r1, #0
 189 00e2 FFF7FEFF 		bl	__aeabi_fcmpeq
 190              	.LVL21:
 191 00e6 0028     		cmp	r0, #0
 192 00e8 53D1     		bne	.L27
 193              		.loc 1 75 0
 194 00ea 2846     		mov	r0, r5
 195 00ec 0021     		movs	r1, #0
 196 00ee FFF7FEFF 		bl	__aeabi_fcmpgt
 197              	.LVL22:
 198 00f2 0028     		cmp	r0, #0
 199 00f4 7DD0     		beq	.L39
 200 00f6 7F26     		movs	r6, #127
 201 00f8 0025     		movs	r5, #0
 202              	.LVL23:
 203 00fa 3746     		mov	r7, r6
 204 00fc C4F2FE25 		movt	r5, 17150
 205 0100 4FF07E53 		mov	r3, #1065353216
 206              	.L18:
 207              	.LBE16:
 208              	.LBE15:
 209              		.loc 1 212 0
 210 0104 E362     		str	r3, [r4, #44]	@ float
 211              	.L17:
 212              		.loc 1 230 0
 213 0106 40F20003 		movw	r3, #:lower16:.LANCHOR0
 214 010a C0F20003 		movt	r3, #:upper16:.LANCHOR0
 215 010e 33F91600 		ldrsh	r0, [r3, r6, lsl #1]
 216              		.loc 1 215 0
 217 0112 2786     		strh	r7, [r4, #48]	@ movhi
 218              		.loc 1 230 0
 219 0114 FFF7FEFF 		bl	__aeabi_i2f
 220              	.LVL24:
 221              	.LBB19:
 222              	.LBB20:
 223              		.loc 1 74 0
 224 0118 0021     		movs	r1, #0
 225              	.LBE20:
 226              	.LBE19:
 227              		.loc 1 230 0
 228 011a 0646     		mov	r6, r0
ARM GAS  /tmp/ccVE4ZNw.s 			page 5


 229              	.LVL25:
 230              	.LBB24:
 231              	.LBB21:
 232              		.loc 1 74 0
 233 011c 2846     		mov	r0, r5
 234 011e FFF7FEFF 		bl	__aeabi_fcmpeq
 235              	.LVL26:
 236 0122 0028     		cmp	r0, #0
 237 0124 6FD1     		bne	.L45
 238              		.loc 1 75 0
 239 0126 0021     		movs	r1, #0
 240 0128 2846     		mov	r0, r5
 241 012a FFF7FEFF 		bl	__aeabi_fcmpgt
 242              	.LVL27:
 243 012e 4FF07E51 		mov	r1, #1065353216
 244 0132 A0B9     		cbnz	r0, .L20
 245 0134 0021     		movs	r1, #0
 246 0136 CBF68071 		movt	r1, 49024
 247 013a 10E0     		b	.L20
 248              	.LVL28:
 249              	.L3:
 250              	.LBE21:
 251              	.LBE24:
 252              		.loc 1 230 0
 253 013c 40F20002 		movw	r2, #:lower16:.LANCHOR0
 254              		.loc 1 221 0
 255 0140 0025     		movs	r5, #0
 256              		.loc 1 230 0
 257 0142 C0F20002 		movt	r2, #:upper16:.LANCHOR0
 258              		.loc 1 226 0
 259 0146 0386     		strh	r3, [r0, #48]	@ movhi
 260              		.loc 1 230 0
 261 0148 B2F90000 		ldrsh	r0, [r2]
 262              	.LVL29:
 263              		.loc 1 221 0
 264 014c 6561     		str	r5, [r4, #20]	@ float
 265              		.loc 1 222 0
 266 014e A561     		str	r5, [r4, #24]	@ float
 267              		.loc 1 223 0
 268 0150 E561     		str	r5, [r4, #28]	@ float
 269              		.loc 1 224 0
 270 0152 6562     		str	r5, [r4, #36]	@ float
 271              		.loc 1 225 0
 272 0154 E562     		str	r5, [r4, #44]	@ float
 273              		.loc 1 230 0
 274 0156 FFF7FEFF 		bl	__aeabi_i2f
 275              	.LVL30:
 276              	.LBB25:
 277              	.LBB22:
 278              		.loc 1 74 0
 279 015a 2946     		mov	r1, r5
 280              	.LBE22:
 281              	.LBE25:
 282              		.loc 1 230 0
 283 015c 0646     		mov	r6, r0
 284              	.LVL31:
 285              	.L20:
ARM GAS  /tmp/ccVE4ZNw.s 			page 6


 286 015e 3046     		mov	r0, r6
 287 0160 FFF7FEFF 		bl	__aeabi_fmul
 288              	.LVL32:
 289 0164 FFF7FEFF 		bl	__aeabi_f2iz
 290              	.LVL33:
 291 0168 80B2     		uxth	r0, r0
 292 016a 6086     		strh	r0, [r4, #50]	@ movhi
 293              		.loc 1 234 0
 294 016c 00B2     		sxth	r0, r0
 295 016e BDE8F087 		pop	{r4, r5, r6, r7, r8, r9, r10, pc}
 296              	.LVL34:
 297              	.L4:
 298              		.loc 1 171 0
 299 0172 FFF7FEFF 		bl	vexSensorValueGet
 300              	.LVL35:
 301              		.loc 1 174 0
 302 0176 B4F93630 		ldrsh	r3, [r4, #54]
 303              		.loc 1 171 0
 304 017a A063     		str	r0, [r4, #56]
 305              		.loc 1 174 0
 306 017c 73B9     		cbnz	r3, .L46
 307              	.L6:
 308              		.loc 1 184 0
 309 017e E36B     		ldr	r3, [r4, #60]
 310 0180 181A     		subs	r0, r3, r0
 311 0182 FFF7FEFF 		bl	__aeabi_i2f
 312              	.LVL36:
 313 0186 0546     		mov	r5, r0
 314 0188 6061     		str	r0, [r4, #20]	@ float
 315 018a 4AE7     		b	.L5
 316              	.L37:
 317              		.loc 1 201 0
 318 018c E661     		str	r6, [r4, #28]	@ float
 319 018e B046     		mov	r8, r6
 320 0190 7CE7     		b	.L12
 321              	.LVL37:
 322              	.L27:
 323              	.LBB26:
 324              	.LBB17:
 325              		.loc 1 74 0
 326 0192 0025     		movs	r5, #0
 327              	.LVL38:
 328 0194 0026     		movs	r6, #0
 329 0196 2B46     		mov	r3, r5
 330 0198 3746     		mov	r7, r6
 331 019a B3E7     		b	.L18
 332              	.L46:
 333              	.LBE17:
 334              	.LBE26:
 335              		.loc 1 176 0
 336 019c 94F93400 		ldrsb	r0, [r4, #52]
 337 01a0 FFF7FEFF 		bl	vexSensorIsAnalog
 338              	.LVL39:
 339 01a4 E8B1     		cbz	r0, .L7
 340              		.loc 1 178 0
 341 01a6 A06B     		ldr	r0, [r4, #56]
 342 01a8 C0F57F60 		rsb	r0, r0, #4080
ARM GAS  /tmp/ccVE4ZNw.s 			page 7


 343 01ac 0F30     		adds	r0, r0, #15
 344 01ae A063     		str	r0, [r4, #56]
 345 01b0 E5E7     		b	.L6
 346              	.L44:
 347              		.loc 1 208 0
 348 01b2 E562     		str	r5, [r4, #44]	@ float
 349 01b4 2846     		mov	r0, r5
 350 01b6 FFF7FEFF 		bl	__aeabi_f2d
 351              	.LVL40:
 352 01ba 15A3     		adr	r3, .L47
 353 01bc D3E90023 		ldrd	r2, [r3]
 354 01c0 FFF7FEFF 		bl	__aeabi_dmul
 355              	.LVL41:
 356 01c4 FFF7FEFF 		bl	__aeabi_d2iz
 357              	.LVL42:
 358 01c8 87B2     		uxth	r7, r0
 359 01ca 3EB2     		sxth	r6, r7
 360 01cc 3046     		mov	r0, r6
 361 01ce FFF7FEFF 		bl	__aeabi_i2f
 362              	.LVL43:
 363 01d2 002E     		cmp	r6, #0
 364 01d4 B8BF     		it	lt
 365 01d6 7642     		rsblt	r6, r6, #0
 366 01d8 0546     		mov	r5, r0
 367 01da 94E7     		b	.L17
 368              	.LVL44:
 369              	.L23:
 370              		.loc 1 234 0
 371 01dc 00B2     		sxth	r0, r0
 372              	.LVL45:
 373 01de BDE8F087 		pop	{r4, r5, r6, r7, r8, r9, r10, pc}
 374              	.LVL46:
 375              	.L7:
 376              		.loc 1 181 0
 377 01e2 A06B     		ldr	r0, [r4, #56]
 378 01e4 4042     		negs	r0, r0
 379 01e6 A063     		str	r0, [r4, #56]
 380 01e8 C9E7     		b	.L6
 381              	.LVL47:
 382              	.L43:
 383              	.LBB27:
 384              	.LBB14:
 385              		.loc 1 75 0
 386 01ea 0021     		movs	r1, #0
 387 01ec CBF68071 		movt	r1, 49024
 388 01f0 47E7     		b	.L14
 389              	.LVL48:
 390              	.L39:
 391              	.LBE14:
 392              	.LBE27:
 393              	.LBB28:
 394              	.LBB18:
 395 01f2 0025     		movs	r5, #0
 396              	.LVL49:
 397 01f4 0023     		movs	r3, #0
 398 01f6 CCF2FE25 		movt	r5, 49918
 399 01fa CBF68073 		movt	r3, 49024
ARM GAS  /tmp/ccVE4ZNw.s 			page 8


 400 01fe 7F26     		movs	r6, #127
 401 0200 4FF68177 		movw	r7, #65409
 402 0204 7EE7     		b	.L18
 403              	.LVL50:
 404              	.L45:
 405              	.LBE18:
 406              	.LBE28:
 407              	.LBB29:
 408              	.LBB23:
 409              		.loc 1 74 0
 410 0206 0021     		movs	r1, #0
 411 0208 A9E7     		b	.L20
 412              	.L48:
 413 020a 00BFAFF3 		.align	3
 413      0080
 414              	.L47:
 415 0210 00000000 		.word	0
 416 0214 00C05F40 		.word	1080016896
 417              	.LBE23:
 418              	.LBE29:
 419              		.cfi_endproc
 420              	.LFE71:
 421              		.size	PidControllerUpdate, .-PidControllerUpdate
 422              		.global	__aeabi_fdiv
 423              		.global	__aeabi_f2uiz
 424              		.global	__aeabi_dsub
 425              		.global	__aeabi_ddiv
 426              		.global	__aeabi_dadd
 427 0218 AFF30080 		.section	.text.PidControllerMakeLut,"ax",%progbits
 427      AFF30080 
 428              		.align	2
 429              		.p2align 4,,15
 430              		.global	PidControllerMakeLut
 431              		.thumb
 432              		.thumb_func
 433              		.type	PidControllerMakeLut, %function
 434              	PidControllerMakeLut:
 435              	.LFB72:
 436              		.loc 1 243 0
 437              		.cfi_startproc
 438              		@ args = 0, pretend = 0, frame = 0
 439              		@ frame_needed = 0, uses_anonymous_args = 0
 440              	.LVL51:
 441 0000 2DE9F84F 		push	{r3, r4, r5, r6, r7, r8, r9, r10, fp, lr}
 442              		.cfi_def_cfa_offset 40
 443              		.cfi_offset 3, -40
 444              		.cfi_offset 4, -36
 445              		.cfi_offset 5, -32
 446              		.cfi_offset 6, -28
 447              		.cfi_offset 7, -24
 448              		.cfi_offset 8, -20
 449              		.cfi_offset 9, -16
 450              		.cfi_offset 10, -12
 451              		.cfi_offset 11, -8
 452              		.cfi_offset 14, -4
 453              		.loc 1 243 0
 454 0004 0024     		movs	r4, #0
ARM GAS  /tmp/ccVE4ZNw.s 			page 9


 455 0006 40F20009 		movw	r9, #:lower16:.LANCHOR0
 456              		.loc 1 247 0
 457 000a 2646     		mov	r6, r4
 458 000c C0F20009 		movt	r9, #:upper16:.LANCHOR0
 459 0010 60E0     		b	.L56
 460              	.LVL52:
 461              	.L63:
 462 0012 2846     		mov	r0, r5
 463 0014 FFF7FEFF 		bl	__aeabi_f2iz
 464              	.LVL53:
 465 0018 FFF7FEFF 		bl	__aeabi_i2f
 466              	.LVL54:
 467 001c 0146     		mov	r1, r0
 468 001e 2846     		mov	r0, r5
 469 0020 FFF7FEFF 		bl	__aeabi_fsub
 470              	.LVL55:
 471 0024 48F65141 		movw	r1, #35921
 472 0028 8346     		mov	fp, r0
 473 002a C4F2F221 		movt	r1, 17138
 474 002e 2846     		mov	r0, r5
 475 0030 FFF7FEFF 		bl	__aeabi_fadd
 476              	.LVL56:
 477 0034 8246     		mov	r10, r0
 478              	.L52:
 479              	.LBB36:
 480              	.LBB37:
 481              	.LBB38:
 482              	.LBB39:
 483              		.file 2 "../../opt/fastmath.c"
 484              		.loc 2 64 0
 485 0036 4046     		mov	r0, r8
 486 0038 5946     		mov	r1, fp
 487 003a FFF7FEFF 		bl	__aeabi_fadd
 488              	.LVL57:
 489              		.loc 2 65 0
 490 003e 0146     		mov	r1, r0
 491              		.loc 2 64 0
 492 0040 0546     		mov	r5, r0
 493              	.LVL58:
 494              		.loc 2 65 0
 495 0042 4FF2F850 		movw	r0, #62968
 496              	.LVL59:
 497 0046 C4F29A00 		movt	r0, 16538
 498 004a FFF7FEFF 		bl	__aeabi_fsub
 499              	.LVL60:
 500 004e 0146     		mov	r1, r0
 501 0050 4DF2FE20 		movw	r0, #54014
 502 0054 C4F2DD10 		movt	r0, 16861
 503 0058 FFF7FEFF 		bl	__aeabi_fdiv
 504              	.LVL61:
 505 005c 5146     		mov	r1, r10
 506 005e FFF7FEFF 		bl	__aeabi_fadd
 507              	.LVL62:
 508 0062 4BF68D41 		movw	r1, #48269
 509 0066 8046     		mov	r8, r0
 510              	.LVL63:
 511 0068 C3F6BE71 		movt	r1, 16318
ARM GAS  /tmp/ccVE4ZNw.s 			page 10


 512 006c 2846     		mov	r0, r5
 513 006e FFF7FEFF 		bl	__aeabi_fmul
 514              	.LVL64:
 515 0072 0146     		mov	r1, r0
 516 0074 4046     		mov	r0, r8
 517 0076 FFF7FEFF 		bl	__aeabi_fsub
 518              	.LVL65:
 519 007a 4FF09641 		mov	r1, #1258291200
 520 007e FFF7FEFF 		bl	__aeabi_fmul
 521              	.LVL66:
 522 0082 FFF7FEFF 		bl	__aeabi_f2uiz
 523              	.LVL67:
 524              	.LBE39:
 525              	.LBE38:
 526              	.LBE37:
 527              	.LBE36:
 528              		.loc 1 254 0
 529 0086 042F     		cmp	r7, #4
 530 0088 4CDD     		ble	.L53
 531              		.loc 1 255 0
 532 008a FFF7FEFF 		bl	__aeabi_f2d
 533              	.LVL68:
 534 008e 0023     		movs	r3, #0
 535 0090 0022     		movs	r2, #0
 536 0092 C3F6F073 		movt	r3, 16368
 537 0096 FFF7FEFF 		bl	__aeabi_dsub
 538              	.LVL69:
 539 009a 0023     		movs	r3, #0
 540 009c 0022     		movs	r2, #0
 541 009e C4F23303 		movt	r3, 16435
 542 00a2 FFF7FEFF 		bl	__aeabi_ddiv
 543              	.LVL70:
 544 00a6 4FF48043 		mov	r3, #16384
 545 00aa 0022     		movs	r2, #0
 546 00ac C4F25D03 		movt	r3, 16477
 547 00b0 FFF7FEFF 		bl	__aeabi_dmul
 548              	.LVL71:
 549 00b4 0023     		movs	r3, #0
 550 00b6 0022     		movs	r2, #0
 551 00b8 C4F22403 		movt	r3, 16420
 552 00bc FFF7FEFF 		bl	__aeabi_dadd
 553              	.LVL72:
 554 00c0 FFF7FEFF 		bl	__aeabi_d2iz
 555              	.LVL73:
 556 00c4 29F80400 		strh	r0, [r9, r4]	@ movhi
 557              	.L54:
 558 00c8 0234     		adds	r4, r4, #2
 559 00ca 0136     		adds	r6, r6, #1
 560              	.LVL74:
 561              		.loc 1 247 0
 562 00cc B4F5807F 		cmp	r4, #256
 563 00d0 B6B2     		uxth	r6, r6
 564              	.LVL75:
 565 00d2 2AD0     		beq	.L61
 566              	.LVL76:
 567              	.L56:
 568              		.loc 1 252 0
ARM GAS  /tmp/ccVE4ZNw.s 			page 11


 569 00d4 37B2     		sxth	r7, r6
 570 00d6 3846     		mov	r0, r7
 571 00d8 FFF7FEFF 		bl	__aeabi_i2f
 572              	.LVL77:
 573 00dc 0021     		movs	r1, #0
 574 00de C4F2FE21 		movt	r1, 17150
 575 00e2 FFF7FEFF 		bl	__aeabi_fdiv
 576              	.LVL78:
 577              	.LBB45:
 578              	.LBB44:
 579              		.loc 2 93 0
 580 00e6 44F6B741 		movw	r1, #19639
 581 00ea C4F28A01 		movt	r1, 16522
 582 00ee FFF7FEFF 		bl	__aeabi_fmul
 583              	.LVL79:
 584              	.LBB42:
 585              	.LBB40:
 586              		.loc 2 61 0
 587 00f2 0021     		movs	r1, #0
 588              	.LBE40:
 589              	.LBE42:
 590              		.loc 2 93 0
 591 00f4 0546     		mov	r5, r0
 592              	.LVL80:
 593              	.LBB43:
 594              	.LBB41:
 595              		.loc 2 61 0
 596 00f6 FFF7FEFF 		bl	__aeabi_fcmplt
 597              	.LVL81:
 598 00fa 4FF00008 		mov	r8, #0
 599 00fe 70B9     		cbnz	r0, .L62
 600              	.L50:
 601              	.LVL82:
 602              		.loc 2 62 0
 603 0100 0021     		movs	r1, #0
 604 0102 2846     		mov	r0, r5
 605 0104 CCF2FC21 		movt	r1, 49916
 606 0108 FFF7FEFF 		bl	__aeabi_fcmplt
 607              	.LVL83:
 608 010c 0028     		cmp	r0, #0
 609 010e 80D0     		beq	.L63
 610 0110 43F6F02A 		movw	r10, #15088
 611 0114 CCF2970A 		movt	r10, 49303
 612 0118 4FF0000B 		mov	fp, #0
 613 011c 8BE7     		b	.L52
 614              	.LVL84:
 615              	.L62:
 616              		.loc 2 61 0
 617 011e 4FF07E58 		mov	r8, #1065353216
 618 0122 EDE7     		b	.L50
 619              	.LVL85:
 620              	.L53:
 621              	.LBE41:
 622              	.LBE43:
 623              	.LBE44:
 624              	.LBE45:
 625              		.loc 1 257 0
ARM GAS  /tmp/ccVE4ZNw.s 			page 12


 626 0124 29F80440 		strh	r4, [r9, r4]	@ movhi
 627 0128 CEE7     		b	.L54
 628              	.LVL86:
 629              	.L61:
 630              		.loc 1 265 0
 631 012a BDE8F88F 		pop	{r3, r4, r5, r6, r7, r8, r9, r10, fp, pc}
 632              		.cfi_endproc
 633              	.LFE72:
 634              		.size	PidControllerMakeLut, .-PidControllerMakeLut
 635 012e 00BF     		.section	.text.PidControllerInit,"ax",%progbits
 636              		.align	2
 637              		.p2align 4,,15
 638              		.global	PidControllerInit
 639              		.thumb
 640              		.thumb_func
 641              		.type	PidControllerInit, %function
 642              	PidControllerInit:
 643              	.LFB69:
 644              		.loc 1 88 0
 645              		.cfi_startproc
 646              		@ args = 4, pretend = 0, frame = 0
 647              		@ frame_needed = 0, uses_anonymous_args = 0
 648              	.LVL87:
 649 0000 2DE9F047 		push	{r4, r5, r6, r7, r8, r9, r10, lr}
 650              		.cfi_def_cfa_offset 32
 651              		.cfi_offset 4, -32
 652              		.cfi_offset 5, -28
 653              		.cfi_offset 6, -24
 654              		.cfi_offset 7, -20
 655              		.cfi_offset 8, -16
 656              		.cfi_offset 9, -12
 657              		.cfi_offset 10, -8
 658              		.cfi_offset 14, -4
 659              		.loc 1 88 0
 660 0004 0E46     		mov	r6, r1
 661 0006 0746     		mov	r7, r0
 662              		.loc 1 97 0
 663 0008 4021     		movs	r1, #64
 664              	.LVL88:
 665 000a 0020     		movs	r0, #0
 666              	.LVL89:
 667              		.loc 1 88 0
 668 000c 9046     		mov	r8, r2
 669 000e 9A46     		mov	r10, r3
 670 0010 BDF92090 		ldrsh	r9, [sp, #32]
 671              		.loc 1 97 0
 672 0014 FFF7FEFF 		bl	chHeapAlloc
 673              	.LVL90:
 674              		.loc 1 104 0
 675 0018 0025     		movs	r5, #0
 676              		.loc 1 112 0
 677 001a 0023     		movs	r3, #0
 678              		.loc 1 97 0
 679 001c 0446     		mov	r4, r0
 680              	.LVL91:
 681              		.loc 1 101 0
 682 001e 4760     		str	r7, [r0, #4]	@ float
ARM GAS  /tmp/ccVE4ZNw.s 			page 13


 683              		.loc 1 102 0
 684 0020 8660     		str	r6, [r0, #8]	@ float
 685              		.loc 1 103 0
 686 0022 C0F80C80 		str	r8, [r0, #12]	@ float
 687              		.loc 1 112 0
 688 0026 4386     		strh	r3, [r0, #50]	@ movhi
 689              		.loc 1 104 0
 690 0028 0561     		str	r5, [r0, #16]	@ float
 691              		.loc 1 107 0
 692 002a 4561     		str	r5, [r0, #20]	@ float
 693              		.loc 1 108 0
 694 002c 8561     		str	r5, [r0, #24]	@ float
 695              		.loc 1 109 0
 696 002e C561     		str	r5, [r0, #28]	@ float
 697              		.loc 1 110 0
 698 0030 4562     		str	r5, [r0, #36]	@ float
 699              		.loc 1 111 0
 700 0032 C562     		str	r5, [r0, #44]	@ float
 701              		.loc 1 113 0
 702 0034 2946     		mov	r1, r5
 703 0036 3046     		mov	r0, r6
 704              	.LVL92:
 705 0038 FFF7FEFF 		bl	__aeabi_fcmpeq
 706              	.LVL93:
 707 003c B8B9     		cbnz	r0, .L69
 708              		.loc 1 114 0
 709 003e 3146     		mov	r1, r6
 710 0040 4FF07A50 		mov	r0, #1048576000
 711 0044 FFF7FEFF 		bl	__aeabi_fdiv
 712              	.LVL94:
 713 0048 2062     		str	r0, [r4, #32]	@ float
 714              	.L67:
 715              		.loc 1 118 0
 716 004a 0021     		movs	r1, #0
 717              		.loc 1 123 0
 718 004c 0022     		movs	r2, #0
 719              		.loc 1 118 0
 720 004e C4F22011 		movt	r1, 16672
 721              		.loc 1 130 0
 722 0052 0123     		movs	r3, #1
 723              		.loc 1 121 0
 724 0054 84F834A0 		strb	r10, [r4, #52]
 725              		.loc 1 122 0
 726 0058 A4F83690 		strh	r9, [r4, #54]	@ movhi
 727              		.loc 1 118 0
 728 005c A162     		str	r1, [r4, #40]	@ float
 729              		.loc 1 123 0
 730 005e A263     		str	r2, [r4, #56]
 731              		.loc 1 125 0
 732 0060 E263     		str	r2, [r4, #60]
 733              		.loc 1 130 0
 734 0062 2380     		strh	r3, [r4]	@ movhi
 735              		.loc 1 134 0
 736 0064 FFF7FEFF 		bl	PidControllerMakeLut
 737              	.LVL95:
 738              		.loc 1 137 0
 739 0068 2046     		mov	r0, r4
ARM GAS  /tmp/ccVE4ZNw.s 			page 14


 740 006a BDE8F087 		pop	{r4, r5, r6, r7, r8, r9, r10, pc}
 741              	.LVL96:
 742              	.L69:
 743              		.loc 1 116 0
 744 006e 2562     		str	r5, [r4, #32]	@ float
 745 0070 EBE7     		b	.L67
 746              		.cfi_endproc
 747              	.LFE69:
 748              		.size	PidControllerInit, .-PidControllerInit
 749 0072 00BFAFF3 		.section	.text.PidControllerInitWithBias,"ax",%progbits
 749      0080AFF3 
 749      0080AFF3 
 749      0080
 750              		.align	2
 751              		.p2align 4,,15
 752              		.global	PidControllerInitWithBias
 753              		.thumb
 754              		.thumb_func
 755              		.type	PidControllerInitWithBias, %function
 756              	PidControllerInitWithBias:
 757              	.LFB70:
 758              		.loc 1 145 0
 759              		.cfi_startproc
 760              		@ args = 8, pretend = 0, frame = 0
 761              		@ frame_needed = 0, uses_anonymous_args = 0
 762              	.LVL97:
 763 0000 70B5     		push	{r4, r5, r6, lr}
 764              		.cfi_def_cfa_offset 16
 765              		.cfi_offset 4, -16
 766              		.cfi_offset 5, -12
 767              		.cfi_offset 6, -8
 768              		.cfi_offset 14, -4
 769 0002 82B0     		sub	sp, sp, #8
 770              		.cfi_def_cfa_offset 24
 771              		.loc 1 145 0
 772 0004 9DF91840 		ldrsb	r4, [sp, #24]
 773 0008 BDF91C50 		ldrsh	r5, [sp, #28]
 774 000c 1E46     		mov	r6, r3
 775              		.loc 1 147 0
 776 000e 0095     		str	r5, [sp]
 777 0010 2346     		mov	r3, r4
 778              	.LVL98:
 779 0012 FFF7FEFF 		bl	PidControllerInit
 780              	.LVL99:
 781              		.loc 1 148 0
 782 0016 00B1     		cbz	r0, .L71
 783              		.loc 1 149 0
 784 0018 0661     		str	r6, [r0, #16]	@ float
 785              	.L71:
 786              		.loc 1 152 0
 787 001a 02B0     		add	sp, sp, #8
 788              		@ sp needed
 789 001c 70BD     		pop	{r4, r5, r6, pc}
 790              		.cfi_endproc
 791              	.LFE70:
 792              		.size	PidControllerInitWithBias, .-PidControllerInitWithBias
 793 001e 00BF     		.section	.bss.PidDriveLut,"aw",%nobits
ARM GAS  /tmp/ccVE4ZNw.s 			page 15


 794              		.align	2
 795              		.set	.LANCHOR0,. + 0
 796              		.type	PidDriveLut, %object
 797              		.size	PidDriveLut, 256
 798              	PidDriveLut:
 799 0000 00000000 		.space	256
 799      00000000 
 799      00000000 
 799      00000000 
 799      00000000 
 800              		.text
 801              	.Letext0:
 802              		.file 3 "/usr/lib/gcc/arm-none-eabi/4.8.2/include/stddef.h"
 803              		.file 4 "/usr/include/newlib/machine/_default_types.h"
 804              		.file 5 "/usr/include/newlib/stdint.h"
 805              		.file 6 "../../../../ChibiOS_2.6.2/os/ports/GCC/ARMCMx/chtypes.h"
 806              		.file 7 "../../../../ChibiOS_2.6.2/os/kernel/include/chlists.h"
 807              		.file 8 "../../../../ChibiOS_2.6.2/os/kernel/include/chthreads.h"
 808              		.file 9 "../../../../ChibiOS_2.6.2/os/ports/GCC/ARMCMx/chcore_v7m.h"
 809              		.file 10 "../../../../ChibiOS_2.6.2/os/kernel/include/chmtx.h"
 810              		.file 11 "../../../../ChibiOS_2.6.2/os/kernel/include/chmemcore.h"
 811              		.file 12 "../../../../ChibiOS_2.6.2/os/kernel/include/chheap.h"
 812              		.file 13 "../../fw/vexsensor.h"
 813              		.file 14 "../../opt/pidlib.h"
 814              		.file 15 "../../../../ChibiOS_2.6.2/os/ports/common/ARMCMx/CMSIS/include/core_cm3.h"
 815              		.section	.debug_info,"",%progbits
 816              	.Ldebug_info0:
 817 0000 830A0000 		.4byte	0xa83
 818 0004 0400     		.2byte	0x4
 819 0006 00000000 		.4byte	.Ldebug_abbrev0
 820 000a 04       		.byte	0x4
 821 000b 01       		.uleb128 0x1
 822 000c 50020000 		.4byte	.LASF140
 823 0010 01       		.byte	0x1
 824 0011 DB000000 		.4byte	.LASF141
 825 0015 FB010000 		.4byte	.LASF142
 826 0019 98000000 		.4byte	.Ldebug_ranges0+0x98
 827 001d 00000000 		.4byte	0
 828 0021 00000000 		.4byte	.Ldebug_line0
 829 0025 02       		.uleb128 0x2
 830 0026 04       		.byte	0x4
 831 0027 04       		.byte	0x4
 832 0028 64040000 		.4byte	.LASF0
 833 002c 02       		.uleb128 0x2
 834 002d 02       		.byte	0x2
 835 002e 05       		.byte	0x5
 836 002f 22010000 		.4byte	.LASF1
 837 0033 03       		.uleb128 0x3
 838 0034 8D010000 		.4byte	.LASF4
 839 0038 03       		.byte	0x3
 840 0039 D4       		.byte	0xd4
 841 003a 3E000000 		.4byte	0x3e
 842 003e 02       		.uleb128 0x2
 843 003f 04       		.byte	0x4
 844 0040 07       		.byte	0x7
 845 0041 BD010000 		.4byte	.LASF2
 846 0045 04       		.uleb128 0x4
ARM GAS  /tmp/ccVE4ZNw.s 			page 16


 847 0046 04       		.byte	0x4
 848 0047 05       		.byte	0x5
 849 0048 696E7400 		.ascii	"int\000"
 850 004c 02       		.uleb128 0x2
 851 004d 01       		.byte	0x1
 852 004e 06       		.byte	0x6
 853 004f 96000000 		.4byte	.LASF3
 854 0053 03       		.uleb128 0x3
 855 0054 10000000 		.4byte	.LASF5
 856 0058 04       		.byte	0x4
 857 0059 1C       		.byte	0x1c
 858 005a 5E000000 		.4byte	0x5e
 859 005e 02       		.uleb128 0x2
 860 005f 01       		.byte	0x1
 861 0060 08       		.byte	0x8
 862 0061 B6040000 		.4byte	.LASF6
 863 0065 03       		.uleb128 0x3
 864 0066 83010000 		.4byte	.LASF7
 865 006a 04       		.byte	0x4
 866 006b 25       		.byte	0x25
 867 006c 2C000000 		.4byte	0x2c
 868 0070 02       		.uleb128 0x2
 869 0071 02       		.byte	0x2
 870 0072 07       		.byte	0x7
 871 0073 0F030000 		.4byte	.LASF8
 872 0077 03       		.uleb128 0x3
 873 0078 D3050000 		.4byte	.LASF9
 874 007c 04       		.byte	0x4
 875 007d 37       		.byte	0x37
 876 007e 82000000 		.4byte	0x82
 877 0082 02       		.uleb128 0x2
 878 0083 04       		.byte	0x4
 879 0084 05       		.byte	0x5
 880 0085 EE000000 		.4byte	.LASF10
 881 0089 03       		.uleb128 0x3
 882 008a 6F010000 		.4byte	.LASF11
 883 008e 04       		.byte	0x4
 884 008f 38       		.byte	0x38
 885 0090 94000000 		.4byte	0x94
 886 0094 02       		.uleb128 0x2
 887 0095 04       		.byte	0x4
 888 0096 07       		.byte	0x7
 889 0097 A8000000 		.4byte	.LASF12
 890 009b 02       		.uleb128 0x2
 891 009c 08       		.byte	0x8
 892 009d 05       		.byte	0x5
 893 009e 88000000 		.4byte	.LASF13
 894 00a2 03       		.uleb128 0x3
 895 00a3 59040000 		.4byte	.LASF14
 896 00a7 04       		.byte	0x4
 897 00a8 4E       		.byte	0x4e
 898 00a9 AD000000 		.4byte	0xad
 899 00ad 02       		.uleb128 0x2
 900 00ae 08       		.byte	0x8
 901 00af 07       		.byte	0x7
 902 00b0 A0010000 		.4byte	.LASF15
 903 00b4 02       		.uleb128 0x2
ARM GAS  /tmp/ccVE4ZNw.s 			page 17


 904 00b5 04       		.byte	0x4
 905 00b6 07       		.byte	0x7
 906 00b7 ED030000 		.4byte	.LASF16
 907 00bb 05       		.uleb128 0x5
 908 00bc 04       		.byte	0x4
 909 00bd 02       		.uleb128 0x2
 910 00be 01       		.byte	0x1
 911 00bf 08       		.byte	0x8
 912 00c0 B2050000 		.4byte	.LASF17
 913 00c4 06       		.uleb128 0x6
 914 00c5 04       		.byte	0x4
 915 00c6 CA000000 		.4byte	0xca
 916 00ca 07       		.uleb128 0x7
 917 00cb BD000000 		.4byte	0xbd
 918 00cf 02       		.uleb128 0x2
 919 00d0 08       		.byte	0x8
 920 00d1 04       		.byte	0x4
 921 00d2 2C010000 		.4byte	.LASF18
 922 00d6 02       		.uleb128 0x2
 923 00d7 08       		.byte	0x8
 924 00d8 04       		.byte	0x4
 925 00d9 A0050000 		.4byte	.LASF19
 926 00dd 03       		.uleb128 0x3
 927 00de D3060000 		.4byte	.LASF20
 928 00e2 05       		.byte	0x5
 929 00e3 2A       		.byte	0x2a
 930 00e4 53000000 		.4byte	0x53
 931 00e8 03       		.uleb128 0x3
 932 00e9 80000000 		.4byte	.LASF21
 933 00ed 05       		.byte	0x5
 934 00ee 35       		.byte	0x35
 935 00ef 65000000 		.4byte	0x65
 936 00f3 03       		.uleb128 0x3
 937 00f4 AE040000 		.4byte	.LASF22
 938 00f8 05       		.byte	0x5
 939 00f9 41       		.byte	0x41
 940 00fa 77000000 		.4byte	0x77
 941 00fe 03       		.uleb128 0x3
 942 00ff 8A050000 		.4byte	.LASF23
 943 0103 05       		.byte	0x5
 944 0104 42       		.byte	0x42
 945 0105 89000000 		.4byte	0x89
 946 0109 03       		.uleb128 0x3
 947 010a 07000000 		.4byte	.LASF24
 948 010e 05       		.byte	0x5
 949 010f 4E       		.byte	0x4e
 950 0110 A2000000 		.4byte	0xa2
 951 0114 03       		.uleb128 0x3
 952 0115 C2000000 		.4byte	.LASF25
 953 0119 06       		.byte	0x6
 954 011a 2B       		.byte	0x2b
 955 011b 1F010000 		.4byte	0x11f
 956 011f 02       		.uleb128 0x2
 957 0120 01       		.byte	0x1
 958 0121 02       		.byte	0x2
 959 0122 A8040000 		.4byte	.LASF26
 960 0126 03       		.uleb128 0x3
ARM GAS  /tmp/ccVE4ZNw.s 			page 18


 961 0127 05010000 		.4byte	.LASF27
 962 012b 06       		.byte	0x6
 963 012c 2C       		.byte	0x2c
 964 012d DD000000 		.4byte	0xdd
 965 0131 03       		.uleb128 0x3
 966 0132 0D010000 		.4byte	.LASF28
 967 0136 06       		.byte	0x6
 968 0137 2D       		.byte	0x2d
 969 0138 DD000000 		.4byte	0xdd
 970 013c 03       		.uleb128 0x3
 971 013d 85040000 		.4byte	.LASF29
 972 0141 06       		.byte	0x6
 973 0142 2E       		.byte	0x2e
 974 0143 DD000000 		.4byte	0xdd
 975 0147 03       		.uleb128 0x3
 976 0148 D1000000 		.4byte	.LASF30
 977 014c 06       		.byte	0x6
 978 014d 2F       		.byte	0x2f
 979 014e DD000000 		.4byte	0xdd
 980 0152 03       		.uleb128 0x3
 981 0153 94040000 		.4byte	.LASF31
 982 0157 06       		.byte	0x6
 983 0158 30       		.byte	0x30
 984 0159 FE000000 		.4byte	0xfe
 985 015d 03       		.uleb128 0x3
 986 015e 22030000 		.4byte	.LASF32
 987 0162 06       		.byte	0x6
 988 0163 31       		.byte	0x31
 989 0164 F3000000 		.4byte	0xf3
 990 0168 03       		.uleb128 0x3
 991 0169 76030000 		.4byte	.LASF33
 992 016d 06       		.byte	0x6
 993 016e 33       		.byte	0x33
 994 016f FE000000 		.4byte	0xfe
 995 0173 03       		.uleb128 0x3
 996 0174 BE050000 		.4byte	.LASF34
 997 0178 06       		.byte	0x6
 998 0179 35       		.byte	0x35
 999 017a FE000000 		.4byte	0xfe
 1000 017e 03       		.uleb128 0x3
 1001 017f 94010000 		.4byte	.LASF35
 1002 0183 07       		.byte	0x7
 1003 0184 2A       		.byte	0x2a
 1004 0185 89010000 		.4byte	0x189
 1005 0189 08       		.uleb128 0x8
 1006 018a 94010000 		.4byte	.LASF35
 1007 018e 48       		.byte	0x48
 1008 018f 08       		.byte	0x8
 1009 0190 5E       		.byte	0x5e
 1010 0191 86020000 		.4byte	0x286
 1011 0195 09       		.uleb128 0x9
 1012 0196 37050000 		.4byte	.LASF36
 1013 019a 08       		.byte	0x8
 1014 019b 5F       		.byte	0x5f
 1015 019c A7020000 		.4byte	0x2a7
 1016 01a0 00       		.byte	0
 1017 01a1 09       		.uleb128 0x9
ARM GAS  /tmp/ccVE4ZNw.s 			page 19


 1018 01a2 8D040000 		.4byte	.LASF37
 1019 01a6 08       		.byte	0x8
 1020 01a7 61       		.byte	0x61
 1021 01a8 A7020000 		.4byte	0x2a7
 1022 01ac 04       		.byte	0x4
 1023 01ad 09       		.uleb128 0x9
 1024 01ae 79000000 		.4byte	.LASF38
 1025 01b2 08       		.byte	0x8
 1026 01b3 63       		.byte	0x63
 1027 01b4 52010000 		.4byte	0x152
 1028 01b8 08       		.byte	0x8
 1029 01b9 09       		.uleb128 0x9
 1030 01ba 8C070000 		.4byte	.LASF39
 1031 01be 08       		.byte	0x8
 1032 01bf 64       		.byte	0x64
 1033 01c0 6A030000 		.4byte	0x36a
 1034 01c4 0C       		.byte	0xc
 1035 01c5 09       		.uleb128 0x9
 1036 01c6 41010000 		.4byte	.LASF40
 1037 01ca 08       		.byte	0x8
 1038 01cb 66       		.byte	0x66
 1039 01cc A7020000 		.4byte	0x2a7
 1040 01d0 10       		.byte	0x10
 1041 01d1 09       		.uleb128 0x9
 1042 01d2 12040000 		.4byte	.LASF41
 1043 01d6 08       		.byte	0x8
 1044 01d7 67       		.byte	0x67
 1045 01d8 A7020000 		.4byte	0x2a7
 1046 01dc 14       		.byte	0x14
 1047 01dd 09       		.uleb128 0x9
 1048 01de ED060000 		.4byte	.LASF42
 1049 01e2 08       		.byte	0x8
 1050 01e3 6E       		.byte	0x6e
 1051 01e4 C4000000 		.4byte	0xc4
 1052 01e8 18       		.byte	0x18
 1053 01e9 09       		.uleb128 0x9
 1054 01ea EC040000 		.4byte	.LASF43
 1055 01ee 08       		.byte	0x8
 1056 01ef 79       		.byte	0x79
 1057 01f0 31010000 		.4byte	0x131
 1058 01f4 1C       		.byte	0x1c
 1059 01f5 09       		.uleb128 0x9
 1060 01f6 4D050000 		.4byte	.LASF44
 1061 01fa 08       		.byte	0x8
 1062 01fb 7D       		.byte	0x7d
 1063 01fc 26010000 		.4byte	0x126
 1064 0200 1D       		.byte	0x1d
 1065 0201 09       		.uleb128 0x9
 1066 0202 CC060000 		.4byte	.LASF45
 1067 0206 08       		.byte	0x8
 1068 0207 82       		.byte	0x82
 1069 0208 3C010000 		.4byte	0x13c
 1070 020c 1E       		.byte	0x1e
 1071 020d 09       		.uleb128 0x9
 1072 020e 4F040000 		.4byte	.LASF46
 1073 0212 08       		.byte	0x8
 1074 0213 88       		.byte	0x88
ARM GAS  /tmp/ccVE4ZNw.s 			page 20


 1075 0214 47010000 		.4byte	0x147
 1076 0218 1F       		.byte	0x1f
 1077 0219 09       		.uleb128 0x9
 1078 021a 11060000 		.4byte	.LASF47
 1079 021e 08       		.byte	0x8
 1080 021f 8F       		.byte	0x8f
 1081 0220 8B030000 		.4byte	0x38b
 1082 0224 20       		.byte	0x20
 1083 0225 0A       		.uleb128 0xa
 1084 0226 705F7500 		.ascii	"p_u\000"
 1085 022a 08       		.byte	0x8
 1086 022b B4       		.byte	0xb4
 1087 022c 99040000 		.4byte	0x499
 1088 0230 24       		.byte	0x24
 1089 0231 09       		.uleb128 0x9
 1090 0232 92070000 		.4byte	.LASF48
 1091 0236 08       		.byte	0x8
 1092 0237 B9       		.byte	0xb9
 1093 0238 CD020000 		.4byte	0x2cd
 1094 023c 28       		.byte	0x28
 1095 023d 09       		.uleb128 0x9
 1096 023e CA010000 		.4byte	.LASF49
 1097 0242 08       		.byte	0x8
 1098 0243 BF       		.byte	0xbf
 1099 0244 AD020000 		.4byte	0x2ad
 1100 0248 2C       		.byte	0x2c
 1101 0249 09       		.uleb128 0x9
 1102 024a 74070000 		.4byte	.LASF50
 1103 024e 08       		.byte	0x8
 1104 024f C3       		.byte	0xc3
 1105 0250 5D010000 		.4byte	0x15d
 1106 0254 34       		.byte	0x34
 1107 0255 09       		.uleb128 0x9
 1108 0256 6B050000 		.4byte	.LASF51
 1109 025a 08       		.byte	0x8
 1110 025b C9       		.byte	0xc9
 1111 025c 68010000 		.4byte	0x168
 1112 0260 38       		.byte	0x38
 1113 0261 09       		.uleb128 0x9
 1114 0262 F4040000 		.4byte	.LASF52
 1115 0266 08       		.byte	0x8
 1116 0267 D0       		.byte	0xd0
 1117 0268 CE040000 		.4byte	0x4ce
 1118 026c 3C       		.byte	0x3c
 1119 026d 09       		.uleb128 0x9
 1120 026e C8050000 		.4byte	.LASF53
 1121 0272 08       		.byte	0x8
 1122 0273 D4       		.byte	0xd4
 1123 0274 52010000 		.4byte	0x152
 1124 0278 40       		.byte	0x40
 1125 0279 09       		.uleb128 0x9
 1126 027a BA000000 		.4byte	.LASF54
 1127 027e 08       		.byte	0x8
 1128 027f DA       		.byte	0xda
 1129 0280 BB000000 		.4byte	0xbb
 1130 0284 44       		.byte	0x44
 1131 0285 00       		.byte	0
ARM GAS  /tmp/ccVE4ZNw.s 			page 21


 1132 0286 0B       		.uleb128 0xb
 1133 0287 08       		.byte	0x8
 1134 0288 07       		.byte	0x7
 1135 0289 61       		.byte	0x61
 1136 028a A7020000 		.4byte	0x2a7
 1137 028e 09       		.uleb128 0x9
 1138 028f 37050000 		.4byte	.LASF36
 1139 0293 07       		.byte	0x7
 1140 0294 62       		.byte	0x62
 1141 0295 A7020000 		.4byte	0x2a7
 1142 0299 00       		.byte	0
 1143 029a 09       		.uleb128 0x9
 1144 029b 8D040000 		.4byte	.LASF37
 1145 029f 07       		.byte	0x7
 1146 02a0 64       		.byte	0x64
 1147 02a1 A7020000 		.4byte	0x2a7
 1148 02a5 04       		.byte	0x4
 1149 02a6 00       		.byte	0
 1150 02a7 06       		.uleb128 0x6
 1151 02a8 04       		.byte	0x4
 1152 02a9 7E010000 		.4byte	0x17e
 1153 02ad 03       		.uleb128 0x3
 1154 02ae 44000000 		.4byte	.LASF55
 1155 02b2 07       		.byte	0x7
 1156 02b3 66       		.byte	0x66
 1157 02b4 86020000 		.4byte	0x286
 1158 02b8 0B       		.uleb128 0xb
 1159 02b9 04       		.byte	0x4
 1160 02ba 07       		.byte	0x7
 1161 02bb 6B       		.byte	0x6b
 1162 02bc CD020000 		.4byte	0x2cd
 1163 02c0 09       		.uleb128 0x9
 1164 02c1 37050000 		.4byte	.LASF36
 1165 02c5 07       		.byte	0x7
 1166 02c6 6D       		.byte	0x6d
 1167 02c7 A7020000 		.4byte	0x2a7
 1168 02cb 00       		.byte	0
 1169 02cc 00       		.byte	0
 1170 02cd 03       		.uleb128 0x3
 1171 02ce 57030000 		.4byte	.LASF56
 1172 02d2 07       		.byte	0x7
 1173 02d3 70       		.byte	0x70
 1174 02d4 B8020000 		.4byte	0x2b8
 1175 02d8 03       		.uleb128 0x3
 1176 02d9 7A010000 		.4byte	.LASF57
 1177 02dd 09       		.byte	0x9
 1178 02de E5       		.byte	0xe5
 1179 02df BB000000 		.4byte	0xbb
 1180 02e3 03       		.uleb128 0x3
 1181 02e4 C1030000 		.4byte	.LASF58
 1182 02e8 09       		.byte	0x9
 1183 02e9 EB       		.byte	0xeb
 1184 02ea 09010000 		.4byte	0x109
 1185 02ee 0C       		.uleb128 0xc
 1186 02ef 18060000 		.4byte	.LASF59
 1187 02f3 24       		.byte	0x24
 1188 02f4 09       		.byte	0x9
ARM GAS  /tmp/ccVE4ZNw.s 			page 22


 1189 02f5 0C01     		.2byte	0x10c
 1190 02f7 6A030000 		.4byte	0x36a
 1191 02fb 0D       		.uleb128 0xd
 1192 02fc 723400   		.ascii	"r4\000"
 1193 02ff 09       		.byte	0x9
 1194 0300 1F01     		.2byte	0x11f
 1195 0302 D8020000 		.4byte	0x2d8
 1196 0306 00       		.byte	0
 1197 0307 0D       		.uleb128 0xd
 1198 0308 723500   		.ascii	"r5\000"
 1199 030b 09       		.byte	0x9
 1200 030c 2001     		.2byte	0x120
 1201 030e D8020000 		.4byte	0x2d8
 1202 0312 04       		.byte	0x4
 1203 0313 0D       		.uleb128 0xd
 1204 0314 723600   		.ascii	"r6\000"
 1205 0317 09       		.byte	0x9
 1206 0318 2101     		.2byte	0x121
 1207 031a D8020000 		.4byte	0x2d8
 1208 031e 08       		.byte	0x8
 1209 031f 0D       		.uleb128 0xd
 1210 0320 723700   		.ascii	"r7\000"
 1211 0323 09       		.byte	0x9
 1212 0324 2201     		.2byte	0x122
 1213 0326 D8020000 		.4byte	0x2d8
 1214 032a 0C       		.byte	0xc
 1215 032b 0D       		.uleb128 0xd
 1216 032c 723800   		.ascii	"r8\000"
 1217 032f 09       		.byte	0x9
 1218 0330 2301     		.2byte	0x123
 1219 0332 D8020000 		.4byte	0x2d8
 1220 0336 10       		.byte	0x10
 1221 0337 0D       		.uleb128 0xd
 1222 0338 723900   		.ascii	"r9\000"
 1223 033b 09       		.byte	0x9
 1224 033c 2401     		.2byte	0x124
 1225 033e D8020000 		.4byte	0x2d8
 1226 0342 14       		.byte	0x14
 1227 0343 0D       		.uleb128 0xd
 1228 0344 72313000 		.ascii	"r10\000"
 1229 0348 09       		.byte	0x9
 1230 0349 2501     		.2byte	0x125
 1231 034b D8020000 		.4byte	0x2d8
 1232 034f 18       		.byte	0x18
 1233 0350 0D       		.uleb128 0xd
 1234 0351 72313100 		.ascii	"r11\000"
 1235 0355 09       		.byte	0x9
 1236 0356 2601     		.2byte	0x126
 1237 0358 D8020000 		.4byte	0x2d8
 1238 035c 1C       		.byte	0x1c
 1239 035d 0D       		.uleb128 0xd
 1240 035e 6C7200   		.ascii	"lr\000"
 1241 0361 09       		.byte	0x9
 1242 0362 2701     		.2byte	0x127
 1243 0364 D8020000 		.4byte	0x2d8
 1244 0368 20       		.byte	0x20
 1245 0369 00       		.byte	0
ARM GAS  /tmp/ccVE4ZNw.s 			page 23


 1246 036a 0C       		.uleb128 0xc
 1247 036b 02030000 		.4byte	.LASF60
 1248 036f 04       		.byte	0x4
 1249 0370 09       		.byte	0x9
 1250 0371 3101     		.2byte	0x131
 1251 0373 85030000 		.4byte	0x385
 1252 0377 0D       		.uleb128 0xd
 1253 0378 72313300 		.ascii	"r13\000"
 1254 037c 09       		.byte	0x9
 1255 037d 3201     		.2byte	0x132
 1256 037f 85030000 		.4byte	0x385
 1257 0383 00       		.byte	0
 1258 0384 00       		.byte	0
 1259 0385 06       		.uleb128 0x6
 1260 0386 04       		.byte	0x4
 1261 0387 EE020000 		.4byte	0x2ee
 1262 038b 0E       		.uleb128 0xe
 1263 038c 73010000 		.4byte	0x173
 1264 0390 08       		.uleb128 0x8
 1265 0391 A8030000 		.4byte	.LASF61
 1266 0395 10       		.byte	0x10
 1267 0396 0A       		.byte	0xa
 1268 0397 2C       		.byte	0x2c
 1269 0398 C1030000 		.4byte	0x3c1
 1270 039c 09       		.uleb128 0x9
 1271 039d C9000000 		.4byte	.LASF62
 1272 03a1 0A       		.byte	0xa
 1273 03a2 2D       		.byte	0x2d
 1274 03a3 AD020000 		.4byte	0x2ad
 1275 03a7 00       		.byte	0
 1276 03a8 09       		.uleb128 0x9
 1277 03a9 84070000 		.4byte	.LASF63
 1278 03ad 0A       		.byte	0xa
 1279 03ae 2F       		.byte	0x2f
 1280 03af A7020000 		.4byte	0x2a7
 1281 03b3 08       		.byte	0x8
 1282 03b4 09       		.uleb128 0x9
 1283 03b5 B7050000 		.4byte	.LASF64
 1284 03b9 0A       		.byte	0xa
 1285 03ba 31       		.byte	0x31
 1286 03bb C1030000 		.4byte	0x3c1
 1287 03bf 0C       		.byte	0xc
 1288 03c0 00       		.byte	0
 1289 03c1 06       		.uleb128 0x6
 1290 03c2 04       		.byte	0x4
 1291 03c3 90030000 		.4byte	0x390
 1292 03c7 03       		.uleb128 0x3
 1293 03c8 A8030000 		.4byte	.LASF61
 1294 03cc 0A       		.byte	0xa
 1295 03cd 33       		.byte	0x33
 1296 03ce 90030000 		.4byte	0x390
 1297 03d2 03       		.uleb128 0x3
 1298 03d3 1A000000 		.4byte	.LASF65
 1299 03d7 0B       		.byte	0xb
 1300 03d8 2C       		.byte	0x2c
 1301 03d9 DD030000 		.4byte	0x3dd
 1302 03dd 06       		.uleb128 0x6
ARM GAS  /tmp/ccVE4ZNw.s 			page 24


 1303 03de 04       		.byte	0x4
 1304 03df E3030000 		.4byte	0x3e3
 1305 03e3 0F       		.uleb128 0xf
 1306 03e4 BB000000 		.4byte	0xbb
 1307 03e8 F2030000 		.4byte	0x3f2
 1308 03ec 10       		.uleb128 0x10
 1309 03ed 33000000 		.4byte	0x33
 1310 03f1 00       		.byte	0
 1311 03f2 03       		.uleb128 0x3
 1312 03f3 44040000 		.4byte	.LASF66
 1313 03f7 0C       		.byte	0xc
 1314 03f8 34       		.byte	0x34
 1315 03f9 FD030000 		.4byte	0x3fd
 1316 03fd 08       		.uleb128 0x8
 1317 03fe 06040000 		.4byte	.LASF67
 1318 0402 20       		.byte	0x20
 1319 0403 0C       		.byte	0xc
 1320 0404 47       		.byte	0x47
 1321 0405 2E040000 		.4byte	0x42e
 1322 0409 09       		.uleb128 0x9
 1323 040a DB060000 		.4byte	.LASF68
 1324 040e 0C       		.byte	0xc
 1325 040f 48       		.byte	0x48
 1326 0410 D2030000 		.4byte	0x3d2
 1327 0414 00       		.byte	0
 1328 0415 09       		.uleb128 0x9
 1329 0416 5A000000 		.4byte	.LASF69
 1330 041a 0C       		.byte	0xc
 1331 041b 4A       		.byte	0x4a
 1332 041c 4D040000 		.4byte	0x44d
 1333 0420 08       		.byte	0x8
 1334 0421 09       		.uleb128 0x9
 1335 0422 A2000000 		.4byte	.LASF70
 1336 0426 0C       		.byte	0xc
 1337 0427 4C       		.byte	0x4c
 1338 0428 C7030000 		.4byte	0x3c7
 1339 042c 10       		.byte	0x10
 1340 042d 00       		.byte	0
 1341 042e 11       		.uleb128 0x11
 1342 042f 04       		.byte	0x4
 1343 0430 0C       		.byte	0xc
 1344 0431 3C       		.byte	0x3c
 1345 0432 4D040000 		.4byte	0x44d
 1346 0436 12       		.uleb128 0x12
 1347 0437 74000000 		.4byte	.LASF71
 1348 043b 0C       		.byte	0xc
 1349 043c 3D       		.byte	0x3d
 1350 043d 6E040000 		.4byte	0x46e
 1351 0441 12       		.uleb128 0x12
 1352 0442 9B050000 		.4byte	.LASF72
 1353 0446 0C       		.byte	0xc
 1354 0447 3E       		.byte	0x3e
 1355 0448 74040000 		.4byte	0x474
 1356 044c 00       		.byte	0
 1357 044d 13       		.uleb128 0x13
 1358 044e C4040000 		.4byte	.LASF143
 1359 0452 08       		.byte	0x8
ARM GAS  /tmp/ccVE4ZNw.s 			page 25


 1360 0453 0C       		.byte	0xc
 1361 0454 39       		.byte	0x39
 1362 0455 6E040000 		.4byte	0x46e
 1363 0459 12       		.uleb128 0x12
 1364 045a B7010000 		.4byte	.LASF73
 1365 045e 0C       		.byte	0xc
 1366 045f 3A       		.byte	0x3a
 1367 0460 E3020000 		.4byte	0x2e3
 1368 0464 14       		.uleb128 0x14
 1369 0465 6800     		.ascii	"h\000"
 1370 0467 0C       		.byte	0xc
 1371 0468 41       		.byte	0x41
 1372 0469 7A040000 		.4byte	0x47a
 1373 046d 00       		.byte	0
 1374 046e 06       		.uleb128 0x6
 1375 046f 04       		.byte	0x4
 1376 0470 4D040000 		.4byte	0x44d
 1377 0474 06       		.uleb128 0x6
 1378 0475 04       		.byte	0x4
 1379 0476 F2030000 		.4byte	0x3f2
 1380 047a 0B       		.uleb128 0xb
 1381 047b 08       		.byte	0x8
 1382 047c 0C       		.byte	0xc
 1383 047d 3B       		.byte	0x3b
 1384 047e 99040000 		.4byte	0x499
 1385 0482 0A       		.uleb128 0xa
 1386 0483 7500     		.ascii	"u\000"
 1387 0485 0C       		.byte	0xc
 1388 0486 3F       		.byte	0x3f
 1389 0487 2E040000 		.4byte	0x42e
 1390 048b 00       		.byte	0
 1391 048c 09       		.uleb128 0x9
 1392 048d 0A030000 		.4byte	.LASF74
 1393 0491 0C       		.byte	0xc
 1394 0492 40       		.byte	0x40
 1395 0493 33000000 		.4byte	0x33
 1396 0497 04       		.byte	0x4
 1397 0498 00       		.byte	0
 1398 0499 11       		.uleb128 0x11
 1399 049a 04       		.byte	0x4
 1400 049b 08       		.byte	0x8
 1401 049c 96       		.byte	0x96
 1402 049d CE040000 		.4byte	0x4ce
 1403 04a1 12       		.uleb128 0x12
 1404 04a2 00000000 		.4byte	.LASF75
 1405 04a6 08       		.byte	0x8
 1406 04a7 9D       		.byte	0x9d
 1407 04a8 5D010000 		.4byte	0x15d
 1408 04ac 12       		.uleb128 0x12
 1409 04ad 51000000 		.4byte	.LASF76
 1410 04b1 08       		.byte	0x8
 1411 04b2 A4       		.byte	0xa4
 1412 04b3 5D010000 		.4byte	0x15d
 1413 04b7 12       		.uleb128 0x12
 1414 04b8 E6060000 		.4byte	.LASF77
 1415 04bc 08       		.byte	0x8
 1416 04bd AB       		.byte	0xab
ARM GAS  /tmp/ccVE4ZNw.s 			page 26


 1417 04be BB000000 		.4byte	0xbb
 1418 04c2 12       		.uleb128 0x12
 1419 04c3 30050000 		.4byte	.LASF78
 1420 04c7 08       		.byte	0x8
 1421 04c8 B2       		.byte	0xb2
 1422 04c9 68010000 		.4byte	0x168
 1423 04cd 00       		.byte	0
 1424 04ce 06       		.uleb128 0x6
 1425 04cf 04       		.byte	0x4
 1426 04d0 C7030000 		.4byte	0x3c7
 1427 04d4 07       		.uleb128 0x7
 1428 04d5 E8000000 		.4byte	0xe8
 1429 04d9 0E       		.uleb128 0xe
 1430 04da F3000000 		.4byte	0xf3
 1431 04de 15       		.uleb128 0x15
 1432 04df 01       		.byte	0x1
 1433 04e0 0D       		.byte	0xd
 1434 04e1 3C       		.byte	0x3c
 1435 04e2 95050000 		.4byte	0x595
 1436 04e6 16       		.uleb128 0x16
 1437 04e7 28030000 		.4byte	.LASF79
 1438 04eb 7F       		.sleb128 -1
 1439 04ec 16       		.uleb128 0x16
 1440 04ed 44030000 		.4byte	.LASF80
 1441 04f1 00       		.sleb128 0
 1442 04f2 16       		.uleb128 0x16
 1443 04f3 49010000 		.4byte	.LASF81
 1444 04f7 01       		.sleb128 1
 1445 04f8 16       		.uleb128 0x16
 1446 04f9 63030000 		.4byte	.LASF82
 1447 04fd 02       		.sleb128 2
 1448 04fe 16       		.uleb128 0x16
 1449 04ff 5C010000 		.4byte	.LASF83
 1450 0503 03       		.sleb128 3
 1451 0504 16       		.uleb128 0x16
 1452 0505 82030000 		.4byte	.LASF84
 1453 0509 04       		.sleb128 4
 1454 050a 16       		.uleb128 0x16
 1455 050b 95030000 		.4byte	.LASF85
 1456 050f 05       		.sleb128 5
 1457 0510 16       		.uleb128 0x16
 1458 0511 61000000 		.4byte	.LASF86
 1459 0515 06       		.sleb128 6
 1460 0516 16       		.uleb128 0x16
 1461 0517 AE030000 		.4byte	.LASF87
 1462 051b 07       		.sleb128 7
 1463 051c 16       		.uleb128 0x16
 1464 051d 1F060000 		.4byte	.LASF88
 1465 0521 08       		.sleb128 8
 1466 0522 16       		.uleb128 0x16
 1467 0523 33060000 		.4byte	.LASF89
 1468 0527 09       		.sleb128 9
 1469 0528 16       		.uleb128 0x16
 1470 0529 27000000 		.4byte	.LASF90
 1471 052d 0A       		.sleb128 10
 1472 052e 16       		.uleb128 0x16
 1473 052f 54060000 		.4byte	.LASF91
ARM GAS  /tmp/ccVE4ZNw.s 			page 27


 1474 0533 0B       		.sleb128 11
 1475 0534 16       		.uleb128 0x16
 1476 0535 68060000 		.4byte	.LASF92
 1477 0539 0C       		.sleb128 12
 1478 053a 16       		.uleb128 0x16
 1479 053b 7C060000 		.4byte	.LASF93
 1480 053f 0D       		.sleb128 13
 1481 0540 16       		.uleb128 0x16
 1482 0541 90060000 		.4byte	.LASF94
 1483 0545 0E       		.sleb128 14
 1484 0546 16       		.uleb128 0x16
 1485 0547 A4060000 		.4byte	.LASF95
 1486 054b 0F       		.sleb128 15
 1487 054c 16       		.uleb128 0x16
 1488 054d B8060000 		.4byte	.LASF96
 1489 0551 10       		.sleb128 16
 1490 0552 16       		.uleb128 0x16
 1491 0553 1A040000 		.4byte	.LASF97
 1492 0557 11       		.sleb128 17
 1493 0558 16       		.uleb128 0x16
 1494 0559 ED020000 		.4byte	.LASF98
 1495 055d 12       		.sleb128 18
 1496 055e 16       		.uleb128 0x16
 1497 055f 2F040000 		.4byte	.LASF99
 1498 0563 13       		.sleb128 19
 1499 0564 16       		.uleb128 0x16
 1500 0565 F4060000 		.4byte	.LASF100
 1501 0569 14       		.sleb128 20
 1502 056a 16       		.uleb128 0x16
 1503 056b 04070000 		.4byte	.LASF101
 1504 056f 15       		.sleb128 21
 1505 0570 16       		.uleb128 0x16
 1506 0571 14070000 		.4byte	.LASF102
 1507 0575 16       		.sleb128 22
 1508 0576 16       		.uleb128 0x16
 1509 0577 24070000 		.4byte	.LASF103
 1510 057b 17       		.sleb128 23
 1511 057c 16       		.uleb128 0x16
 1512 057d 34070000 		.4byte	.LASF104
 1513 0581 18       		.sleb128 24
 1514 0582 16       		.uleb128 0x16
 1515 0583 44070000 		.4byte	.LASF105
 1516 0587 19       		.sleb128 25
 1517 0588 16       		.uleb128 0x16
 1518 0589 54070000 		.4byte	.LASF106
 1519 058d 1A       		.sleb128 26
 1520 058e 16       		.uleb128 0x16
 1521 058f 64070000 		.4byte	.LASF107
 1522 0593 1B       		.sleb128 27
 1523 0594 00       		.byte	0
 1524 0595 03       		.uleb128 0x3
 1525 0596 16010000 		.4byte	.LASF108
 1526 059a 0D       		.byte	0xd
 1527 059b 64       		.byte	0x64
 1528 059c DE040000 		.4byte	0x4de
 1529 05a0 08       		.uleb128 0x8
 1530 05a1 3E050000 		.4byte	.LASF109
ARM GAS  /tmp/ccVE4ZNw.s 			page 28


 1531 05a5 40       		.byte	0x40
 1532 05a6 0E       		.byte	0xe
 1533 05a7 44       		.byte	0x44
 1534 05a8 8E060000 		.4byte	0x68e
 1535 05ac 09       		.uleb128 0x9
 1536 05ad 93050000 		.4byte	.LASF110
 1537 05b1 0E       		.byte	0xe
 1538 05b2 46       		.byte	0x46
 1539 05b3 E8000000 		.4byte	0xe8
 1540 05b7 00       		.byte	0
 1541 05b8 09       		.uleb128 0x9
 1542 05b9 F7000000 		.4byte	.LASF111
 1543 05bd 0E       		.byte	0xe
 1544 05be 47       		.byte	0x47
 1545 05bf E8000000 		.4byte	0xe8
 1546 05c3 02       		.byte	0x2
 1547 05c4 0A       		.uleb128 0xa
 1548 05c5 4B7000   		.ascii	"Kp\000"
 1549 05c8 0E       		.byte	0xe
 1550 05c9 4A       		.byte	0x4a
 1551 05ca 25000000 		.4byte	0x25
 1552 05ce 04       		.byte	0x4
 1553 05cf 0A       		.uleb128 0xa
 1554 05d0 4B6900   		.ascii	"Ki\000"
 1555 05d3 0E       		.byte	0xe
 1556 05d4 4B       		.byte	0x4b
 1557 05d5 25000000 		.4byte	0x25
 1558 05d9 08       		.byte	0x8
 1559 05da 0A       		.uleb128 0xa
 1560 05db 4B6400   		.ascii	"Kd\000"
 1561 05de 0E       		.byte	0xe
 1562 05df 4C       		.byte	0x4c
 1563 05e0 25000000 		.4byte	0x25
 1564 05e4 0C       		.byte	0xc
 1565 05e5 09       		.uleb128 0x9
 1566 05e6 EA050000 		.4byte	.LASF112
 1567 05ea 0E       		.byte	0xe
 1568 05eb 4D       		.byte	0x4d
 1569 05ec 25000000 		.4byte	0x25
 1570 05f0 10       		.byte	0x10
 1571 05f1 09       		.uleb128 0x9
 1572 05f2 6A040000 		.4byte	.LASF113
 1573 05f6 0E       		.byte	0xe
 1574 05f7 50       		.byte	0x50
 1575 05f8 25000000 		.4byte	0x25
 1576 05fc 14       		.byte	0x14
 1577 05fd 09       		.uleb128 0x9
 1578 05fe 76050000 		.4byte	.LASF114
 1579 0602 0E       		.byte	0xe
 1580 0603 51       		.byte	0x51
 1581 0604 25000000 		.4byte	0x25
 1582 0608 18       		.byte	0x18
 1583 0609 09       		.uleb128 0x9
 1584 060a FC000000 		.4byte	.LASF115
 1585 060e 0E       		.byte	0xe
 1586 060f 52       		.byte	0x52
 1587 0610 25000000 		.4byte	0x25
ARM GAS  /tmp/ccVE4ZNw.s 			page 29


 1588 0614 1C       		.byte	0x1c
 1589 0615 09       		.uleb128 0x9
 1590 0616 CC030000 		.4byte	.LASF116
 1591 061a 0E       		.byte	0xe
 1592 061b 53       		.byte	0x53
 1593 061c 25000000 		.4byte	0x25
 1594 0620 20       		.byte	0x20
 1595 0621 09       		.uleb128 0x9
 1596 0622 FE040000 		.4byte	.LASF117
 1597 0626 0E       		.byte	0xe
 1598 0627 54       		.byte	0x54
 1599 0628 25000000 		.4byte	0x25
 1600 062c 24       		.byte	0x24
 1601 062d 09       		.uleb128 0x9
 1602 062e F6030000 		.4byte	.LASF118
 1603 0632 0E       		.byte	0xe
 1604 0633 55       		.byte	0x55
 1605 0634 25000000 		.4byte	0x25
 1606 0638 28       		.byte	0x28
 1607 0639 09       		.uleb128 0x9
 1608 063a E7030000 		.4byte	.LASF119
 1609 063e 0E       		.byte	0xe
 1610 063f 58       		.byte	0x58
 1611 0640 25000000 		.4byte	0x25
 1612 0644 2C       		.byte	0x2c
 1613 0645 09       		.uleb128 0x9
 1614 0646 55050000 		.4byte	.LASF120
 1615 064a 0E       		.byte	0xe
 1616 064b 59       		.byte	0x59
 1617 064c E8000000 		.4byte	0xe8
 1618 0650 30       		.byte	0x30
 1619 0651 09       		.uleb128 0x9
 1620 0652 7A070000 		.4byte	.LASF121
 1621 0656 0E       		.byte	0xe
 1622 0657 5A       		.byte	0x5a
 1623 0658 E8000000 		.4byte	0xe8
 1624 065c 32       		.byte	0x32
 1625 065d 09       		.uleb128 0x9
 1626 065e DB030000 		.4byte	.LASF122
 1627 0662 0E       		.byte	0xe
 1628 0663 5C       		.byte	0x5c
 1629 0664 95050000 		.4byte	0x595
 1630 0668 34       		.byte	0x34
 1631 0669 09       		.uleb128 0x9
 1632 066a DD040000 		.4byte	.LASF123
 1633 066e 0E       		.byte	0xe
 1634 066f 5D       		.byte	0x5d
 1635 0670 E8000000 		.4byte	0xe8
 1636 0674 36       		.byte	0x36
 1637 0675 09       		.uleb128 0x9
 1638 0676 47060000 		.4byte	.LASF124
 1639 067a 0E       		.byte	0xe
 1640 067b 5E       		.byte	0x5e
 1641 067c F3000000 		.4byte	0xf3
 1642 0680 38       		.byte	0x38
 1643 0681 09       		.uleb128 0x9
 1644 0682 DD050000 		.4byte	.LASF125
ARM GAS  /tmp/ccVE4ZNw.s 			page 30


 1645 0686 0E       		.byte	0xe
 1646 0687 60       		.byte	0x60
 1647 0688 F3000000 		.4byte	0xf3
 1648 068c 3C       		.byte	0x3c
 1649 068d 00       		.byte	0
 1650 068e 03       		.uleb128 0x3
 1651 068f 33010000 		.4byte	.LASF126
 1652 0693 0E       		.byte	0xe
 1653 0694 61       		.byte	0x61
 1654 0695 A0050000 		.4byte	0x5a0
 1655 0699 17       		.uleb128 0x17
 1656 069a 3B000000 		.4byte	.LASF127
 1657 069e 02       		.byte	0x2
 1658 069f 47       		.byte	0x47
 1659 06a0 25000000 		.4byte	0x25
 1660 06a4 03       		.byte	0x3
 1661 06a5 06070000 		.4byte	0x706
 1662 06a9 18       		.uleb128 0x18
 1663 06aa 7800     		.ascii	"x\000"
 1664 06ac 02       		.byte	0x2
 1665 06ad 47       		.byte	0x47
 1666 06ae 25000000 		.4byte	0x25
 1667 06b2 11       		.uleb128 0x11
 1668 06b3 04       		.byte	0x4
 1669 06b4 02       		.byte	0x2
 1670 06b5 49       		.byte	0x49
 1671 06b6 CD060000 		.4byte	0x6cd
 1672 06ba 14       		.uleb128 0x14
 1673 06bb 6600     		.ascii	"f\000"
 1674 06bd 02       		.byte	0x2
 1675 06be 49       		.byte	0x49
 1676 06bf 25000000 		.4byte	0x25
 1677 06c3 14       		.uleb128 0x14
 1678 06c4 6900     		.ascii	"i\000"
 1679 06c6 02       		.byte	0x2
 1680 06c7 49       		.byte	0x49
 1681 06c8 FE000000 		.4byte	0xfe
 1682 06cc 00       		.byte	0
 1683 06cd 19       		.uleb128 0x19
 1684 06ce 767800   		.ascii	"vx\000"
 1685 06d1 02       		.byte	0x2
 1686 06d2 49       		.byte	0x49
 1687 06d3 B2060000 		.4byte	0x6b2
 1688 06d7 11       		.uleb128 0x11
 1689 06d8 04       		.byte	0x4
 1690 06d9 02       		.byte	0x2
 1691 06da 4A       		.byte	0x4a
 1692 06db F2060000 		.4byte	0x6f2
 1693 06df 14       		.uleb128 0x14
 1694 06e0 6900     		.ascii	"i\000"
 1695 06e2 02       		.byte	0x2
 1696 06e3 4A       		.byte	0x4a
 1697 06e4 FE000000 		.4byte	0xfe
 1698 06e8 14       		.uleb128 0x14
 1699 06e9 6600     		.ascii	"f\000"
 1700 06eb 02       		.byte	0x2
 1701 06ec 4A       		.byte	0x4a
ARM GAS  /tmp/ccVE4ZNw.s 			page 31


 1702 06ed 25000000 		.4byte	0x25
 1703 06f1 00       		.byte	0
 1704 06f2 19       		.uleb128 0x19
 1705 06f3 6D7800   		.ascii	"mx\000"
 1706 06f6 02       		.byte	0x2
 1707 06f7 4A       		.byte	0x4a
 1708 06f8 D7060000 		.4byte	0x6d7
 1709 06fc 19       		.uleb128 0x19
 1710 06fd 7900     		.ascii	"y\000"
 1711 06ff 02       		.byte	0x2
 1712 0700 4B       		.byte	0x4b
 1713 0701 25000000 		.4byte	0x25
 1714 0705 00       		.byte	0
 1715 0706 1A       		.uleb128 0x1a
 1716 0707 73676E00 		.ascii	"sgn\000"
 1717 070b 01       		.byte	0x1
 1718 070c 48       		.byte	0x48
 1719 070d 25000000 		.4byte	0x25
 1720 0711 03       		.byte	0x3
 1721 0712 20070000 		.4byte	0x720
 1722 0716 18       		.uleb128 0x18
 1723 0717 7800     		.ascii	"x\000"
 1724 0719 01       		.byte	0x1
 1725 071a 48       		.byte	0x48
 1726 071b 25000000 		.4byte	0x25
 1727 071f 00       		.byte	0
 1728 0720 17       		.uleb128 0x17
 1729 0721 3C030000 		.4byte	.LASF128
 1730 0725 02       		.byte	0x2
 1731 0726 5A       		.byte	0x5a
 1732 0727 25000000 		.4byte	0x25
 1733 072b 03       		.byte	0x3
 1734 072c 43070000 		.4byte	0x743
 1735 0730 18       		.uleb128 0x18
 1736 0731 7800     		.ascii	"x\000"
 1737 0733 02       		.byte	0x2
 1738 0734 5A       		.byte	0x5a
 1739 0735 25000000 		.4byte	0x25
 1740 0739 18       		.uleb128 0x18
 1741 073a 7000     		.ascii	"p\000"
 1742 073c 02       		.byte	0x2
 1743 073d 5B       		.byte	0x5b
 1744 073e 25000000 		.4byte	0x25
 1745 0742 00       		.byte	0
 1746 0743 1B       		.uleb128 0x1b
 1747 0744 D5010000 		.4byte	.LASF132
 1748 0748 01       		.byte	0x1
 1749 0749 9F       		.byte	0x9f
 1750 074a E8000000 		.4byte	0xe8
 1751 074e 00000000 		.4byte	.LFB71
 1752 0752 18020000 		.4byte	.LFE71-.LFB71
 1753 0756 01       		.uleb128 0x1
 1754 0757 9C       		.byte	0x9c
 1755 0758 D3070000 		.4byte	0x7d3
 1756 075c 1C       		.uleb128 0x1c
 1757 075d 7000     		.ascii	"p\000"
 1758 075f 01       		.byte	0x1
ARM GAS  /tmp/ccVE4ZNw.s 			page 32


 1759 0760 9F       		.byte	0x9f
 1760 0761 D3070000 		.4byte	0x7d3
 1761 0765 00000000 		.4byte	.LLST0
 1762 0769 1D       		.uleb128 0x1d
 1763 076a 06070000 		.4byte	0x706
 1764 076e 64000000 		.4byte	.LBB12
 1765 0772 00000000 		.4byte	.Ldebug_ranges0+0
 1766 0776 01       		.byte	0x1
 1767 0777 C6       		.byte	0xc6
 1768 0778 86070000 		.4byte	0x786
 1769 077c 1E       		.uleb128 0x1e
 1770 077d 16070000 		.4byte	0x716
 1771 0781 4A000000 		.4byte	.LLST1
 1772 0785 00       		.byte	0
 1773 0786 1D       		.uleb128 0x1d
 1774 0787 06070000 		.4byte	0x706
 1775 078b DE000000 		.4byte	.LBB15
 1776 078f 18000000 		.4byte	.Ldebug_ranges0+0x18
 1777 0793 01       		.byte	0x1
 1778 0794 D4       		.byte	0xd4
 1779 0795 A3070000 		.4byte	0x7a3
 1780 0799 1E       		.uleb128 0x1e
 1781 079a 16070000 		.4byte	0x716
 1782 079e 73000000 		.4byte	.LLST2
 1783 07a2 00       		.byte	0
 1784 07a3 1D       		.uleb128 0x1d
 1785 07a4 06070000 		.4byte	0x706
 1786 07a8 18010000 		.4byte	.LBB19
 1787 07ac 38000000 		.4byte	.Ldebug_ranges0+0x38
 1788 07b0 01       		.byte	0x1
 1789 07b1 E6       		.byte	0xe6
 1790 07b2 C0070000 		.4byte	0x7c0
 1791 07b6 1E       		.uleb128 0x1e
 1792 07b7 16070000 		.4byte	0x716
 1793 07bb 9C000000 		.4byte	.LLST3
 1794 07bf 00       		.byte	0
 1795 07c0 1F       		.uleb128 0x1f
 1796 07c1 76010000 		.4byte	.LVL35
 1797 07c5 460A0000 		.4byte	0xa46
 1798 07c9 1F       		.uleb128 0x1f
 1799 07ca A4010000 		.4byte	.LVL39
 1800 07ce 5B0A0000 		.4byte	0xa5b
 1801 07d2 00       		.byte	0
 1802 07d3 06       		.uleb128 0x6
 1803 07d4 04       		.byte	0x4
 1804 07d5 8E060000 		.4byte	0x68e
 1805 07d9 17       		.uleb128 0x17
 1806 07da 81050000 		.4byte	.LASF129
 1807 07de 02       		.byte	0x2
 1808 07df 3B       		.byte	0x3b
 1809 07e0 25000000 		.4byte	0x25
 1810 07e4 03       		.byte	0x3
 1811 07e5 3F080000 		.4byte	0x83f
 1812 07e9 18       		.uleb128 0x18
 1813 07ea 7000     		.ascii	"p\000"
 1814 07ec 02       		.byte	0x2
 1815 07ed 3B       		.byte	0x3b
ARM GAS  /tmp/ccVE4ZNw.s 			page 33


 1816 07ee 25000000 		.4byte	0x25
 1817 07f2 20       		.uleb128 0x20
 1818 07f3 0A060000 		.4byte	.LASF130
 1819 07f7 02       		.byte	0x2
 1820 07f8 3D       		.byte	0x3d
 1821 07f9 25000000 		.4byte	0x25
 1822 07fd 20       		.uleb128 0x20
 1823 07fe AC050000 		.4byte	.LASF131
 1824 0802 02       		.byte	0x2
 1825 0803 3E       		.byte	0x3e
 1826 0804 25000000 		.4byte	0x25
 1827 0808 19       		.uleb128 0x19
 1828 0809 7700     		.ascii	"w\000"
 1829 080b 02       		.byte	0x2
 1830 080c 3F       		.byte	0x3f
 1831 080d 45000000 		.4byte	0x45
 1832 0811 19       		.uleb128 0x19
 1833 0812 7A00     		.ascii	"z\000"
 1834 0814 02       		.byte	0x2
 1835 0815 40       		.byte	0x40
 1836 0816 25000000 		.4byte	0x25
 1837 081a 11       		.uleb128 0x11
 1838 081b 04       		.byte	0x4
 1839 081c 02       		.byte	0x2
 1840 081d 41       		.byte	0x41
 1841 081e 35080000 		.4byte	0x835
 1842 0822 14       		.uleb128 0x14
 1843 0823 6900     		.ascii	"i\000"
 1844 0825 02       		.byte	0x2
 1845 0826 41       		.byte	0x41
 1846 0827 FE000000 		.4byte	0xfe
 1847 082b 14       		.uleb128 0x14
 1848 082c 6600     		.ascii	"f\000"
 1849 082e 02       		.byte	0x2
 1850 082f 41       		.byte	0x41
 1851 0830 25000000 		.4byte	0x25
 1852 0834 00       		.byte	0
 1853 0835 19       		.uleb128 0x19
 1854 0836 7600     		.ascii	"v\000"
 1855 0838 02       		.byte	0x2
 1856 0839 41       		.byte	0x41
 1857 083a 1A080000 		.4byte	0x81a
 1858 083e 00       		.byte	0
 1859 083f 21       		.uleb128 0x21
 1860 0840 1B050000 		.4byte	.LASF144
 1861 0844 01       		.byte	0x1
 1862 0845 F2       		.byte	0xf2
 1863 0846 00000000 		.4byte	.LFB72
 1864 084a 2E010000 		.4byte	.LFE72-.LFB72
 1865 084e 01       		.uleb128 0x1
 1866 084f 9C       		.byte	0x9c
 1867 0850 D0080000 		.4byte	0x8d0
 1868 0854 22       		.uleb128 0x22
 1869 0855 6900     		.ascii	"i\000"
 1870 0857 01       		.byte	0x1
 1871 0858 F4       		.byte	0xf4
 1872 0859 E8000000 		.4byte	0xe8
ARM GAS  /tmp/ccVE4ZNw.s 			page 34


 1873 085d BA000000 		.4byte	.LLST4
 1874 0861 19       		.uleb128 0x19
 1875 0862 7800     		.ascii	"x\000"
 1876 0864 01       		.byte	0x1
 1877 0865 F5       		.byte	0xf5
 1878 0866 25000000 		.4byte	0x25
 1879 086a 23       		.uleb128 0x23
 1880 086b 20070000 		.4byte	0x720
 1881 086f 36000000 		.4byte	.LBB36
 1882 0873 60000000 		.4byte	.Ldebug_ranges0+0x60
 1883 0877 01       		.byte	0x1
 1884 0878 FC       		.byte	0xfc
 1885 0879 24       		.uleb128 0x24
 1886 087a 30070000 		.4byte	0x730
 1887 087e 04       		.byte	0x4
 1888 087f 0000A041 		.4byte	0x41a00000
 1889 0883 1E       		.uleb128 0x1e
 1890 0884 39070000 		.4byte	0x739
 1891 0888 F1000000 		.4byte	.LLST5
 1892 088c 23       		.uleb128 0x23
 1893 088d D9070000 		.4byte	0x7d9
 1894 0891 36000000 		.4byte	.LBB38
 1895 0895 78000000 		.4byte	.Ldebug_ranges0+0x78
 1896 0899 02       		.byte	0x2
 1897 089a 5D       		.byte	0x5d
 1898 089b 1E       		.uleb128 0x1e
 1899 089c E9070000 		.4byte	0x7e9
 1900 08a0 44010000 		.4byte	.LLST6
 1901 08a4 25       		.uleb128 0x25
 1902 08a5 78000000 		.4byte	.Ldebug_ranges0+0x78
 1903 08a9 26       		.uleb128 0x26
 1904 08aa F2070000 		.4byte	0x7f2
 1905 08ae 6D010000 		.4byte	.LLST7
 1906 08b2 27       		.uleb128 0x27
 1907 08b3 FD070000 		.4byte	0x7fd
 1908 08b7 01       		.uleb128 0x1
 1909 08b8 55       		.byte	0x55
 1910 08b9 28       		.uleb128 0x28
 1911 08ba 08080000 		.4byte	0x808
 1912 08be 26       		.uleb128 0x26
 1913 08bf 11080000 		.4byte	0x811
 1914 08c3 8B010000 		.4byte	.LLST8
 1915 08c7 28       		.uleb128 0x28
 1916 08c8 35080000 		.4byte	0x835
 1917 08cc 00       		.byte	0
 1918 08cd 00       		.byte	0
 1919 08ce 00       		.byte	0
 1920 08cf 00       		.byte	0
 1921 08d0 1B       		.uleb128 0x1b
 1922 08d1 09050000 		.4byte	.LASF133
 1923 08d5 01       		.byte	0x1
 1924 08d6 57       		.byte	0x57
 1925 08d7 D3070000 		.4byte	0x7d3
 1926 08db 00000000 		.4byte	.LFB69
 1927 08df 72000000 		.4byte	.LFE69-.LFB69
 1928 08e3 01       		.uleb128 0x1
 1929 08e4 9C       		.byte	0x9c
ARM GAS  /tmp/ccVE4ZNw.s 			page 35


 1930 08e5 61090000 		.4byte	0x961
 1931 08e9 1C       		.uleb128 0x1c
 1932 08ea 4B7000   		.ascii	"Kp\000"
 1933 08ed 01       		.byte	0x1
 1934 08ee 57       		.byte	0x57
 1935 08ef 25000000 		.4byte	0x25
 1936 08f3 BF010000 		.4byte	.LLST9
 1937 08f7 1C       		.uleb128 0x1c
 1938 08f8 4B6900   		.ascii	"Ki\000"
 1939 08fb 01       		.byte	0x1
 1940 08fc 57       		.byte	0x57
 1941 08fd 25000000 		.4byte	0x25
 1942 0901 DD010000 		.4byte	.LLST10
 1943 0905 1C       		.uleb128 0x1c
 1944 0906 4B6400   		.ascii	"Kd\000"
 1945 0909 01       		.byte	0x1
 1946 090a 57       		.byte	0x57
 1947 090b 25000000 		.4byte	0x25
 1948 090f FB010000 		.4byte	.LLST11
 1949 0913 29       		.uleb128 0x29
 1950 0914 9B010000 		.4byte	.LASF134
 1951 0918 01       		.byte	0x1
 1952 0919 57       		.byte	0x57
 1953 091a 95050000 		.4byte	0x595
 1954 091e 19020000 		.4byte	.LLST12
 1955 0922 29       		.uleb128 0x29
 1956 0923 DD040000 		.4byte	.LASF123
 1957 0927 01       		.byte	0x1
 1958 0928 57       		.byte	0x57
 1959 0929 E8000000 		.4byte	0xe8
 1960 092d 3A020000 		.4byte	.LLST13
 1961 0931 22       		.uleb128 0x22
 1962 0932 7000     		.ascii	"p\000"
 1963 0934 01       		.byte	0x1
 1964 0935 59       		.byte	0x59
 1965 0936 D3070000 		.4byte	0x7d3
 1966 093a 5A020000 		.4byte	.LLST14
 1967 093e 2A       		.uleb128 0x2a
 1968 093f 18000000 		.4byte	.LVL90
 1969 0943 700A0000 		.4byte	0xa70
 1970 0947 57090000 		.4byte	0x957
 1971 094b 2B       		.uleb128 0x2b
 1972 094c 01       		.uleb128 0x1
 1973 094d 51       		.byte	0x51
 1974 094e 02       		.uleb128 0x2
 1975 094f 08       		.byte	0x8
 1976 0950 40       		.byte	0x40
 1977 0951 2B       		.uleb128 0x2b
 1978 0952 01       		.uleb128 0x1
 1979 0953 50       		.byte	0x50
 1980 0954 01       		.uleb128 0x1
 1981 0955 30       		.byte	0x30
 1982 0956 00       		.byte	0
 1983 0957 1F       		.uleb128 0x1f
 1984 0958 68000000 		.4byte	.LVL95
 1985 095c 3F080000 		.4byte	0x83f
 1986 0960 00       		.byte	0
ARM GAS  /tmp/ccVE4ZNw.s 			page 36


 1987 0961 2C       		.uleb128 0x2c
 1988 0962 F0050000 		.4byte	.LASF135
 1989 0966 01       		.byte	0x1
 1990 0967 90       		.byte	0x90
 1991 0968 D3070000 		.4byte	0x7d3
 1992 096c 00000000 		.4byte	.LFB70
 1993 0970 1E000000 		.4byte	.LFE70-.LFB70
 1994 0974 01       		.uleb128 0x1
 1995 0975 9C       		.byte	0x9c
 1996 0976 0D0A0000 		.4byte	0xa0d
 1997 097a 1C       		.uleb128 0x1c
 1998 097b 4B7000   		.ascii	"Kp\000"
 1999 097e 01       		.byte	0x1
 2000 097f 90       		.byte	0x90
 2001 0980 25000000 		.4byte	0x25
 2002 0984 78020000 		.4byte	.LLST15
 2003 0988 1C       		.uleb128 0x1c
 2004 0989 4B6900   		.ascii	"Ki\000"
 2005 098c 01       		.byte	0x1
 2006 098d 90       		.byte	0x90
 2007 098e 25000000 		.4byte	0x25
 2008 0992 9B020000 		.4byte	.LLST16
 2009 0996 1C       		.uleb128 0x1c
 2010 0997 4B6400   		.ascii	"Kd\000"
 2011 099a 01       		.byte	0x1
 2012 099b 90       		.byte	0x90
 2013 099c 25000000 		.4byte	0x25
 2014 09a0 BE020000 		.4byte	.LLST17
 2015 09a4 29       		.uleb128 0x29
 2016 09a5 EA050000 		.4byte	.LASF112
 2017 09a9 01       		.byte	0x1
 2018 09aa 90       		.byte	0x90
 2019 09ab 25000000 		.4byte	0x25
 2020 09af E1020000 		.4byte	.LLST18
 2021 09b3 2D       		.uleb128 0x2d
 2022 09b4 9B010000 		.4byte	.LASF134
 2023 09b8 01       		.byte	0x1
 2024 09b9 90       		.byte	0x90
 2025 09ba 95050000 		.4byte	0x595
 2026 09be 02       		.uleb128 0x2
 2027 09bf 91       		.byte	0x91
 2028 09c0 00       		.sleb128 0
 2029 09c1 2D       		.uleb128 0x2d
 2030 09c2 DD040000 		.4byte	.LASF123
 2031 09c6 01       		.byte	0x1
 2032 09c7 90       		.byte	0x90
 2033 09c8 E8000000 		.4byte	0xe8
 2034 09cc 02       		.uleb128 0x2
 2035 09cd 91       		.byte	0x91
 2036 09ce 04       		.sleb128 4
 2037 09cf 2E       		.uleb128 0x2e
 2038 09d0 7000     		.ascii	"p\000"
 2039 09d2 01       		.byte	0x1
 2040 09d3 92       		.byte	0x92
 2041 09d4 D3070000 		.4byte	0x7d3
 2042 09d8 01       		.uleb128 0x1
 2043 09d9 50       		.byte	0x50
ARM GAS  /tmp/ccVE4ZNw.s 			page 37


 2044 09da 2F       		.uleb128 0x2f
 2045 09db 16000000 		.4byte	.LVL99
 2046 09df D0080000 		.4byte	0x8d0
 2047 09e3 2B       		.uleb128 0x2b
 2048 09e4 01       		.uleb128 0x1
 2049 09e5 53       		.byte	0x53
 2050 09e6 02       		.uleb128 0x2
 2051 09e7 74       		.byte	0x74
 2052 09e8 00       		.sleb128 0
 2053 09e9 2B       		.uleb128 0x2b
 2054 09ea 01       		.uleb128 0x1
 2055 09eb 52       		.byte	0x52
 2056 09ec 05       		.uleb128 0x5
 2057 09ed F3       		.byte	0xf3
 2058 09ee 03       		.uleb128 0x3
 2059 09ef F5       		.byte	0xf5
 2060 09f0 02       		.uleb128 0x2
 2061 09f1 25       		.uleb128 0x25
 2062 09f2 2B       		.uleb128 0x2b
 2063 09f3 01       		.uleb128 0x1
 2064 09f4 51       		.byte	0x51
 2065 09f5 05       		.uleb128 0x5
 2066 09f6 F3       		.byte	0xf3
 2067 09f7 03       		.uleb128 0x3
 2068 09f8 F5       		.byte	0xf5
 2069 09f9 01       		.uleb128 0x1
 2070 09fa 25       		.uleb128 0x25
 2071 09fb 2B       		.uleb128 0x2b
 2072 09fc 01       		.uleb128 0x1
 2073 09fd 50       		.byte	0x50
 2074 09fe 05       		.uleb128 0x5
 2075 09ff F3       		.byte	0xf3
 2076 0a00 03       		.uleb128 0x3
 2077 0a01 F5       		.byte	0xf5
 2078 0a02 00       		.uleb128 0
 2079 0a03 25       		.uleb128 0x25
 2080 0a04 2B       		.uleb128 0x2b
 2081 0a05 02       		.uleb128 0x2
 2082 0a06 7D       		.byte	0x7d
 2083 0a07 00       		.sleb128 0
 2084 0a08 02       		.uleb128 0x2
 2085 0a09 75       		.byte	0x75
 2086 0a0a 00       		.sleb128 0
 2087 0a0b 00       		.byte	0
 2088 0a0c 00       		.byte	0
 2089 0a0d 30       		.uleb128 0x30
 2090 0a0e 70040000 		.4byte	.LASF136
 2091 0a12 01       		.byte	0x1
 2092 0a13 42       		.byte	0x42
 2093 0a14 D4040000 		.4byte	0x4d4
 2094 0a18 00       		.byte	0
 2095 0a19 31       		.uleb128 0x31
 2096 0a1a E8000000 		.4byte	0xe8
 2097 0a1e 290A0000 		.4byte	0xa29
 2098 0a22 32       		.uleb128 0x32
 2099 0a23 B4000000 		.4byte	0xb4
 2100 0a27 7F       		.byte	0x7f
ARM GAS  /tmp/ccVE4ZNw.s 			page 38


 2101 0a28 00       		.byte	0
 2102 0a29 33       		.uleb128 0x33
 2103 0a2a 9C040000 		.4byte	.LASF137
 2104 0a2e 01       		.byte	0x1
 2105 0a2f 44       		.byte	0x44
 2106 0a30 190A0000 		.4byte	0xa19
 2107 0a34 05       		.uleb128 0x5
 2108 0a35 03       		.byte	0x3
 2109 0a36 00000000 		.4byte	PidDriveLut
 2110 0a3a 34       		.uleb128 0x34
 2111 0a3b D0040000 		.4byte	.LASF145
 2112 0a3f 0F       		.byte	0xf
 2113 0a40 0706     		.2byte	0x607
 2114 0a42 D9040000 		.4byte	0x4d9
 2115 0a46 35       		.uleb128 0x35
 2116 0a47 9C070000 		.4byte	.LASF138
 2117 0a4b 0D       		.byte	0xd
 2118 0a4c 6B       		.byte	0x6b
 2119 0a4d F3000000 		.4byte	0xf3
 2120 0a51 5B0A0000 		.4byte	0xa5b
 2121 0a55 10       		.uleb128 0x10
 2122 0a56 95050000 		.4byte	0x595
 2123 0a5a 00       		.byte	0
 2124 0a5b 35       		.uleb128 0x35
 2125 0a5c E9010000 		.4byte	.LASF139
 2126 0a60 0D       		.byte	0xd
 2127 0a61 6A       		.byte	0x6a
 2128 0a62 14010000 		.4byte	0x114
 2129 0a66 700A0000 		.4byte	0xa70
 2130 0a6a 10       		.uleb128 0x10
 2131 0a6b 95050000 		.4byte	0x595
 2132 0a6f 00       		.byte	0
 2133 0a70 36       		.uleb128 0x36
 2134 0a71 5F050000 		.4byte	.LASF146
 2135 0a75 0C       		.byte	0xc
 2136 0a76 59       		.byte	0x59
 2137 0a77 BB000000 		.4byte	0xbb
 2138 0a7b 10       		.uleb128 0x10
 2139 0a7c 74040000 		.4byte	0x474
 2140 0a80 10       		.uleb128 0x10
 2141 0a81 33000000 		.4byte	0x33
 2142 0a85 00       		.byte	0
 2143 0a86 00       		.byte	0
 2144              		.section	.debug_abbrev,"",%progbits
 2145              	.Ldebug_abbrev0:
 2146 0000 01       		.uleb128 0x1
 2147 0001 11       		.uleb128 0x11
 2148 0002 01       		.byte	0x1
 2149 0003 25       		.uleb128 0x25
 2150 0004 0E       		.uleb128 0xe
 2151 0005 13       		.uleb128 0x13
 2152 0006 0B       		.uleb128 0xb
 2153 0007 03       		.uleb128 0x3
 2154 0008 0E       		.uleb128 0xe
 2155 0009 1B       		.uleb128 0x1b
 2156 000a 0E       		.uleb128 0xe
 2157 000b 55       		.uleb128 0x55
ARM GAS  /tmp/ccVE4ZNw.s 			page 39


 2158 000c 17       		.uleb128 0x17
 2159 000d 11       		.uleb128 0x11
 2160 000e 01       		.uleb128 0x1
 2161 000f 10       		.uleb128 0x10
 2162 0010 17       		.uleb128 0x17
 2163 0011 00       		.byte	0
 2164 0012 00       		.byte	0
 2165 0013 02       		.uleb128 0x2
 2166 0014 24       		.uleb128 0x24
 2167 0015 00       		.byte	0
 2168 0016 0B       		.uleb128 0xb
 2169 0017 0B       		.uleb128 0xb
 2170 0018 3E       		.uleb128 0x3e
 2171 0019 0B       		.uleb128 0xb
 2172 001a 03       		.uleb128 0x3
 2173 001b 0E       		.uleb128 0xe
 2174 001c 00       		.byte	0
 2175 001d 00       		.byte	0
 2176 001e 03       		.uleb128 0x3
 2177 001f 16       		.uleb128 0x16
 2178 0020 00       		.byte	0
 2179 0021 03       		.uleb128 0x3
 2180 0022 0E       		.uleb128 0xe
 2181 0023 3A       		.uleb128 0x3a
 2182 0024 0B       		.uleb128 0xb
 2183 0025 3B       		.uleb128 0x3b
 2184 0026 0B       		.uleb128 0xb
 2185 0027 49       		.uleb128 0x49
 2186 0028 13       		.uleb128 0x13
 2187 0029 00       		.byte	0
 2188 002a 00       		.byte	0
 2189 002b 04       		.uleb128 0x4
 2190 002c 24       		.uleb128 0x24
 2191 002d 00       		.byte	0
 2192 002e 0B       		.uleb128 0xb
 2193 002f 0B       		.uleb128 0xb
 2194 0030 3E       		.uleb128 0x3e
 2195 0031 0B       		.uleb128 0xb
 2196 0032 03       		.uleb128 0x3
 2197 0033 08       		.uleb128 0x8
 2198 0034 00       		.byte	0
 2199 0035 00       		.byte	0
 2200 0036 05       		.uleb128 0x5
 2201 0037 0F       		.uleb128 0xf
 2202 0038 00       		.byte	0
 2203 0039 0B       		.uleb128 0xb
 2204 003a 0B       		.uleb128 0xb
 2205 003b 00       		.byte	0
 2206 003c 00       		.byte	0
 2207 003d 06       		.uleb128 0x6
 2208 003e 0F       		.uleb128 0xf
 2209 003f 00       		.byte	0
 2210 0040 0B       		.uleb128 0xb
 2211 0041 0B       		.uleb128 0xb
 2212 0042 49       		.uleb128 0x49
 2213 0043 13       		.uleb128 0x13
 2214 0044 00       		.byte	0
ARM GAS  /tmp/ccVE4ZNw.s 			page 40


 2215 0045 00       		.byte	0
 2216 0046 07       		.uleb128 0x7
 2217 0047 26       		.uleb128 0x26
 2218 0048 00       		.byte	0
 2219 0049 49       		.uleb128 0x49
 2220 004a 13       		.uleb128 0x13
 2221 004b 00       		.byte	0
 2222 004c 00       		.byte	0
 2223 004d 08       		.uleb128 0x8
 2224 004e 13       		.uleb128 0x13
 2225 004f 01       		.byte	0x1
 2226 0050 03       		.uleb128 0x3
 2227 0051 0E       		.uleb128 0xe
 2228 0052 0B       		.uleb128 0xb
 2229 0053 0B       		.uleb128 0xb
 2230 0054 3A       		.uleb128 0x3a
 2231 0055 0B       		.uleb128 0xb
 2232 0056 3B       		.uleb128 0x3b
 2233 0057 0B       		.uleb128 0xb
 2234 0058 01       		.uleb128 0x1
 2235 0059 13       		.uleb128 0x13
 2236 005a 00       		.byte	0
 2237 005b 00       		.byte	0
 2238 005c 09       		.uleb128 0x9
 2239 005d 0D       		.uleb128 0xd
 2240 005e 00       		.byte	0
 2241 005f 03       		.uleb128 0x3
 2242 0060 0E       		.uleb128 0xe
 2243 0061 3A       		.uleb128 0x3a
 2244 0062 0B       		.uleb128 0xb
 2245 0063 3B       		.uleb128 0x3b
 2246 0064 0B       		.uleb128 0xb
 2247 0065 49       		.uleb128 0x49
 2248 0066 13       		.uleb128 0x13
 2249 0067 38       		.uleb128 0x38
 2250 0068 0B       		.uleb128 0xb
 2251 0069 00       		.byte	0
 2252 006a 00       		.byte	0
 2253 006b 0A       		.uleb128 0xa
 2254 006c 0D       		.uleb128 0xd
 2255 006d 00       		.byte	0
 2256 006e 03       		.uleb128 0x3
 2257 006f 08       		.uleb128 0x8
 2258 0070 3A       		.uleb128 0x3a
 2259 0071 0B       		.uleb128 0xb
 2260 0072 3B       		.uleb128 0x3b
 2261 0073 0B       		.uleb128 0xb
 2262 0074 49       		.uleb128 0x49
 2263 0075 13       		.uleb128 0x13
 2264 0076 38       		.uleb128 0x38
 2265 0077 0B       		.uleb128 0xb
 2266 0078 00       		.byte	0
 2267 0079 00       		.byte	0
 2268 007a 0B       		.uleb128 0xb
 2269 007b 13       		.uleb128 0x13
 2270 007c 01       		.byte	0x1
 2271 007d 0B       		.uleb128 0xb
ARM GAS  /tmp/ccVE4ZNw.s 			page 41


 2272 007e 0B       		.uleb128 0xb
 2273 007f 3A       		.uleb128 0x3a
 2274 0080 0B       		.uleb128 0xb
 2275 0081 3B       		.uleb128 0x3b
 2276 0082 0B       		.uleb128 0xb
 2277 0083 01       		.uleb128 0x1
 2278 0084 13       		.uleb128 0x13
 2279 0085 00       		.byte	0
 2280 0086 00       		.byte	0
 2281 0087 0C       		.uleb128 0xc
 2282 0088 13       		.uleb128 0x13
 2283 0089 01       		.byte	0x1
 2284 008a 03       		.uleb128 0x3
 2285 008b 0E       		.uleb128 0xe
 2286 008c 0B       		.uleb128 0xb
 2287 008d 0B       		.uleb128 0xb
 2288 008e 3A       		.uleb128 0x3a
 2289 008f 0B       		.uleb128 0xb
 2290 0090 3B       		.uleb128 0x3b
 2291 0091 05       		.uleb128 0x5
 2292 0092 01       		.uleb128 0x1
 2293 0093 13       		.uleb128 0x13
 2294 0094 00       		.byte	0
 2295 0095 00       		.byte	0
 2296 0096 0D       		.uleb128 0xd
 2297 0097 0D       		.uleb128 0xd
 2298 0098 00       		.byte	0
 2299 0099 03       		.uleb128 0x3
 2300 009a 08       		.uleb128 0x8
 2301 009b 3A       		.uleb128 0x3a
 2302 009c 0B       		.uleb128 0xb
 2303 009d 3B       		.uleb128 0x3b
 2304 009e 05       		.uleb128 0x5
 2305 009f 49       		.uleb128 0x49
 2306 00a0 13       		.uleb128 0x13
 2307 00a1 38       		.uleb128 0x38
 2308 00a2 0B       		.uleb128 0xb
 2309 00a3 00       		.byte	0
 2310 00a4 00       		.byte	0
 2311 00a5 0E       		.uleb128 0xe
 2312 00a6 35       		.uleb128 0x35
 2313 00a7 00       		.byte	0
 2314 00a8 49       		.uleb128 0x49
 2315 00a9 13       		.uleb128 0x13
 2316 00aa 00       		.byte	0
 2317 00ab 00       		.byte	0
 2318 00ac 0F       		.uleb128 0xf
 2319 00ad 15       		.uleb128 0x15
 2320 00ae 01       		.byte	0x1
 2321 00af 27       		.uleb128 0x27
 2322 00b0 19       		.uleb128 0x19
 2323 00b1 49       		.uleb128 0x49
 2324 00b2 13       		.uleb128 0x13
 2325 00b3 01       		.uleb128 0x1
 2326 00b4 13       		.uleb128 0x13
 2327 00b5 00       		.byte	0
 2328 00b6 00       		.byte	0
ARM GAS  /tmp/ccVE4ZNw.s 			page 42


 2329 00b7 10       		.uleb128 0x10
 2330 00b8 05       		.uleb128 0x5
 2331 00b9 00       		.byte	0
 2332 00ba 49       		.uleb128 0x49
 2333 00bb 13       		.uleb128 0x13
 2334 00bc 00       		.byte	0
 2335 00bd 00       		.byte	0
 2336 00be 11       		.uleb128 0x11
 2337 00bf 17       		.uleb128 0x17
 2338 00c0 01       		.byte	0x1
 2339 00c1 0B       		.uleb128 0xb
 2340 00c2 0B       		.uleb128 0xb
 2341 00c3 3A       		.uleb128 0x3a
 2342 00c4 0B       		.uleb128 0xb
 2343 00c5 3B       		.uleb128 0x3b
 2344 00c6 0B       		.uleb128 0xb
 2345 00c7 01       		.uleb128 0x1
 2346 00c8 13       		.uleb128 0x13
 2347 00c9 00       		.byte	0
 2348 00ca 00       		.byte	0
 2349 00cb 12       		.uleb128 0x12
 2350 00cc 0D       		.uleb128 0xd
 2351 00cd 00       		.byte	0
 2352 00ce 03       		.uleb128 0x3
 2353 00cf 0E       		.uleb128 0xe
 2354 00d0 3A       		.uleb128 0x3a
 2355 00d1 0B       		.uleb128 0xb
 2356 00d2 3B       		.uleb128 0x3b
 2357 00d3 0B       		.uleb128 0xb
 2358 00d4 49       		.uleb128 0x49
 2359 00d5 13       		.uleb128 0x13
 2360 00d6 00       		.byte	0
 2361 00d7 00       		.byte	0
 2362 00d8 13       		.uleb128 0x13
 2363 00d9 17       		.uleb128 0x17
 2364 00da 01       		.byte	0x1
 2365 00db 03       		.uleb128 0x3
 2366 00dc 0E       		.uleb128 0xe
 2367 00dd 0B       		.uleb128 0xb
 2368 00de 0B       		.uleb128 0xb
 2369 00df 3A       		.uleb128 0x3a
 2370 00e0 0B       		.uleb128 0xb
 2371 00e1 3B       		.uleb128 0x3b
 2372 00e2 0B       		.uleb128 0xb
 2373 00e3 01       		.uleb128 0x1
 2374 00e4 13       		.uleb128 0x13
 2375 00e5 00       		.byte	0
 2376 00e6 00       		.byte	0
 2377 00e7 14       		.uleb128 0x14
 2378 00e8 0D       		.uleb128 0xd
 2379 00e9 00       		.byte	0
 2380 00ea 03       		.uleb128 0x3
 2381 00eb 08       		.uleb128 0x8
 2382 00ec 3A       		.uleb128 0x3a
 2383 00ed 0B       		.uleb128 0xb
 2384 00ee 3B       		.uleb128 0x3b
 2385 00ef 0B       		.uleb128 0xb
ARM GAS  /tmp/ccVE4ZNw.s 			page 43


 2386 00f0 49       		.uleb128 0x49
 2387 00f1 13       		.uleb128 0x13
 2388 00f2 00       		.byte	0
 2389 00f3 00       		.byte	0
 2390 00f4 15       		.uleb128 0x15
 2391 00f5 04       		.uleb128 0x4
 2392 00f6 01       		.byte	0x1
 2393 00f7 0B       		.uleb128 0xb
 2394 00f8 0B       		.uleb128 0xb
 2395 00f9 3A       		.uleb128 0x3a
 2396 00fa 0B       		.uleb128 0xb
 2397 00fb 3B       		.uleb128 0x3b
 2398 00fc 0B       		.uleb128 0xb
 2399 00fd 01       		.uleb128 0x1
 2400 00fe 13       		.uleb128 0x13
 2401 00ff 00       		.byte	0
 2402 0100 00       		.byte	0
 2403 0101 16       		.uleb128 0x16
 2404 0102 28       		.uleb128 0x28
 2405 0103 00       		.byte	0
 2406 0104 03       		.uleb128 0x3
 2407 0105 0E       		.uleb128 0xe
 2408 0106 1C       		.uleb128 0x1c
 2409 0107 0D       		.uleb128 0xd
 2410 0108 00       		.byte	0
 2411 0109 00       		.byte	0
 2412 010a 17       		.uleb128 0x17
 2413 010b 2E       		.uleb128 0x2e
 2414 010c 01       		.byte	0x1
 2415 010d 03       		.uleb128 0x3
 2416 010e 0E       		.uleb128 0xe
 2417 010f 3A       		.uleb128 0x3a
 2418 0110 0B       		.uleb128 0xb
 2419 0111 3B       		.uleb128 0x3b
 2420 0112 0B       		.uleb128 0xb
 2421 0113 27       		.uleb128 0x27
 2422 0114 19       		.uleb128 0x19
 2423 0115 49       		.uleb128 0x49
 2424 0116 13       		.uleb128 0x13
 2425 0117 20       		.uleb128 0x20
 2426 0118 0B       		.uleb128 0xb
 2427 0119 01       		.uleb128 0x1
 2428 011a 13       		.uleb128 0x13
 2429 011b 00       		.byte	0
 2430 011c 00       		.byte	0
 2431 011d 18       		.uleb128 0x18
 2432 011e 05       		.uleb128 0x5
 2433 011f 00       		.byte	0
 2434 0120 03       		.uleb128 0x3
 2435 0121 08       		.uleb128 0x8
 2436 0122 3A       		.uleb128 0x3a
 2437 0123 0B       		.uleb128 0xb
 2438 0124 3B       		.uleb128 0x3b
 2439 0125 0B       		.uleb128 0xb
 2440 0126 49       		.uleb128 0x49
 2441 0127 13       		.uleb128 0x13
 2442 0128 00       		.byte	0
ARM GAS  /tmp/ccVE4ZNw.s 			page 44


 2443 0129 00       		.byte	0
 2444 012a 19       		.uleb128 0x19
 2445 012b 34       		.uleb128 0x34
 2446 012c 00       		.byte	0
 2447 012d 03       		.uleb128 0x3
 2448 012e 08       		.uleb128 0x8
 2449 012f 3A       		.uleb128 0x3a
 2450 0130 0B       		.uleb128 0xb
 2451 0131 3B       		.uleb128 0x3b
 2452 0132 0B       		.uleb128 0xb
 2453 0133 49       		.uleb128 0x49
 2454 0134 13       		.uleb128 0x13
 2455 0135 00       		.byte	0
 2456 0136 00       		.byte	0
 2457 0137 1A       		.uleb128 0x1a
 2458 0138 2E       		.uleb128 0x2e
 2459 0139 01       		.byte	0x1
 2460 013a 03       		.uleb128 0x3
 2461 013b 08       		.uleb128 0x8
 2462 013c 3A       		.uleb128 0x3a
 2463 013d 0B       		.uleb128 0xb
 2464 013e 3B       		.uleb128 0x3b
 2465 013f 0B       		.uleb128 0xb
 2466 0140 27       		.uleb128 0x27
 2467 0141 19       		.uleb128 0x19
 2468 0142 49       		.uleb128 0x49
 2469 0143 13       		.uleb128 0x13
 2470 0144 20       		.uleb128 0x20
 2471 0145 0B       		.uleb128 0xb
 2472 0146 01       		.uleb128 0x1
 2473 0147 13       		.uleb128 0x13
 2474 0148 00       		.byte	0
 2475 0149 00       		.byte	0
 2476 014a 1B       		.uleb128 0x1b
 2477 014b 2E       		.uleb128 0x2e
 2478 014c 01       		.byte	0x1
 2479 014d 3F       		.uleb128 0x3f
 2480 014e 19       		.uleb128 0x19
 2481 014f 03       		.uleb128 0x3
 2482 0150 0E       		.uleb128 0xe
 2483 0151 3A       		.uleb128 0x3a
 2484 0152 0B       		.uleb128 0xb
 2485 0153 3B       		.uleb128 0x3b
 2486 0154 0B       		.uleb128 0xb
 2487 0155 27       		.uleb128 0x27
 2488 0156 19       		.uleb128 0x19
 2489 0157 49       		.uleb128 0x49
 2490 0158 13       		.uleb128 0x13
 2491 0159 11       		.uleb128 0x11
 2492 015a 01       		.uleb128 0x1
 2493 015b 12       		.uleb128 0x12
 2494 015c 06       		.uleb128 0x6
 2495 015d 40       		.uleb128 0x40
 2496 015e 18       		.uleb128 0x18
 2497 015f 9642     		.uleb128 0x2116
 2498 0161 19       		.uleb128 0x19
 2499 0162 01       		.uleb128 0x1
ARM GAS  /tmp/ccVE4ZNw.s 			page 45


 2500 0163 13       		.uleb128 0x13
 2501 0164 00       		.byte	0
 2502 0165 00       		.byte	0
 2503 0166 1C       		.uleb128 0x1c
 2504 0167 05       		.uleb128 0x5
 2505 0168 00       		.byte	0
 2506 0169 03       		.uleb128 0x3
 2507 016a 08       		.uleb128 0x8
 2508 016b 3A       		.uleb128 0x3a
 2509 016c 0B       		.uleb128 0xb
 2510 016d 3B       		.uleb128 0x3b
 2511 016e 0B       		.uleb128 0xb
 2512 016f 49       		.uleb128 0x49
 2513 0170 13       		.uleb128 0x13
 2514 0171 02       		.uleb128 0x2
 2515 0172 17       		.uleb128 0x17
 2516 0173 00       		.byte	0
 2517 0174 00       		.byte	0
 2518 0175 1D       		.uleb128 0x1d
 2519 0176 1D       		.uleb128 0x1d
 2520 0177 01       		.byte	0x1
 2521 0178 31       		.uleb128 0x31
 2522 0179 13       		.uleb128 0x13
 2523 017a 52       		.uleb128 0x52
 2524 017b 01       		.uleb128 0x1
 2525 017c 55       		.uleb128 0x55
 2526 017d 17       		.uleb128 0x17
 2527 017e 58       		.uleb128 0x58
 2528 017f 0B       		.uleb128 0xb
 2529 0180 59       		.uleb128 0x59
 2530 0181 0B       		.uleb128 0xb
 2531 0182 01       		.uleb128 0x1
 2532 0183 13       		.uleb128 0x13
 2533 0184 00       		.byte	0
 2534 0185 00       		.byte	0
 2535 0186 1E       		.uleb128 0x1e
 2536 0187 05       		.uleb128 0x5
 2537 0188 00       		.byte	0
 2538 0189 31       		.uleb128 0x31
 2539 018a 13       		.uleb128 0x13
 2540 018b 02       		.uleb128 0x2
 2541 018c 17       		.uleb128 0x17
 2542 018d 00       		.byte	0
 2543 018e 00       		.byte	0
 2544 018f 1F       		.uleb128 0x1f
 2545 0190 898201   		.uleb128 0x4109
 2546 0193 00       		.byte	0
 2547 0194 11       		.uleb128 0x11
 2548 0195 01       		.uleb128 0x1
 2549 0196 31       		.uleb128 0x31
 2550 0197 13       		.uleb128 0x13
 2551 0198 00       		.byte	0
 2552 0199 00       		.byte	0
 2553 019a 20       		.uleb128 0x20
 2554 019b 34       		.uleb128 0x34
 2555 019c 00       		.byte	0
 2556 019d 03       		.uleb128 0x3
ARM GAS  /tmp/ccVE4ZNw.s 			page 46


 2557 019e 0E       		.uleb128 0xe
 2558 019f 3A       		.uleb128 0x3a
 2559 01a0 0B       		.uleb128 0xb
 2560 01a1 3B       		.uleb128 0x3b
 2561 01a2 0B       		.uleb128 0xb
 2562 01a3 49       		.uleb128 0x49
 2563 01a4 13       		.uleb128 0x13
 2564 01a5 00       		.byte	0
 2565 01a6 00       		.byte	0
 2566 01a7 21       		.uleb128 0x21
 2567 01a8 2E       		.uleb128 0x2e
 2568 01a9 01       		.byte	0x1
 2569 01aa 3F       		.uleb128 0x3f
 2570 01ab 19       		.uleb128 0x19
 2571 01ac 03       		.uleb128 0x3
 2572 01ad 0E       		.uleb128 0xe
 2573 01ae 3A       		.uleb128 0x3a
 2574 01af 0B       		.uleb128 0xb
 2575 01b0 3B       		.uleb128 0x3b
 2576 01b1 0B       		.uleb128 0xb
 2577 01b2 27       		.uleb128 0x27
 2578 01b3 19       		.uleb128 0x19
 2579 01b4 11       		.uleb128 0x11
 2580 01b5 01       		.uleb128 0x1
 2581 01b6 12       		.uleb128 0x12
 2582 01b7 06       		.uleb128 0x6
 2583 01b8 40       		.uleb128 0x40
 2584 01b9 18       		.uleb128 0x18
 2585 01ba 9642     		.uleb128 0x2116
 2586 01bc 19       		.uleb128 0x19
 2587 01bd 01       		.uleb128 0x1
 2588 01be 13       		.uleb128 0x13
 2589 01bf 00       		.byte	0
 2590 01c0 00       		.byte	0
 2591 01c1 22       		.uleb128 0x22
 2592 01c2 34       		.uleb128 0x34
 2593 01c3 00       		.byte	0
 2594 01c4 03       		.uleb128 0x3
 2595 01c5 08       		.uleb128 0x8
 2596 01c6 3A       		.uleb128 0x3a
 2597 01c7 0B       		.uleb128 0xb
 2598 01c8 3B       		.uleb128 0x3b
 2599 01c9 0B       		.uleb128 0xb
 2600 01ca 49       		.uleb128 0x49
 2601 01cb 13       		.uleb128 0x13
 2602 01cc 02       		.uleb128 0x2
 2603 01cd 17       		.uleb128 0x17
 2604 01ce 00       		.byte	0
 2605 01cf 00       		.byte	0
 2606 01d0 23       		.uleb128 0x23
 2607 01d1 1D       		.uleb128 0x1d
 2608 01d2 01       		.byte	0x1
 2609 01d3 31       		.uleb128 0x31
 2610 01d4 13       		.uleb128 0x13
 2611 01d5 52       		.uleb128 0x52
 2612 01d6 01       		.uleb128 0x1
 2613 01d7 55       		.uleb128 0x55
ARM GAS  /tmp/ccVE4ZNw.s 			page 47


 2614 01d8 17       		.uleb128 0x17
 2615 01d9 58       		.uleb128 0x58
 2616 01da 0B       		.uleb128 0xb
 2617 01db 59       		.uleb128 0x59
 2618 01dc 0B       		.uleb128 0xb
 2619 01dd 00       		.byte	0
 2620 01de 00       		.byte	0
 2621 01df 24       		.uleb128 0x24
 2622 01e0 05       		.uleb128 0x5
 2623 01e1 00       		.byte	0
 2624 01e2 31       		.uleb128 0x31
 2625 01e3 13       		.uleb128 0x13
 2626 01e4 1C       		.uleb128 0x1c
 2627 01e5 0A       		.uleb128 0xa
 2628 01e6 00       		.byte	0
 2629 01e7 00       		.byte	0
 2630 01e8 25       		.uleb128 0x25
 2631 01e9 0B       		.uleb128 0xb
 2632 01ea 01       		.byte	0x1
 2633 01eb 55       		.uleb128 0x55
 2634 01ec 17       		.uleb128 0x17
 2635 01ed 00       		.byte	0
 2636 01ee 00       		.byte	0
 2637 01ef 26       		.uleb128 0x26
 2638 01f0 34       		.uleb128 0x34
 2639 01f1 00       		.byte	0
 2640 01f2 31       		.uleb128 0x31
 2641 01f3 13       		.uleb128 0x13
 2642 01f4 02       		.uleb128 0x2
 2643 01f5 17       		.uleb128 0x17
 2644 01f6 00       		.byte	0
 2645 01f7 00       		.byte	0
 2646 01f8 27       		.uleb128 0x27
 2647 01f9 34       		.uleb128 0x34
 2648 01fa 00       		.byte	0
 2649 01fb 31       		.uleb128 0x31
 2650 01fc 13       		.uleb128 0x13
 2651 01fd 02       		.uleb128 0x2
 2652 01fe 18       		.uleb128 0x18
 2653 01ff 00       		.byte	0
 2654 0200 00       		.byte	0
 2655 0201 28       		.uleb128 0x28
 2656 0202 34       		.uleb128 0x34
 2657 0203 00       		.byte	0
 2658 0204 31       		.uleb128 0x31
 2659 0205 13       		.uleb128 0x13
 2660 0206 00       		.byte	0
 2661 0207 00       		.byte	0
 2662 0208 29       		.uleb128 0x29
 2663 0209 05       		.uleb128 0x5
 2664 020a 00       		.byte	0
 2665 020b 03       		.uleb128 0x3
 2666 020c 0E       		.uleb128 0xe
 2667 020d 3A       		.uleb128 0x3a
 2668 020e 0B       		.uleb128 0xb
 2669 020f 3B       		.uleb128 0x3b
 2670 0210 0B       		.uleb128 0xb
ARM GAS  /tmp/ccVE4ZNw.s 			page 48


 2671 0211 49       		.uleb128 0x49
 2672 0212 13       		.uleb128 0x13
 2673 0213 02       		.uleb128 0x2
 2674 0214 17       		.uleb128 0x17
 2675 0215 00       		.byte	0
 2676 0216 00       		.byte	0
 2677 0217 2A       		.uleb128 0x2a
 2678 0218 898201   		.uleb128 0x4109
 2679 021b 01       		.byte	0x1
 2680 021c 11       		.uleb128 0x11
 2681 021d 01       		.uleb128 0x1
 2682 021e 31       		.uleb128 0x31
 2683 021f 13       		.uleb128 0x13
 2684 0220 01       		.uleb128 0x1
 2685 0221 13       		.uleb128 0x13
 2686 0222 00       		.byte	0
 2687 0223 00       		.byte	0
 2688 0224 2B       		.uleb128 0x2b
 2689 0225 8A8201   		.uleb128 0x410a
 2690 0228 00       		.byte	0
 2691 0229 02       		.uleb128 0x2
 2692 022a 18       		.uleb128 0x18
 2693 022b 9142     		.uleb128 0x2111
 2694 022d 18       		.uleb128 0x18
 2695 022e 00       		.byte	0
 2696 022f 00       		.byte	0
 2697 0230 2C       		.uleb128 0x2c
 2698 0231 2E       		.uleb128 0x2e
 2699 0232 01       		.byte	0x1
 2700 0233 3F       		.uleb128 0x3f
 2701 0234 19       		.uleb128 0x19
 2702 0235 03       		.uleb128 0x3
 2703 0236 0E       		.uleb128 0xe
 2704 0237 3A       		.uleb128 0x3a
 2705 0238 0B       		.uleb128 0xb
 2706 0239 3B       		.uleb128 0x3b
 2707 023a 0B       		.uleb128 0xb
 2708 023b 27       		.uleb128 0x27
 2709 023c 19       		.uleb128 0x19
 2710 023d 49       		.uleb128 0x49
 2711 023e 13       		.uleb128 0x13
 2712 023f 11       		.uleb128 0x11
 2713 0240 01       		.uleb128 0x1
 2714 0241 12       		.uleb128 0x12
 2715 0242 06       		.uleb128 0x6
 2716 0243 40       		.uleb128 0x40
 2717 0244 18       		.uleb128 0x18
 2718 0245 9742     		.uleb128 0x2117
 2719 0247 19       		.uleb128 0x19
 2720 0248 01       		.uleb128 0x1
 2721 0249 13       		.uleb128 0x13
 2722 024a 00       		.byte	0
 2723 024b 00       		.byte	0
 2724 024c 2D       		.uleb128 0x2d
 2725 024d 05       		.uleb128 0x5
 2726 024e 00       		.byte	0
 2727 024f 03       		.uleb128 0x3
ARM GAS  /tmp/ccVE4ZNw.s 			page 49


 2728 0250 0E       		.uleb128 0xe
 2729 0251 3A       		.uleb128 0x3a
 2730 0252 0B       		.uleb128 0xb
 2731 0253 3B       		.uleb128 0x3b
 2732 0254 0B       		.uleb128 0xb
 2733 0255 49       		.uleb128 0x49
 2734 0256 13       		.uleb128 0x13
 2735 0257 02       		.uleb128 0x2
 2736 0258 18       		.uleb128 0x18
 2737 0259 00       		.byte	0
 2738 025a 00       		.byte	0
 2739 025b 2E       		.uleb128 0x2e
 2740 025c 34       		.uleb128 0x34
 2741 025d 00       		.byte	0
 2742 025e 03       		.uleb128 0x3
 2743 025f 08       		.uleb128 0x8
 2744 0260 3A       		.uleb128 0x3a
 2745 0261 0B       		.uleb128 0xb
 2746 0262 3B       		.uleb128 0x3b
 2747 0263 0B       		.uleb128 0xb
 2748 0264 49       		.uleb128 0x49
 2749 0265 13       		.uleb128 0x13
 2750 0266 02       		.uleb128 0x2
 2751 0267 18       		.uleb128 0x18
 2752 0268 00       		.byte	0
 2753 0269 00       		.byte	0
 2754 026a 2F       		.uleb128 0x2f
 2755 026b 898201   		.uleb128 0x4109
 2756 026e 01       		.byte	0x1
 2757 026f 11       		.uleb128 0x11
 2758 0270 01       		.uleb128 0x1
 2759 0271 31       		.uleb128 0x31
 2760 0272 13       		.uleb128 0x13
 2761 0273 00       		.byte	0
 2762 0274 00       		.byte	0
 2763 0275 30       		.uleb128 0x30
 2764 0276 34       		.uleb128 0x34
 2765 0277 00       		.byte	0
 2766 0278 03       		.uleb128 0x3
 2767 0279 0E       		.uleb128 0xe
 2768 027a 3A       		.uleb128 0x3a
 2769 027b 0B       		.uleb128 0xb
 2770 027c 3B       		.uleb128 0x3b
 2771 027d 0B       		.uleb128 0xb
 2772 027e 49       		.uleb128 0x49
 2773 027f 13       		.uleb128 0x13
 2774 0280 1C       		.uleb128 0x1c
 2775 0281 0B       		.uleb128 0xb
 2776 0282 00       		.byte	0
 2777 0283 00       		.byte	0
 2778 0284 31       		.uleb128 0x31
 2779 0285 01       		.uleb128 0x1
 2780 0286 01       		.byte	0x1
 2781 0287 49       		.uleb128 0x49
 2782 0288 13       		.uleb128 0x13
 2783 0289 01       		.uleb128 0x1
 2784 028a 13       		.uleb128 0x13
ARM GAS  /tmp/ccVE4ZNw.s 			page 50


 2785 028b 00       		.byte	0
 2786 028c 00       		.byte	0
 2787 028d 32       		.uleb128 0x32
 2788 028e 21       		.uleb128 0x21
 2789 028f 00       		.byte	0
 2790 0290 49       		.uleb128 0x49
 2791 0291 13       		.uleb128 0x13
 2792 0292 2F       		.uleb128 0x2f
 2793 0293 0B       		.uleb128 0xb
 2794 0294 00       		.byte	0
 2795 0295 00       		.byte	0
 2796 0296 33       		.uleb128 0x33
 2797 0297 34       		.uleb128 0x34
 2798 0298 00       		.byte	0
 2799 0299 03       		.uleb128 0x3
 2800 029a 0E       		.uleb128 0xe
 2801 029b 3A       		.uleb128 0x3a
 2802 029c 0B       		.uleb128 0xb
 2803 029d 3B       		.uleb128 0x3b
 2804 029e 0B       		.uleb128 0xb
 2805 029f 49       		.uleb128 0x49
 2806 02a0 13       		.uleb128 0x13
 2807 02a1 02       		.uleb128 0x2
 2808 02a2 18       		.uleb128 0x18
 2809 02a3 00       		.byte	0
 2810 02a4 00       		.byte	0
 2811 02a5 34       		.uleb128 0x34
 2812 02a6 34       		.uleb128 0x34
 2813 02a7 00       		.byte	0
 2814 02a8 03       		.uleb128 0x3
 2815 02a9 0E       		.uleb128 0xe
 2816 02aa 3A       		.uleb128 0x3a
 2817 02ab 0B       		.uleb128 0xb
 2818 02ac 3B       		.uleb128 0x3b
 2819 02ad 05       		.uleb128 0x5
 2820 02ae 49       		.uleb128 0x49
 2821 02af 13       		.uleb128 0x13
 2822 02b0 3F       		.uleb128 0x3f
 2823 02b1 19       		.uleb128 0x19
 2824 02b2 3C       		.uleb128 0x3c
 2825 02b3 19       		.uleb128 0x19
 2826 02b4 00       		.byte	0
 2827 02b5 00       		.byte	0
 2828 02b6 35       		.uleb128 0x35
 2829 02b7 2E       		.uleb128 0x2e
 2830 02b8 01       		.byte	0x1
 2831 02b9 3F       		.uleb128 0x3f
 2832 02ba 19       		.uleb128 0x19
 2833 02bb 03       		.uleb128 0x3
 2834 02bc 0E       		.uleb128 0xe
 2835 02bd 3A       		.uleb128 0x3a
 2836 02be 0B       		.uleb128 0xb
 2837 02bf 3B       		.uleb128 0x3b
 2838 02c0 0B       		.uleb128 0xb
 2839 02c1 27       		.uleb128 0x27
 2840 02c2 19       		.uleb128 0x19
 2841 02c3 49       		.uleb128 0x49
ARM GAS  /tmp/ccVE4ZNw.s 			page 51


 2842 02c4 13       		.uleb128 0x13
 2843 02c5 3C       		.uleb128 0x3c
 2844 02c6 19       		.uleb128 0x19
 2845 02c7 01       		.uleb128 0x1
 2846 02c8 13       		.uleb128 0x13
 2847 02c9 00       		.byte	0
 2848 02ca 00       		.byte	0
 2849 02cb 36       		.uleb128 0x36
 2850 02cc 2E       		.uleb128 0x2e
 2851 02cd 01       		.byte	0x1
 2852 02ce 3F       		.uleb128 0x3f
 2853 02cf 19       		.uleb128 0x19
 2854 02d0 03       		.uleb128 0x3
 2855 02d1 0E       		.uleb128 0xe
 2856 02d2 3A       		.uleb128 0x3a
 2857 02d3 0B       		.uleb128 0xb
 2858 02d4 3B       		.uleb128 0x3b
 2859 02d5 0B       		.uleb128 0xb
 2860 02d6 27       		.uleb128 0x27
 2861 02d7 19       		.uleb128 0x19
 2862 02d8 49       		.uleb128 0x49
 2863 02d9 13       		.uleb128 0x13
 2864 02da 3C       		.uleb128 0x3c
 2865 02db 19       		.uleb128 0x19
 2866 02dc 00       		.byte	0
 2867 02dd 00       		.byte	0
 2868 02de 00       		.byte	0
 2869              		.section	.debug_loc,"",%progbits
 2870              	.Ldebug_loc0:
 2871              	.LLST0:
 2872 0000 00000000 		.4byte	.LVL0
 2873 0004 1A000000 		.4byte	.LVL1
 2874 0008 0100     		.2byte	0x1
 2875 000a 50       		.byte	0x50
 2876 000b 1A000000 		.4byte	.LVL1
 2877 000f 3C010000 		.4byte	.LVL28
 2878 0013 0100     		.2byte	0x1
 2879 0015 54       		.byte	0x54
 2880 0016 3C010000 		.4byte	.LVL28
 2881 001a 4C010000 		.4byte	.LVL29
 2882 001e 0100     		.2byte	0x1
 2883 0020 50       		.byte	0x50
 2884 0021 4C010000 		.4byte	.LVL29
 2885 0025 DC010000 		.4byte	.LVL44
 2886 0029 0100     		.2byte	0x1
 2887 002b 54       		.byte	0x54
 2888 002c DC010000 		.4byte	.LVL44
 2889 0030 DE010000 		.4byte	.LVL45
 2890 0034 0100     		.2byte	0x1
 2891 0036 50       		.byte	0x50
 2892 0037 DE010000 		.4byte	.LVL45
 2893 003b 18020000 		.4byte	.LFE71
 2894 003f 0100     		.2byte	0x1
 2895 0041 54       		.byte	0x54
 2896 0042 00000000 		.4byte	0
 2897 0046 00000000 		.4byte	0
 2898              	.LLST1:
ARM GAS  /tmp/ccVE4ZNw.s 			page 52


 2899 004a 64000000 		.4byte	.LVL6
 2900 004e 8A000000 		.4byte	.LVL10
 2901 0052 0100     		.2byte	0x1
 2902 0054 58       		.byte	0x58
 2903 0055 8A000000 		.4byte	.LVL10
 2904 0059 8C000000 		.4byte	.LVL11
 2905 005d 0100     		.2byte	0x1
 2906 005f 59       		.byte	0x59
 2907 0060 EA010000 		.4byte	.LVL47
 2908 0064 F2010000 		.4byte	.LVL48
 2909 0068 0100     		.2byte	0x1
 2910 006a 58       		.byte	0x58
 2911 006b 00000000 		.4byte	0
 2912 006f 00000000 		.4byte	0
 2913              	.LLST2:
 2914 0073 DE000000 		.4byte	.LVL20
 2915 0077 FA000000 		.4byte	.LVL23
 2916 007b 0100     		.2byte	0x1
 2917 007d 55       		.byte	0x55
 2918 007e 92010000 		.4byte	.LVL37
 2919 0082 94010000 		.4byte	.LVL38
 2920 0086 0100     		.2byte	0x1
 2921 0088 55       		.byte	0x55
 2922 0089 F2010000 		.4byte	.LVL48
 2923 008d F4010000 		.4byte	.LVL49
 2924 0091 0100     		.2byte	0x1
 2925 0093 55       		.byte	0x55
 2926 0094 00000000 		.4byte	0
 2927 0098 00000000 		.4byte	0
 2928              	.LLST3:
 2929 009c 1C010000 		.4byte	.LVL25
 2930 00a0 3C010000 		.4byte	.LVL28
 2931 00a4 0100     		.2byte	0x1
 2932 00a6 55       		.byte	0x55
 2933 00a7 06020000 		.4byte	.LVL50
 2934 00ab 18020000 		.4byte	.LFE71
 2935 00af 0100     		.2byte	0x1
 2936 00b1 55       		.byte	0x55
 2937 00b2 00000000 		.4byte	0
 2938 00b6 00000000 		.4byte	0
 2939              	.LLST4:
 2940 00ba 00000000 		.4byte	.LVL51
 2941 00be 12000000 		.4byte	.LVL52
 2942 00c2 0200     		.2byte	0x2
 2943 00c4 30       		.byte	0x30
 2944 00c5 9F       		.byte	0x9f
 2945 00c6 12000000 		.4byte	.LVL52
 2946 00ca CC000000 		.4byte	.LVL74
 2947 00ce 0100     		.2byte	0x1
 2948 00d0 56       		.byte	0x56
 2949 00d1 CC000000 		.4byte	.LVL74
 2950 00d5 D2000000 		.4byte	.LVL75
 2951 00d9 0300     		.2byte	0x3
 2952 00db 76       		.byte	0x76
 2953 00dc 7F       		.sleb128 -1
 2954 00dd 9F       		.byte	0x9f
 2955 00de D2000000 		.4byte	.LVL75
ARM GAS  /tmp/ccVE4ZNw.s 			page 53


 2956 00e2 2E010000 		.4byte	.LFE72
 2957 00e6 0100     		.2byte	0x1
 2958 00e8 56       		.byte	0x56
 2959 00e9 00000000 		.4byte	0
 2960 00ed 00000000 		.4byte	0
 2961              	.LLST5:
 2962 00f1 12000000 		.4byte	.LVL52
 2963 00f5 CC000000 		.4byte	.LVL74
 2964 00f9 0F00     		.2byte	0xf
 2965 00fb 76       		.byte	0x76
 2966 00fc 00       		.sleb128 0
 2967 00fd F7       		.byte	0xf7
 2968 00fe 2C       		.uleb128 0x2c
 2969 00ff F7       		.byte	0xf7
 2970 0100 25       		.uleb128 0x25
 2971 0101 F4       		.byte	0xf4
 2972 0102 25       		.uleb128 0x25
 2973 0103 04       		.byte	0x4
 2974 0104 0000FE42 		.4byte	0x42fe0000
 2975 0108 1B       		.byte	0x1b
 2976 0109 9F       		.byte	0x9f
 2977 010a CC000000 		.4byte	.LVL74
 2978 010e D2000000 		.4byte	.LVL75
 2979 0112 0F00     		.2byte	0xf
 2980 0114 76       		.byte	0x76
 2981 0115 7F       		.sleb128 -1
 2982 0116 F7       		.byte	0xf7
 2983 0117 2C       		.uleb128 0x2c
 2984 0118 F7       		.byte	0xf7
 2985 0119 25       		.uleb128 0x25
 2986 011a F4       		.byte	0xf4
 2987 011b 25       		.uleb128 0x25
 2988 011c 04       		.byte	0x4
 2989 011d 0000FE42 		.4byte	0x42fe0000
 2990 0121 1B       		.byte	0x1b
 2991 0122 9F       		.byte	0x9f
 2992 0123 D4000000 		.4byte	.LVL76
 2993 0127 2A010000 		.4byte	.LVL86
 2994 012b 0F00     		.2byte	0xf
 2995 012d 76       		.byte	0x76
 2996 012e 00       		.sleb128 0
 2997 012f F7       		.byte	0xf7
 2998 0130 2C       		.uleb128 0x2c
 2999 0131 F7       		.byte	0xf7
 3000 0132 25       		.uleb128 0x25
 3001 0133 F4       		.byte	0xf4
 3002 0134 25       		.uleb128 0x25
 3003 0135 04       		.byte	0x4
 3004 0136 0000FE42 		.4byte	0x42fe0000
 3005 013a 1B       		.byte	0x1b
 3006 013b 9F       		.byte	0x9f
 3007 013c 00000000 		.4byte	0
 3008 0140 00000000 		.4byte	0
 3009              	.LLST6:
 3010 0144 12000000 		.4byte	.LVL52
 3011 0148 42000000 		.4byte	.LVL58
 3012 014c 0100     		.2byte	0x1
ARM GAS  /tmp/ccVE4ZNw.s 			page 54


 3013 014e 55       		.byte	0x55
 3014 014f F6000000 		.4byte	.LVL80
 3015 0153 F9000000 		.4byte	.LVL81-1
 3016 0157 0100     		.2byte	0x1
 3017 0159 50       		.byte	0x50
 3018 015a F9000000 		.4byte	.LVL81-1
 3019 015e 24010000 		.4byte	.LVL85
 3020 0162 0100     		.2byte	0x1
 3021 0164 55       		.byte	0x55
 3022 0165 00000000 		.4byte	0
 3023 0169 00000000 		.4byte	0
 3024              	.LLST7:
 3025 016d 12000000 		.4byte	.LVL52
 3026 0171 68000000 		.4byte	.LVL63
 3027 0175 0100     		.2byte	0x1
 3028 0177 58       		.byte	0x58
 3029 0178 00010000 		.4byte	.LVL82
 3030 017c 1E010000 		.4byte	.LVL84
 3031 0180 0100     		.2byte	0x1
 3032 0182 58       		.byte	0x58
 3033 0183 00000000 		.4byte	0
 3034 0187 00000000 		.4byte	0
 3035              	.LLST8:
 3036 018b 42000000 		.4byte	.LVL58
 3037 018f 46000000 		.4byte	.LVL59
 3038 0193 0100     		.2byte	0x1
 3039 0195 50       		.byte	0x50
 3040 0196 46000000 		.4byte	.LVL59
 3041 019a 4D000000 		.4byte	.LVL60-1
 3042 019e 0100     		.2byte	0x1
 3043 01a0 51       		.byte	0x51
 3044 01a1 4D000000 		.4byte	.LVL60-1
 3045 01a5 D4000000 		.4byte	.LVL76
 3046 01a9 0100     		.2byte	0x1
 3047 01ab 55       		.byte	0x55
 3048 01ac 24010000 		.4byte	.LVL85
 3049 01b0 2E010000 		.4byte	.LFE72
 3050 01b4 0100     		.2byte	0x1
 3051 01b6 55       		.byte	0x55
 3052 01b7 00000000 		.4byte	0
 3053 01bb 00000000 		.4byte	0
 3054              	.LLST9:
 3055 01bf 00000000 		.4byte	.LVL87
 3056 01c3 0C000000 		.4byte	.LVL89
 3057 01c7 0100     		.2byte	0x1
 3058 01c9 50       		.byte	0x50
 3059 01ca 0C000000 		.4byte	.LVL89
 3060 01ce 72000000 		.4byte	.LFE69
 3061 01d2 0100     		.2byte	0x1
 3062 01d4 57       		.byte	0x57
 3063 01d5 00000000 		.4byte	0
 3064 01d9 00000000 		.4byte	0
 3065              	.LLST10:
 3066 01dd 00000000 		.4byte	.LVL87
 3067 01e1 0A000000 		.4byte	.LVL88
 3068 01e5 0100     		.2byte	0x1
 3069 01e7 51       		.byte	0x51
ARM GAS  /tmp/ccVE4ZNw.s 			page 55


 3070 01e8 0A000000 		.4byte	.LVL88
 3071 01ec 72000000 		.4byte	.LFE69
 3072 01f0 0100     		.2byte	0x1
 3073 01f2 56       		.byte	0x56
 3074 01f3 00000000 		.4byte	0
 3075 01f7 00000000 		.4byte	0
 3076              	.LLST11:
 3077 01fb 00000000 		.4byte	.LVL87
 3078 01ff 17000000 		.4byte	.LVL90-1
 3079 0203 0100     		.2byte	0x1
 3080 0205 52       		.byte	0x52
 3081 0206 17000000 		.4byte	.LVL90-1
 3082 020a 72000000 		.4byte	.LFE69
 3083 020e 0100     		.2byte	0x1
 3084 0210 58       		.byte	0x58
 3085 0211 00000000 		.4byte	0
 3086 0215 00000000 		.4byte	0
 3087              	.LLST12:
 3088 0219 00000000 		.4byte	.LVL87
 3089 021d 17000000 		.4byte	.LVL90-1
 3090 0221 0100     		.2byte	0x1
 3091 0223 53       		.byte	0x53
 3092 0224 17000000 		.4byte	.LVL90-1
 3093 0228 72000000 		.4byte	.LFE69
 3094 022c 0400     		.2byte	0x4
 3095 022e F3       		.byte	0xf3
 3096 022f 01       		.uleb128 0x1
 3097 0230 53       		.byte	0x53
 3098 0231 9F       		.byte	0x9f
 3099 0232 00000000 		.4byte	0
 3100 0236 00000000 		.4byte	0
 3101              	.LLST13:
 3102 023a 00000000 		.4byte	.LVL87
 3103 023e 6E000000 		.4byte	.LVL96
 3104 0242 0200     		.2byte	0x2
 3105 0244 91       		.byte	0x91
 3106 0245 00       		.sleb128 0
 3107 0246 6E000000 		.4byte	.LVL96
 3108 024a 72000000 		.4byte	.LFE69
 3109 024e 0200     		.2byte	0x2
 3110 0250 7D       		.byte	0x7d
 3111 0251 20       		.sleb128 32
 3112 0252 00000000 		.4byte	0
 3113 0256 00000000 		.4byte	0
 3114              	.LLST14:
 3115 025a 1E000000 		.4byte	.LVL91
 3116 025e 38000000 		.4byte	.LVL92
 3117 0262 0100     		.2byte	0x1
 3118 0264 50       		.byte	0x50
 3119 0265 38000000 		.4byte	.LVL92
 3120 0269 72000000 		.4byte	.LFE69
 3121 026d 0100     		.2byte	0x1
 3122 026f 54       		.byte	0x54
 3123 0270 00000000 		.4byte	0
 3124 0274 00000000 		.4byte	0
 3125              	.LLST15:
 3126 0278 00000000 		.4byte	.LVL97
ARM GAS  /tmp/ccVE4ZNw.s 			page 56


 3127 027c 15000000 		.4byte	.LVL99-1
 3128 0280 0100     		.2byte	0x1
 3129 0282 50       		.byte	0x50
 3130 0283 15000000 		.4byte	.LVL99-1
 3131 0287 1E000000 		.4byte	.LFE70
 3132 028b 0600     		.2byte	0x6
 3133 028d F3       		.byte	0xf3
 3134 028e 03       		.uleb128 0x3
 3135 028f F5       		.byte	0xf5
 3136 0290 00       		.uleb128 0
 3137 0291 25       		.uleb128 0x25
 3138 0292 9F       		.byte	0x9f
 3139 0293 00000000 		.4byte	0
 3140 0297 00000000 		.4byte	0
 3141              	.LLST16:
 3142 029b 00000000 		.4byte	.LVL97
 3143 029f 15000000 		.4byte	.LVL99-1
 3144 02a3 0100     		.2byte	0x1
 3145 02a5 51       		.byte	0x51
 3146 02a6 15000000 		.4byte	.LVL99-1
 3147 02aa 1E000000 		.4byte	.LFE70
 3148 02ae 0600     		.2byte	0x6
 3149 02b0 F3       		.byte	0xf3
 3150 02b1 03       		.uleb128 0x3
 3151 02b2 F5       		.byte	0xf5
 3152 02b3 01       		.uleb128 0x1
 3153 02b4 25       		.uleb128 0x25
 3154 02b5 9F       		.byte	0x9f
 3155 02b6 00000000 		.4byte	0
 3156 02ba 00000000 		.4byte	0
 3157              	.LLST17:
 3158 02be 00000000 		.4byte	.LVL97
 3159 02c2 15000000 		.4byte	.LVL99-1
 3160 02c6 0100     		.2byte	0x1
 3161 02c8 52       		.byte	0x52
 3162 02c9 15000000 		.4byte	.LVL99-1
 3163 02cd 1E000000 		.4byte	.LFE70
 3164 02d1 0600     		.2byte	0x6
 3165 02d3 F3       		.byte	0xf3
 3166 02d4 03       		.uleb128 0x3
 3167 02d5 F5       		.byte	0xf5
 3168 02d6 02       		.uleb128 0x2
 3169 02d7 25       		.uleb128 0x25
 3170 02d8 9F       		.byte	0x9f
 3171 02d9 00000000 		.4byte	0
 3172 02dd 00000000 		.4byte	0
 3173              	.LLST18:
 3174 02e1 00000000 		.4byte	.LVL97
 3175 02e5 12000000 		.4byte	.LVL98
 3176 02e9 0100     		.2byte	0x1
 3177 02eb 53       		.byte	0x53
 3178 02ec 12000000 		.4byte	.LVL98
 3179 02f0 1E000000 		.4byte	.LFE70
 3180 02f4 0100     		.2byte	0x1
 3181 02f6 56       		.byte	0x56
 3182 02f7 00000000 		.4byte	0
 3183 02fb 00000000 		.4byte	0
ARM GAS  /tmp/ccVE4ZNw.s 			page 57


 3184              		.section	.debug_aranges,"",%progbits
 3185 0000 34000000 		.4byte	0x34
 3186 0004 0200     		.2byte	0x2
 3187 0006 00000000 		.4byte	.Ldebug_info0
 3188 000a 04       		.byte	0x4
 3189 000b 00       		.byte	0
 3190 000c 0000     		.2byte	0
 3191 000e 0000     		.2byte	0
 3192 0010 00000000 		.4byte	.LFB71
 3193 0014 18020000 		.4byte	.LFE71-.LFB71
 3194 0018 00000000 		.4byte	.LFB72
 3195 001c 2E010000 		.4byte	.LFE72-.LFB72
 3196 0020 00000000 		.4byte	.LFB69
 3197 0024 72000000 		.4byte	.LFE69-.LFB69
 3198 0028 00000000 		.4byte	.LFB70
 3199 002c 1E000000 		.4byte	.LFE70-.LFB70
 3200 0030 00000000 		.4byte	0
 3201 0034 00000000 		.4byte	0
 3202              		.section	.debug_ranges,"",%progbits
 3203              	.Ldebug_ranges0:
 3204 0000 64000000 		.4byte	.LBB12
 3205 0004 82000000 		.4byte	.LBE12
 3206 0008 EA010000 		.4byte	.LBB27
 3207 000c F2010000 		.4byte	.LBE27
 3208 0010 00000000 		.4byte	0
 3209 0014 00000000 		.4byte	0
 3210 0018 DE000000 		.4byte	.LBB15
 3211 001c 04010000 		.4byte	.LBE15
 3212 0020 92010000 		.4byte	.LBB26
 3213 0024 9C010000 		.4byte	.LBE26
 3214 0028 F2010000 		.4byte	.LBB28
 3215 002c 06020000 		.4byte	.LBE28
 3216 0030 00000000 		.4byte	0
 3217 0034 00000000 		.4byte	0
 3218 0038 18010000 		.4byte	.LBB19
 3219 003c 1A010000 		.4byte	.LBE19
 3220 0040 1C010000 		.4byte	.LBB24
 3221 0044 3C010000 		.4byte	.LBE24
 3222 0048 5A010000 		.4byte	.LBB25
 3223 004c 5C010000 		.4byte	.LBE25
 3224 0050 06020000 		.4byte	.LBB29
 3225 0054 18020000 		.4byte	.LBE29
 3226 0058 00000000 		.4byte	0
 3227 005c 00000000 		.4byte	0
 3228 0060 36000000 		.4byte	.LBB36
 3229 0064 86000000 		.4byte	.LBE36
 3230 0068 E6000000 		.4byte	.LBB45
 3231 006c 24010000 		.4byte	.LBE45
 3232 0070 00000000 		.4byte	0
 3233 0074 00000000 		.4byte	0
 3234 0078 36000000 		.4byte	.LBB38
 3235 007c 86000000 		.4byte	.LBE38
 3236 0080 F2000000 		.4byte	.LBB42
 3237 0084 F4000000 		.4byte	.LBE42
 3238 0088 F6000000 		.4byte	.LBB43
 3239 008c 24010000 		.4byte	.LBE43
 3240 0090 00000000 		.4byte	0
ARM GAS  /tmp/ccVE4ZNw.s 			page 58


 3241 0094 00000000 		.4byte	0
 3242 0098 00000000 		.4byte	.LFB71
 3243 009c 18020000 		.4byte	.LFE71
 3244 00a0 00000000 		.4byte	.LFB72
 3245 00a4 2E010000 		.4byte	.LFE72
 3246 00a8 00000000 		.4byte	.LFB69
 3247 00ac 72000000 		.4byte	.LFE69
 3248 00b0 00000000 		.4byte	.LFB70
 3249 00b4 1E000000 		.4byte	.LFE70
 3250 00b8 00000000 		.4byte	0
 3251 00bc 00000000 		.4byte	0
 3252              		.section	.debug_line,"",%progbits
 3253              	.Ldebug_line0:
 3254 0000 14030000 		.section	.debug_str,"MS",%progbits,1
 3254      0200E601 
 3254      00000201 
 3254      FB0E0D00 
 3254      01010101 
 3255              	.LASF75:
 3256 0000 7264796D 		.ascii	"rdymsg\000"
 3256      736700
 3257              	.LASF24:
 3258 0007 75696E74 		.ascii	"uint64_t\000"
 3258      36345F74 
 3258      00
 3259              	.LASF5:
 3260 0010 5F5F7569 		.ascii	"__uint8_t\000"
 3260      6E74385F 
 3260      7400
 3261              	.LASF65:
 3262 001a 6D656D67 		.ascii	"memgetfunc_t\000"
 3262      65746675 
 3262      6E635F74 
 3262      00
 3263              	.LASF90:
 3264 0027 6B566578 		.ascii	"kVexSensorDigital_3\000"
 3264      53656E73 
 3264      6F724469 
 3264      67697461 
 3264      6C5F3300 
 3265              	.LASF127:
 3266 003b 66617374 		.ascii	"fastlog2\000"
 3266      6C6F6732 
 3266      00
 3267              	.LASF55:
 3268 0044 54687265 		.ascii	"ThreadsQueue\000"
 3268      61647351 
 3268      75657565 
 3268      00
 3269              	.LASF76:
 3270 0051 65786974 		.ascii	"exitcode\000"
 3270      636F6465 
 3270      00
 3271              	.LASF69:
 3272 005a 685F6672 		.ascii	"h_free\000"
 3272      656500
 3273              	.LASF86:
ARM GAS  /tmp/ccVE4ZNw.s 			page 59


 3274 0061 6B566578 		.ascii	"kVexSensorAnalog_7\000"
 3274      53656E73 
 3274      6F72416E 
 3274      616C6F67 
 3274      5F3700
 3275              	.LASF71:
 3276 0074 6E657874 		.ascii	"next\000"
 3276      00
 3277              	.LASF38:
 3278 0079 705F7072 		.ascii	"p_prio\000"
 3278      696F00
 3279              	.LASF21:
 3280 0080 696E7431 		.ascii	"int16_t\000"
 3280      365F7400 
 3281              	.LASF13:
 3282 0088 6C6F6E67 		.ascii	"long long int\000"
 3282      206C6F6E 
 3282      6720696E 
 3282      7400
 3283              	.LASF3:
 3284 0096 7369676E 		.ascii	"signed char\000"
 3284      65642063 
 3284      68617200 
 3285              	.LASF70:
 3286 00a2 685F6D74 		.ascii	"h_mtx\000"
 3286      7800
 3287              	.LASF12:
 3288 00a8 6C6F6E67 		.ascii	"long unsigned int\000"
 3288      20756E73 
 3288      69676E65 
 3288      6420696E 
 3288      7400
 3289              	.LASF54:
 3290 00ba 705F6D70 		.ascii	"p_mpool\000"
 3290      6F6F6C00 
 3291              	.LASF25:
 3292 00c2 626F6F6C 		.ascii	"bool_t\000"
 3292      5F7400
 3293              	.LASF62:
 3294 00c9 6D5F7175 		.ascii	"m_queue\000"
 3294      65756500 
 3295              	.LASF30:
 3296 00d1 74736C69 		.ascii	"tslices_t\000"
 3296      6365735F 
 3296      7400
 3297              	.LASF141:
 3298 00db 2E2E2F2E 		.ascii	"../../opt/pidlib.c\000"
 3298      2E2F6F70 
 3298      742F7069 
 3298      646C6962 
 3298      2E6300
 3299              	.LASF10:
 3300 00ee 6C6F6E67 		.ascii	"long int\000"
 3300      20696E74 
 3300      00
 3301              	.LASF111:
 3302 00f7 72657331 		.ascii	"res1\000"
ARM GAS  /tmp/ccVE4ZNw.s 			page 60


 3302      00
 3303              	.LASF115:
 3304 00fc 696E7465 		.ascii	"integral\000"
 3304      6772616C 
 3304      00
 3305              	.LASF27:
 3306 0105 746D6F64 		.ascii	"tmode_t\000"
 3306      655F7400 
 3307              	.LASF28:
 3308 010d 74737461 		.ascii	"tstate_t\000"
 3308      74655F74 
 3308      00
 3309              	.LASF108:
 3310 0116 74566578 		.ascii	"tVexSensors\000"
 3310      53656E73 
 3310      6F727300 
 3311              	.LASF1:
 3312 0122 73686F72 		.ascii	"short int\000"
 3312      7420696E 
 3312      7400
 3313              	.LASF18:
 3314 012c 646F7562 		.ascii	"double\000"
 3314      6C6500
 3315              	.LASF126:
 3316 0133 70696443 		.ascii	"pidController\000"
 3316      6F6E7472 
 3316      6F6C6C65 
 3316      7200
 3317              	.LASF40:
 3318 0141 705F6E65 		.ascii	"p_newer\000"
 3318      77657200 
 3319              	.LASF81:
 3320 0149 6B566578 		.ascii	"kVexSensorAnalog_2\000"
 3320      53656E73 
 3320      6F72416E 
 3320      616C6F67 
 3320      5F3200
 3321              	.LASF83:
 3322 015c 6B566578 		.ascii	"kVexSensorAnalog_4\000"
 3322      53656E73 
 3322      6F72416E 
 3322      616C6F67 
 3322      5F3400
 3323              	.LASF11:
 3324 016f 5F5F7569 		.ascii	"__uint32_t\000"
 3324      6E743332 
 3324      5F7400
 3325              	.LASF57:
 3326 017a 72656761 		.ascii	"regarm_t\000"
 3326      726D5F74 
 3326      00
 3327              	.LASF7:
 3328 0183 5F5F696E 		.ascii	"__int16_t\000"
 3328      7431365F 
 3328      7400
 3329              	.LASF4:
 3330 018d 73697A65 		.ascii	"size_t\000"
ARM GAS  /tmp/ccVE4ZNw.s 			page 61


 3330      5F7400
 3331              	.LASF35:
 3332 0194 54687265 		.ascii	"Thread\000"
 3332      616400
 3333              	.LASF134:
 3334 019b 706F7274 		.ascii	"port\000"
 3334      00
 3335              	.LASF15:
 3336 01a0 6C6F6E67 		.ascii	"long long unsigned int\000"
 3336      206C6F6E 
 3336      6720756E 
 3336      7369676E 
 3336      65642069 
 3337              	.LASF73:
 3338 01b7 616C6967 		.ascii	"align\000"
 3338      6E00
 3339              	.LASF2:
 3340 01bd 756E7369 		.ascii	"unsigned int\000"
 3340      676E6564 
 3340      20696E74 
 3340      00
 3341              	.LASF49:
 3342 01ca 705F6D73 		.ascii	"p_msgqueue\000"
 3342      67717565 
 3342      756500
 3343              	.LASF132:
 3344 01d5 50696443 		.ascii	"PidControllerUpdate\000"
 3344      6F6E7472 
 3344      6F6C6C65 
 3344      72557064 
 3344      61746500 
 3345              	.LASF139:
 3346 01e9 76657853 		.ascii	"vexSensorIsAnalog\000"
 3346      656E736F 
 3346      72497341 
 3346      6E616C6F 
 3346      6700
 3347              	.LASF142:
 3348 01fb 2F6D6E74 		.ascii	"/mnt/c/Users/DQ Sullivan/Downloads/Convex/convex/co"
 3348      2F632F55 
 3348      73657273 
 3348      2F445120 
 3348      53756C6C 
 3349 022e 72746578 		.ascii	"rtex/projects/Vex2016 CyberBrains\000"
 3349      2F70726F 
 3349      6A656374 
 3349      732F5665 
 3349      78323031 
 3350              	.LASF140:
 3351 0250 474E5520 		.ascii	"GNU C 4.8.2 -mcpu=cortex-m3 -mno-thumb-interwork -m"
 3351      4320342E 
 3351      382E3220 
 3351      2D6D6370 
 3351      753D636F 
 3352 0283 7468756D 		.ascii	"thumb -ggdb -O2 -fomit-frame-pointer -falign-functi"
 3352      62202D67 
 3352      67646220 
ARM GAS  /tmp/ccVE4ZNw.s 			page 62


 3352      2D4F3220 
 3352      2D666F6D 
 3353 02b6 6F6E733D 		.ascii	"ons=16 -ffunction-sections -fdata-sections -fno-com"
 3353      3136202D 
 3353      6666756E 
 3353      6374696F 
 3353      6E2D7365 
 3354 02e9 6D6F6E00 		.ascii	"mon\000"
 3355              	.LASF98:
 3356 02ed 6B566578 		.ascii	"kVexSensorDigital_11\000"
 3356      53656E73 
 3356      6F724469 
 3356      67697461 
 3356      6C5F3131 
 3357              	.LASF60:
 3358 0302 636F6E74 		.ascii	"context\000"
 3358      65787400 
 3359              	.LASF74:
 3360 030a 73697A65 		.ascii	"size\000"
 3360      00
 3361              	.LASF8:
 3362 030f 73686F72 		.ascii	"short unsigned int\000"
 3362      7420756E 
 3362      7369676E 
 3362      65642069 
 3362      6E7400
 3363              	.LASF32:
 3364 0322 6D73675F 		.ascii	"msg_t\000"
 3364      7400
 3365              	.LASF79:
 3366 0328 6B566578 		.ascii	"kVexSensorUndefined\000"
 3366      53656E73 
 3366      6F72556E 
 3366      64656669 
 3366      6E656400 
 3367              	.LASF128:
 3368 033c 66617374 		.ascii	"fastpow\000"
 3368      706F7700 
 3369              	.LASF80:
 3370 0344 6B566578 		.ascii	"kVexSensorAnalog_1\000"
 3370      53656E73 
 3370      6F72416E 
 3370      616C6F67 
 3370      5F3100
 3371              	.LASF56:
 3372 0357 54687265 		.ascii	"ThreadsList\000"
 3372      6164734C 
 3372      69737400 
 3373              	.LASF82:
 3374 0363 6B566578 		.ascii	"kVexSensorAnalog_3\000"
 3374      53656E73 
 3374      6F72416E 
 3374      616C6F67 
 3374      5F3300
 3375              	.LASF33:
 3376 0376 6576656E 		.ascii	"eventmask_t\000"
 3376      746D6173 
ARM GAS  /tmp/ccVE4ZNw.s 			page 63


 3376      6B5F7400 
 3377              	.LASF84:
 3378 0382 6B566578 		.ascii	"kVexSensorAnalog_5\000"
 3378      53656E73 
 3378      6F72416E 
 3378      616C6F67 
 3378      5F3500
 3379              	.LASF85:
 3380 0395 6B566578 		.ascii	"kVexSensorAnalog_6\000"
 3380      53656E73 
 3380      6F72416E 
 3380      616C6F67 
 3380      5F3600
 3381              	.LASF61:
 3382 03a8 4D757465 		.ascii	"Mutex\000"
 3382      7800
 3383              	.LASF87:
 3384 03ae 6B566578 		.ascii	"kVexSensorAnalog_8\000"
 3384      53656E73 
 3384      6F72416E 
 3384      616C6F67 
 3384      5F3800
 3385              	.LASF58:
 3386 03c1 73746B61 		.ascii	"stkalign_t\000"
 3386      6C69676E 
 3386      5F7400
 3387              	.LASF116:
 3388 03cc 696E7465 		.ascii	"integral_limit\000"
 3388      6772616C 
 3388      5F6C696D 
 3388      697400
 3389              	.LASF122:
 3390 03db 73656E73 		.ascii	"sensor_port\000"
 3390      6F725F70 
 3390      6F727400 
 3391              	.LASF119:
 3392 03e7 64726976 		.ascii	"drive\000"
 3392      6500
 3393              	.LASF16:
 3394 03ed 73697A65 		.ascii	"sizetype\000"
 3394      74797065 
 3394      00
 3395              	.LASF118:
 3396 03f6 6572726F 		.ascii	"error_threshold\000"
 3396      725F7468 
 3396      72657368 
 3396      6F6C6400 
 3397              	.LASF67:
 3398 0406 6D656D6F 		.ascii	"memory_heap\000"
 3398      72795F68 
 3398      65617000 
 3399              	.LASF41:
 3400 0412 705F6F6C 		.ascii	"p_older\000"
 3400      64657200 
 3401              	.LASF97:
 3402 041a 6B566578 		.ascii	"kVexSensorDigital_10\000"
 3402      53656E73 
ARM GAS  /tmp/ccVE4ZNw.s 			page 64


 3402      6F724469 
 3402      67697461 
 3402      6C5F3130 
 3403              	.LASF99:
 3404 042f 6B566578 		.ascii	"kVexSensorDigital_12\000"
 3404      53656E73 
 3404      6F724469 
 3404      67697461 
 3404      6C5F3132 
 3405              	.LASF66:
 3406 0444 4D656D6F 		.ascii	"MemoryHeap\000"
 3406      72794865 
 3406      617000
 3407              	.LASF46:
 3408 044f 705F7072 		.ascii	"p_preempt\000"
 3408      65656D70 
 3408      7400
 3409              	.LASF14:
 3410 0459 5F5F7569 		.ascii	"__uint64_t\000"
 3410      6E743634 
 3410      5F7400
 3411              	.LASF0:
 3412 0464 666C6F61 		.ascii	"float\000"
 3412      7400
 3413              	.LASF113:
 3414 046a 6572726F 		.ascii	"error\000"
 3414      7200
 3415              	.LASF136:
 3416 0470 6E657874 		.ascii	"nextPidControllerPtr\000"
 3416      50696443 
 3416      6F6E7472 
 3416      6F6C6C65 
 3416      72507472 
 3417              	.LASF29:
 3418 0485 74726566 		.ascii	"trefs_t\000"
 3418      735F7400 
 3419              	.LASF37:
 3420 048d 705F7072 		.ascii	"p_prev\000"
 3420      657600
 3421              	.LASF31:
 3422 0494 74707269 		.ascii	"tprio_t\000"
 3422      6F5F7400 
 3423              	.LASF137:
 3424 049c 50696444 		.ascii	"PidDriveLut\000"
 3424      72697665 
 3424      4C757400 
 3425              	.LASF26:
 3426 04a8 5F426F6F 		.ascii	"_Bool\000"
 3426      6C00
 3427              	.LASF22:
 3428 04ae 696E7433 		.ascii	"int32_t\000"
 3428      325F7400 
 3429              	.LASF6:
 3430 04b6 756E7369 		.ascii	"unsigned char\000"
 3430      676E6564 
 3430      20636861 
 3430      7200
ARM GAS  /tmp/ccVE4ZNw.s 			page 65


 3431              	.LASF143:
 3432 04c4 68656170 		.ascii	"heap_header\000"
 3432      5F686561 
 3432      64657200 
 3433              	.LASF145:
 3434 04d0 49544D5F 		.ascii	"ITM_RxBuffer\000"
 3434      52784275 
 3434      66666572 
 3434      00
 3435              	.LASF123:
 3436 04dd 73656E73 		.ascii	"sensor_reverse\000"
 3436      6F725F72 
 3436      65766572 
 3436      736500
 3437              	.LASF43:
 3438 04ec 705F7374 		.ascii	"p_state\000"
 3438      61746500 
 3439              	.LASF52:
 3440 04f4 705F6D74 		.ascii	"p_mtxlist\000"
 3440      786C6973 
 3440      7400
 3441              	.LASF117:
 3442 04fe 64657269 		.ascii	"derivative\000"
 3442      76617469 
 3442      766500
 3443              	.LASF133:
 3444 0509 50696443 		.ascii	"PidControllerInit\000"
 3444      6F6E7472 
 3444      6F6C6C65 
 3444      72496E69 
 3444      7400
 3445              	.LASF144:
 3446 051b 50696443 		.ascii	"PidControllerMakeLut\000"
 3446      6F6E7472 
 3446      6F6C6C65 
 3446      724D616B 
 3446      654C7574 
 3447              	.LASF78:
 3448 0530 65776D61 		.ascii	"ewmask\000"
 3448      736B00
 3449              	.LASF36:
 3450 0537 705F6E65 		.ascii	"p_next\000"
 3450      787400
 3451              	.LASF109:
 3452 053e 5F706964 		.ascii	"_pidController\000"
 3452      436F6E74 
 3452      726F6C6C 
 3452      657200
 3453              	.LASF44:
 3454 054d 705F666C 		.ascii	"p_flags\000"
 3454      61677300 
 3455              	.LASF120:
 3456 0555 64726976 		.ascii	"drive_raw\000"
 3456      655F7261 
 3456      7700
 3457              	.LASF146:
 3458 055f 63684865 		.ascii	"chHeapAlloc\000"
ARM GAS  /tmp/ccVE4ZNw.s 			page 66


 3458      6170416C 
 3458      6C6F6300 
 3459              	.LASF51:
 3460 056b 705F6570 		.ascii	"p_epending\000"
 3460      656E6469 
 3460      6E6700
 3461              	.LASF114:
 3462 0576 6C617374 		.ascii	"last_error\000"
 3462      5F657272 
 3462      6F7200
 3463              	.LASF129:
 3464 0581 66617374 		.ascii	"fastpow2\000"
 3464      706F7732 
 3464      00
 3465              	.LASF23:
 3466 058a 75696E74 		.ascii	"uint32_t\000"
 3466      33325F74 
 3466      00
 3467              	.LASF110:
 3468 0593 656E6162 		.ascii	"enabled\000"
 3468      6C656400 
 3469              	.LASF72:
 3470 059b 68656170 		.ascii	"heap\000"
 3470      00
 3471              	.LASF19:
 3472 05a0 6C6F6E67 		.ascii	"long double\000"
 3472      20646F75 
 3472      626C6500 
 3473              	.LASF131:
 3474 05ac 636C6970 		.ascii	"clipp\000"
 3474      7000
 3475              	.LASF17:
 3476 05b2 63686172 		.ascii	"char\000"
 3476      00
 3477              	.LASF64:
 3478 05b7 6D5F6E65 		.ascii	"m_next\000"
 3478      787400
 3479              	.LASF34:
 3480 05be 73797374 		.ascii	"systime_t\000"
 3480      696D655F 
 3480      7400
 3481              	.LASF53:
 3482 05c8 705F7265 		.ascii	"p_realprio\000"
 3482      616C7072 
 3482      696F00
 3483              	.LASF9:
 3484 05d3 5F5F696E 		.ascii	"__int32_t\000"
 3484      7433325F 
 3484      7400
 3485              	.LASF125:
 3486 05dd 74617267 		.ascii	"target_value\000"
 3486      65745F76 
 3486      616C7565 
 3486      00
 3487              	.LASF112:
 3488 05ea 4B626961 		.ascii	"Kbias\000"
 3488      7300
ARM GAS  /tmp/ccVE4ZNw.s 			page 67


 3489              	.LASF135:
 3490 05f0 50696443 		.ascii	"PidControllerInitWithBias\000"
 3490      6F6E7472 
 3490      6F6C6C65 
 3490      72496E69 
 3490      74576974 
 3491              	.LASF130:
 3492 060a 6F666673 		.ascii	"offset\000"
 3492      657400
 3493              	.LASF47:
 3494 0611 705F7469 		.ascii	"p_time\000"
 3494      6D6500
 3495              	.LASF59:
 3496 0618 696E7463 		.ascii	"intctx\000"
 3496      747800
 3497              	.LASF88:
 3498 061f 6B566578 		.ascii	"kVexSensorDigital_1\000"
 3498      53656E73 
 3498      6F724469 
 3498      67697461 
 3498      6C5F3100 
 3499              	.LASF89:
 3500 0633 6B566578 		.ascii	"kVexSensorDigital_2\000"
 3500      53656E73 
 3500      6F724469 
 3500      67697461 
 3500      6C5F3200 
 3501              	.LASF124:
 3502 0647 73656E73 		.ascii	"sensor_value\000"
 3502      6F725F76 
 3502      616C7565 
 3502      00
 3503              	.LASF91:
 3504 0654 6B566578 		.ascii	"kVexSensorDigital_4\000"
 3504      53656E73 
 3504      6F724469 
 3504      67697461 
 3504      6C5F3400 
 3505              	.LASF92:
 3506 0668 6B566578 		.ascii	"kVexSensorDigital_5\000"
 3506      53656E73 
 3506      6F724469 
 3506      67697461 
 3506      6C5F3500 
 3507              	.LASF93:
 3508 067c 6B566578 		.ascii	"kVexSensorDigital_6\000"
 3508      53656E73 
 3508      6F724469 
 3508      67697461 
 3508      6C5F3600 
 3509              	.LASF94:
 3510 0690 6B566578 		.ascii	"kVexSensorDigital_7\000"
 3510      53656E73 
 3510      6F724469 
 3510      67697461 
 3510      6C5F3700 
 3511              	.LASF95:
ARM GAS  /tmp/ccVE4ZNw.s 			page 68


 3512 06a4 6B566578 		.ascii	"kVexSensorDigital_8\000"
 3512      53656E73 
 3512      6F724469 
 3512      67697461 
 3512      6C5F3800 
 3513              	.LASF96:
 3514 06b8 6B566578 		.ascii	"kVexSensorDigital_9\000"
 3514      53656E73 
 3514      6F724469 
 3514      67697461 
 3514      6C5F3900 
 3515              	.LASF45:
 3516 06cc 705F7265 		.ascii	"p_refs\000"
 3516      667300
 3517              	.LASF20:
 3518 06d3 75696E74 		.ascii	"uint8_t\000"
 3518      385F7400 
 3519              	.LASF68:
 3520 06db 685F7072 		.ascii	"h_provider\000"
 3520      6F766964 
 3520      657200
 3521              	.LASF77:
 3522 06e6 77746F62 		.ascii	"wtobjp\000"
 3522      6A7000
 3523              	.LASF42:
 3524 06ed 705F6E61 		.ascii	"p_name\000"
 3524      6D6500
 3525              	.LASF100:
 3526 06f4 6B566578 		.ascii	"kVexSensorIme_1\000"
 3526      53656E73 
 3526      6F72496D 
 3526      655F3100 
 3527              	.LASF101:
 3528 0704 6B566578 		.ascii	"kVexSensorIme_2\000"
 3528      53656E73 
 3528      6F72496D 
 3528      655F3200 
 3529              	.LASF102:
 3530 0714 6B566578 		.ascii	"kVexSensorIme_3\000"
 3530      53656E73 
 3530      6F72496D 
 3530      655F3300 
 3531              	.LASF103:
 3532 0724 6B566578 		.ascii	"kVexSensorIme_4\000"
 3532      53656E73 
 3532      6F72496D 
 3532      655F3400 
 3533              	.LASF104:
 3534 0734 6B566578 		.ascii	"kVexSensorIme_5\000"
 3534      53656E73 
 3534      6F72496D 
 3534      655F3500 
 3535              	.LASF105:
 3536 0744 6B566578 		.ascii	"kVexSensorIme_6\000"
 3536      53656E73 
 3536      6F72496D 
 3536      655F3600 
ARM GAS  /tmp/ccVE4ZNw.s 			page 69


 3537              	.LASF106:
 3538 0754 6B566578 		.ascii	"kVexSensorIme_7\000"
 3538      53656E73 
 3538      6F72496D 
 3538      655F3700 
 3539              	.LASF107:
 3540 0764 6B566578 		.ascii	"kVexSensorIme_8\000"
 3540      53656E73 
 3540      6F72496D 
 3540      655F3800 
 3541              	.LASF50:
 3542 0774 705F6D73 		.ascii	"p_msg\000"
 3542      6700
 3543              	.LASF121:
 3544 077a 64726976 		.ascii	"drive_cmd\000"
 3544      655F636D 
 3544      6400
 3545              	.LASF63:
 3546 0784 6D5F6F77 		.ascii	"m_owner\000"
 3546      6E657200 
 3547              	.LASF39:
 3548 078c 705F6374 		.ascii	"p_ctx\000"
 3548      7800
 3549              	.LASF48:
 3550 0792 705F7761 		.ascii	"p_waiting\000"
 3550      6974696E 
 3550      6700
 3551              	.LASF138:
 3552 079c 76657853 		.ascii	"vexSensorValueGet\000"
 3552      656E736F 
 3552      7256616C 
 3552      75654765 
 3552      7400
 3553              		.ident	"GCC: (4.8.2-14ubuntu1+6) 4.8.2"
ARM GAS  /tmp/ccVE4ZNw.s 			page 70


DEFINED SYMBOLS
                            *ABS*:0000000000000000 pidlib.c
     /tmp/ccVE4ZNw.s:30     .text.PidControllerUpdate:0000000000000000 $t
     /tmp/ccVE4ZNw.s:36     .text.PidControllerUpdate:0000000000000000 PidControllerUpdate
     /tmp/ccVE4ZNw.s:795    .bss.PidDriveLut:0000000000000000 .LANCHOR0
     /tmp/ccVE4ZNw.s:415    .text.PidControllerUpdate:0000000000000210 $d
     /tmp/ccVE4ZNw.s:428    .text.PidControllerMakeLut:0000000000000000 $t
     /tmp/ccVE4ZNw.s:434    .text.PidControllerMakeLut:0000000000000000 PidControllerMakeLut
     /tmp/ccVE4ZNw.s:636    .text.PidControllerInit:0000000000000000 $t
     /tmp/ccVE4ZNw.s:642    .text.PidControllerInit:0000000000000000 PidControllerInit
     /tmp/ccVE4ZNw.s:750    .text.PidControllerInitWithBias:0000000000000000 $t
     /tmp/ccVE4ZNw.s:756    .text.PidControllerInitWithBias:0000000000000000 PidControllerInitWithBias
     /tmp/ccVE4ZNw.s:794    .bss.PidDriveLut:0000000000000000 $d
     /tmp/ccVE4ZNw.s:798    .bss.PidDriveLut:0000000000000000 PidDriveLut
                     .debug_frame:0000000000000010 $d
     /tmp/ccVE4ZNw.s:427    .text.PidControllerUpdate:0000000000000218 $t

UNDEFINED SYMBOLS
__aeabi_i2f
__aeabi_fcmplt
__aeabi_fcmpeq
__aeabi_fadd
__aeabi_fcmpgt
__aeabi_fmul
__aeabi_fsub
__aeabi_f2d
__aeabi_dmul
__aeabi_d2iz
__aeabi_f2iz
vexSensorValueGet
vexSensorIsAnalog
__aeabi_fdiv
__aeabi_f2uiz
__aeabi_dsub
__aeabi_ddiv
__aeabi_dadd
chHeapAlloc
