ARM GAS  /tmp/ccdHOckY.s 			page 1


   1              		.syntax unified
   2              		.cpu cortex-m3
   3              		.fpu softvfp
   4              		.eabi_attribute 20, 1
   5              		.eabi_attribute 21, 1
   6              		.eabi_attribute 23, 3
   7              		.eabi_attribute 24, 1
   8              		.eabi_attribute 25, 1
   9              		.eabi_attribute 26, 1
  10              		.eabi_attribute 30, 2
  11              		.eabi_attribute 34, 1
  12              		.eabi_attribute 18, 4
  13              		.thumb
  14              		.file	"robotc_glue.c"
  15              		.text
  16              	.Ltext0:
  17              		.cfi_sections	.debug_frame
  18              		.section	.text.vexRobotcTask,"ax",%progbits
  19              		.align	2
  20              		.p2align 4,,15
  21              		.thumb
  22              		.thumb_func
  23              		.type	vexRobotcTask, %function
  24              	vexRobotcTask:
  25              	.LFB63:
  26              		.file 1 "../../opt/robotc_glue.c"
  27              		.loc 1 84 0
  28              		.cfi_startproc
  29              		@ args = 0, pretend = 0, frame = 0
  30              		@ frame_needed = 0, uses_anonymous_args = 0
  31              	.LVL0:
  32 0000 10B5     		push	{r4, lr}
  33              		.cfi_def_cfa_offset 8
  34              		.cfi_offset 4, -8
  35              		.cfi_offset 14, -4
  36              		.loc 1 86 0
  37 0002 0446     		mov	r4, r0
  38 0004 40B1     		cbz	r0, .L3
  39              	.LVL1:
  40              	.LBB2:
  41              		.loc 1 90 0
  42 0006 40F20000 		movw	r0, #:lower16:.LC0
  43              	.LVL2:
  44 000a C0F20000 		movt	r0, #:upper16:.LC0
  45 000e FFF7FEFF 		bl	vexTaskRegister
  46              	.LVL3:
  47              		.loc 1 93 0
  48 0012 0020     		movs	r0, #0
  49 0014 A047     		blx	r4
  50              	.LVL4:
  51 0016 10BD     		pop	{r4, pc}
  52              	.LVL5:
  53              	.L3:
  54              	.LBE2:
  55              		.loc 1 97 0
  56 0018 10BD     		pop	{r4, pc}
  57              		.cfi_endproc
ARM GAS  /tmp/ccdHOckY.s 			page 2


  58              	.LFE63:
  59              		.size	vexRobotcTask, .-vexRobotcTask
  60 001a 00BFAFF3 		.section	.text.StartTaskWithPriority,"ax",%progbits
  60      0080
  61              		.align	2
  62              		.p2align 4,,15
  63              		.global	StartTaskWithPriority
  64              		.thumb
  65              		.thumb_func
  66              		.type	StartTaskWithPriority, %function
  67              	StartTaskWithPriority:
  68              	.LFB64:
  69              		.loc 1 107 0
  70              		.cfi_startproc
  71              		@ args = 4, pretend = 12, frame = 0
  72              		@ frame_needed = 0, uses_anonymous_args = 1
  73              	.LVL6:
  74 0000 0EB4     		push	{r1, r2, r3}
  75              		.cfi_def_cfa_offset 12
  76              		.cfi_offset 1, -12
  77              		.cfi_offset 2, -8
  78              		.cfi_offset 3, -4
  79 0002 70B5     		push	{r4, r5, r6, lr}
  80              		.cfi_def_cfa_offset 28
  81              		.cfi_offset 4, -28
  82              		.cfi_offset 5, -24
  83              		.cfi_offset 6, -20
  84              		.cfi_offset 14, -16
  85              		.loc 1 113 0
  86 0004 40F20006 		movw	r6, #:lower16:.LANCHOR0
  87 0008 C0F20006 		movt	r6, #:upper16:.LANCHOR0
  88 000c 3378     		ldrb	r3, [r6]	@ zero_extendqisi2
  89 000e 40F20004 		movw	r4, #:lower16:.LANCHOR1
  90              		.loc 1 107 0
  91 0012 83B0     		sub	sp, sp, #12
  92              		.cfi_def_cfa_offset 40
  93              		.loc 1 107 0
  94 0014 0546     		mov	r5, r0
  95 0016 C0F20004 		movt	r4, #:upper16:.LANCHOR1
  96              		.loc 1 113 0
  97 001a 73B1     		cbz	r3, .L6
  98 001c 0023     		movs	r3, #0
  99 001e 40F20004 		movw	r4, #:lower16:.LANCHOR1
 100              		.loc 1 117 0
 101 0022 1A46     		mov	r2, r3
 102 0024 C0F20004 		movt	r4, #:upper16:.LANCHOR1
 103              	.L8:
 104 0028 E118     		adds	r1, r4, r3
 105              		.loc 1 117 0 is_stmt 0 discriminator 2
 106 002a E250     		str	r2, [r4, r3]
 107 002c 0833     		adds	r3, r3, #8
 108              		.loc 1 115 0 is_stmt 1 discriminator 2
 109 002e 502B     		cmp	r3, #80
 110              		.loc 1 118 0 discriminator 2
 111 0030 4A60     		str	r2, [r1, #4]
 112              	.LVL7:
 113              		.loc 1 117 0 discriminator 2
ARM GAS  /tmp/ccdHOckY.s 			page 3


 114 0032 4FF00001 		mov	r1, #0
 115              		.loc 1 115 0 discriminator 2
 116 0036 F7D1     		bne	.L8
 117              		.loc 1 121 0
 118 0038 3170     		strb	r1, [r6]
 119              	.L6:
 120              	.LVL8:
 121              		.loc 1 113 0
 122 003a 0023     		movs	r3, #0
 123              	.LVL9:
 124              	.L12:
 125              		.loc 1 127 0
 126 003c E258     		ldr	r2, [r4, r3]
 127 003e 0833     		adds	r3, r3, #8
 128 0040 AA42     		cmp	r2, r5
 129 0042 07D0     		beq	.L14
 130              		.loc 1 125 0
 131 0044 502B     		cmp	r3, #80
 132 0046 F9D1     		bne	.L12
 133 0048 0023     		movs	r3, #0
 134              	.L15:
 135              		.loc 1 134 0
 136 004a E658     		ldr	r6, [r4, r3]
 137 004c 0833     		adds	r3, r3, #8
 138 004e 3EB1     		cbz	r6, .L13
 139              		.loc 1 132 0
 140 0050 502B     		cmp	r3, #80
 141 0052 FAD1     		bne	.L15
 142              	.LVL10:
 143              	.L14:
 144              		.loc 1 128 0
 145 0054 0020     		movs	r0, #0
 146              	.L31:
 147              		.loc 1 162 0
 148 0056 03B0     		add	sp, sp, #12
 149              		@ sp needed
 150 0058 BDE87040 		pop	{r4, r5, r6, lr}
 151              	.LVL11:
 152 005c 03B0     		add	sp, sp, #12
 153 005e 7047     		bx	lr
 154              	.LVL12:
 155              	.L13:
 156              		.loc 1 144 0
 157 0060 40F20003 		movw	r3, #:lower16:vexRobotcTask
 158 0064 C0F20003 		movt	r3, #:upper16:vexRobotcTask
 159 0068 0095     		str	r5, [sp]
 160 006a 3046     		mov	r0, r6
 161              	.LVL13:
 162 006c 4FF43E71 		mov	r1, #760
 163 0070 079A     		ldr	r2, [sp, #28]
 164 0072 FFF7FEFF 		bl	chThdCreateFromHeap
 165              	.LVL14:
 166              		.loc 1 147 0
 167 0076 3346     		mov	r3, r6
 168 0078 18B9     		cbnz	r0, .L18
 169 007a EBE7     		b	.L14
 170              	.LVL15:
ARM GAS  /tmp/ccdHOckY.s 			page 4


 171              	.L16:
 172 007c 0133     		adds	r3, r3, #1
 173              	.LVL16:
 174              		.loc 1 150 0
 175 007e 0A2B     		cmp	r3, #10
 176 0080 E9D0     		beq	.L31
 177              	.LVL17:
 178              	.L18:
 179 0082 04EBC301 		add	r1, r4, r3, lsl #3
 180              		.loc 1 152 0
 181 0086 4E68     		ldr	r6, [r1, #4]
 182 0088 40F20002 		movw	r2, #:lower16:.LANCHOR1
 183 008c C0F20002 		movt	r2, #:upper16:.LANCHOR1
 184 0090 002E     		cmp	r6, #0
 185 0092 F3D1     		bne	.L16
 186              		.loc 1 154 0
 187 0094 4860     		str	r0, [r1, #4]
 188              		.loc 1 155 0
 189 0096 42F83350 		str	r5, [r2, r3, lsl #3]
 190              		.loc 1 162 0
 191 009a 03B0     		add	sp, sp, #12
 192              		@ sp needed
 193 009c BDE87040 		pop	{r4, r5, r6, lr}
 194              	.LVL18:
 195 00a0 03B0     		add	sp, sp, #12
 196 00a2 7047     		bx	lr
 197              		.cfi_endproc
 198              	.LFE64:
 199              		.size	StartTaskWithPriority, .-StartTaskWithPriority
 200 00a4 AFF30080 		.section	.text.StopTask,"ax",%progbits
 200      AFF30080 
 200      AFF30080 
 201              		.align	2
 202              		.p2align 4,,15
 203              		.global	StopTask
 204              		.thumb
 205              		.thumb_func
 206              		.type	StopTask, %function
 207              	StopTask:
 208              	.LFB65:
 209              		.loc 1 170 0
 210              		.cfi_startproc
 211              		@ args = 0, pretend = 0, frame = 0
 212              		@ frame_needed = 0, uses_anonymous_args = 0
 213              	.LVL19:
 214 0000 2DE9F84F 		push	{r3, r4, r5, r6, r7, r8, r9, r10, fp, lr}
 215              		.cfi_def_cfa_offset 40
 216              		.cfi_offset 3, -40
 217              		.cfi_offset 4, -36
 218              		.cfi_offset 5, -32
 219              		.cfi_offset 6, -28
 220              		.cfi_offset 7, -24
 221              		.cfi_offset 8, -20
 222              		.cfi_offset 9, -16
 223              		.cfi_offset 10, -12
 224              		.cfi_offset 11, -8
 225              		.cfi_offset 14, -4
ARM GAS  /tmp/ccdHOckY.s 			page 5


 226 0004 40F20005 		movw	r5, #:lower16:.LANCHOR1
 227 0008 C0F20005 		movt	r5, #:upper16:.LANCHOR1
 228              		.loc 1 170 0
 229 000c 0024     		movs	r4, #0
 230              		.loc 1 183 0
 231 000e 40F20008 		movw	r8, #:lower16:rlist
 232              		.loc 1 170 0
 233 0012 0646     		mov	r6, r0
 234              		.loc 1 176 0
 235 0014 AA46     		mov	r10, r5
 236              		.loc 1 193 0
 237 0016 A346     		mov	fp, r4
 238              		.loc 1 183 0
 239 0018 C0F20008 		movt	r8, #:upper16:rlist
 240 001c 02E0     		b	.L36
 241              	.LVL20:
 242              	.L33:
 243 001e 0834     		adds	r4, r4, #8
 244              		.loc 1 174 0
 245 0020 502C     		cmp	r4, #80
 246 0022 1CD0     		beq	.L32
 247              	.L36:
 248              		.loc 1 176 0
 249 0024 2B59     		ldr	r3, [r5, r4]
 250 0026 B342     		cmp	r3, r6
 251 0028 F9D1     		bne	.L33
 252 002a 0AEB0409 		add	r9, r10, r4
 253              		.loc 1 178 0
 254 002e D9F80470 		ldr	r7, [r9, #4]
 255              	.LVL21:
 256              		.loc 1 187 0
 257 0032 3846     		mov	r0, r7
 258              		.loc 1 178 0
 259 0034 002F     		cmp	r7, #0
 260 0036 F2D0     		beq	.L33
 261              		.loc 1 183 0
 262 0038 D8F81830 		ldr	r3, [r8, #24]
 263 003c 9F42     		cmp	r7, r3
 264 003e 0ED0     		beq	.L32
 265              		.loc 1 187 0
 266 0040 FFF7FEFF 		bl	chThdTerminate
 267              	.LVL22:
 268              		.loc 1 189 0
 269 0044 3846     		mov	r0, r7
 270 0046 FFF7FEFF 		bl	chThdResume
 271              	.LVL23:
 272              		.loc 1 191 0
 273 004a 3846     		mov	r0, r7
 274 004c FFF7FEFF 		bl	chThdWait
 275              	.LVL24:
 276              		.loc 1 193 0
 277 0050 C9F804B0 		str	fp, [r9, #4]
 278              		.loc 1 194 0
 279 0054 44F80AB0 		str	fp, [r4, r10]
 280 0058 0834     		adds	r4, r4, #8
 281              		.loc 1 174 0
 282 005a 502C     		cmp	r4, #80
ARM GAS  /tmp/ccdHOckY.s 			page 6


 283 005c E2D1     		bne	.L36
 284              	.LVL25:
 285              	.L32:
 286 005e BDE8F88F 		pop	{r3, r4, r5, r6, r7, r8, r9, r10, fp, pc}
 287              		.cfi_endproc
 288              	.LFE65:
 289              		.size	StopTask, .-StopTask
 290 0062 00BFAFF3 		.section	.text.CleanupTask,"ax",%progbits
 290      0080AFF3 
 290      0080AFF3 
 290      0080
 291              		.align	2
 292              		.p2align 4,,15
 293              		.global	CleanupTask
 294              		.thumb
 295              		.thumb_func
 296              		.type	CleanupTask, %function
 297              	CleanupTask:
 298              	.LFB66:
 299              		.loc 1 208 0
 300              		.cfi_startproc
 301              		@ args = 0, pretend = 0, frame = 0
 302              		@ frame_needed = 0, uses_anonymous_args = 0
 303              		@ link register save eliminated.
 304              	.LVL26:
 305 0000 70B4     		push	{r4, r5, r6}
 306              		.cfi_def_cfa_offset 12
 307              		.cfi_offset 4, -12
 308              		.cfi_offset 5, -8
 309              		.cfi_offset 6, -4
 310 0002 40F20004 		movw	r4, #:lower16:.LANCHOR1
 311 0006 C0F20004 		movt	r4, #:upper16:.LANCHOR1
 312              		.loc 1 208 0
 313 000a 0023     		movs	r3, #0
 314 000c 2646     		mov	r6, r4
 315              		.loc 1 215 0
 316 000e 1D46     		mov	r5, r3
 317              	.LVL27:
 318              	.L46:
 319 0010 E218     		adds	r2, r4, r3
 320              		.loc 1 213 0
 321 0012 5168     		ldr	r1, [r2, #4]
 322 0014 8142     		cmp	r1, r0
 323              		.loc 1 215 0
 324 0016 04BF     		itt	eq
 325 0018 5560     		streq	r5, [r2, #4]
 326              		.loc 1 216 0
 327 001a 9D51     		streq	r5, [r3, r6]
 328 001c 0833     		adds	r3, r3, #8
 329              		.loc 1 211 0
 330 001e 502B     		cmp	r3, #80
 331 0020 F6D1     		bne	.L46
 332              		.loc 1 219 0
 333 0022 70BC     		pop	{r4, r5, r6}
 334 0024 7047     		bx	lr
 335              		.cfi_endproc
 336              	.LFE66:
ARM GAS  /tmp/ccdHOckY.s 			page 7


 337              		.size	CleanupTask, .-CleanupTask
 338 0026 00BFAFF3 		.section	.data.init.7340,"aw",%progbits
 338      0080AFF3 
 338      0080
 339              		.set	.LANCHOR0,. + 0
 340              		.type	init.7340, %object
 341              		.size	init.7340, 1
 342              	init.7340:
 343 0000 01       		.byte	1
 344              		.section	.rodata.str1.4,"aMS",%progbits,1
 345              		.align	2
 346              	.LC0:
 347 0000 726F626F 		.ascii	"robotc_task\000"
 347      74635F74 
 347      61736B00 
 348              		.section	.bss.rcTasks,"aw",%nobits
 349              		.align	2
 350              		.set	.LANCHOR1,. + 0
 351              		.type	rcTasks, %object
 352              		.size	rcTasks, 80
 353              	rcTasks:
 354 0000 00000000 		.space	80
 354      00000000 
 354      00000000 
 354      00000000 
 354      00000000 
 355              		.text
 356              	.Letext0:
 357              		.file 2 "/usr/lib/gcc/arm-none-eabi/4.8.2/include/stddef.h"
 358              		.file 3 "/usr/include/newlib/machine/_default_types.h"
 359              		.file 4 "/usr/include/newlib/stdint.h"
 360              		.file 5 "../../../../ChibiOS_2.6.2/os/ports/GCC/ARMCMx/chtypes.h"
 361              		.file 6 "../../../../ChibiOS_2.6.2/os/kernel/include/chlists.h"
 362              		.file 7 "../../../../ChibiOS_2.6.2/os/kernel/include/chthreads.h"
 363              		.file 8 "../../../../ChibiOS_2.6.2/os/ports/GCC/ARMCMx/chcore_v7m.h"
 364              		.file 9 "../../../../ChibiOS_2.6.2/os/kernel/include/chschd.h"
 365              		.file 10 "../../../../ChibiOS_2.6.2/os/kernel/include/chmtx.h"
 366              		.file 11 "../../../../ChibiOS_2.6.2/os/kernel/include/chmemcore.h"
 367              		.file 12 "../../../../ChibiOS_2.6.2/os/kernel/include/chheap.h"
 368              		.file 13 "../../fw/vexdigital.h"
 369              		.file 14 "../../fw/vexime.h"
 370              		.file 15 "../../../../ChibiOS_2.6.2/os/ports/common/ARMCMx/CMSIS/include/core_cm3.h"
 371              		.file 16 "../../fw/vex.h"
 372              		.file 17 "../../../../ChibiOS_2.6.2/os/kernel/include/chdynamic.h"
 373              		.section	.debug_info,"",%progbits
 374              	.Ldebug_info0:
 375 0000 80080000 		.4byte	0x880
 376 0004 0400     		.2byte	0x4
 377 0006 00000000 		.4byte	.Ldebug_abbrev0
 378 000a 04       		.byte	0x4
 379 000b 01       		.uleb128 0x1
 380 000c FF010000 		.4byte	.LASF126
 381 0010 01       		.byte	0x1
 382 0011 7A040000 		.4byte	.LASF127
 383 0015 AA010000 		.4byte	.LASF128
 384 0019 00000000 		.4byte	.Ldebug_ranges0+0
 385 001d 00000000 		.4byte	0
ARM GAS  /tmp/ccdHOckY.s 			page 8


 386 0021 00000000 		.4byte	.Ldebug_line0
 387 0025 02       		.uleb128 0x2
 388 0026 04       		.byte	0x4
 389 0027 05       		.byte	0x5
 390 0028 696E7400 		.ascii	"int\000"
 391 002c 03       		.uleb128 0x3
 392 002d 08000000 		.4byte	.LASF2
 393 0031 02       		.byte	0x2
 394 0032 D4       		.byte	0xd4
 395 0033 37000000 		.4byte	0x37
 396 0037 04       		.uleb128 0x4
 397 0038 04       		.byte	0x4
 398 0039 07       		.byte	0x7
 399 003a 92010000 		.4byte	.LASF0
 400 003e 04       		.uleb128 0x4
 401 003f 01       		.byte	0x1
 402 0040 06       		.byte	0x6
 403 0041 D5000000 		.4byte	.LASF1
 404 0045 03       		.uleb128 0x3
 405 0046 1F000000 		.4byte	.LASF3
 406 004a 03       		.byte	0x3
 407 004b 1C       		.byte	0x1c
 408 004c 50000000 		.4byte	0x50
 409 0050 04       		.uleb128 0x4
 410 0051 01       		.byte	0x1
 411 0052 08       		.byte	0x8
 412 0053 FB030000 		.4byte	.LASF4
 413 0057 03       		.uleb128 0x3
 414 0058 F0050000 		.4byte	.LASF5
 415 005c 03       		.byte	0x3
 416 005d 25       		.byte	0x25
 417 005e 62000000 		.4byte	0x62
 418 0062 04       		.uleb128 0x4
 419 0063 02       		.byte	0x2
 420 0064 05       		.byte	0x5
 421 0065 26040000 		.4byte	.LASF6
 422 0069 04       		.uleb128 0x4
 423 006a 02       		.byte	0x2
 424 006b 07       		.byte	0x7
 425 006c A1020000 		.4byte	.LASF7
 426 0070 03       		.uleb128 0x3
 427 0071 80050000 		.4byte	.LASF8
 428 0075 03       		.byte	0x3
 429 0076 37       		.byte	0x37
 430 0077 7B000000 		.4byte	0x7b
 431 007b 04       		.uleb128 0x4
 432 007c 04       		.byte	0x4
 433 007d 05       		.byte	0x5
 434 007e 11010000 		.4byte	.LASF9
 435 0082 03       		.uleb128 0x3
 436 0083 8A050000 		.4byte	.LASF10
 437 0087 03       		.byte	0x3
 438 0088 38       		.byte	0x38
 439 0089 8D000000 		.4byte	0x8d
 440 008d 04       		.uleb128 0x4
 441 008e 04       		.byte	0x4
 442 008f 07       		.byte	0x7
ARM GAS  /tmp/ccdHOckY.s 			page 9


 443 0090 B4040000 		.4byte	.LASF11
 444 0094 04       		.uleb128 0x4
 445 0095 08       		.byte	0x8
 446 0096 05       		.byte	0x5
 447 0097 C7000000 		.4byte	.LASF12
 448 009b 03       		.uleb128 0x3
 449 009c 56030000 		.4byte	.LASF13
 450 00a0 03       		.byte	0x3
 451 00a1 4E       		.byte	0x4e
 452 00a2 A6000000 		.4byte	0xa6
 453 00a6 04       		.uleb128 0x4
 454 00a7 08       		.byte	0x8
 455 00a8 07       		.byte	0x7
 456 00a9 63000000 		.4byte	.LASF14
 457 00ad 03       		.uleb128 0x3
 458 00ae DD050000 		.4byte	.LASF15
 459 00b2 04       		.byte	0x4
 460 00b3 2A       		.byte	0x2a
 461 00b4 45000000 		.4byte	0x45
 462 00b8 03       		.uleb128 0x3
 463 00b9 BF000000 		.4byte	.LASF16
 464 00bd 04       		.byte	0x4
 465 00be 35       		.byte	0x35
 466 00bf 57000000 		.4byte	0x57
 467 00c3 03       		.uleb128 0x3
 468 00c4 F3030000 		.4byte	.LASF17
 469 00c8 04       		.byte	0x4
 470 00c9 41       		.byte	0x41
 471 00ca 70000000 		.4byte	0x70
 472 00ce 03       		.uleb128 0x3
 473 00cf 92040000 		.4byte	.LASF18
 474 00d3 04       		.byte	0x4
 475 00d4 42       		.byte	0x42
 476 00d5 82000000 		.4byte	0x82
 477 00d9 03       		.uleb128 0x3
 478 00da 16000000 		.4byte	.LASF19
 479 00de 04       		.byte	0x4
 480 00df 4E       		.byte	0x4e
 481 00e0 9B000000 		.4byte	0x9b
 482 00e4 03       		.uleb128 0x3
 483 00e5 B1000000 		.4byte	.LASF20
 484 00e9 05       		.byte	0x5
 485 00ea 2B       		.byte	0x2b
 486 00eb EF000000 		.4byte	0xef
 487 00ef 04       		.uleb128 0x4
 488 00f0 01       		.byte	0x1
 489 00f1 02       		.byte	0x2
 490 00f2 ED030000 		.4byte	.LASF21
 491 00f6 03       		.uleb128 0x3
 492 00f7 58040000 		.4byte	.LASF22
 493 00fb 05       		.byte	0x5
 494 00fc 2C       		.byte	0x2c
 495 00fd AD000000 		.4byte	0xad
 496 0101 03       		.uleb128 0x3
 497 0102 2E010000 		.4byte	.LASF23
 498 0106 05       		.byte	0x5
 499 0107 2D       		.byte	0x2d
ARM GAS  /tmp/ccdHOckY.s 			page 10


 500 0108 AD000000 		.4byte	0xad
 501 010c 03       		.uleb128 0x3
 502 010d D6030000 		.4byte	.LASF24
 503 0111 05       		.byte	0x5
 504 0112 2E       		.byte	0x2e
 505 0113 AD000000 		.4byte	0xad
 506 0117 03       		.uleb128 0x3
 507 0118 07010000 		.4byte	.LASF25
 508 011c 05       		.byte	0x5
 509 011d 2F       		.byte	0x2f
 510 011e AD000000 		.4byte	0xad
 511 0122 03       		.uleb128 0x3
 512 0123 E5030000 		.4byte	.LASF26
 513 0127 05       		.byte	0x5
 514 0128 30       		.byte	0x30
 515 0129 CE000000 		.4byte	0xce
 516 012d 03       		.uleb128 0x3
 517 012e B4020000 		.4byte	.LASF27
 518 0132 05       		.byte	0x5
 519 0133 31       		.byte	0x31
 520 0134 C3000000 		.4byte	0xc3
 521 0138 03       		.uleb128 0x3
 522 0139 3F030000 		.4byte	.LASF28
 523 013d 05       		.byte	0x5
 524 013e 33       		.byte	0x33
 525 013f CE000000 		.4byte	0xce
 526 0143 03       		.uleb128 0x3
 527 0144 6B050000 		.4byte	.LASF29
 528 0148 05       		.byte	0x5
 529 0149 35       		.byte	0x35
 530 014a CE000000 		.4byte	0xce
 531 014e 03       		.uleb128 0x3
 532 014f 68040000 		.4byte	.LASF30
 533 0153 06       		.byte	0x6
 534 0154 2A       		.byte	0x2a
 535 0155 59010000 		.4byte	0x159
 536 0159 05       		.uleb128 0x5
 537 015a 68040000 		.4byte	.LASF30
 538 015e 48       		.byte	0x48
 539 015f 07       		.byte	0x7
 540 0160 5E       		.byte	0x5e
 541 0161 56020000 		.4byte	0x256
 542 0165 06       		.uleb128 0x6
 543 0166 51040000 		.4byte	.LASF31
 544 016a 07       		.byte	0x7
 545 016b 5F       		.byte	0x5f
 546 016c 77020000 		.4byte	0x277
 547 0170 00       		.byte	0
 548 0171 06       		.uleb128 0x6
 549 0172 DE030000 		.4byte	.LASF32
 550 0176 07       		.byte	0x7
 551 0177 61       		.byte	0x61
 552 0178 77020000 		.4byte	0x277
 553 017c 04       		.byte	0x4
 554 017d 06       		.uleb128 0x6
 555 017e B8000000 		.4byte	.LASF33
 556 0182 07       		.byte	0x7
ARM GAS  /tmp/ccdHOckY.s 			page 11


 557 0183 63       		.byte	0x63
 558 0184 22010000 		.4byte	0x122
 559 0188 08       		.byte	0x8
 560 0189 06       		.uleb128 0x6
 561 018a 21060000 		.4byte	.LASF34
 562 018e 07       		.byte	0x7
 563 018f 64       		.byte	0x64
 564 0190 3C030000 		.4byte	0x33c
 565 0194 0C       		.byte	0xc
 566 0195 06       		.uleb128 0x6
 567 0196 60010000 		.4byte	.LASF35
 568 019a 07       		.byte	0x7
 569 019b 66       		.byte	0x66
 570 019c 77020000 		.4byte	0x277
 571 01a0 10       		.byte	0x10
 572 01a1 06       		.uleb128 0x6
 573 01a2 8B030000 		.4byte	.LASF36
 574 01a6 07       		.byte	0x7
 575 01a7 67       		.byte	0x67
 576 01a8 77020000 		.4byte	0x277
 577 01ac 14       		.byte	0x14
 578 01ad 06       		.uleb128 0x6
 579 01ae 01060000 		.4byte	.LASF37
 580 01b2 07       		.byte	0x7
 581 01b3 6E       		.byte	0x6e
 582 01b4 03050000 		.4byte	0x503
 583 01b8 18       		.byte	0x18
 584 01b9 06       		.uleb128 0x6
 585 01ba 30040000 		.4byte	.LASF38
 586 01be 07       		.byte	0x7
 587 01bf 79       		.byte	0x79
 588 01c0 01010000 		.4byte	0x101
 589 01c4 1C       		.byte	0x1c
 590 01c5 06       		.uleb128 0x6
 591 01c6 60040000 		.4byte	.LASF39
 592 01ca 07       		.byte	0x7
 593 01cb 7D       		.byte	0x7d
 594 01cc F6000000 		.4byte	0xf6
 595 01d0 1D       		.byte	0x1d
 596 01d1 06       		.uleb128 0x6
 597 01d2 AE050000 		.4byte	.LASF40
 598 01d6 07       		.byte	0x7
 599 01d7 82       		.byte	0x82
 600 01d8 0C010000 		.4byte	0x10c
 601 01dc 1E       		.byte	0x1e
 602 01dd 06       		.uleb128 0x6
 603 01de 38040000 		.4byte	.LASF41
 604 01e2 07       		.byte	0x7
 605 01e3 88       		.byte	0x88
 606 01e4 17010000 		.4byte	0x117
 607 01e8 1F       		.byte	0x1f
 608 01e9 06       		.uleb128 0x6
 609 01ea 4A010000 		.4byte	.LASF42
 610 01ee 07       		.byte	0x7
 611 01ef 8F       		.byte	0x8f
 612 01f0 64030000 		.4byte	0x364
 613 01f4 20       		.byte	0x20
ARM GAS  /tmp/ccdHOckY.s 			page 12


 614 01f5 07       		.uleb128 0x7
 615 01f6 705F7500 		.ascii	"p_u\000"
 616 01fa 07       		.byte	0x7
 617 01fb B4       		.byte	0xb4
 618 01fc CE040000 		.4byte	0x4ce
 619 0200 24       		.byte	0x24
 620 0201 06       		.uleb128 0x6
 621 0202 27060000 		.4byte	.LASF43
 622 0206 07       		.byte	0x7
 623 0207 B9       		.byte	0xb9
 624 0208 9D020000 		.4byte	0x29d
 625 020c 28       		.byte	0x28
 626 020d 06       		.uleb128 0x6
 627 020e 9F010000 		.4byte	.LASF44
 628 0212 07       		.byte	0x7
 629 0213 BF       		.byte	0xbf
 630 0214 7D020000 		.4byte	0x27d
 631 0218 2C       		.byte	0x2c
 632 0219 06       		.uleb128 0x6
 633 021a 08060000 		.4byte	.LASF45
 634 021e 07       		.byte	0x7
 635 021f C3       		.byte	0xc3
 636 0220 2D010000 		.4byte	0x12d
 637 0224 34       		.byte	0x34
 638 0225 06       		.uleb128 0x6
 639 0226 6F040000 		.4byte	.LASF46
 640 022a 07       		.byte	0x7
 641 022b C9       		.byte	0xc9
 642 022c 38010000 		.4byte	0x138
 643 0230 38       		.byte	0x38
 644 0231 06       		.uleb128 0x6
 645 0232 1C040000 		.4byte	.LASF47
 646 0236 07       		.byte	0x7
 647 0237 D0       		.byte	0xd0
 648 0238 15050000 		.4byte	0x515
 649 023c 3C       		.byte	0x3c
 650 023d 06       		.uleb128 0x6
 651 023e 75050000 		.4byte	.LASF48
 652 0242 07       		.byte	0x7
 653 0243 D4       		.byte	0xd4
 654 0244 22010000 		.4byte	0x122
 655 0248 40       		.byte	0x40
 656 0249 06       		.uleb128 0x6
 657 024a E7000000 		.4byte	.LASF49
 658 024e 07       		.byte	0x7
 659 024f DA       		.byte	0xda
 660 0250 B3020000 		.4byte	0x2b3
 661 0254 44       		.byte	0x44
 662 0255 00       		.byte	0
 663 0256 08       		.uleb128 0x8
 664 0257 08       		.byte	0x8
 665 0258 06       		.byte	0x6
 666 0259 61       		.byte	0x61
 667 025a 77020000 		.4byte	0x277
 668 025e 06       		.uleb128 0x6
 669 025f 51040000 		.4byte	.LASF31
 670 0263 06       		.byte	0x6
ARM GAS  /tmp/ccdHOckY.s 			page 13


 671 0264 62       		.byte	0x62
 672 0265 77020000 		.4byte	0x277
 673 0269 00       		.byte	0
 674 026a 06       		.uleb128 0x6
 675 026b DE030000 		.4byte	.LASF32
 676 026f 06       		.byte	0x6
 677 0270 64       		.byte	0x64
 678 0271 77020000 		.4byte	0x277
 679 0275 04       		.byte	0x4
 680 0276 00       		.byte	0
 681 0277 09       		.uleb128 0x9
 682 0278 04       		.byte	0x4
 683 0279 4E010000 		.4byte	0x14e
 684 027d 03       		.uleb128 0x3
 685 027e 99030000 		.4byte	.LASF50
 686 0282 06       		.byte	0x6
 687 0283 66       		.byte	0x66
 688 0284 56020000 		.4byte	0x256
 689 0288 08       		.uleb128 0x8
 690 0289 04       		.byte	0x4
 691 028a 06       		.byte	0x6
 692 028b 6B       		.byte	0x6b
 693 028c 9D020000 		.4byte	0x29d
 694 0290 06       		.uleb128 0x6
 695 0291 51040000 		.4byte	.LASF31
 696 0295 06       		.byte	0x6
 697 0296 6D       		.byte	0x6d
 698 0297 77020000 		.4byte	0x277
 699 029b 00       		.byte	0
 700 029c 00       		.byte	0
 701 029d 03       		.uleb128 0x3
 702 029e 33030000 		.4byte	.LASF51
 703 02a2 06       		.byte	0x6
 704 02a3 70       		.byte	0x70
 705 02a4 88020000 		.4byte	0x288
 706 02a8 03       		.uleb128 0x3
 707 02a9 79010000 		.4byte	.LASF52
 708 02ad 08       		.byte	0x8
 709 02ae E5       		.byte	0xe5
 710 02af B3020000 		.4byte	0x2b3
 711 02b3 0A       		.uleb128 0xa
 712 02b4 04       		.byte	0x4
 713 02b5 03       		.uleb128 0x3
 714 02b6 4B030000 		.4byte	.LASF53
 715 02ba 08       		.byte	0x8
 716 02bb EB       		.byte	0xeb
 717 02bc D9000000 		.4byte	0xd9
 718 02c0 0B       		.uleb128 0xb
 719 02c1 9D050000 		.4byte	.LASF54
 720 02c5 24       		.byte	0x24
 721 02c6 08       		.byte	0x8
 722 02c7 0C01     		.2byte	0x10c
 723 02c9 3C030000 		.4byte	0x33c
 724 02cd 0C       		.uleb128 0xc
 725 02ce 723400   		.ascii	"r4\000"
 726 02d1 08       		.byte	0x8
 727 02d2 1F01     		.2byte	0x11f
ARM GAS  /tmp/ccdHOckY.s 			page 14


 728 02d4 A8020000 		.4byte	0x2a8
 729 02d8 00       		.byte	0
 730 02d9 0C       		.uleb128 0xc
 731 02da 723500   		.ascii	"r5\000"
 732 02dd 08       		.byte	0x8
 733 02de 2001     		.2byte	0x120
 734 02e0 A8020000 		.4byte	0x2a8
 735 02e4 04       		.byte	0x4
 736 02e5 0C       		.uleb128 0xc
 737 02e6 723600   		.ascii	"r6\000"
 738 02e9 08       		.byte	0x8
 739 02ea 2101     		.2byte	0x121
 740 02ec A8020000 		.4byte	0x2a8
 741 02f0 08       		.byte	0x8
 742 02f1 0C       		.uleb128 0xc
 743 02f2 723700   		.ascii	"r7\000"
 744 02f5 08       		.byte	0x8
 745 02f6 2201     		.2byte	0x122
 746 02f8 A8020000 		.4byte	0x2a8
 747 02fc 0C       		.byte	0xc
 748 02fd 0C       		.uleb128 0xc
 749 02fe 723800   		.ascii	"r8\000"
 750 0301 08       		.byte	0x8
 751 0302 2301     		.2byte	0x123
 752 0304 A8020000 		.4byte	0x2a8
 753 0308 10       		.byte	0x10
 754 0309 0C       		.uleb128 0xc
 755 030a 723900   		.ascii	"r9\000"
 756 030d 08       		.byte	0x8
 757 030e 2401     		.2byte	0x124
 758 0310 A8020000 		.4byte	0x2a8
 759 0314 14       		.byte	0x14
 760 0315 0C       		.uleb128 0xc
 761 0316 72313000 		.ascii	"r10\000"
 762 031a 08       		.byte	0x8
 763 031b 2501     		.2byte	0x125
 764 031d A8020000 		.4byte	0x2a8
 765 0321 18       		.byte	0x18
 766 0322 0C       		.uleb128 0xc
 767 0323 72313100 		.ascii	"r11\000"
 768 0327 08       		.byte	0x8
 769 0328 2601     		.2byte	0x126
 770 032a A8020000 		.4byte	0x2a8
 771 032e 1C       		.byte	0x1c
 772 032f 0C       		.uleb128 0xc
 773 0330 6C7200   		.ascii	"lr\000"
 774 0333 08       		.byte	0x8
 775 0334 2701     		.2byte	0x127
 776 0336 A8020000 		.4byte	0x2a8
 777 033a 20       		.byte	0x20
 778 033b 00       		.byte	0
 779 033c 0B       		.uleb128 0xb
 780 033d 95050000 		.4byte	.LASF55
 781 0341 04       		.byte	0x4
 782 0342 08       		.byte	0x8
 783 0343 3101     		.2byte	0x131
 784 0345 57030000 		.4byte	0x357
ARM GAS  /tmp/ccdHOckY.s 			page 15


 785 0349 0C       		.uleb128 0xc
 786 034a 72313300 		.ascii	"r13\000"
 787 034e 08       		.byte	0x8
 788 034f 3201     		.2byte	0x132
 789 0351 57030000 		.4byte	0x357
 790 0355 00       		.byte	0
 791 0356 00       		.byte	0
 792 0357 09       		.uleb128 0x9
 793 0358 04       		.byte	0x4
 794 0359 C0020000 		.4byte	0x2c0
 795 035d 04       		.uleb128 0x4
 796 035e 04       		.byte	0x4
 797 035f 07       		.byte	0x7
 798 0360 70030000 		.4byte	.LASF56
 799 0364 0D       		.uleb128 0xd
 800 0365 43010000 		.4byte	0x143
 801 0369 08       		.uleb128 0x8
 802 036a 1C       		.byte	0x1c
 803 036b 09       		.byte	0x9
 804 036c 5E       		.byte	0x5e
 805 036d BA030000 		.4byte	0x3ba
 806 0371 06       		.uleb128 0x6
 807 0372 9B040000 		.4byte	.LASF57
 808 0376 09       		.byte	0x9
 809 0377 5F       		.byte	0x5f
 810 0378 7D020000 		.4byte	0x27d
 811 037c 00       		.byte	0
 812 037d 06       		.uleb128 0x6
 813 037e 61030000 		.4byte	.LASF58
 814 0382 09       		.byte	0x9
 815 0383 60       		.byte	0x60
 816 0384 22010000 		.4byte	0x122
 817 0388 08       		.byte	0x8
 818 0389 06       		.uleb128 0x6
 819 038a 93030000 		.4byte	.LASF59
 820 038e 09       		.byte	0x9
 821 038f 62       		.byte	0x62
 822 0390 3C030000 		.4byte	0x33c
 823 0394 0C       		.byte	0xc
 824 0395 06       		.uleb128 0x6
 825 0396 71010000 		.4byte	.LASF60
 826 039a 09       		.byte	0x9
 827 039b 65       		.byte	0x65
 828 039c 77020000 		.4byte	0x277
 829 03a0 10       		.byte	0x10
 830 03a1 06       		.uleb128 0x6
 831 03a2 AF030000 		.4byte	.LASF61
 832 03a6 09       		.byte	0x9
 833 03a7 66       		.byte	0x66
 834 03a8 77020000 		.4byte	0x277
 835 03ac 14       		.byte	0x14
 836 03ad 06       		.uleb128 0x6
 837 03ae C6040000 		.4byte	.LASF62
 838 03b2 09       		.byte	0x9
 839 03b3 69       		.byte	0x69
 840 03b4 77020000 		.4byte	0x277
 841 03b8 18       		.byte	0x18
ARM GAS  /tmp/ccdHOckY.s 			page 16


 842 03b9 00       		.byte	0
 843 03ba 03       		.uleb128 0x3
 844 03bb BD050000 		.4byte	.LASF63
 845 03bf 09       		.byte	0x9
 846 03c0 6B       		.byte	0x6b
 847 03c1 69030000 		.4byte	0x369
 848 03c5 05       		.uleb128 0x5
 849 03c6 79030000 		.4byte	.LASF64
 850 03ca 10       		.byte	0x10
 851 03cb 0A       		.byte	0xa
 852 03cc 2C       		.byte	0x2c
 853 03cd F6030000 		.4byte	0x3f6
 854 03d1 06       		.uleb128 0x6
 855 03d2 FF000000 		.4byte	.LASF65
 856 03d6 0A       		.byte	0xa
 857 03d7 2D       		.byte	0x2d
 858 03d8 7D020000 		.4byte	0x27d
 859 03dc 00       		.byte	0
 860 03dd 06       		.uleb128 0x6
 861 03de 0E060000 		.4byte	.LASF66
 862 03e2 0A       		.byte	0xa
 863 03e3 2F       		.byte	0x2f
 864 03e4 77020000 		.4byte	0x277
 865 03e8 08       		.byte	0x8
 866 03e9 06       		.uleb128 0x6
 867 03ea 64050000 		.4byte	.LASF67
 868 03ee 0A       		.byte	0xa
 869 03ef 31       		.byte	0x31
 870 03f0 F6030000 		.4byte	0x3f6
 871 03f4 0C       		.byte	0xc
 872 03f5 00       		.byte	0
 873 03f6 09       		.uleb128 0x9
 874 03f7 04       		.byte	0x4
 875 03f8 C5030000 		.4byte	0x3c5
 876 03fc 03       		.uleb128 0x3
 877 03fd 79030000 		.4byte	.LASF64
 878 0401 0A       		.byte	0xa
 879 0402 33       		.byte	0x33
 880 0403 C5030000 		.4byte	0x3c5
 881 0407 03       		.uleb128 0x3
 882 0408 2E000000 		.4byte	.LASF68
 883 040c 0B       		.byte	0xb
 884 040d 2C       		.byte	0x2c
 885 040e 12040000 		.4byte	0x412
 886 0412 09       		.uleb128 0x9
 887 0413 04       		.byte	0x4
 888 0414 18040000 		.4byte	0x418
 889 0418 0E       		.uleb128 0xe
 890 0419 B3020000 		.4byte	0x2b3
 891 041d 27040000 		.4byte	0x427
 892 0421 0F       		.uleb128 0xf
 893 0422 2C000000 		.4byte	0x2c
 894 0426 00       		.byte	0
 895 0427 03       		.uleb128 0x3
 896 0428 16060000 		.4byte	.LASF69
 897 042c 0C       		.byte	0xc
 898 042d 34       		.byte	0x34
ARM GAS  /tmp/ccdHOckY.s 			page 17


 899 042e 32040000 		.4byte	0x432
 900 0432 05       		.uleb128 0x5
 901 0433 42060000 		.4byte	.LASF70
 902 0437 20       		.byte	0x20
 903 0438 0C       		.byte	0xc
 904 0439 47       		.byte	0x47
 905 043a 63040000 		.4byte	0x463
 906 043e 06       		.uleb128 0x6
 907 043f E5050000 		.4byte	.LASF71
 908 0443 0C       		.byte	0xc
 909 0444 48       		.byte	0x48
 910 0445 07040000 		.4byte	0x407
 911 0449 00       		.byte	0
 912 044a 06       		.uleb128 0x6
 913 044b 98000000 		.4byte	.LASF72
 914 044f 0C       		.byte	0xc
 915 0450 4A       		.byte	0x4a
 916 0451 82040000 		.4byte	0x482
 917 0455 08       		.byte	0x8
 918 0456 06       		.uleb128 0x6
 919 0457 E1000000 		.4byte	.LASF73
 920 045b 0C       		.byte	0xc
 921 045c 4C       		.byte	0x4c
 922 045d FC030000 		.4byte	0x3fc
 923 0461 10       		.byte	0x10
 924 0462 00       		.byte	0
 925 0463 10       		.uleb128 0x10
 926 0464 04       		.byte	0x4
 927 0465 0C       		.byte	0xc
 928 0466 3C       		.byte	0x3c
 929 0467 82040000 		.4byte	0x482
 930 046b 11       		.uleb128 0x11
 931 046c AC000000 		.4byte	.LASF74
 932 0470 0C       		.byte	0xc
 933 0471 3D       		.byte	0x3d
 934 0472 A3040000 		.4byte	0x4a3
 935 0476 11       		.uleb128 0x11
 936 0477 AF040000 		.4byte	.LASF75
 937 047b 0C       		.byte	0xc
 938 047c 3E       		.byte	0x3e
 939 047d A9040000 		.4byte	0x4a9
 940 0481 00       		.byte	0
 941 0482 12       		.uleb128 0x12
 942 0483 09040000 		.4byte	.LASF129
 943 0487 08       		.byte	0x8
 944 0488 0C       		.byte	0xc
 945 0489 39       		.byte	0x39
 946 048a A3040000 		.4byte	0x4a3
 947 048e 11       		.uleb128 0x11
 948 048f 8C010000 		.4byte	.LASF76
 949 0493 0C       		.byte	0xc
 950 0494 3A       		.byte	0x3a
 951 0495 B5020000 		.4byte	0x2b5
 952 0499 13       		.uleb128 0x13
 953 049a 6800     		.ascii	"h\000"
 954 049c 0C       		.byte	0xc
 955 049d 41       		.byte	0x41
ARM GAS  /tmp/ccdHOckY.s 			page 18


 956 049e AF040000 		.4byte	0x4af
 957 04a2 00       		.byte	0
 958 04a3 09       		.uleb128 0x9
 959 04a4 04       		.byte	0x4
 960 04a5 82040000 		.4byte	0x482
 961 04a9 09       		.uleb128 0x9
 962 04aa 04       		.byte	0x4
 963 04ab 27040000 		.4byte	0x427
 964 04af 08       		.uleb128 0x8
 965 04b0 08       		.byte	0x8
 966 04b1 0C       		.byte	0xc
 967 04b2 3B       		.byte	0x3b
 968 04b3 CE040000 		.4byte	0x4ce
 969 04b7 07       		.uleb128 0x7
 970 04b8 7500     		.ascii	"u\000"
 971 04ba 0C       		.byte	0xc
 972 04bb 3F       		.byte	0x3f
 973 04bc 63040000 		.4byte	0x463
 974 04c0 00       		.byte	0
 975 04c1 06       		.uleb128 0x6
 976 04c2 9C020000 		.4byte	.LASF77
 977 04c6 0C       		.byte	0xc
 978 04c7 40       		.byte	0x40
 979 04c8 2C000000 		.4byte	0x2c
 980 04cc 04       		.byte	0x4
 981 04cd 00       		.byte	0
 982 04ce 10       		.uleb128 0x10
 983 04cf 04       		.byte	0x4
 984 04d0 07       		.byte	0x7
 985 04d1 96       		.byte	0x96
 986 04d2 03050000 		.4byte	0x503
 987 04d6 11       		.uleb128 0x11
 988 04d7 0F000000 		.4byte	.LASF78
 989 04db 07       		.byte	0x7
 990 04dc 9D       		.byte	0x9d
 991 04dd 2D010000 		.4byte	0x12d
 992 04e1 11       		.uleb128 0x11
 993 04e2 68010000 		.4byte	.LASF79
 994 04e6 07       		.byte	0x7
 995 04e7 A4       		.byte	0xa4
 996 04e8 2D010000 		.4byte	0x12d
 997 04ec 11       		.uleb128 0x11
 998 04ed FA050000 		.4byte	.LASF80
 999 04f1 07       		.byte	0x7
 1000 04f2 AB       		.byte	0xab
 1001 04f3 B3020000 		.4byte	0x2b3
 1002 04f7 11       		.uleb128 0x11
 1003 04f8 4A040000 		.4byte	.LASF81
 1004 04fc 07       		.byte	0x7
 1005 04fd B2       		.byte	0xb2
 1006 04fe 38010000 		.4byte	0x138
 1007 0502 00       		.byte	0
 1008 0503 09       		.uleb128 0x9
 1009 0504 04       		.byte	0x4
 1010 0505 09050000 		.4byte	0x509
 1011 0509 14       		.uleb128 0x14
 1012 050a 0E050000 		.4byte	0x50e
ARM GAS  /tmp/ccdHOckY.s 			page 19


 1013 050e 04       		.uleb128 0x4
 1014 050f 01       		.byte	0x1
 1015 0510 08       		.byte	0x8
 1016 0511 D0040000 		.4byte	.LASF82
 1017 0515 09       		.uleb128 0x9
 1018 0516 04       		.byte	0x4
 1019 0517 FC030000 		.4byte	0x3fc
 1020 051b 03       		.uleb128 0x3
 1021 051c 00000000 		.4byte	.LASF83
 1022 0520 07       		.byte	0x7
 1023 0521 E5       		.byte	0xe5
 1024 0522 26050000 		.4byte	0x526
 1025 0526 09       		.uleb128 0x9
 1026 0527 04       		.byte	0x4
 1027 0528 2C050000 		.4byte	0x52c
 1028 052c 0E       		.uleb128 0xe
 1029 052d 2D010000 		.4byte	0x12d
 1030 0531 3B050000 		.4byte	0x53b
 1031 0535 0F       		.uleb128 0xf
 1032 0536 B3020000 		.4byte	0x2b3
 1033 053a 00       		.byte	0
 1034 053b 0D       		.uleb128 0xd
 1035 053c C3000000 		.4byte	0xc3
 1036 0540 15       		.uleb128 0x15
 1037 0541 01       		.byte	0x1
 1038 0542 0D       		.byte	0xd
 1039 0543 8D       		.byte	0x8d
 1040 0544 9D050000 		.4byte	0x59d
 1041 0548 16       		.uleb128 0x16
 1042 0549 B7030000 		.4byte	.LASF84
 1043 054d 7F       		.sleb128 -1
 1044 054e 16       		.uleb128 0x16
 1045 054f BA020000 		.4byte	.LASF85
 1046 0553 00       		.sleb128 0
 1047 0554 16       		.uleb128 0x16
 1048 0555 3C010000 		.4byte	.LASF86
 1049 0559 01       		.sleb128 1
 1050 055a 16       		.uleb128 0x16
 1051 055b D1020000 		.4byte	.LASF87
 1052 055f 02       		.sleb128 2
 1053 0560 16       		.uleb128 0x16
 1054 0561 DF020000 		.4byte	.LASF88
 1055 0565 03       		.sleb128 3
 1056 0566 16       		.uleb128 0x16
 1057 0567 ED020000 		.4byte	.LASF89
 1058 056b 04       		.sleb128 4
 1059 056c 16       		.uleb128 0x16
 1060 056d FB020000 		.4byte	.LASF90
 1061 0571 05       		.sleb128 5
 1062 0572 16       		.uleb128 0x16
 1063 0573 09030000 		.4byte	.LASF91
 1064 0577 06       		.sleb128 6
 1065 0578 16       		.uleb128 0x16
 1066 0579 17030000 		.4byte	.LASF92
 1067 057d 07       		.sleb128 7
 1068 057e 16       		.uleb128 0x16
 1069 057f 25030000 		.4byte	.LASF93
ARM GAS  /tmp/ccdHOckY.s 			page 20


 1070 0583 08       		.sleb128 8
 1071 0584 16       		.uleb128 0x16
 1072 0585 37050000 		.4byte	.LASF94
 1073 0589 09       		.sleb128 9
 1074 058a 16       		.uleb128 0x16
 1075 058b 46050000 		.4byte	.LASF95
 1076 058f 0A       		.sleb128 10
 1077 0590 16       		.uleb128 0x16
 1078 0591 55050000 		.4byte	.LASF96
 1079 0595 0B       		.sleb128 11
 1080 0596 16       		.uleb128 0x16
 1081 0597 88000000 		.4byte	.LASF97
 1082 059b 0C       		.sleb128 12
 1083 059c 00       		.byte	0
 1084 059d 15       		.uleb128 0x15
 1085 059e 01       		.byte	0x1
 1086 059f 0D       		.byte	0xd
 1087 05a0 A2       		.byte	0xa2
 1088 05a1 B2050000 		.4byte	0x5b2
 1089 05a5 16       		.uleb128 0x16
 1090 05a6 31060000 		.4byte	.LASF98
 1091 05aa 00       		.sleb128 0
 1092 05ab 16       		.uleb128 0x16
 1093 05ac 51000000 		.4byte	.LASF99
 1094 05b0 01       		.sleb128 1
 1095 05b1 00       		.byte	0
 1096 05b2 15       		.uleb128 0x15
 1097 05b3 01       		.byte	0x1
 1098 05b4 0E       		.byte	0xe
 1099 05b5 46       		.byte	0x46
 1100 05b6 F8050000 		.4byte	0x5f8
 1101 05ba 16       		.uleb128 0x16
 1102 05bb C8030000 		.4byte	.LASF100
 1103 05bf 00       		.sleb128 0
 1104 05c0 16       		.uleb128 0x16
 1105 05c1 D5040000 		.4byte	.LASF101
 1106 05c5 01       		.sleb128 1
 1107 05c6 16       		.uleb128 0x16
 1108 05c7 E3040000 		.4byte	.LASF102
 1109 05cb 02       		.sleb128 2
 1110 05cc 16       		.uleb128 0x16
 1111 05cd F1040000 		.4byte	.LASF103
 1112 05d1 03       		.sleb128 3
 1113 05d2 16       		.uleb128 0x16
 1114 05d3 FF040000 		.4byte	.LASF104
 1115 05d7 04       		.sleb128 4
 1116 05d8 16       		.uleb128 0x16
 1117 05d9 0D050000 		.4byte	.LASF105
 1118 05dd 05       		.sleb128 5
 1119 05de 16       		.uleb128 0x16
 1120 05df 1B050000 		.4byte	.LASF106
 1121 05e3 06       		.sleb128 6
 1122 05e4 16       		.uleb128 0x16
 1123 05e5 29050000 		.4byte	.LASF107
 1124 05e9 07       		.sleb128 7
 1125 05ea 16       		.uleb128 0x16
 1126 05eb 82010000 		.4byte	.LASF108
ARM GAS  /tmp/ccdHOckY.s 			page 21


 1127 05ef 08       		.sleb128 8
 1128 05f0 16       		.uleb128 0x16
 1129 05f1 CD050000 		.4byte	.LASF109
 1130 05f5 E300     		.sleb128 99
 1131 05f7 00       		.byte	0
 1132 05f8 09       		.uleb128 0x9
 1133 05f9 04       		.byte	0x4
 1134 05fa 0E050000 		.4byte	0x50e
 1135 05fe 05       		.uleb128 0x5
 1136 05ff 68030000 		.4byte	.LASF110
 1137 0603 08       		.byte	0x8
 1138 0604 01       		.byte	0x1
 1139 0605 48       		.byte	0x48
 1140 0606 21060000 		.4byte	0x621
 1141 060a 07       		.uleb128 0x7
 1142 060b 706600   		.ascii	"pf\000"
 1143 060e 01       		.byte	0x1
 1144 060f 49       		.byte	0x49
 1145 0610 1B050000 		.4byte	0x51b
 1146 0614 00       		.byte	0
 1147 0615 07       		.uleb128 0x7
 1148 0616 747000   		.ascii	"tp\000"
 1149 0619 01       		.byte	0x1
 1150 061a 4A       		.byte	0x4a
 1151 061b 77020000 		.4byte	0x277
 1152 061f 04       		.byte	0x4
 1153 0620 00       		.byte	0
 1154 0621 03       		.uleb128 0x3
 1155 0622 15040000 		.4byte	.LASF111
 1156 0626 01       		.byte	0x1
 1157 0627 4B       		.byte	0x4b
 1158 0628 FE050000 		.4byte	0x5fe
 1159 062c 17       		.uleb128 0x17
 1160 062d 7A000000 		.4byte	.LASF130
 1161 0631 01       		.byte	0x1
 1162 0632 53       		.byte	0x53
 1163 0633 2D010000 		.4byte	0x12d
 1164 0637 00000000 		.4byte	.LFB63
 1165 063b 1A000000 		.4byte	.LFE63-.LFB63
 1166 063f 01       		.uleb128 0x1
 1167 0640 9C       		.byte	0x9c
 1168 0641 93060000 		.4byte	0x693
 1169 0645 18       		.uleb128 0x18
 1170 0646 61726700 		.ascii	"arg\000"
 1171 064a 01       		.byte	0x1
 1172 064b 53       		.byte	0x53
 1173 064c B3020000 		.4byte	0x2b3
 1174 0650 00000000 		.4byte	.LLST0
 1175 0654 19       		.uleb128 0x19
 1176 0655 06000000 		.4byte	.LBB2
 1177 0659 12000000 		.4byte	.LBE2-.LBB2
 1178 065d 1A       		.uleb128 0x1a
 1179 065e 37010000 		.4byte	.LASF113
 1180 0662 01       		.byte	0x1
 1181 0663 59       		.byte	0x59
 1182 0664 1B050000 		.4byte	0x51b
 1183 0668 29000000 		.4byte	.LLST1
ARM GAS  /tmp/ccdHOckY.s 			page 22


 1184 066c 1B       		.uleb128 0x1b
 1185 066d 12000000 		.4byte	.LVL3
 1186 0671 0F080000 		.4byte	0x80f
 1187 0675 83060000 		.4byte	0x683
 1188 0679 1C       		.uleb128 0x1c
 1189 067a 01       		.uleb128 0x1
 1190 067b 50       		.byte	0x50
 1191 067c 05       		.uleb128 0x5
 1192 067d 03       		.byte	0x3
 1193 067e 00000000 		.4byte	.LC0
 1194 0682 00       		.byte	0
 1195 0683 1D       		.uleb128 0x1d
 1196 0684 16000000 		.4byte	.LVL4
 1197 0688 02       		.uleb128 0x2
 1198 0689 74       		.byte	0x74
 1199 068a 00       		.sleb128 0
 1200 068b 1C       		.uleb128 0x1c
 1201 068c 01       		.uleb128 0x1
 1202 068d 50       		.byte	0x50
 1203 068e 01       		.uleb128 0x1
 1204 068f 30       		.byte	0x30
 1205 0690 00       		.byte	0
 1206 0691 00       		.byte	0
 1207 0692 00       		.byte	0
 1208 0693 1E       		.uleb128 0x1e
 1209 0694 3B000000 		.4byte	.LASF131
 1210 0698 01       		.byte	0x1
 1211 0699 6A       		.byte	0x6a
 1212 069a 77020000 		.4byte	0x277
 1213 069e 00000000 		.4byte	.LFB64
 1214 06a2 A4000000 		.4byte	.LFE64-.LFB64
 1215 06a6 01       		.uleb128 0x1
 1216 06a7 9C       		.byte	0x9c
 1217 06a8 31070000 		.4byte	0x731
 1218 06ac 18       		.uleb128 0x18
 1219 06ad 706600   		.ascii	"pf\000"
 1220 06b0 01       		.byte	0x1
 1221 06b1 6A       		.byte	0x6a
 1222 06b2 1B050000 		.4byte	0x51b
 1223 06b6 47000000 		.4byte	.LLST2
 1224 06ba 1F       		.uleb128 0x1f
 1225 06bb C8020000 		.4byte	.LASF112
 1226 06bf 01       		.byte	0x1
 1227 06c0 6A       		.byte	0x6a
 1228 06c1 22010000 		.4byte	0x122
 1229 06c5 02       		.uleb128 0x2
 1230 06c6 91       		.byte	0x91
 1231 06c7 74       		.sleb128 -12
 1232 06c8 20       		.uleb128 0x20
 1233 06c9 21       		.uleb128 0x21
 1234 06ca 29000000 		.4byte	.LASF114
 1235 06ce 01       		.byte	0x1
 1236 06cf 6C       		.byte	0x6c
 1237 06d0 E4000000 		.4byte	0xe4
 1238 06d4 05       		.uleb128 0x5
 1239 06d5 03       		.byte	0x3
 1240 06d6 00000000 		.4byte	init.7340
ARM GAS  /tmp/ccdHOckY.s 			page 23


 1241 06da 22       		.uleb128 0x22
 1242 06db 6900     		.ascii	"i\000"
 1243 06dd 01       		.byte	0x1
 1244 06de 6D       		.byte	0x6d
 1245 06df B8000000 		.4byte	0xb8
 1246 06e3 9A000000 		.4byte	.LLST3
 1247 06e7 1A       		.uleb128 0x1a
 1248 06e8 B5050000 		.4byte	.LASF115
 1249 06ec 01       		.byte	0x1
 1250 06ed 6E       		.byte	0x6e
 1251 06ee E4000000 		.4byte	0xe4
 1252 06f2 D3000000 		.4byte	.LLST4
 1253 06f6 23       		.uleb128 0x23
 1254 06f7 747000   		.ascii	"tp\000"
 1255 06fa 01       		.byte	0x1
 1256 06fb 8F       		.byte	0x8f
 1257 06fc 77020000 		.4byte	0x277
 1258 0700 01       		.uleb128 0x1
 1259 0701 50       		.byte	0x50
 1260 0702 24       		.uleb128 0x24
 1261 0703 76000000 		.4byte	.LVL14
 1262 0707 20080000 		.4byte	0x820
 1263 070b 1C       		.uleb128 0x1c
 1264 070c 01       		.uleb128 0x1
 1265 070d 53       		.byte	0x53
 1266 070e 05       		.uleb128 0x5
 1267 070f 03       		.byte	0x3
 1268 0710 00000000 		.4byte	vexRobotcTask
 1269 0714 1C       		.uleb128 0x1c
 1270 0715 01       		.uleb128 0x1
 1271 0716 52       		.byte	0x52
 1272 0717 03       		.uleb128 0x3
 1273 0718 91       		.byte	0x91
 1274 0719 5C       		.sleb128 -36
 1275 071a 06       		.byte	0x6
 1276 071b 1C       		.uleb128 0x1c
 1277 071c 01       		.uleb128 0x1
 1278 071d 51       		.byte	0x51
 1279 071e 03       		.uleb128 0x3
 1280 071f 0A       		.byte	0xa
 1281 0720 F802     		.2byte	0x2f8
 1282 0722 1C       		.uleb128 0x1c
 1283 0723 01       		.uleb128 0x1
 1284 0724 50       		.byte	0x50
 1285 0725 02       		.uleb128 0x2
 1286 0726 76       		.byte	0x76
 1287 0727 00       		.sleb128 0
 1288 0728 1C       		.uleb128 0x1c
 1289 0729 02       		.uleb128 0x2
 1290 072a 7D       		.byte	0x7d
 1291 072b 00       		.sleb128 0
 1292 072c 02       		.uleb128 0x2
 1293 072d 75       		.byte	0x75
 1294 072e 00       		.sleb128 0
 1295 072f 00       		.byte	0
 1296 0730 00       		.byte	0
 1297 0731 25       		.uleb128 0x25
ARM GAS  /tmp/ccdHOckY.s 			page 24


 1298 0732 A6030000 		.4byte	.LASF116
 1299 0736 01       		.byte	0x1
 1300 0737 A9       		.byte	0xa9
 1301 0738 00000000 		.4byte	.LFB65
 1302 073c 62000000 		.4byte	.LFE65-.LFB65
 1303 0740 01       		.uleb128 0x1
 1304 0741 9C       		.byte	0x9c
 1305 0742 A8070000 		.4byte	0x7a8
 1306 0746 18       		.uleb128 0x18
 1307 0747 706600   		.ascii	"pf\000"
 1308 074a 01       		.byte	0x1
 1309 074b A9       		.byte	0xa9
 1310 074c 1B050000 		.4byte	0x51b
 1311 0750 F3000000 		.4byte	.LLST5
 1312 0754 22       		.uleb128 0x22
 1313 0755 6900     		.ascii	"i\000"
 1314 0757 01       		.byte	0x1
 1315 0758 AB       		.byte	0xab
 1316 0759 B8000000 		.4byte	0xb8
 1317 075d 11010000 		.4byte	.LLST6
 1318 0761 22       		.uleb128 0x22
 1319 0762 747000   		.ascii	"tp\000"
 1320 0765 01       		.byte	0x1
 1321 0766 AC       		.byte	0xac
 1322 0767 77020000 		.4byte	0x277
 1323 076b 25010000 		.4byte	.LLST7
 1324 076f 1B       		.uleb128 0x1b
 1325 0770 44000000 		.4byte	.LVL22
 1326 0774 49080000 		.4byte	0x849
 1327 0778 83070000 		.4byte	0x783
 1328 077c 1C       		.uleb128 0x1c
 1329 077d 01       		.uleb128 0x1
 1330 077e 50       		.byte	0x50
 1331 077f 02       		.uleb128 0x2
 1332 0780 77       		.byte	0x77
 1333 0781 00       		.sleb128 0
 1334 0782 00       		.byte	0
 1335 0783 1B       		.uleb128 0x1b
 1336 0784 4A000000 		.4byte	.LVL23
 1337 0788 5B080000 		.4byte	0x85b
 1338 078c 97070000 		.4byte	0x797
 1339 0790 1C       		.uleb128 0x1c
 1340 0791 01       		.uleb128 0x1
 1341 0792 50       		.byte	0x50
 1342 0793 02       		.uleb128 0x2
 1343 0794 77       		.byte	0x77
 1344 0795 00       		.sleb128 0
 1345 0796 00       		.byte	0
 1346 0797 24       		.uleb128 0x24
 1347 0798 50000000 		.4byte	.LVL24
 1348 079c 71080000 		.4byte	0x871
 1349 07a0 1C       		.uleb128 0x1c
 1350 07a1 01       		.uleb128 0x1
 1351 07a2 50       		.byte	0x50
 1352 07a3 02       		.uleb128 0x2
 1353 07a4 77       		.byte	0x77
 1354 07a5 00       		.sleb128 0
ARM GAS  /tmp/ccdHOckY.s 			page 25


 1355 07a6 00       		.byte	0
 1356 07a7 00       		.byte	0
 1357 07a8 25       		.uleb128 0x25
 1358 07a9 7F030000 		.4byte	.LASF117
 1359 07ad 01       		.byte	0x1
 1360 07ae CF       		.byte	0xcf
 1361 07af 00000000 		.4byte	.LFB66
 1362 07b3 26000000 		.4byte	.LFE66-.LFB66
 1363 07b7 01       		.uleb128 0x1
 1364 07b8 9C       		.byte	0x9c
 1365 07b9 D7070000 		.4byte	0x7d7
 1366 07bd 26       		.uleb128 0x26
 1367 07be 747000   		.ascii	"tp\000"
 1368 07c1 01       		.byte	0x1
 1369 07c2 CF       		.byte	0xcf
 1370 07c3 77020000 		.4byte	0x277
 1371 07c7 01       		.uleb128 0x1
 1372 07c8 50       		.byte	0x50
 1373 07c9 22       		.uleb128 0x22
 1374 07ca 6900     		.ascii	"i\000"
 1375 07cc 01       		.byte	0x1
 1376 07cd D1       		.byte	0xd1
 1377 07ce B8000000 		.4byte	0xb8
 1378 07d2 38010000 		.4byte	.LLST8
 1379 07d6 00       		.byte	0
 1380 07d7 27       		.uleb128 0x27
 1381 07d8 21060000 		.4byte	0x621
 1382 07dc E7070000 		.4byte	0x7e7
 1383 07e0 28       		.uleb128 0x28
 1384 07e1 5D030000 		.4byte	0x35d
 1385 07e5 09       		.byte	0x9
 1386 07e6 00       		.byte	0
 1387 07e7 21       		.uleb128 0x21
 1388 07e8 42040000 		.4byte	.LASF118
 1389 07ec 01       		.byte	0x1
 1390 07ed 4D       		.byte	0x4d
 1391 07ee D7070000 		.4byte	0x7d7
 1392 07f2 05       		.uleb128 0x5
 1393 07f3 03       		.byte	0x3
 1394 07f4 00000000 		.4byte	rcTasks
 1395 07f8 29       		.uleb128 0x29
 1396 07f9 C7050000 		.4byte	.LASF119
 1397 07fd 09       		.byte	0x9
 1398 07fe 6F       		.byte	0x6f
 1399 07ff BA030000 		.4byte	0x3ba
 1400 0803 2A       		.uleb128 0x2a
 1401 0804 9F000000 		.4byte	.LASF120
 1402 0808 0F       		.byte	0xf
 1403 0809 0706     		.2byte	0x607
 1404 080b 3B050000 		.4byte	0x53b
 1405 080f 2B       		.uleb128 0x2b
 1406 0810 EF000000 		.4byte	.LASF121
 1407 0814 10       		.byte	0x10
 1408 0815 9E       		.byte	0x9e
 1409 0816 20080000 		.4byte	0x820
 1410 081a 0F       		.uleb128 0xf
 1411 081b F8050000 		.4byte	0x5f8
ARM GAS  /tmp/ccdHOckY.s 			page 26


 1412 081f 00       		.byte	0
 1413 0820 2C       		.uleb128 0x2c
 1414 0821 1A010000 		.4byte	.LASF123
 1415 0825 11       		.byte	0x11
 1416 0826 3C       		.byte	0x3c
 1417 0827 77020000 		.4byte	0x277
 1418 082b 49080000 		.4byte	0x849
 1419 082f 0F       		.uleb128 0xf
 1420 0830 A9040000 		.4byte	0x4a9
 1421 0834 0F       		.uleb128 0xf
 1422 0835 2C000000 		.4byte	0x2c
 1423 0839 0F       		.uleb128 0xf
 1424 083a 22010000 		.4byte	0x122
 1425 083e 0F       		.uleb128 0xf
 1426 083f 1B050000 		.4byte	0x51b
 1427 0843 0F       		.uleb128 0xf
 1428 0844 B3020000 		.4byte	0x2b3
 1429 0848 00       		.byte	0
 1430 0849 2D       		.uleb128 0x2d
 1431 084a 51010000 		.4byte	.LASF122
 1432 084e 07       		.byte	0x7
 1433 084f 7401     		.2byte	0x174
 1434 0851 5B080000 		.4byte	0x85b
 1435 0855 0F       		.uleb128 0xf
 1436 0856 77020000 		.4byte	0x277
 1437 085a 00       		.byte	0
 1438 085b 2E       		.uleb128 0x2e
 1439 085c A3040000 		.4byte	.LASF124
 1440 0860 07       		.byte	0x7
 1441 0861 7301     		.2byte	0x173
 1442 0863 77020000 		.4byte	0x277
 1443 0867 71080000 		.4byte	0x871
 1444 086b 0F       		.uleb128 0xf
 1445 086c 77020000 		.4byte	0x277
 1446 0870 00       		.byte	0
 1447 0871 2F       		.uleb128 0x2f
 1448 0872 A4050000 		.4byte	.LASF125
 1449 0876 07       		.byte	0x7
 1450 0877 7B01     		.2byte	0x17b
 1451 0879 2D010000 		.4byte	0x12d
 1452 087d 0F       		.uleb128 0xf
 1453 087e 77020000 		.4byte	0x277
 1454 0882 00       		.byte	0
 1455 0883 00       		.byte	0
 1456              		.section	.debug_abbrev,"",%progbits
 1457              	.Ldebug_abbrev0:
 1458 0000 01       		.uleb128 0x1
 1459 0001 11       		.uleb128 0x11
 1460 0002 01       		.byte	0x1
 1461 0003 25       		.uleb128 0x25
 1462 0004 0E       		.uleb128 0xe
 1463 0005 13       		.uleb128 0x13
 1464 0006 0B       		.uleb128 0xb
 1465 0007 03       		.uleb128 0x3
 1466 0008 0E       		.uleb128 0xe
 1467 0009 1B       		.uleb128 0x1b
 1468 000a 0E       		.uleb128 0xe
ARM GAS  /tmp/ccdHOckY.s 			page 27


 1469 000b 55       		.uleb128 0x55
 1470 000c 17       		.uleb128 0x17
 1471 000d 11       		.uleb128 0x11
 1472 000e 01       		.uleb128 0x1
 1473 000f 10       		.uleb128 0x10
 1474 0010 17       		.uleb128 0x17
 1475 0011 00       		.byte	0
 1476 0012 00       		.byte	0
 1477 0013 02       		.uleb128 0x2
 1478 0014 24       		.uleb128 0x24
 1479 0015 00       		.byte	0
 1480 0016 0B       		.uleb128 0xb
 1481 0017 0B       		.uleb128 0xb
 1482 0018 3E       		.uleb128 0x3e
 1483 0019 0B       		.uleb128 0xb
 1484 001a 03       		.uleb128 0x3
 1485 001b 08       		.uleb128 0x8
 1486 001c 00       		.byte	0
 1487 001d 00       		.byte	0
 1488 001e 03       		.uleb128 0x3
 1489 001f 16       		.uleb128 0x16
 1490 0020 00       		.byte	0
 1491 0021 03       		.uleb128 0x3
 1492 0022 0E       		.uleb128 0xe
 1493 0023 3A       		.uleb128 0x3a
 1494 0024 0B       		.uleb128 0xb
 1495 0025 3B       		.uleb128 0x3b
 1496 0026 0B       		.uleb128 0xb
 1497 0027 49       		.uleb128 0x49
 1498 0028 13       		.uleb128 0x13
 1499 0029 00       		.byte	0
 1500 002a 00       		.byte	0
 1501 002b 04       		.uleb128 0x4
 1502 002c 24       		.uleb128 0x24
 1503 002d 00       		.byte	0
 1504 002e 0B       		.uleb128 0xb
 1505 002f 0B       		.uleb128 0xb
 1506 0030 3E       		.uleb128 0x3e
 1507 0031 0B       		.uleb128 0xb
 1508 0032 03       		.uleb128 0x3
 1509 0033 0E       		.uleb128 0xe
 1510 0034 00       		.byte	0
 1511 0035 00       		.byte	0
 1512 0036 05       		.uleb128 0x5
 1513 0037 13       		.uleb128 0x13
 1514 0038 01       		.byte	0x1
 1515 0039 03       		.uleb128 0x3
 1516 003a 0E       		.uleb128 0xe
 1517 003b 0B       		.uleb128 0xb
 1518 003c 0B       		.uleb128 0xb
 1519 003d 3A       		.uleb128 0x3a
 1520 003e 0B       		.uleb128 0xb
 1521 003f 3B       		.uleb128 0x3b
 1522 0040 0B       		.uleb128 0xb
 1523 0041 01       		.uleb128 0x1
 1524 0042 13       		.uleb128 0x13
 1525 0043 00       		.byte	0
ARM GAS  /tmp/ccdHOckY.s 			page 28


 1526 0044 00       		.byte	0
 1527 0045 06       		.uleb128 0x6
 1528 0046 0D       		.uleb128 0xd
 1529 0047 00       		.byte	0
 1530 0048 03       		.uleb128 0x3
 1531 0049 0E       		.uleb128 0xe
 1532 004a 3A       		.uleb128 0x3a
 1533 004b 0B       		.uleb128 0xb
 1534 004c 3B       		.uleb128 0x3b
 1535 004d 0B       		.uleb128 0xb
 1536 004e 49       		.uleb128 0x49
 1537 004f 13       		.uleb128 0x13
 1538 0050 38       		.uleb128 0x38
 1539 0051 0B       		.uleb128 0xb
 1540 0052 00       		.byte	0
 1541 0053 00       		.byte	0
 1542 0054 07       		.uleb128 0x7
 1543 0055 0D       		.uleb128 0xd
 1544 0056 00       		.byte	0
 1545 0057 03       		.uleb128 0x3
 1546 0058 08       		.uleb128 0x8
 1547 0059 3A       		.uleb128 0x3a
 1548 005a 0B       		.uleb128 0xb
 1549 005b 3B       		.uleb128 0x3b
 1550 005c 0B       		.uleb128 0xb
 1551 005d 49       		.uleb128 0x49
 1552 005e 13       		.uleb128 0x13
 1553 005f 38       		.uleb128 0x38
 1554 0060 0B       		.uleb128 0xb
 1555 0061 00       		.byte	0
 1556 0062 00       		.byte	0
 1557 0063 08       		.uleb128 0x8
 1558 0064 13       		.uleb128 0x13
 1559 0065 01       		.byte	0x1
 1560 0066 0B       		.uleb128 0xb
 1561 0067 0B       		.uleb128 0xb
 1562 0068 3A       		.uleb128 0x3a
 1563 0069 0B       		.uleb128 0xb
 1564 006a 3B       		.uleb128 0x3b
 1565 006b 0B       		.uleb128 0xb
 1566 006c 01       		.uleb128 0x1
 1567 006d 13       		.uleb128 0x13
 1568 006e 00       		.byte	0
 1569 006f 00       		.byte	0
 1570 0070 09       		.uleb128 0x9
 1571 0071 0F       		.uleb128 0xf
 1572 0072 00       		.byte	0
 1573 0073 0B       		.uleb128 0xb
 1574 0074 0B       		.uleb128 0xb
 1575 0075 49       		.uleb128 0x49
 1576 0076 13       		.uleb128 0x13
 1577 0077 00       		.byte	0
 1578 0078 00       		.byte	0
 1579 0079 0A       		.uleb128 0xa
 1580 007a 0F       		.uleb128 0xf
 1581 007b 00       		.byte	0
 1582 007c 0B       		.uleb128 0xb
ARM GAS  /tmp/ccdHOckY.s 			page 29


 1583 007d 0B       		.uleb128 0xb
 1584 007e 00       		.byte	0
 1585 007f 00       		.byte	0
 1586 0080 0B       		.uleb128 0xb
 1587 0081 13       		.uleb128 0x13
 1588 0082 01       		.byte	0x1
 1589 0083 03       		.uleb128 0x3
 1590 0084 0E       		.uleb128 0xe
 1591 0085 0B       		.uleb128 0xb
 1592 0086 0B       		.uleb128 0xb
 1593 0087 3A       		.uleb128 0x3a
 1594 0088 0B       		.uleb128 0xb
 1595 0089 3B       		.uleb128 0x3b
 1596 008a 05       		.uleb128 0x5
 1597 008b 01       		.uleb128 0x1
 1598 008c 13       		.uleb128 0x13
 1599 008d 00       		.byte	0
 1600 008e 00       		.byte	0
 1601 008f 0C       		.uleb128 0xc
 1602 0090 0D       		.uleb128 0xd
 1603 0091 00       		.byte	0
 1604 0092 03       		.uleb128 0x3
 1605 0093 08       		.uleb128 0x8
 1606 0094 3A       		.uleb128 0x3a
 1607 0095 0B       		.uleb128 0xb
 1608 0096 3B       		.uleb128 0x3b
 1609 0097 05       		.uleb128 0x5
 1610 0098 49       		.uleb128 0x49
 1611 0099 13       		.uleb128 0x13
 1612 009a 38       		.uleb128 0x38
 1613 009b 0B       		.uleb128 0xb
 1614 009c 00       		.byte	0
 1615 009d 00       		.byte	0
 1616 009e 0D       		.uleb128 0xd
 1617 009f 35       		.uleb128 0x35
 1618 00a0 00       		.byte	0
 1619 00a1 49       		.uleb128 0x49
 1620 00a2 13       		.uleb128 0x13
 1621 00a3 00       		.byte	0
 1622 00a4 00       		.byte	0
 1623 00a5 0E       		.uleb128 0xe
 1624 00a6 15       		.uleb128 0x15
 1625 00a7 01       		.byte	0x1
 1626 00a8 27       		.uleb128 0x27
 1627 00a9 19       		.uleb128 0x19
 1628 00aa 49       		.uleb128 0x49
 1629 00ab 13       		.uleb128 0x13
 1630 00ac 01       		.uleb128 0x1
 1631 00ad 13       		.uleb128 0x13
 1632 00ae 00       		.byte	0
 1633 00af 00       		.byte	0
 1634 00b0 0F       		.uleb128 0xf
 1635 00b1 05       		.uleb128 0x5
 1636 00b2 00       		.byte	0
 1637 00b3 49       		.uleb128 0x49
 1638 00b4 13       		.uleb128 0x13
 1639 00b5 00       		.byte	0
ARM GAS  /tmp/ccdHOckY.s 			page 30


 1640 00b6 00       		.byte	0
 1641 00b7 10       		.uleb128 0x10
 1642 00b8 17       		.uleb128 0x17
 1643 00b9 01       		.byte	0x1
 1644 00ba 0B       		.uleb128 0xb
 1645 00bb 0B       		.uleb128 0xb
 1646 00bc 3A       		.uleb128 0x3a
 1647 00bd 0B       		.uleb128 0xb
 1648 00be 3B       		.uleb128 0x3b
 1649 00bf 0B       		.uleb128 0xb
 1650 00c0 01       		.uleb128 0x1
 1651 00c1 13       		.uleb128 0x13
 1652 00c2 00       		.byte	0
 1653 00c3 00       		.byte	0
 1654 00c4 11       		.uleb128 0x11
 1655 00c5 0D       		.uleb128 0xd
 1656 00c6 00       		.byte	0
 1657 00c7 03       		.uleb128 0x3
 1658 00c8 0E       		.uleb128 0xe
 1659 00c9 3A       		.uleb128 0x3a
 1660 00ca 0B       		.uleb128 0xb
 1661 00cb 3B       		.uleb128 0x3b
 1662 00cc 0B       		.uleb128 0xb
 1663 00cd 49       		.uleb128 0x49
 1664 00ce 13       		.uleb128 0x13
 1665 00cf 00       		.byte	0
 1666 00d0 00       		.byte	0
 1667 00d1 12       		.uleb128 0x12
 1668 00d2 17       		.uleb128 0x17
 1669 00d3 01       		.byte	0x1
 1670 00d4 03       		.uleb128 0x3
 1671 00d5 0E       		.uleb128 0xe
 1672 00d6 0B       		.uleb128 0xb
 1673 00d7 0B       		.uleb128 0xb
 1674 00d8 3A       		.uleb128 0x3a
 1675 00d9 0B       		.uleb128 0xb
 1676 00da 3B       		.uleb128 0x3b
 1677 00db 0B       		.uleb128 0xb
 1678 00dc 01       		.uleb128 0x1
 1679 00dd 13       		.uleb128 0x13
 1680 00de 00       		.byte	0
 1681 00df 00       		.byte	0
 1682 00e0 13       		.uleb128 0x13
 1683 00e1 0D       		.uleb128 0xd
 1684 00e2 00       		.byte	0
 1685 00e3 03       		.uleb128 0x3
 1686 00e4 08       		.uleb128 0x8
 1687 00e5 3A       		.uleb128 0x3a
 1688 00e6 0B       		.uleb128 0xb
 1689 00e7 3B       		.uleb128 0x3b
 1690 00e8 0B       		.uleb128 0xb
 1691 00e9 49       		.uleb128 0x49
 1692 00ea 13       		.uleb128 0x13
 1693 00eb 00       		.byte	0
 1694 00ec 00       		.byte	0
 1695 00ed 14       		.uleb128 0x14
 1696 00ee 26       		.uleb128 0x26
ARM GAS  /tmp/ccdHOckY.s 			page 31


 1697 00ef 00       		.byte	0
 1698 00f0 49       		.uleb128 0x49
 1699 00f1 13       		.uleb128 0x13
 1700 00f2 00       		.byte	0
 1701 00f3 00       		.byte	0
 1702 00f4 15       		.uleb128 0x15
 1703 00f5 04       		.uleb128 0x4
 1704 00f6 01       		.byte	0x1
 1705 00f7 0B       		.uleb128 0xb
 1706 00f8 0B       		.uleb128 0xb
 1707 00f9 3A       		.uleb128 0x3a
 1708 00fa 0B       		.uleb128 0xb
 1709 00fb 3B       		.uleb128 0x3b
 1710 00fc 0B       		.uleb128 0xb
 1711 00fd 01       		.uleb128 0x1
 1712 00fe 13       		.uleb128 0x13
 1713 00ff 00       		.byte	0
 1714 0100 00       		.byte	0
 1715 0101 16       		.uleb128 0x16
 1716 0102 28       		.uleb128 0x28
 1717 0103 00       		.byte	0
 1718 0104 03       		.uleb128 0x3
 1719 0105 0E       		.uleb128 0xe
 1720 0106 1C       		.uleb128 0x1c
 1721 0107 0D       		.uleb128 0xd
 1722 0108 00       		.byte	0
 1723 0109 00       		.byte	0
 1724 010a 17       		.uleb128 0x17
 1725 010b 2E       		.uleb128 0x2e
 1726 010c 01       		.byte	0x1
 1727 010d 03       		.uleb128 0x3
 1728 010e 0E       		.uleb128 0xe
 1729 010f 3A       		.uleb128 0x3a
 1730 0110 0B       		.uleb128 0xb
 1731 0111 3B       		.uleb128 0x3b
 1732 0112 0B       		.uleb128 0xb
 1733 0113 27       		.uleb128 0x27
 1734 0114 19       		.uleb128 0x19
 1735 0115 49       		.uleb128 0x49
 1736 0116 13       		.uleb128 0x13
 1737 0117 11       		.uleb128 0x11
 1738 0118 01       		.uleb128 0x1
 1739 0119 12       		.uleb128 0x12
 1740 011a 06       		.uleb128 0x6
 1741 011b 40       		.uleb128 0x40
 1742 011c 18       		.uleb128 0x18
 1743 011d 9742     		.uleb128 0x2117
 1744 011f 19       		.uleb128 0x19
 1745 0120 01       		.uleb128 0x1
 1746 0121 13       		.uleb128 0x13
 1747 0122 00       		.byte	0
 1748 0123 00       		.byte	0
 1749 0124 18       		.uleb128 0x18
 1750 0125 05       		.uleb128 0x5
 1751 0126 00       		.byte	0
 1752 0127 03       		.uleb128 0x3
 1753 0128 08       		.uleb128 0x8
ARM GAS  /tmp/ccdHOckY.s 			page 32


 1754 0129 3A       		.uleb128 0x3a
 1755 012a 0B       		.uleb128 0xb
 1756 012b 3B       		.uleb128 0x3b
 1757 012c 0B       		.uleb128 0xb
 1758 012d 49       		.uleb128 0x49
 1759 012e 13       		.uleb128 0x13
 1760 012f 02       		.uleb128 0x2
 1761 0130 17       		.uleb128 0x17
 1762 0131 00       		.byte	0
 1763 0132 00       		.byte	0
 1764 0133 19       		.uleb128 0x19
 1765 0134 0B       		.uleb128 0xb
 1766 0135 01       		.byte	0x1
 1767 0136 11       		.uleb128 0x11
 1768 0137 01       		.uleb128 0x1
 1769 0138 12       		.uleb128 0x12
 1770 0139 06       		.uleb128 0x6
 1771 013a 00       		.byte	0
 1772 013b 00       		.byte	0
 1773 013c 1A       		.uleb128 0x1a
 1774 013d 34       		.uleb128 0x34
 1775 013e 00       		.byte	0
 1776 013f 03       		.uleb128 0x3
 1777 0140 0E       		.uleb128 0xe
 1778 0141 3A       		.uleb128 0x3a
 1779 0142 0B       		.uleb128 0xb
 1780 0143 3B       		.uleb128 0x3b
 1781 0144 0B       		.uleb128 0xb
 1782 0145 49       		.uleb128 0x49
 1783 0146 13       		.uleb128 0x13
 1784 0147 02       		.uleb128 0x2
 1785 0148 17       		.uleb128 0x17
 1786 0149 00       		.byte	0
 1787 014a 00       		.byte	0
 1788 014b 1B       		.uleb128 0x1b
 1789 014c 898201   		.uleb128 0x4109
 1790 014f 01       		.byte	0x1
 1791 0150 11       		.uleb128 0x11
 1792 0151 01       		.uleb128 0x1
 1793 0152 31       		.uleb128 0x31
 1794 0153 13       		.uleb128 0x13
 1795 0154 01       		.uleb128 0x1
 1796 0155 13       		.uleb128 0x13
 1797 0156 00       		.byte	0
 1798 0157 00       		.byte	0
 1799 0158 1C       		.uleb128 0x1c
 1800 0159 8A8201   		.uleb128 0x410a
 1801 015c 00       		.byte	0
 1802 015d 02       		.uleb128 0x2
 1803 015e 18       		.uleb128 0x18
 1804 015f 9142     		.uleb128 0x2111
 1805 0161 18       		.uleb128 0x18
 1806 0162 00       		.byte	0
 1807 0163 00       		.byte	0
 1808 0164 1D       		.uleb128 0x1d
 1809 0165 898201   		.uleb128 0x4109
 1810 0168 01       		.byte	0x1
ARM GAS  /tmp/ccdHOckY.s 			page 33


 1811 0169 11       		.uleb128 0x11
 1812 016a 01       		.uleb128 0x1
 1813 016b 9342     		.uleb128 0x2113
 1814 016d 18       		.uleb128 0x18
 1815 016e 00       		.byte	0
 1816 016f 00       		.byte	0
 1817 0170 1E       		.uleb128 0x1e
 1818 0171 2E       		.uleb128 0x2e
 1819 0172 01       		.byte	0x1
 1820 0173 3F       		.uleb128 0x3f
 1821 0174 19       		.uleb128 0x19
 1822 0175 03       		.uleb128 0x3
 1823 0176 0E       		.uleb128 0xe
 1824 0177 3A       		.uleb128 0x3a
 1825 0178 0B       		.uleb128 0xb
 1826 0179 3B       		.uleb128 0x3b
 1827 017a 0B       		.uleb128 0xb
 1828 017b 27       		.uleb128 0x27
 1829 017c 19       		.uleb128 0x19
 1830 017d 49       		.uleb128 0x49
 1831 017e 13       		.uleb128 0x13
 1832 017f 11       		.uleb128 0x11
 1833 0180 01       		.uleb128 0x1
 1834 0181 12       		.uleb128 0x12
 1835 0182 06       		.uleb128 0x6
 1836 0183 40       		.uleb128 0x40
 1837 0184 18       		.uleb128 0x18
 1838 0185 9742     		.uleb128 0x2117
 1839 0187 19       		.uleb128 0x19
 1840 0188 01       		.uleb128 0x1
 1841 0189 13       		.uleb128 0x13
 1842 018a 00       		.byte	0
 1843 018b 00       		.byte	0
 1844 018c 1F       		.uleb128 0x1f
 1845 018d 05       		.uleb128 0x5
 1846 018e 00       		.byte	0
 1847 018f 03       		.uleb128 0x3
 1848 0190 0E       		.uleb128 0xe
 1849 0191 3A       		.uleb128 0x3a
 1850 0192 0B       		.uleb128 0xb
 1851 0193 3B       		.uleb128 0x3b
 1852 0194 0B       		.uleb128 0xb
 1853 0195 49       		.uleb128 0x49
 1854 0196 13       		.uleb128 0x13
 1855 0197 02       		.uleb128 0x2
 1856 0198 18       		.uleb128 0x18
 1857 0199 00       		.byte	0
 1858 019a 00       		.byte	0
 1859 019b 20       		.uleb128 0x20
 1860 019c 18       		.uleb128 0x18
 1861 019d 00       		.byte	0
 1862 019e 00       		.byte	0
 1863 019f 00       		.byte	0
 1864 01a0 21       		.uleb128 0x21
 1865 01a1 34       		.uleb128 0x34
 1866 01a2 00       		.byte	0
 1867 01a3 03       		.uleb128 0x3
ARM GAS  /tmp/ccdHOckY.s 			page 34


 1868 01a4 0E       		.uleb128 0xe
 1869 01a5 3A       		.uleb128 0x3a
 1870 01a6 0B       		.uleb128 0xb
 1871 01a7 3B       		.uleb128 0x3b
 1872 01a8 0B       		.uleb128 0xb
 1873 01a9 49       		.uleb128 0x49
 1874 01aa 13       		.uleb128 0x13
 1875 01ab 02       		.uleb128 0x2
 1876 01ac 18       		.uleb128 0x18
 1877 01ad 00       		.byte	0
 1878 01ae 00       		.byte	0
 1879 01af 22       		.uleb128 0x22
 1880 01b0 34       		.uleb128 0x34
 1881 01b1 00       		.byte	0
 1882 01b2 03       		.uleb128 0x3
 1883 01b3 08       		.uleb128 0x8
 1884 01b4 3A       		.uleb128 0x3a
 1885 01b5 0B       		.uleb128 0xb
 1886 01b6 3B       		.uleb128 0x3b
 1887 01b7 0B       		.uleb128 0xb
 1888 01b8 49       		.uleb128 0x49
 1889 01b9 13       		.uleb128 0x13
 1890 01ba 02       		.uleb128 0x2
 1891 01bb 17       		.uleb128 0x17
 1892 01bc 00       		.byte	0
 1893 01bd 00       		.byte	0
 1894 01be 23       		.uleb128 0x23
 1895 01bf 34       		.uleb128 0x34
 1896 01c0 00       		.byte	0
 1897 01c1 03       		.uleb128 0x3
 1898 01c2 08       		.uleb128 0x8
 1899 01c3 3A       		.uleb128 0x3a
 1900 01c4 0B       		.uleb128 0xb
 1901 01c5 3B       		.uleb128 0x3b
 1902 01c6 0B       		.uleb128 0xb
 1903 01c7 49       		.uleb128 0x49
 1904 01c8 13       		.uleb128 0x13
 1905 01c9 02       		.uleb128 0x2
 1906 01ca 18       		.uleb128 0x18
 1907 01cb 00       		.byte	0
 1908 01cc 00       		.byte	0
 1909 01cd 24       		.uleb128 0x24
 1910 01ce 898201   		.uleb128 0x4109
 1911 01d1 01       		.byte	0x1
 1912 01d2 11       		.uleb128 0x11
 1913 01d3 01       		.uleb128 0x1
 1914 01d4 31       		.uleb128 0x31
 1915 01d5 13       		.uleb128 0x13
 1916 01d6 00       		.byte	0
 1917 01d7 00       		.byte	0
 1918 01d8 25       		.uleb128 0x25
 1919 01d9 2E       		.uleb128 0x2e
 1920 01da 01       		.byte	0x1
 1921 01db 3F       		.uleb128 0x3f
 1922 01dc 19       		.uleb128 0x19
 1923 01dd 03       		.uleb128 0x3
 1924 01de 0E       		.uleb128 0xe
ARM GAS  /tmp/ccdHOckY.s 			page 35


 1925 01df 3A       		.uleb128 0x3a
 1926 01e0 0B       		.uleb128 0xb
 1927 01e1 3B       		.uleb128 0x3b
 1928 01e2 0B       		.uleb128 0xb
 1929 01e3 27       		.uleb128 0x27
 1930 01e4 19       		.uleb128 0x19
 1931 01e5 11       		.uleb128 0x11
 1932 01e6 01       		.uleb128 0x1
 1933 01e7 12       		.uleb128 0x12
 1934 01e8 06       		.uleb128 0x6
 1935 01e9 40       		.uleb128 0x40
 1936 01ea 18       		.uleb128 0x18
 1937 01eb 9742     		.uleb128 0x2117
 1938 01ed 19       		.uleb128 0x19
 1939 01ee 01       		.uleb128 0x1
 1940 01ef 13       		.uleb128 0x13
 1941 01f0 00       		.byte	0
 1942 01f1 00       		.byte	0
 1943 01f2 26       		.uleb128 0x26
 1944 01f3 05       		.uleb128 0x5
 1945 01f4 00       		.byte	0
 1946 01f5 03       		.uleb128 0x3
 1947 01f6 08       		.uleb128 0x8
 1948 01f7 3A       		.uleb128 0x3a
 1949 01f8 0B       		.uleb128 0xb
 1950 01f9 3B       		.uleb128 0x3b
 1951 01fa 0B       		.uleb128 0xb
 1952 01fb 49       		.uleb128 0x49
 1953 01fc 13       		.uleb128 0x13
 1954 01fd 02       		.uleb128 0x2
 1955 01fe 18       		.uleb128 0x18
 1956 01ff 00       		.byte	0
 1957 0200 00       		.byte	0
 1958 0201 27       		.uleb128 0x27
 1959 0202 01       		.uleb128 0x1
 1960 0203 01       		.byte	0x1
 1961 0204 49       		.uleb128 0x49
 1962 0205 13       		.uleb128 0x13
 1963 0206 01       		.uleb128 0x1
 1964 0207 13       		.uleb128 0x13
 1965 0208 00       		.byte	0
 1966 0209 00       		.byte	0
 1967 020a 28       		.uleb128 0x28
 1968 020b 21       		.uleb128 0x21
 1969 020c 00       		.byte	0
 1970 020d 49       		.uleb128 0x49
 1971 020e 13       		.uleb128 0x13
 1972 020f 2F       		.uleb128 0x2f
 1973 0210 0B       		.uleb128 0xb
 1974 0211 00       		.byte	0
 1975 0212 00       		.byte	0
 1976 0213 29       		.uleb128 0x29
 1977 0214 34       		.uleb128 0x34
 1978 0215 00       		.byte	0
 1979 0216 03       		.uleb128 0x3
 1980 0217 0E       		.uleb128 0xe
 1981 0218 3A       		.uleb128 0x3a
ARM GAS  /tmp/ccdHOckY.s 			page 36


 1982 0219 0B       		.uleb128 0xb
 1983 021a 3B       		.uleb128 0x3b
 1984 021b 0B       		.uleb128 0xb
 1985 021c 49       		.uleb128 0x49
 1986 021d 13       		.uleb128 0x13
 1987 021e 3F       		.uleb128 0x3f
 1988 021f 19       		.uleb128 0x19
 1989 0220 3C       		.uleb128 0x3c
 1990 0221 19       		.uleb128 0x19
 1991 0222 00       		.byte	0
 1992 0223 00       		.byte	0
 1993 0224 2A       		.uleb128 0x2a
 1994 0225 34       		.uleb128 0x34
 1995 0226 00       		.byte	0
 1996 0227 03       		.uleb128 0x3
 1997 0228 0E       		.uleb128 0xe
 1998 0229 3A       		.uleb128 0x3a
 1999 022a 0B       		.uleb128 0xb
 2000 022b 3B       		.uleb128 0x3b
 2001 022c 05       		.uleb128 0x5
 2002 022d 49       		.uleb128 0x49
 2003 022e 13       		.uleb128 0x13
 2004 022f 3F       		.uleb128 0x3f
 2005 0230 19       		.uleb128 0x19
 2006 0231 3C       		.uleb128 0x3c
 2007 0232 19       		.uleb128 0x19
 2008 0233 00       		.byte	0
 2009 0234 00       		.byte	0
 2010 0235 2B       		.uleb128 0x2b
 2011 0236 2E       		.uleb128 0x2e
 2012 0237 01       		.byte	0x1
 2013 0238 3F       		.uleb128 0x3f
 2014 0239 19       		.uleb128 0x19
 2015 023a 03       		.uleb128 0x3
 2016 023b 0E       		.uleb128 0xe
 2017 023c 3A       		.uleb128 0x3a
 2018 023d 0B       		.uleb128 0xb
 2019 023e 3B       		.uleb128 0x3b
 2020 023f 0B       		.uleb128 0xb
 2021 0240 27       		.uleb128 0x27
 2022 0241 19       		.uleb128 0x19
 2023 0242 3C       		.uleb128 0x3c
 2024 0243 19       		.uleb128 0x19
 2025 0244 01       		.uleb128 0x1
 2026 0245 13       		.uleb128 0x13
 2027 0246 00       		.byte	0
 2028 0247 00       		.byte	0
 2029 0248 2C       		.uleb128 0x2c
 2030 0249 2E       		.uleb128 0x2e
 2031 024a 01       		.byte	0x1
 2032 024b 3F       		.uleb128 0x3f
 2033 024c 19       		.uleb128 0x19
 2034 024d 03       		.uleb128 0x3
 2035 024e 0E       		.uleb128 0xe
 2036 024f 3A       		.uleb128 0x3a
 2037 0250 0B       		.uleb128 0xb
 2038 0251 3B       		.uleb128 0x3b
ARM GAS  /tmp/ccdHOckY.s 			page 37


 2039 0252 0B       		.uleb128 0xb
 2040 0253 27       		.uleb128 0x27
 2041 0254 19       		.uleb128 0x19
 2042 0255 49       		.uleb128 0x49
 2043 0256 13       		.uleb128 0x13
 2044 0257 3C       		.uleb128 0x3c
 2045 0258 19       		.uleb128 0x19
 2046 0259 01       		.uleb128 0x1
 2047 025a 13       		.uleb128 0x13
 2048 025b 00       		.byte	0
 2049 025c 00       		.byte	0
 2050 025d 2D       		.uleb128 0x2d
 2051 025e 2E       		.uleb128 0x2e
 2052 025f 01       		.byte	0x1
 2053 0260 3F       		.uleb128 0x3f
 2054 0261 19       		.uleb128 0x19
 2055 0262 03       		.uleb128 0x3
 2056 0263 0E       		.uleb128 0xe
 2057 0264 3A       		.uleb128 0x3a
 2058 0265 0B       		.uleb128 0xb
 2059 0266 3B       		.uleb128 0x3b
 2060 0267 05       		.uleb128 0x5
 2061 0268 27       		.uleb128 0x27
 2062 0269 19       		.uleb128 0x19
 2063 026a 3C       		.uleb128 0x3c
 2064 026b 19       		.uleb128 0x19
 2065 026c 01       		.uleb128 0x1
 2066 026d 13       		.uleb128 0x13
 2067 026e 00       		.byte	0
 2068 026f 00       		.byte	0
 2069 0270 2E       		.uleb128 0x2e
 2070 0271 2E       		.uleb128 0x2e
 2071 0272 01       		.byte	0x1
 2072 0273 3F       		.uleb128 0x3f
 2073 0274 19       		.uleb128 0x19
 2074 0275 03       		.uleb128 0x3
 2075 0276 0E       		.uleb128 0xe
 2076 0277 3A       		.uleb128 0x3a
 2077 0278 0B       		.uleb128 0xb
 2078 0279 3B       		.uleb128 0x3b
 2079 027a 05       		.uleb128 0x5
 2080 027b 27       		.uleb128 0x27
 2081 027c 19       		.uleb128 0x19
 2082 027d 49       		.uleb128 0x49
 2083 027e 13       		.uleb128 0x13
 2084 027f 3C       		.uleb128 0x3c
 2085 0280 19       		.uleb128 0x19
 2086 0281 01       		.uleb128 0x1
 2087 0282 13       		.uleb128 0x13
 2088 0283 00       		.byte	0
 2089 0284 00       		.byte	0
 2090 0285 2F       		.uleb128 0x2f
 2091 0286 2E       		.uleb128 0x2e
 2092 0287 01       		.byte	0x1
 2093 0288 3F       		.uleb128 0x3f
 2094 0289 19       		.uleb128 0x19
 2095 028a 03       		.uleb128 0x3
ARM GAS  /tmp/ccdHOckY.s 			page 38


 2096 028b 0E       		.uleb128 0xe
 2097 028c 3A       		.uleb128 0x3a
 2098 028d 0B       		.uleb128 0xb
 2099 028e 3B       		.uleb128 0x3b
 2100 028f 05       		.uleb128 0x5
 2101 0290 27       		.uleb128 0x27
 2102 0291 19       		.uleb128 0x19
 2103 0292 49       		.uleb128 0x49
 2104 0293 13       		.uleb128 0x13
 2105 0294 3C       		.uleb128 0x3c
 2106 0295 19       		.uleb128 0x19
 2107 0296 00       		.byte	0
 2108 0297 00       		.byte	0
 2109 0298 00       		.byte	0
 2110              		.section	.debug_loc,"",%progbits
 2111              	.Ldebug_loc0:
 2112              	.LLST0:
 2113 0000 00000000 		.4byte	.LVL0
 2114 0004 0A000000 		.4byte	.LVL2
 2115 0008 0100     		.2byte	0x1
 2116 000a 50       		.byte	0x50
 2117 000b 0A000000 		.4byte	.LVL2
 2118 000f 18000000 		.4byte	.LVL5
 2119 0013 0100     		.2byte	0x1
 2120 0015 54       		.byte	0x54
 2121 0016 18000000 		.4byte	.LVL5
 2122 001a 1A000000 		.4byte	.LFE63
 2123 001e 0100     		.2byte	0x1
 2124 0020 50       		.byte	0x50
 2125 0021 00000000 		.4byte	0
 2126 0025 00000000 		.4byte	0
 2127              	.LLST1:
 2128 0029 06000000 		.4byte	.LVL1
 2129 002d 0A000000 		.4byte	.LVL2
 2130 0031 0100     		.2byte	0x1
 2131 0033 50       		.byte	0x50
 2132 0034 0A000000 		.4byte	.LVL2
 2133 0038 18000000 		.4byte	.LVL5
 2134 003c 0100     		.2byte	0x1
 2135 003e 54       		.byte	0x54
 2136 003f 00000000 		.4byte	0
 2137 0043 00000000 		.4byte	0
 2138              	.LLST2:
 2139 0047 00000000 		.4byte	.LVL6
 2140 004b 54000000 		.4byte	.LVL10
 2141 004f 0100     		.2byte	0x1
 2142 0051 50       		.byte	0x50
 2143 0052 54000000 		.4byte	.LVL10
 2144 0056 5C000000 		.4byte	.LVL11
 2145 005a 0100     		.2byte	0x1
 2146 005c 55       		.byte	0x55
 2147 005d 5C000000 		.4byte	.LVL11
 2148 0061 60000000 		.4byte	.LVL12
 2149 0065 0400     		.2byte	0x4
 2150 0067 F3       		.byte	0xf3
 2151 0068 01       		.uleb128 0x1
 2152 0069 50       		.byte	0x50
ARM GAS  /tmp/ccdHOckY.s 			page 39


 2153 006a 9F       		.byte	0x9f
 2154 006b 60000000 		.4byte	.LVL12
 2155 006f 6C000000 		.4byte	.LVL13
 2156 0073 0100     		.2byte	0x1
 2157 0075 50       		.byte	0x50
 2158 0076 6C000000 		.4byte	.LVL13
 2159 007a A0000000 		.4byte	.LVL18
 2160 007e 0100     		.2byte	0x1
 2161 0080 55       		.byte	0x55
 2162 0081 A0000000 		.4byte	.LVL18
 2163 0085 A4000000 		.4byte	.LFE64
 2164 0089 0700     		.2byte	0x7
 2165 008b 73       		.byte	0x73
 2166 008c 00       		.sleb128 0
 2167 008d 33       		.byte	0x33
 2168 008e 24       		.byte	0x24
 2169 008f 72       		.byte	0x72
 2170 0090 00       		.sleb128 0
 2171 0091 22       		.byte	0x22
 2172 0092 00000000 		.4byte	0
 2173 0096 00000000 		.4byte	0
 2174              	.LLST3:
 2175 009a 3A000000 		.4byte	.LVL8
 2176 009e 3C000000 		.4byte	.LVL9
 2177 00a2 0200     		.2byte	0x2
 2178 00a4 30       		.byte	0x30
 2179 00a5 9F       		.byte	0x9f
 2180 00a6 7C000000 		.4byte	.LVL15
 2181 00aa 7E000000 		.4byte	.LVL16
 2182 00ae 0300     		.2byte	0x3
 2183 00b0 73       		.byte	0x73
 2184 00b1 01       		.sleb128 1
 2185 00b2 9F       		.byte	0x9f
 2186 00b3 7E000000 		.4byte	.LVL16
 2187 00b7 82000000 		.4byte	.LVL17
 2188 00bb 0100     		.2byte	0x1
 2189 00bd 53       		.byte	0x53
 2190 00be 82000000 		.4byte	.LVL17
 2191 00c2 A4000000 		.4byte	.LFE64
 2192 00c6 0300     		.2byte	0x3
 2193 00c8 73       		.byte	0x73
 2194 00c9 01       		.sleb128 1
 2195 00ca 9F       		.byte	0x9f
 2196 00cb 00000000 		.4byte	0
 2197 00cf 00000000 		.4byte	0
 2198              	.LLST4:
 2199 00d3 00000000 		.4byte	.LVL6
 2200 00d7 54000000 		.4byte	.LVL10
 2201 00db 0200     		.2byte	0x2
 2202 00dd 30       		.byte	0x30
 2203 00de 9F       		.byte	0x9f
 2204 00df 60000000 		.4byte	.LVL12
 2205 00e3 A4000000 		.4byte	.LFE64
 2206 00e7 0200     		.2byte	0x2
 2207 00e9 31       		.byte	0x31
 2208 00ea 9F       		.byte	0x9f
 2209 00eb 00000000 		.4byte	0
ARM GAS  /tmp/ccdHOckY.s 			page 40


 2210 00ef 00000000 		.4byte	0
 2211              	.LLST5:
 2212 00f3 00000000 		.4byte	.LVL19
 2213 00f7 1E000000 		.4byte	.LVL20
 2214 00fb 0100     		.2byte	0x1
 2215 00fd 50       		.byte	0x50
 2216 00fe 1E000000 		.4byte	.LVL20
 2217 0102 62000000 		.4byte	.LFE65
 2218 0106 0100     		.2byte	0x1
 2219 0108 56       		.byte	0x56
 2220 0109 00000000 		.4byte	0
 2221 010d 00000000 		.4byte	0
 2222              	.LLST6:
 2223 0111 00000000 		.4byte	.LVL19
 2224 0115 1E000000 		.4byte	.LVL20
 2225 0119 0200     		.2byte	0x2
 2226 011b 30       		.byte	0x30
 2227 011c 9F       		.byte	0x9f
 2228 011d 00000000 		.4byte	0
 2229 0121 00000000 		.4byte	0
 2230              	.LLST7:
 2231 0125 32000000 		.4byte	.LVL21
 2232 0129 5E000000 		.4byte	.LVL25
 2233 012d 0100     		.2byte	0x1
 2234 012f 57       		.byte	0x57
 2235 0130 00000000 		.4byte	0
 2236 0134 00000000 		.4byte	0
 2237              	.LLST8:
 2238 0138 00000000 		.4byte	.LVL26
 2239 013c 10000000 		.4byte	.LVL27
 2240 0140 0200     		.2byte	0x2
 2241 0142 30       		.byte	0x30
 2242 0143 9F       		.byte	0x9f
 2243 0144 00000000 		.4byte	0
 2244 0148 00000000 		.4byte	0
 2245              		.section	.debug_aranges,"",%progbits
 2246 0000 34000000 		.4byte	0x34
 2247 0004 0200     		.2byte	0x2
 2248 0006 00000000 		.4byte	.Ldebug_info0
 2249 000a 04       		.byte	0x4
 2250 000b 00       		.byte	0
 2251 000c 0000     		.2byte	0
 2252 000e 0000     		.2byte	0
 2253 0010 00000000 		.4byte	.LFB63
 2254 0014 1A000000 		.4byte	.LFE63-.LFB63
 2255 0018 00000000 		.4byte	.LFB64
 2256 001c A4000000 		.4byte	.LFE64-.LFB64
 2257 0020 00000000 		.4byte	.LFB65
 2258 0024 62000000 		.4byte	.LFE65-.LFB65
 2259 0028 00000000 		.4byte	.LFB66
 2260 002c 26000000 		.4byte	.LFE66-.LFB66
 2261 0030 00000000 		.4byte	0
 2262 0034 00000000 		.4byte	0
 2263              		.section	.debug_ranges,"",%progbits
 2264              	.Ldebug_ranges0:
 2265 0000 00000000 		.4byte	.LFB63
 2266 0004 1A000000 		.4byte	.LFE63
ARM GAS  /tmp/ccdHOckY.s 			page 41


 2267 0008 00000000 		.4byte	.LFB64
 2268 000c A4000000 		.4byte	.LFE64
 2269 0010 00000000 		.4byte	.LFB65
 2270 0014 62000000 		.4byte	.LFE65
 2271 0018 00000000 		.4byte	.LFB66
 2272 001c 26000000 		.4byte	.LFE66
 2273 0020 00000000 		.4byte	0
 2274 0024 00000000 		.4byte	0
 2275              		.section	.debug_line,"",%progbits
 2276              	.Ldebug_line0:
 2277 0000 B0020000 		.section	.debug_str,"MS",%progbits,1
 2277      02000202 
 2277      00000201 
 2277      FB0E0D00 
 2277      01010101 
 2278              	.LASF83:
 2279 0000 7466756E 		.ascii	"tfunc_t\000"
 2279      635F7400 
 2280              	.LASF2:
 2281 0008 73697A65 		.ascii	"size_t\000"
 2281      5F7400
 2282              	.LASF78:
 2283 000f 7264796D 		.ascii	"rdymsg\000"
 2283      736700
 2284              	.LASF19:
 2285 0016 75696E74 		.ascii	"uint64_t\000"
 2285      36345F74 
 2285      00
 2286              	.LASF3:
 2287 001f 5F5F7569 		.ascii	"__uint8_t\000"
 2287      6E74385F 
 2287      7400
 2288              	.LASF114:
 2289 0029 696E6974 		.ascii	"init\000"
 2289      00
 2290              	.LASF68:
 2291 002e 6D656D67 		.ascii	"memgetfunc_t\000"
 2291      65746675 
 2291      6E635F74 
 2291      00
 2292              	.LASF131:
 2293 003b 53746172 		.ascii	"StartTaskWithPriority\000"
 2293      74546173 
 2293      6B576974 
 2293      68507269 
 2293      6F726974 
 2294              	.LASF99:
 2295 0051 6B566578 		.ascii	"kVexDigitalOutput\000"
 2295      44696769 
 2295      74616C4F 
 2295      75747075 
 2295      7400
 2296              	.LASF14:
 2297 0063 6C6F6E67 		.ascii	"long long unsigned int\000"
 2297      206C6F6E 
 2297      6720756E 
 2297      7369676E 
ARM GAS  /tmp/ccdHOckY.s 			page 42


 2297      65642069 
 2298              	.LASF130:
 2299 007a 76657852 		.ascii	"vexRobotcTask\000"
 2299      6F626F74 
 2299      63546173 
 2299      6B00
 2300              	.LASF97:
 2301 0088 6B566578 		.ascii	"kVexDigital_Num\000"
 2301      44696769 
 2301      74616C5F 
 2301      4E756D00 
 2302              	.LASF72:
 2303 0098 685F6672 		.ascii	"h_free\000"
 2303      656500
 2304              	.LASF120:
 2305 009f 49544D5F 		.ascii	"ITM_RxBuffer\000"
 2305      52784275 
 2305      66666572 
 2305      00
 2306              	.LASF74:
 2307 00ac 6E657874 		.ascii	"next\000"
 2307      00
 2308              	.LASF20:
 2309 00b1 626F6F6C 		.ascii	"bool_t\000"
 2309      5F7400
 2310              	.LASF33:
 2311 00b8 705F7072 		.ascii	"p_prio\000"
 2311      696F00
 2312              	.LASF16:
 2313 00bf 696E7431 		.ascii	"int16_t\000"
 2313      365F7400 
 2314              	.LASF12:
 2315 00c7 6C6F6E67 		.ascii	"long long int\000"
 2315      206C6F6E 
 2315      6720696E 
 2315      7400
 2316              	.LASF1:
 2317 00d5 7369676E 		.ascii	"signed char\000"
 2317      65642063 
 2317      68617200 
 2318              	.LASF73:
 2319 00e1 685F6D74 		.ascii	"h_mtx\000"
 2319      7800
 2320              	.LASF49:
 2321 00e7 705F6D70 		.ascii	"p_mpool\000"
 2321      6F6F6C00 
 2322              	.LASF121:
 2323 00ef 76657854 		.ascii	"vexTaskRegister\000"
 2323      61736B52 
 2323      65676973 
 2323      74657200 
 2324              	.LASF65:
 2325 00ff 6D5F7175 		.ascii	"m_queue\000"
 2325      65756500 
 2326              	.LASF25:
 2327 0107 74736C69 		.ascii	"tslices_t\000"
 2327      6365735F 
ARM GAS  /tmp/ccdHOckY.s 			page 43


 2327      7400
 2328              	.LASF9:
 2329 0111 6C6F6E67 		.ascii	"long int\000"
 2329      20696E74 
 2329      00
 2330              	.LASF123:
 2331 011a 63685468 		.ascii	"chThdCreateFromHeap\000"
 2331      64437265 
 2331      61746546 
 2331      726F6D48 
 2331      65617000 
 2332              	.LASF23:
 2333 012e 74737461 		.ascii	"tstate_t\000"
 2333      74655F74 
 2333      00
 2334              	.LASF113:
 2335 0137 66756E63 		.ascii	"func\000"
 2335      00
 2336              	.LASF86:
 2337 013c 6B566578 		.ascii	"kVexDigital_2\000"
 2337      44696769 
 2337      74616C5F 
 2337      3200
 2338              	.LASF42:
 2339 014a 705F7469 		.ascii	"p_time\000"
 2339      6D6500
 2340              	.LASF122:
 2341 0151 63685468 		.ascii	"chThdTerminate\000"
 2341      64546572 
 2341      6D696E61 
 2341      746500
 2342              	.LASF35:
 2343 0160 705F6E65 		.ascii	"p_newer\000"
 2343      77657200 
 2344              	.LASF79:
 2345 0168 65786974 		.ascii	"exitcode\000"
 2345      636F6465 
 2345      00
 2346              	.LASF60:
 2347 0171 725F6E65 		.ascii	"r_newer\000"
 2347      77657200 
 2348              	.LASF52:
 2349 0179 72656761 		.ascii	"regarm_t\000"
 2349      726D5F74 
 2349      00
 2350              	.LASF108:
 2351 0182 6B496D65 		.ascii	"kImeTotal\000"
 2351      546F7461 
 2351      6C00
 2352              	.LASF76:
 2353 018c 616C6967 		.ascii	"align\000"
 2353      6E00
 2354              	.LASF0:
 2355 0192 756E7369 		.ascii	"unsigned int\000"
 2355      676E6564 
 2355      20696E74 
 2355      00
ARM GAS  /tmp/ccdHOckY.s 			page 44


 2356              	.LASF44:
 2357 019f 705F6D73 		.ascii	"p_msgqueue\000"
 2357      67717565 
 2357      756500
 2358              	.LASF128:
 2359 01aa 2F6D6E74 		.ascii	"/mnt/c/Users/DQ Sullivan/Downloads/Convex/convex/co"
 2359      2F632F55 
 2359      73657273 
 2359      2F445120 
 2359      53756C6C 
 2360 01dd 72746578 		.ascii	"rtex/projects/Vex2016 CyberBrains\000"
 2360      2F70726F 
 2360      6A656374 
 2360      732F5665 
 2360      78323031 
 2361              	.LASF126:
 2362 01ff 474E5520 		.ascii	"GNU C 4.8.2 -mcpu=cortex-m3 -mno-thumb-interwork -m"
 2362      4320342E 
 2362      382E3220 
 2362      2D6D6370 
 2362      753D636F 
 2363 0232 7468756D 		.ascii	"thumb -ggdb -O2 -fomit-frame-pointer -falign-functi"
 2363      62202D67 
 2363      67646220 
 2363      2D4F3220 
 2363      2D666F6D 
 2364 0265 6F6E733D 		.ascii	"ons=16 -ffunction-sections -fdata-sections -fno-com"
 2364      3136202D 
 2364      6666756E 
 2364      6374696F 
 2364      6E2D7365 
 2365 0298 6D6F6E00 		.ascii	"mon\000"
 2366              	.LASF77:
 2367 029c 73697A65 		.ascii	"size\000"
 2367      00
 2368              	.LASF7:
 2369 02a1 73686F72 		.ascii	"short unsigned int\000"
 2369      7420756E 
 2369      7369676E 
 2369      65642069 
 2369      6E7400
 2370              	.LASF27:
 2371 02b4 6D73675F 		.ascii	"msg_t\000"
 2371      7400
 2372              	.LASF85:
 2373 02ba 6B566578 		.ascii	"kVexDigital_1\000"
 2373      44696769 
 2373      74616C5F 
 2373      3100
 2374              	.LASF112:
 2375 02c8 7072696F 		.ascii	"priority\000"
 2375      72697479 
 2375      00
 2376              	.LASF87:
 2377 02d1 6B566578 		.ascii	"kVexDigital_3\000"
 2377      44696769 
 2377      74616C5F 
ARM GAS  /tmp/ccdHOckY.s 			page 45


 2377      3300
 2378              	.LASF88:
 2379 02df 6B566578 		.ascii	"kVexDigital_4\000"
 2379      44696769 
 2379      74616C5F 
 2379      3400
 2380              	.LASF89:
 2381 02ed 6B566578 		.ascii	"kVexDigital_5\000"
 2381      44696769 
 2381      74616C5F 
 2381      3500
 2382              	.LASF90:
 2383 02fb 6B566578 		.ascii	"kVexDigital_6\000"
 2383      44696769 
 2383      74616C5F 
 2383      3600
 2384              	.LASF91:
 2385 0309 6B566578 		.ascii	"kVexDigital_7\000"
 2385      44696769 
 2385      74616C5F 
 2385      3700
 2386              	.LASF92:
 2387 0317 6B566578 		.ascii	"kVexDigital_8\000"
 2387      44696769 
 2387      74616C5F 
 2387      3800
 2388              	.LASF93:
 2389 0325 6B566578 		.ascii	"kVexDigital_9\000"
 2389      44696769 
 2389      74616C5F 
 2389      3900
 2390              	.LASF51:
 2391 0333 54687265 		.ascii	"ThreadsList\000"
 2391      6164734C 
 2391      69737400 
 2392              	.LASF28:
 2393 033f 6576656E 		.ascii	"eventmask_t\000"
 2393      746D6173 
 2393      6B5F7400 
 2394              	.LASF53:
 2395 034b 73746B61 		.ascii	"stkalign_t\000"
 2395      6C69676E 
 2395      5F7400
 2396              	.LASF13:
 2397 0356 5F5F7569 		.ascii	"__uint64_t\000"
 2397      6E743634 
 2397      5F7400
 2398              	.LASF58:
 2399 0361 725F7072 		.ascii	"r_prio\000"
 2399      696F00
 2400              	.LASF110:
 2401 0368 5F726354 		.ascii	"_rcTask\000"
 2401      61736B00 
 2402              	.LASF56:
 2403 0370 73697A65 		.ascii	"sizetype\000"
 2403      74797065 
 2403      00
ARM GAS  /tmp/ccdHOckY.s 			page 46


 2404              	.LASF64:
 2405 0379 4D757465 		.ascii	"Mutex\000"
 2405      7800
 2406              	.LASF117:
 2407 037f 436C6561 		.ascii	"CleanupTask\000"
 2407      6E757054 
 2407      61736B00 
 2408              	.LASF36:
 2409 038b 705F6F6C 		.ascii	"p_older\000"
 2409      64657200 
 2410              	.LASF59:
 2411 0393 725F6374 		.ascii	"r_ctx\000"
 2411      7800
 2412              	.LASF50:
 2413 0399 54687265 		.ascii	"ThreadsQueue\000"
 2413      61647351 
 2413      75657565 
 2413      00
 2414              	.LASF116:
 2415 03a6 53746F70 		.ascii	"StopTask\000"
 2415      5461736B 
 2415      00
 2416              	.LASF61:
 2417 03af 725F6F6C 		.ascii	"r_older\000"
 2417      64657200 
 2418              	.LASF84:
 2419 03b7 6B566578 		.ascii	"kVexDigital_None\000"
 2419      44696769 
 2419      74616C5F 
 2419      4E6F6E65 
 2419      00
 2420              	.LASF100:
 2421 03c8 6B496D65 		.ascii	"kImeChannel_1\000"
 2421      4368616E 
 2421      6E656C5F 
 2421      3100
 2422              	.LASF24:
 2423 03d6 74726566 		.ascii	"trefs_t\000"
 2423      735F7400 
 2424              	.LASF32:
 2425 03de 705F7072 		.ascii	"p_prev\000"
 2425      657600
 2426              	.LASF26:
 2427 03e5 74707269 		.ascii	"tprio_t\000"
 2427      6F5F7400 
 2428              	.LASF21:
 2429 03ed 5F426F6F 		.ascii	"_Bool\000"
 2429      6C00
 2430              	.LASF17:
 2431 03f3 696E7433 		.ascii	"int32_t\000"
 2431      325F7400 
 2432              	.LASF4:
 2433 03fb 756E7369 		.ascii	"unsigned char\000"
 2433      676E6564 
 2433      20636861 
 2433      7200
 2434              	.LASF129:
ARM GAS  /tmp/ccdHOckY.s 			page 47


 2435 0409 68656170 		.ascii	"heap_header\000"
 2435      5F686561 
 2435      64657200 
 2436              	.LASF111:
 2437 0415 72635461 		.ascii	"rcTask\000"
 2437      736B00
 2438              	.LASF47:
 2439 041c 705F6D74 		.ascii	"p_mtxlist\000"
 2439      786C6973 
 2439      7400
 2440              	.LASF6:
 2441 0426 73686F72 		.ascii	"short int\000"
 2441      7420696E 
 2441      7400
 2442              	.LASF38:
 2443 0430 705F7374 		.ascii	"p_state\000"
 2443      61746500 
 2444              	.LASF41:
 2445 0438 705F7072 		.ascii	"p_preempt\000"
 2445      65656D70 
 2445      7400
 2446              	.LASF118:
 2447 0442 72635461 		.ascii	"rcTasks\000"
 2447      736B7300 
 2448              	.LASF81:
 2449 044a 65776D61 		.ascii	"ewmask\000"
 2449      736B00
 2450              	.LASF31:
 2451 0451 705F6E65 		.ascii	"p_next\000"
 2451      787400
 2452              	.LASF22:
 2453 0458 746D6F64 		.ascii	"tmode_t\000"
 2453      655F7400 
 2454              	.LASF39:
 2455 0460 705F666C 		.ascii	"p_flags\000"
 2455      61677300 
 2456              	.LASF30:
 2457 0468 54687265 		.ascii	"Thread\000"
 2457      616400
 2458              	.LASF46:
 2459 046f 705F6570 		.ascii	"p_epending\000"
 2459      656E6469 
 2459      6E6700
 2460              	.LASF127:
 2461 047a 2E2E2F2E 		.ascii	"../../opt/robotc_glue.c\000"
 2461      2E2F6F70 
 2461      742F726F 
 2461      626F7463 
 2461      5F676C75 
 2462              	.LASF18:
 2463 0492 75696E74 		.ascii	"uint32_t\000"
 2463      33325F74 
 2463      00
 2464              	.LASF57:
 2465 049b 725F7175 		.ascii	"r_queue\000"
 2465      65756500 
 2466              	.LASF124:
ARM GAS  /tmp/ccdHOckY.s 			page 48


 2467 04a3 63685468 		.ascii	"chThdResume\000"
 2467      64526573 
 2467      756D6500 
 2468              	.LASF75:
 2469 04af 68656170 		.ascii	"heap\000"
 2469      00
 2470              	.LASF11:
 2471 04b4 6C6F6E67 		.ascii	"long unsigned int\000"
 2471      20756E73 
 2471      69676E65 
 2471      6420696E 
 2471      7400
 2472              	.LASF62:
 2473 04c6 725F6375 		.ascii	"r_current\000"
 2473      7272656E 
 2473      7400
 2474              	.LASF82:
 2475 04d0 63686172 		.ascii	"char\000"
 2475      00
 2476              	.LASF101:
 2477 04d5 6B496D65 		.ascii	"kImeChannel_2\000"
 2477      4368616E 
 2477      6E656C5F 
 2477      3200
 2478              	.LASF102:
 2479 04e3 6B496D65 		.ascii	"kImeChannel_3\000"
 2479      4368616E 
 2479      6E656C5F 
 2479      3300
 2480              	.LASF103:
 2481 04f1 6B496D65 		.ascii	"kImeChannel_4\000"
 2481      4368616E 
 2481      6E656C5F 
 2481      3400
 2482              	.LASF104:
 2483 04ff 6B496D65 		.ascii	"kImeChannel_5\000"
 2483      4368616E 
 2483      6E656C5F 
 2483      3500
 2484              	.LASF105:
 2485 050d 6B496D65 		.ascii	"kImeChannel_6\000"
 2485      4368616E 
 2485      6E656C5F 
 2485      3600
 2486              	.LASF106:
 2487 051b 6B496D65 		.ascii	"kImeChannel_7\000"
 2487      4368616E 
 2487      6E656C5F 
 2487      3700
 2488              	.LASF107:
 2489 0529 6B496D65 		.ascii	"kImeChannel_8\000"
 2489      4368616E 
 2489      6E656C5F 
 2489      3800
 2490              	.LASF94:
 2491 0537 6B566578 		.ascii	"kVexDigital_10\000"
 2491      44696769 
ARM GAS  /tmp/ccdHOckY.s 			page 49


 2491      74616C5F 
 2491      313000
 2492              	.LASF95:
 2493 0546 6B566578 		.ascii	"kVexDigital_11\000"
 2493      44696769 
 2493      74616C5F 
 2493      313100
 2494              	.LASF96:
 2495 0555 6B566578 		.ascii	"kVexDigital_12\000"
 2495      44696769 
 2495      74616C5F 
 2495      313200
 2496              	.LASF67:
 2497 0564 6D5F6E65 		.ascii	"m_next\000"
 2497      787400
 2498              	.LASF29:
 2499 056b 73797374 		.ascii	"systime_t\000"
 2499      696D655F 
 2499      7400
 2500              	.LASF48:
 2501 0575 705F7265 		.ascii	"p_realprio\000"
 2501      616C7072 
 2501      696F00
 2502              	.LASF8:
 2503 0580 5F5F696E 		.ascii	"__int32_t\000"
 2503      7433325F 
 2503      7400
 2504              	.LASF10:
 2505 058a 5F5F7569 		.ascii	"__uint32_t\000"
 2505      6E743332 
 2505      5F7400
 2506              	.LASF55:
 2507 0595 636F6E74 		.ascii	"context\000"
 2507      65787400 
 2508              	.LASF54:
 2509 059d 696E7463 		.ascii	"intctx\000"
 2509      747800
 2510              	.LASF125:
 2511 05a4 63685468 		.ascii	"chThdWait\000"
 2511      64576169 
 2511      7400
 2512              	.LASF40:
 2513 05ae 705F7265 		.ascii	"p_refs\000"
 2513      667300
 2514              	.LASF115:
 2515 05b5 6D656D66 		.ascii	"memfree\000"
 2515      72656500 
 2516              	.LASF63:
 2517 05bd 52656164 		.ascii	"ReadyList\000"
 2517      794C6973 
 2517      7400
 2518              	.LASF119:
 2519 05c7 726C6973 		.ascii	"rlist\000"
 2519      7400
 2520              	.LASF109:
 2521 05cd 6B496D65 		.ascii	"kImeChannelNone\000"
 2521      4368616E 
ARM GAS  /tmp/ccdHOckY.s 			page 50


 2521      6E656C4E 
 2521      6F6E6500 
 2522              	.LASF15:
 2523 05dd 75696E74 		.ascii	"uint8_t\000"
 2523      385F7400 
 2524              	.LASF71:
 2525 05e5 685F7072 		.ascii	"h_provider\000"
 2525      6F766964 
 2525      657200
 2526              	.LASF5:
 2527 05f0 5F5F696E 		.ascii	"__int16_t\000"
 2527      7431365F 
 2527      7400
 2528              	.LASF80:
 2529 05fa 77746F62 		.ascii	"wtobjp\000"
 2529      6A7000
 2530              	.LASF37:
 2531 0601 705F6E61 		.ascii	"p_name\000"
 2531      6D6500
 2532              	.LASF45:
 2533 0608 705F6D73 		.ascii	"p_msg\000"
 2533      6700
 2534              	.LASF66:
 2535 060e 6D5F6F77 		.ascii	"m_owner\000"
 2535      6E657200 
 2536              	.LASF69:
 2537 0616 4D656D6F 		.ascii	"MemoryHeap\000"
 2537      72794865 
 2537      617000
 2538              	.LASF34:
 2539 0621 705F6374 		.ascii	"p_ctx\000"
 2539      7800
 2540              	.LASF43:
 2541 0627 705F7761 		.ascii	"p_waiting\000"
 2541      6974696E 
 2541      6700
 2542              	.LASF98:
 2543 0631 6B566578 		.ascii	"kVexDigitalInput\000"
 2543      44696769 
 2543      74616C49 
 2543      6E707574 
 2543      00
 2544              	.LASF70:
 2545 0642 6D656D6F 		.ascii	"memory_heap\000"
 2545      72795F68 
 2545      65617000 
 2546              		.ident	"GCC: (4.8.2-14ubuntu1+6) 4.8.2"
ARM GAS  /tmp/ccdHOckY.s 			page 51


DEFINED SYMBOLS
                            *ABS*:0000000000000000 robotc_glue.c
     /tmp/ccdHOckY.s:19     .text.vexRobotcTask:0000000000000000 $t
     /tmp/ccdHOckY.s:24     .text.vexRobotcTask:0000000000000000 vexRobotcTask
     /tmp/ccdHOckY.s:346    .rodata.str1.4:0000000000000000 .LC0
     /tmp/ccdHOckY.s:61     .text.StartTaskWithPriority:0000000000000000 $t
     /tmp/ccdHOckY.s:67     .text.StartTaskWithPriority:0000000000000000 StartTaskWithPriority
     /tmp/ccdHOckY.s:339    .data.init.7340:0000000000000000 .LANCHOR0
     /tmp/ccdHOckY.s:350    .bss.rcTasks:0000000000000000 .LANCHOR1
     /tmp/ccdHOckY.s:201    .text.StopTask:0000000000000000 $t
     /tmp/ccdHOckY.s:207    .text.StopTask:0000000000000000 StopTask
     /tmp/ccdHOckY.s:291    .text.CleanupTask:0000000000000000 $t
     /tmp/ccdHOckY.s:297    .text.CleanupTask:0000000000000000 CleanupTask
     /tmp/ccdHOckY.s:342    .data.init.7340:0000000000000000 init.7340
     /tmp/ccdHOckY.s:345    .rodata.str1.4:0000000000000000 $d
     /tmp/ccdHOckY.s:349    .bss.rcTasks:0000000000000000 $d
     /tmp/ccdHOckY.s:353    .bss.rcTasks:0000000000000000 rcTasks
                     .debug_frame:0000000000000010 $d

UNDEFINED SYMBOLS
vexTaskRegister
chThdCreateFromHeap
rlist
chThdTerminate
chThdResume
chThdWait
