ARM GAS  /tmp/ccdHOckY.s 			page 1


   1              		.syntax unified
   2              		.cpu cortex-m3
   3              		.fpu softvfp
   4              		.eabi_attribute 20, 1
   5              		.eabi_attribute 21, 1
   6              		.eabi_attribute 23, 3
   7              		.eabi_attribute 24, 1
   8              		.eabi_attribute 25, 1
   9              		.eabi_attribute 26, 1
  10              		.eabi_attribute 30, 2
  11              		.eabi_attribute 34, 1
  12              		.eabi_attribute 18, 4
  13              		.thumb
  14              		.file	"robotc_glue.c"
  15              		.text
  16              	.Ltext0:
  17              		.cfi_sections	.debug_frame
  18              		.section	.text.vexRobotcTask,"ax",%progbits
  19              		.align	2
  20              		.p2align 4,,15
  21              		.thumb
  22              		.thumb_func
  23              		.type	vexRobotcTask, %function
  24              	vexRobotcTask:
  25              	.LFB63:
  26              		.file 1 "../../opt/robotc_glue.c"
  27              		.loc 1 84 0
  28              		.cfi_startproc
  29              		@ args = 0, pretend = 0, frame = 0
  30              		@ frame_needed = 0, uses_anonymous_args = 0
  31              	.LVL0:
  32 0000 10B5     		push	{r4, lr}
  33              		.cfi_def_cfa_offset 8
  34              		.cfi_offset 4, -8
  35              		.cfi_offset 14, -4
  36              		.loc 1 86 0
  37 0002 0446     		mov	r4, r0
  38 0004 40B1     		cbz	r0, .L3
  39              	.LVL1:
  40              	.LBB2:
  41              		.loc 1 90 0
  42 0006 40F20000 		movw	r0, #:lower16:.LC0
  43              	.LVL2:
  44 000a C0F20000 		movt	r0, #:upper16:.LC0
  45 000e FFF7FEFF 		bl	vexTaskRegister
  46              	.LVL3:
  47              		.loc 1 93 0
  48 0012 0020     		movs	r0, #0
  49 0014 A047     		blx	r4
  50              	.LVL4:
  51 0016 10BD     		pop	{r4, pc}
  52              	.LVL5:
  53              	.L3:
  54              	.LBE2:
  55              		.loc 1 97 0
  56 0018 10BD     		pop	{r4, pc}
  57              		.cfi_endproc
ARM GAS  /tmp/ccdHOckY.s 			page 2


  58              	.LFE63:
  59              		.size	vexRobotcTask, .-vexRobotcTask
  60 001a 00BFAFF3 		.section	.text.StartTaskWithPriority,"ax",%progbits
  60      0080
  61              		.align	2
  62              		.p2align 4,,15
  63              		.global	StartTaskWithPriority
  64              		.thumb
  65              		.thumb_func
  66              		.type	StartTaskWithPriority, %function
  67              	StartTaskWithPriority:
  68              	.LFB64:
  69              		.loc 1 107 0
  70              		.cfi_startproc
  71              		@ args = 4, pretend = 12, frame = 0
  72              		@ frame_needed = 0, uses_anonymous_args = 1
  73              	.LVL6:
  74 0000 0EB4     		push	{r1, r2, r3}
  75              		.cfi_def_cfa_offset 12
  76              		.cfi_offset 1, -12
  77              		.cfi_offset 2, -8
  78              		.cfi_offset 3, -4
  79 0002 70B5     		push	{r4, r5, r6, lr}
  80              		.cfi_def_cfa_offset 28
  81              		.cfi_offset 4, -28
  82              		.cfi_offset 5, -24
  83              		.cfi_offset 6, -20
  84              		.cfi_offset 14, -16
  85              		.loc 1 113 0
  86 0004 40F20006 		movw	r6, #:lower16:.LANCHOR0
  87 0008 C0F20006 		movt	r6, #:upper16:.LANCHOR0
  88 000c 3378     		ldrb	r3, [r6]	@ zero_extendqisi2
  89 000e 40F20004 		movw	r4, #:lower16:.LANCHOR1
  90              		.loc 1 107 0
  91 0012 83B0     		sub	sp, sp, #12
  92              		.cfi_def_cfa_offset 40
  93              		.loc 1 107 0
  94 0014 0546     		mov	r5, r0
  95 0016 C0F20004 		movt	r4, #:upper16:.LANCHOR1
  96              		.loc 1 113 0
  97 001a 73B1     		cbz	r3, .L6
  98 001c 0023     		movs	r3, #0
  99 001e 40F20004 		movw	r4, #:lower16:.LANCHOR1
 100              		.loc 1 117 0
 101 0022 1A46     		mov	r2, r3
 102 0024 C0F20004 		movt	r4, #:upper16:.LANCHOR1
 103              	.L8:
 104 0028 E118     		adds	r1, r4, r3
 105              		.loc 1 117 0 is_stmt 0 discriminator 2
 106 002a E250     		str	r2, [r4, r3]
 107 002c 0833     		adds	r3, r3, #8
 108              		.loc 1 115 0 is_stmt 1 discriminator 2
 109 002e 502B     		cmp	r3, #80
 110              		.loc 1 118 0 discriminator 2
 111 0030 4A60     		str	r2, [r1, #4]
 112              	.LVL7:
 113              		.loc 1 117 0 discriminator 2
ARM GAS  /tmp/ccdHOckY.s 			page 3


 114 0032 4FF00001 		mov	r1, #0
 115              		.loc 1 115 0 discriminator 2
 116 0036 F7D1     		bne	.L8
 117              		.loc 1 121 0
 118 0038 3170     		strb	r1, [r6]
 119              	.L6:
 120              	.LVL8:
 121              		.loc 1 113 0
 122 003a 0023     		movs	r3, #0
 123              	.LVL9:
 124              	.L12:
 125              		.loc 1 127 0
 126 003c E258     		ldr	r2, [r4, r3]
 127 003e 0833     		adds	r3, r3, #8
 128 0040 AA42     		cmp	r2, r5
 129 0042 07D0     		beq	.L14
 130              		.loc 1 125 0
 131 0044 502B     		cmp	r3, #80
 132 0046 F9D1     		bne	.L12
 133 0048 0023     		movs	r3, #0
 134              	.L15:
 135              		.loc 1 134 0
 136 004a E658     		ldr	r6, [r4, r3]
 137 004c 0833     		adds	r3, r3, #8
 138 004e 3EB1     		cbz	r6, .L13
 139              		.loc 1 132 0
 140 0050 502B     		cmp	r3, #80
 141 0052 FAD1     		bne	.L15
 142              	.LVL10:
 143              	.L14:
 144              		.loc 1 128 0
 145 0054 0020     		movs	r0, #0
 146              	.L31:
 147              		.loc 1 162 0
 148 0056 03B0     		add	sp, sp, #12
 149              		@ sp needed
 150 0058 BDE87040 		pop	{r4, r5, r6, lr}
 151              	.LVL11:
 152 005c 03B0     		add	sp, sp, #12
 153 005e 7047     		bx	lr
 154              	.LVL12:
 155              	.L13:
 156              		.loc 1 144 0
 157 0060 40F20003 		movw	r3, #:lower16:vexRobotcTask
 158 0064 C0F20003 		movt	r3, #:upper16:vexRobotcTask
 159 0068 0095     		str	r5, [sp]
 160 006a 3046     		mov	r0, r6
 161              	.LVL13:
 162 006c 4FF43E71 		mov	r1, #760
 163 0070 079A     		ldr	r2, [sp, #28]
 164 0072 FFF7FEFF 		bl	chThdCreateFromHeap
 165              	.LVL14:
 166              		.loc 1 147 0
 167 0076 3346     		mov	r3, r6
 168 0078 18B9     		cbnz	r0, .L18
 169 007a EBE7     		b	.L14
 170              	.LVL15:
ARM GAS  /tmp/ccdHOckY.s 			page 4


 171              	.L16:
 172 007c 0133     		adds	r3, r3, #1
 173              	.LVL16:
 174              		.loc 1 150 0
 175 007e 0A2B     		cmp	r3, #10
 176 0080 E9D0     		beq	.L31
 177              	.LVL17:
 178              	.L18:
 179 0082 04EBC301 		add	r1, r4, r3, lsl #3
 180              		.loc 1 152 0
 181 0086 4E68     		ldr	r6, [r1, #4]
 182 0088 40F20002 		movw	r2, #:lower16:.LANCHOR1
 183 008c C0F20002 		movt	r2, #:upper16:.LANCHOR1
 184 0090 002E     		cmp	r6, #0
 185 0092 F3D1     		bne	.L16
 186              		.loc 1 154 0
 187 0094 4860     		str	r0, [r1, #4]
 188              		.loc 1 155 0
 189 0096 42F83350 		str	r5, [r2, r3, lsl #3]
 190              		.loc 1 162 0
 191 009a 03B0     		add	sp, sp, #12
 192              		@ sp needed
 193 009c BDE87040 		pop	{r4, r5, r6, lr}
 194              	.LVL18:
 195 00a0 03B0     		add	sp, sp, #12
 196 00a2 7047     		bx	lr
 197              		.cfi_endproc
 198              	.LFE64:
 199              		.size	StartTaskWithPriority, .-StartTaskWithPriority
 200 00a4 AFF30080 		.section	.text.StopTask,"ax",%progbits
 200      AFF30080 
 200      AFF30080 
 201              		.align	2
 202              		.p2align 4,,15
 203              		.global	StopTask
 204              		.thumb
 205              		.thumb_func
 206              		.type	StopTask, %function
 207              	StopTask:
 208              	.LFB65:
 209              		.loc 1 170 0
 210              		.cfi_startproc
 211              		@ args = 0, pretend = 0, frame = 0
 212              		@ frame_needed = 0, uses_anonymous_args = 0
 213              	.LVL19:
 214 0000 2DE9F84F 		push	{r3, r4, r5, r6, r7, r8, r9, r10, fp, lr}
 215              		.cfi_def_cfa_offset 40
 216              		.cfi_offset 3, -40
 217              		.cfi_offset 4, -36
 218              		.cfi_offset 5, -32
 219              		.cfi_offset 6, -28
 220              		.cfi_offset 7, -24
 221              		.cfi_offset 8, -20
 222              		.cfi_offset 9, -16
 223              		.cfi_offset 10, -12
 224              		.cfi_offset 11, -8
 225              		.cfi_offset 14, -4
ARM GAS  /tmp/ccdHOckY.s 			page 5


 226 0004 40F20005 		movw	r5, #:lower16:.LANCHOR1
 227 0008 C0F20005 		movt	r5, #:upper16:.LANCHOR1
 228              		.loc 1 170 0
 229 000c 0024     		movs	r4, #0
 230              		.loc 1 183 0
 231 000e 40F20008 		movw	r8, #:lower16:rlist
 232              		.loc 1 170 0
 233 0012 0646     		mov	r6, r0
 234              		.loc 1 176 0
 235 0014 AA46     		mov	r10, r5
 236              		.loc 1 193 0
 237 0016 A346     		mov	fp, r4
 238              		.loc 1 183 0
 239 0018 C0F20008 		movt	r8, #:upper16:rlist
 240 001c 02E0     		b	.L36
 241              	.LVL20:
 242              	.L33:
 243 001e 0834     		adds	r4, r4, #8
 244              		.loc 1 174 0
 245 0020 502C     		cmp	r4, #80
 246 0022 1CD0     		beq	.L32
 247              	.L36:
 248              		.loc 1 176 0
 249 0024 2B59     		ldr	r3, [r5, r4]
 250 0026 B342     		cmp	r3, r6
 251 0028 F9D1     		bne	.L33
 252 002a 0AEB0409 		add	r9, r10, r4
 253              		.loc 1 178 0
 254 002e D9F80470 		ldr	r7, [r9, #4]
 255              	.LVL21:
 256              		.loc 1 187 0
 257 0032 3846     		mov	r0, r7
 258              		.loc 1 178 0
 259 0034 002F     		cmp	r7, #0
 260 0036 F2D0     		beq	.L33
 261              		.loc 1 183 0
 262 0038 D8F81830 		ldr	r3, [r8, #24]
 263 003c 9F42     		cmp	r7, r3
 264 003e 0ED0     		beq	.L32
 265              		.loc 1 187 0
 266 0040 FFF7FEFF 		bl	chThdTerminate
 267              	.LVL22:
 268              		.loc 1 189 0
 269 0044 3846     		mov	r0, r7
 270 0046 FFF7FEFF 		bl	chThdResume
 271              	.LVL23:
 272              		.loc 1 191 0
 273 004a 3846     		mov	r0, r7
 274 004c FFF7FEFF 		bl	chThdWait
 275              	.LVL24:
 276              		.loc 1 193 0
 277 0050 C9F804B0 		str	fp, [r9, #4]
 278              		.loc 1 194 0
 279 0054 44F80AB0 		str	fp, [r4, r10]
 280 0058 0834     		adds	r4, r4, #8
 281              		.loc 1 174 0
 282 005a 502C     		cmp	r4, #80
ARM GAS  /tmp/ccdHOckY.s 			page 6


 283 005c E2D1     		bne	.L36
 284              	.LVL25:
 285              	.L32:
 286 005e BDE8F88F 		pop	{r3, r4, r5, r6, r7, r8, r9, r10, fp, pc}
 287              		.cfi_endproc
 288              	.LFE65:
 289              		.size	StopTask, .-StopTask
 290 0062 00BFAFF3 		.section	.text.CleanupTask,"ax",%progbits
 290      0080AFF3 
 290      0080AFF3 
 290      0080
 291              		.align	2
 292              		.p2align 4,,15
 293              		.global	CleanupTask
 294              		.thumb
 295              		.thumb_func
 296              		.type	CleanupTask, %function
 297              	CleanupTask:
 298              	.LFB66:
 299              		.loc 1 208 0
 300              		.cfi_startproc
 301              		@ args = 0, pretend = 0, frame = 0
 302              		@ frame_needed = 0, uses_anonymous_args = 0
 303              		@ link register save eliminated.
 304              	.LVL26:
 305 0000 70B4     		push	{r4, r5, r6}
 306              		.cfi_def_cfa_offset 12
 307              		.cfi_offset 4, -12
 308              		.cfi_offset 5, -8
 309              		.cfi_offset 6, -4
 310 0002 40F20004 		movw	r4, #:lower16:.LANCHOR1
 311 0006 C0F20004 		movt	r4, #:upper16:.LANCHOR1
 312              		.loc 1 208 0
 313 000a 0023     		movs	r3, #0
 314 000c 2646     		mov	r6, r4
 315              		.loc 1 215 0
 316 000e 1D46     		mov	r5, r3
 317              	.LVL27:
 318              	.L46:
 319 0010 E218     		adds	r2, r4, r3
 320              		.loc 1 213 0
 321 0012 5168     		ldr	r1, [r2, #4]
 322 0014 8142     		cmp	r1, r0
 323              		.loc 1 215 0
 324 0016 04BF     		itt	eq
 325 0018 5560     		streq	r5, [r2, #4]
 326              		.loc 1 216 0
 327 001a 9D51     		streq	r5, [r3, r6]
 328 001c 0833     		adds	r3, r3, #8
 329              		.loc 1 211 0
 330 001e 502B     		cmp	r3, #80
 331 0020 F6D1     		bne	.L46
 332              		.loc 1 219 0
 333 0022 70BC     		pop	{r4, r5, r6}
 334 0024 7047     		bx	lr
 335              		.cfi_endproc
 336              	.LFE66:
ARM GAS  /tmp/ccdHOckY.s 			page 7


 337              		.size	CleanupTask, .-CleanupTask
 338 0026 00BFAFF3 		.section	.data.init.7340,"aw",%progbits
 338      0080AFF3 
 338      0080
 339              		.set	.LANCHOR0,. + 0
 340              		.type	init.7340, %object
 341              		.size	init.7340, 1
 342              	init.7340:
 343 0000 01       		.byte	1
 344              		.section	.rodata.str1.4,"aMS",%progbits,1
 345              		.align	2
 346              	.LC0:
 347 0000 726F626F 		.ascii	"robotc_task\000"
 347      74635F74 
 347      61736B00 
 348              		.section	.bss.rcTasks,"aw",%nobits
 349              		.align	2
 350              		.set	.LANCHOR1,. + 0
 351              		.type	rcTasks, %object
 352              		.size	rcTasks, 80
 353              	rcTasks:
 354 0000 00000000 		.space	80
 354      00000000 
 354      00000000 
 354      00000000 
 354      00000000 
 355              		.text
 356              	.Letext0:
 357              		.file 2 "/usr/lib/gcc/arm-none-eabi/4.8.2/include/stddef.h"
 358              		.file 3 "/usr/include/newlib/machine/_default_types.h"
 359              		.file 4 "/usr/include/newlib/stdint.h"
 360              		.file 5 "../../../../ChibiOS_2.6.2/os/ports/GCC/ARMCMx/chtypes.h"
 361              		.file 6 "../../../../ChibiOS_2.6.2/os/kernel/include/chlists.h"
 362              		.file 7 "../../../../ChibiOS_2.6.2/os/kernel/include/chthreads.h"
 363              		.file 8 "../../../../ChibiOS_2.6.2/os/ports/GCC/ARMCMx/chcore_v7m.h"
 364              		.file 9 "../../../../ChibiOS_2.6.2/os/kernel/include/chschd.h"
 365              		.file 10 "../../../../ChibiOS_2.6.2/os/kernel/include/chmtx.h"
 366              		.file 11 "../../../../ChibiOS_2.6.2/os/kernel/include/chmemcore.h"
 367              		.file 12 "../../../../ChibiOS_2.6.2/os/kernel/include/chheap.h"
 368              		.file 13 "../../fw/vexdigital.h"
 369              		.file 14 "../../fw/vexime.h"
 370              		.file 15 "../../../../ChibiOS_2.6.2/os/ports/common/ARMCMx/CMSIS/include/core_cm3.h"
 371              		.file 16 "../../fw/vex.h"
 372              		.file 17 "../../../../ChibiOS_2.6.2/os/kernel/include/chdynamic.h"