ARM GAS  /tmp/ccj7S6x5.s 			page 1


   1              		.syntax unified
   2              		.cpu cortex-m3
   3              		.fpu softvfp
   4              		.eabi_attribute 20, 1
   5              		.eabi_attribute 21, 1
   6              		.eabi_attribute 23, 3
   7              		.eabi_attribute 24, 1
   8              		.eabi_attribute 25, 1
   9              		.eabi_attribute 26, 1
  10              		.eabi_attribute 30, 2
  11              		.eabi_attribute 34, 1
  12              		.eabi_attribute 18, 4
  13              		.thumb
  14              		.file	"stm32_dma.c"
  15              		.text
  16              	.Ltext0:
  17              		.cfi_sections	.debug_frame
  18              		.section	.text.Vector6C,"ax",%progbits
  19              		.align	2
  20              		.p2align 4,,15
  21              		.global	Vector6C
  22              		.thumb
  23              		.thumb_func
  24              		.type	Vector6C, %function
  25              	Vector6C:
  26              	.LFB63:
  27              		.file 1 "../../../../ChibiOS_2.6.2/os/hal/platforms/STM32F1xx/stm32_dma.c"
  28              		.loc 1 126 0
  29              		.cfi_startproc
  30              		@ args = 0, pretend = 0, frame = 0
  31              		@ frame_needed = 0, uses_anonymous_args = 0
  32              		.loc 1 131 0
  33 0000 0022     		movs	r2, #0
  34 0002 C4F20202 		movt	r2, 16386
  35              		.loc 1 133 0
  36 0006 40F20003 		movw	r3, #:lower16:.LANCHOR0
  37              		.loc 1 131 0
  38 000a 1168     		ldr	r1, [r2]
  39              		.loc 1 133 0
  40 000c C0F20003 		movt	r3, #:upper16:.LANCHOR0
  41              		.loc 1 126 0
  42 0010 10B5     		push	{r4, lr}
  43              		.cfi_def_cfa_offset 8
  44              		.cfi_offset 4, -8
  45              		.cfi_offset 14, -4
  46              		.loc 1 133 0
  47 0012 1C68     		ldr	r4, [r3]
  48              		.loc 1 131 0
  49 0014 01F00F01 		and	r1, r1, #15
  50              	.LVL0:
  51              		.loc 1 132 0
  52 0018 5160     		str	r1, [r2, #4]
  53              		.loc 1 133 0
  54 001a 0CB1     		cbz	r4, .L2
  55              		.loc 1 134 0
  56 001c 5868     		ldr	r0, [r3, #4]
  57 001e A047     		blx	r4
ARM GAS  /tmp/ccj7S6x5.s 			page 2


  58              	.LVL1:
  59              	.L2:
  60              		.loc 1 137 0
  61 0020 BDE81040 		pop	{r4, lr}
  62              		.loc 1 136 0
  63 0024 FFF7FEBF 		b	_port_irq_epilogue
  64              	.LVL2:
  65              		.cfi_endproc
  66              	.LFE63:
  67              		.size	Vector6C, .-Vector6C
  68 0028 AFF30080 		.section	.text.Vector70,"ax",%progbits
  68      AFF30080 
  69              		.align	2
  70              		.p2align 4,,15
  71              		.global	Vector70
  72              		.thumb
  73              		.thumb_func
  74              		.type	Vector70, %function
  75              	Vector70:
  76              	.LFB64:
  77              		.loc 1 144 0
  78              		.cfi_startproc
  79              		@ args = 0, pretend = 0, frame = 0
  80              		@ frame_needed = 0, uses_anonymous_args = 0
  81              		.loc 1 149 0
  82 0000 0022     		movs	r2, #0
  83 0002 C4F20202 		movt	r2, 16386
  84 0006 1168     		ldr	r1, [r2]
  85              		.loc 1 151 0
  86 0008 40F20003 		movw	r3, #:lower16:.LANCHOR0
  87 000c C0F20003 		movt	r3, #:upper16:.LANCHOR0
  88              		.loc 1 144 0
  89 0010 10B5     		push	{r4, lr}
  90              		.cfi_def_cfa_offset 8
  91              		.cfi_offset 4, -8
  92              		.cfi_offset 14, -4
  93              		.loc 1 149 0
  94 0012 C1F30311 		ubfx	r1, r1, #4, #4
  95              	.LVL3:
  96              		.loc 1 151 0
  97 0016 9C68     		ldr	r4, [r3, #8]
  98              		.loc 1 150 0
  99 0018 0801     		lsls	r0, r1, #4
 100 001a 5060     		str	r0, [r2, #4]
 101              		.loc 1 151 0
 102 001c 0CB1     		cbz	r4, .L8
 103              		.loc 1 152 0
 104 001e D868     		ldr	r0, [r3, #12]
 105 0020 A047     		blx	r4
 106              	.LVL4:
 107              	.L8:
 108              		.loc 1 155 0
 109 0022 BDE81040 		pop	{r4, lr}
 110              		.loc 1 154 0
 111 0026 FFF7FEBF 		b	_port_irq_epilogue
 112              	.LVL5:
 113              		.cfi_endproc
ARM GAS  /tmp/ccj7S6x5.s 			page 3


 114              	.LFE64:
 115              		.size	Vector70, .-Vector70
 116 002a 00BFAFF3 		.section	.text.Vector74,"ax",%progbits
 116      0080
 117              		.align	2
 118              		.p2align 4,,15
 119              		.global	Vector74
 120              		.thumb
 121              		.thumb_func
 122              		.type	Vector74, %function
 123              	Vector74:
 124              	.LFB65:
 125              		.loc 1 162 0
 126              		.cfi_startproc
 127              		@ args = 0, pretend = 0, frame = 0
 128              		@ frame_needed = 0, uses_anonymous_args = 0
 129              		.loc 1 167 0
 130 0000 0022     		movs	r2, #0
 131 0002 C4F20202 		movt	r2, 16386
 132 0006 1168     		ldr	r1, [r2]
 133              		.loc 1 169 0
 134 0008 40F20003 		movw	r3, #:lower16:.LANCHOR0
 135 000c C0F20003 		movt	r3, #:upper16:.LANCHOR0
 136              		.loc 1 162 0
 137 0010 10B5     		push	{r4, lr}
 138              		.cfi_def_cfa_offset 8
 139              		.cfi_offset 4, -8
 140              		.cfi_offset 14, -4
 141              		.loc 1 167 0
 142 0012 C1F30321 		ubfx	r1, r1, #8, #4
 143              	.LVL6:
 144              		.loc 1 169 0
 145 0016 1C69     		ldr	r4, [r3, #16]
 146              		.loc 1 168 0
 147 0018 0802     		lsls	r0, r1, #8
 148 001a 5060     		str	r0, [r2, #4]
 149              		.loc 1 169 0
 150 001c 0CB1     		cbz	r4, .L13
 151              		.loc 1 170 0
 152 001e 5869     		ldr	r0, [r3, #20]
 153 0020 A047     		blx	r4
 154              	.LVL7:
 155              	.L13:
 156              		.loc 1 173 0
 157 0022 BDE81040 		pop	{r4, lr}
 158              		.loc 1 172 0
 159 0026 FFF7FEBF 		b	_port_irq_epilogue
 160              	.LVL8:
 161              		.cfi_endproc
 162              	.LFE65:
 163              		.size	Vector74, .-Vector74
 164 002a 00BFAFF3 		.section	.text.Vector78,"ax",%progbits
 164      0080
 165              		.align	2
 166              		.p2align 4,,15
 167              		.global	Vector78
 168              		.thumb
ARM GAS  /tmp/ccj7S6x5.s 			page 4


 169              		.thumb_func
 170              		.type	Vector78, %function
 171              	Vector78:
 172              	.LFB66:
 173              		.loc 1 180 0
 174              		.cfi_startproc
 175              		@ args = 0, pretend = 0, frame = 0
 176              		@ frame_needed = 0, uses_anonymous_args = 0
 177              		.loc 1 185 0
 178 0000 0022     		movs	r2, #0
 179 0002 C4F20202 		movt	r2, 16386
 180 0006 1168     		ldr	r1, [r2]
 181              		.loc 1 187 0
 182 0008 40F20003 		movw	r3, #:lower16:.LANCHOR0
 183 000c C0F20003 		movt	r3, #:upper16:.LANCHOR0
 184              		.loc 1 180 0
 185 0010 10B5     		push	{r4, lr}
 186              		.cfi_def_cfa_offset 8
 187              		.cfi_offset 4, -8
 188              		.cfi_offset 14, -4
 189              		.loc 1 185 0
 190 0012 C1F30331 		ubfx	r1, r1, #12, #4
 191              	.LVL9:
 192              		.loc 1 187 0
 193 0016 9C69     		ldr	r4, [r3, #24]
 194              		.loc 1 186 0
 195 0018 0803     		lsls	r0, r1, #12
 196 001a 5060     		str	r0, [r2, #4]
 197              		.loc 1 187 0
 198 001c 0CB1     		cbz	r4, .L18
 199              		.loc 1 188 0
 200 001e D869     		ldr	r0, [r3, #28]
 201 0020 A047     		blx	r4
 202              	.LVL10:
 203              	.L18:
 204              		.loc 1 191 0
 205 0022 BDE81040 		pop	{r4, lr}
 206              		.loc 1 190 0
 207 0026 FFF7FEBF 		b	_port_irq_epilogue
 208              	.LVL11:
 209              		.cfi_endproc
 210              	.LFE66:
 211              		.size	Vector78, .-Vector78
 212 002a 00BFAFF3 		.section	.text.Vector7C,"ax",%progbits
 212      0080
 213              		.align	2
 214              		.p2align 4,,15
 215              		.global	Vector7C
 216              		.thumb
 217              		.thumb_func
 218              		.type	Vector7C, %function
 219              	Vector7C:
 220              	.LFB67:
 221              		.loc 1 198 0
 222              		.cfi_startproc
 223              		@ args = 0, pretend = 0, frame = 0
 224              		@ frame_needed = 0, uses_anonymous_args = 0
ARM GAS  /tmp/ccj7S6x5.s 			page 5


 225              		.loc 1 203 0
 226 0000 0022     		movs	r2, #0
 227 0002 C4F20202 		movt	r2, 16386
 228 0006 1168     		ldr	r1, [r2]
 229              		.loc 1 205 0
 230 0008 40F20003 		movw	r3, #:lower16:.LANCHOR0
 231 000c C0F20003 		movt	r3, #:upper16:.LANCHOR0
 232              		.loc 1 198 0
 233 0010 10B5     		push	{r4, lr}
 234              		.cfi_def_cfa_offset 8
 235              		.cfi_offset 4, -8
 236              		.cfi_offset 14, -4
 237              		.loc 1 203 0
 238 0012 C1F30341 		ubfx	r1, r1, #16, #4
 239              	.LVL12:
 240              		.loc 1 205 0
 241 0016 1C6A     		ldr	r4, [r3, #32]
 242              		.loc 1 204 0
 243 0018 0804     		lsls	r0, r1, #16
 244 001a 5060     		str	r0, [r2, #4]
 245              		.loc 1 205 0
 246 001c 0CB1     		cbz	r4, .L23
 247              		.loc 1 206 0
 248 001e 586A     		ldr	r0, [r3, #36]
 249 0020 A047     		blx	r4
 250              	.LVL13:
 251              	.L23:
 252              		.loc 1 209 0
 253 0022 BDE81040 		pop	{r4, lr}
 254              		.loc 1 208 0
 255 0026 FFF7FEBF 		b	_port_irq_epilogue
 256              	.LVL14:
 257              		.cfi_endproc
 258              	.LFE67:
 259              		.size	Vector7C, .-Vector7C
 260 002a 00BFAFF3 		.section	.text.Vector80,"ax",%progbits
 260      0080
 261              		.align	2
 262              		.p2align 4,,15
 263              		.global	Vector80
 264              		.thumb
 265              		.thumb_func
 266              		.type	Vector80, %function
 267              	Vector80:
 268              	.LFB68:
 269              		.loc 1 216 0
 270              		.cfi_startproc
 271              		@ args = 0, pretend = 0, frame = 0
 272              		@ frame_needed = 0, uses_anonymous_args = 0
 273              		.loc 1 221 0
 274 0000 0022     		movs	r2, #0
 275 0002 C4F20202 		movt	r2, 16386
 276 0006 1168     		ldr	r1, [r2]
 277              		.loc 1 223 0
 278 0008 40F20003 		movw	r3, #:lower16:.LANCHOR0
 279 000c C0F20003 		movt	r3, #:upper16:.LANCHOR0
 280              		.loc 1 216 0
ARM GAS  /tmp/ccj7S6x5.s 			page 6


 281 0010 10B5     		push	{r4, lr}
 282              		.cfi_def_cfa_offset 8
 283              		.cfi_offset 4, -8
 284              		.cfi_offset 14, -4
 285              		.loc 1 221 0
 286 0012 C1F30351 		ubfx	r1, r1, #20, #4
 287              	.LVL15:
 288              		.loc 1 223 0
 289 0016 9C6A     		ldr	r4, [r3, #40]
 290              		.loc 1 222 0
 291 0018 0805     		lsls	r0, r1, #20
 292 001a 5060     		str	r0, [r2, #4]
 293              		.loc 1 223 0
 294 001c 0CB1     		cbz	r4, .L28
 295              		.loc 1 224 0
 296 001e D86A     		ldr	r0, [r3, #44]
 297 0020 A047     		blx	r4
 298              	.LVL16:
 299              	.L28:
 300              		.loc 1 227 0
 301 0022 BDE81040 		pop	{r4, lr}
 302              		.loc 1 226 0
 303 0026 FFF7FEBF 		b	_port_irq_epilogue
 304              	.LVL17:
 305              		.cfi_endproc
 306              	.LFE68:
 307              		.size	Vector80, .-Vector80
 308 002a 00BFAFF3 		.section	.text.Vector84,"ax",%progbits
 308      0080
 309              		.align	2
 310              		.p2align 4,,15
 311              		.global	Vector84
 312              		.thumb
 313              		.thumb_func
 314              		.type	Vector84, %function
 315              	Vector84:
 316              	.LFB69:
 317              		.loc 1 234 0
 318              		.cfi_startproc
 319              		@ args = 0, pretend = 0, frame = 0
 320              		@ frame_needed = 0, uses_anonymous_args = 0
 321              		.loc 1 239 0
 322 0000 0022     		movs	r2, #0
 323 0002 C4F20202 		movt	r2, 16386
 324 0006 1168     		ldr	r1, [r2]
 325              		.loc 1 241 0
 326 0008 40F20003 		movw	r3, #:lower16:.LANCHOR0
 327 000c C0F20003 		movt	r3, #:upper16:.LANCHOR0
 328              		.loc 1 234 0
 329 0010 10B5     		push	{r4, lr}
 330              		.cfi_def_cfa_offset 8
 331              		.cfi_offset 4, -8
 332              		.cfi_offset 14, -4
 333              		.loc 1 239 0
 334 0012 C1F30361 		ubfx	r1, r1, #24, #4
 335              	.LVL18:
 336              		.loc 1 241 0
ARM GAS  /tmp/ccj7S6x5.s 			page 7


 337 0016 1C6B     		ldr	r4, [r3, #48]
 338              		.loc 1 240 0
 339 0018 0806     		lsls	r0, r1, #24
 340 001a 5060     		str	r0, [r2, #4]
 341              		.loc 1 241 0
 342 001c 0CB1     		cbz	r4, .L33
 343              		.loc 1 242 0
 344 001e 586B     		ldr	r0, [r3, #52]
 345 0020 A047     		blx	r4
 346              	.LVL19:
 347              	.L33:
 348              		.loc 1 245 0
 349 0022 BDE81040 		pop	{r4, lr}
 350              		.loc 1 244 0
 351 0026 FFF7FEBF 		b	_port_irq_epilogue
 352              	.LVL20:
 353              		.cfi_endproc
 354              	.LFE69:
 355              		.size	Vector84, .-Vector84
 356 002a 00BFAFF3 		.section	.text.Vector120,"ax",%progbits
 356      0080
 357              		.align	2
 358              		.p2align 4,,15
 359              		.global	Vector120
 360              		.thumb
 361              		.thumb_func
 362              		.type	Vector120, %function
 363              	Vector120:
 364              	.LFB70:
 365              		.loc 1 253 0
 366              		.cfi_startproc
 367              		@ args = 0, pretend = 0, frame = 0
 368              		@ frame_needed = 0, uses_anonymous_args = 0
 369              		.loc 1 258 0
 370 0000 4FF48062 		mov	r2, #1024
 371 0004 C4F20202 		movt	r2, 16386
 372              		.loc 1 260 0
 373 0008 40F20003 		movw	r3, #:lower16:.LANCHOR0
 374              		.loc 1 258 0
 375 000c 1168     		ldr	r1, [r2]
 376              		.loc 1 260 0
 377 000e C0F20003 		movt	r3, #:upper16:.LANCHOR0
 378              		.loc 1 253 0
 379 0012 10B5     		push	{r4, lr}
 380              		.cfi_def_cfa_offset 8
 381              		.cfi_offset 4, -8
 382              		.cfi_offset 14, -4
 383              		.loc 1 260 0
 384 0014 9C6B     		ldr	r4, [r3, #56]
 385              		.loc 1 258 0
 386 0016 01F00F01 		and	r1, r1, #15
 387              	.LVL21:
 388              		.loc 1 259 0
 389 001a 5160     		str	r1, [r2, #4]
 390              		.loc 1 260 0
 391 001c 0CB1     		cbz	r4, .L38
 392              		.loc 1 261 0
ARM GAS  /tmp/ccj7S6x5.s 			page 8


 393 001e D86B     		ldr	r0, [r3, #60]
 394 0020 A047     		blx	r4
 395              	.LVL22:
 396              	.L38:
 397              		.loc 1 264 0
 398 0022 BDE81040 		pop	{r4, lr}
 399              		.loc 1 263 0
 400 0026 FFF7FEBF 		b	_port_irq_epilogue
 401              	.LVL23:
 402              		.cfi_endproc
 403              	.LFE70:
 404              		.size	Vector120, .-Vector120
 405 002a 00BFAFF3 		.section	.text.Vector124,"ax",%progbits
 405      0080
 406              		.align	2
 407              		.p2align 4,,15
 408              		.global	Vector124
 409              		.thumb
 410              		.thumb_func
 411              		.type	Vector124, %function
 412              	Vector124:
 413              	.LFB71:
 414              		.loc 1 271 0
 415              		.cfi_startproc
 416              		@ args = 0, pretend = 0, frame = 0
 417              		@ frame_needed = 0, uses_anonymous_args = 0
 418              		.loc 1 276 0
 419 0000 4FF48062 		mov	r2, #1024
 420 0004 C4F20202 		movt	r2, 16386
 421 0008 1168     		ldr	r1, [r2]
 422              		.loc 1 278 0
 423 000a 40F20003 		movw	r3, #:lower16:.LANCHOR0
 424 000e C0F20003 		movt	r3, #:upper16:.LANCHOR0
 425              		.loc 1 271 0
 426 0012 10B5     		push	{r4, lr}
 427              		.cfi_def_cfa_offset 8
 428              		.cfi_offset 4, -8
 429              		.cfi_offset 14, -4
 430              		.loc 1 276 0
 431 0014 C1F30311 		ubfx	r1, r1, #4, #4
 432              	.LVL24:
 433              		.loc 1 278 0
 434 0018 1C6C     		ldr	r4, [r3, #64]
 435              		.loc 1 277 0
 436 001a 0801     		lsls	r0, r1, #4
 437 001c 5060     		str	r0, [r2, #4]
 438              		.loc 1 278 0
 439 001e 0CB1     		cbz	r4, .L43
 440              		.loc 1 279 0
 441 0020 586C     		ldr	r0, [r3, #68]
 442 0022 A047     		blx	r4
 443              	.LVL25:
 444              	.L43:
 445              		.loc 1 282 0
 446 0024 BDE81040 		pop	{r4, lr}
 447              		.loc 1 281 0
 448 0028 FFF7FEBF 		b	_port_irq_epilogue
ARM GAS  /tmp/ccj7S6x5.s 			page 9


 449              	.LVL26:
 450              		.cfi_endproc
 451              	.LFE71:
 452              		.size	Vector124, .-Vector124
 453 002c AFF30080 		.section	.text.Vector128,"ax",%progbits
 454              		.align	2
 455              		.p2align 4,,15
 456              		.global	Vector128
 457              		.thumb
 458              		.thumb_func
 459              		.type	Vector128, %function
 460              	Vector128:
 461              	.LFB72:
 462              		.loc 1 289 0
 463              		.cfi_startproc
 464              		@ args = 0, pretend = 0, frame = 0
 465              		@ frame_needed = 0, uses_anonymous_args = 0
 466              		.loc 1 294 0
 467 0000 4FF48062 		mov	r2, #1024
 468 0004 C4F20202 		movt	r2, 16386
 469 0008 1168     		ldr	r1, [r2]
 470              		.loc 1 296 0
 471 000a 40F20003 		movw	r3, #:lower16:.LANCHOR0
 472 000e C0F20003 		movt	r3, #:upper16:.LANCHOR0
 473              		.loc 1 289 0
 474 0012 10B5     		push	{r4, lr}
 475              		.cfi_def_cfa_offset 8
 476              		.cfi_offset 4, -8
 477              		.cfi_offset 14, -4
 478              		.loc 1 294 0
 479 0014 C1F30321 		ubfx	r1, r1, #8, #4
 480              	.LVL27:
 481              		.loc 1 296 0
 482 0018 9C6C     		ldr	r4, [r3, #72]
 483              		.loc 1 295 0
 484 001a 0802     		lsls	r0, r1, #8
 485 001c 5060     		str	r0, [r2, #4]
 486              		.loc 1 296 0
 487 001e 0CB1     		cbz	r4, .L48
 488              		.loc 1 297 0
 489 0020 D86C     		ldr	r0, [r3, #76]
 490 0022 A047     		blx	r4
 491              	.LVL28:
 492              	.L48:
 493              		.loc 1 300 0
 494 0024 BDE81040 		pop	{r4, lr}
 495              		.loc 1 299 0
 496 0028 FFF7FEBF 		b	_port_irq_epilogue
 497              	.LVL29:
 498              		.cfi_endproc
 499              	.LFE72:
 500              		.size	Vector128, .-Vector128
 501 002c AFF30080 		.section	.text.Vector12C,"ax",%progbits
 502              		.align	2
 503              		.p2align 4,,15
 504              		.global	Vector12C
 505              		.thumb
ARM GAS  /tmp/ccj7S6x5.s 			page 10


 506              		.thumb_func
 507              		.type	Vector12C, %function
 508              	Vector12C:
 509              	.LFB73:
 510              		.loc 1 346 0
 511              		.cfi_startproc
 512              		@ args = 0, pretend = 0, frame = 0
 513              		@ frame_needed = 0, uses_anonymous_args = 0
 514              		.loc 1 352 0
 515 0000 4FF48063 		mov	r3, #1024
 516 0004 C4F20203 		movt	r3, 16386
 517 0008 1968     		ldr	r1, [r3]
 518              		.loc 1 346 0
 519 000a 10B5     		push	{r4, lr}
 520              		.cfi_def_cfa_offset 8
 521              		.cfi_offset 4, -8
 522              		.cfi_offset 14, -4
 523              		.loc 1 352 0
 524 000c C1F30331 		ubfx	r1, r1, #12, #4
 525              	.LVL30:
 526              		.loc 1 353 0
 527 0010 49B1     		cbz	r1, .L54
 528              		.loc 1 355 0
 529 0012 40F20002 		movw	r2, #:lower16:.LANCHOR0
 530 0016 C0F20002 		movt	r2, #:upper16:.LANCHOR0
 531 001a 146D     		ldr	r4, [r2, #80]
 532              		.loc 1 354 0
 533 001c 0803     		lsls	r0, r1, #12
 534 001e 5860     		str	r0, [r3, #4]
 535              		.loc 1 355 0
 536 0020 0CB1     		cbz	r4, .L54
 537              		.loc 1 356 0
 538 0022 506D     		ldr	r0, [r2, #84]
 539 0024 A047     		blx	r4
 540              	.LVL31:
 541              	.L54:
 542              		.loc 1 360 0
 543 0026 4FF48063 		mov	r3, #1024
 544 002a C4F20203 		movt	r3, 16386
 545 002e 1968     		ldr	r1, [r3]
 546 0030 C1F30341 		ubfx	r1, r1, #16, #4
 547              	.LVL32:
 548              		.loc 1 361 0
 549 0034 49B1     		cbz	r1, .L57
 550              		.loc 1 363 0
 551 0036 40F20002 		movw	r2, #:lower16:.LANCHOR0
 552 003a C0F20002 		movt	r2, #:upper16:.LANCHOR0
 553 003e 946D     		ldr	r4, [r2, #88]
 554              		.loc 1 362 0
 555 0040 0804     		lsls	r0, r1, #16
 556 0042 5860     		str	r0, [r3, #4]
 557              		.loc 1 363 0
 558 0044 0CB1     		cbz	r4, .L57
 559              		.loc 1 364 0
 560 0046 D06D     		ldr	r0, [r2, #92]
 561 0048 A047     		blx	r4
 562              	.LVL33:
ARM GAS  /tmp/ccj7S6x5.s 			page 11


 563              	.L57:
 564              		.loc 1 368 0
 565 004a BDE81040 		pop	{r4, lr}
 566              		.loc 1 367 0
 567 004e FFF7FEBF 		b	_port_irq_epilogue
 568              	.LVL34:
 569              		.cfi_endproc
 570              	.LFE73:
 571              		.size	Vector12C, .-Vector12C
 572 0052 00BFAFF3 		.section	.text.dmaInit,"ax",%progbits
 572      0080AFF3 
 572      0080AFF3 
 572      0080
 573              		.align	2
 574              		.p2align 4,,15
 575              		.global	dmaInit
 576              		.thumb
 577              		.thumb_func
 578              		.type	dmaInit, %function
 579              	dmaInit:
 580              	.LFB74:
 581              		.loc 1 381 0
 582              		.cfi_startproc
 583              		@ args = 0, pretend = 0, frame = 0
 584              		@ frame_needed = 0, uses_anonymous_args = 0
 585              		@ link register save eliminated.
 586              		.loc 1 384 0
 587 0000 40F20003 		movw	r3, #:lower16:.LANCHOR1
 588              		.loc 1 381 0
 589 0004 30B4     		push	{r4, r5}
 590              		.cfi_def_cfa_offset 8
 591              		.cfi_offset 4, -8
 592              		.cfi_offset 5, -4
 593              		.loc 1 384 0
 594 0006 0021     		movs	r1, #0
 595 0008 C0F20003 		movt	r3, #:upper16:.LANCHOR1
 596 000c 40F20005 		movw	r5, #:lower16:.LANCHOR2
 597 0010 40F20004 		movw	r4, #:lower16:.LANCHOR0
 598 0014 1960     		str	r1, [r3]
 599              	.LVL35:
 600 0016 0A46     		mov	r2, r1
 601 0018 0B46     		mov	r3, r1
 602 001a C0F20005 		movt	r5, #:upper16:.LANCHOR2
 603 001e C0F20004 		movt	r4, #:upper16:.LANCHOR0
 604              	.LVL36:
 605              	.L67:
 606              		.loc 1 386 0 discriminator 2
 607 0022 E858     		ldr	r0, [r5, r3]
 608 0024 0C33     		adds	r3, r3, #12
 609              		.loc 1 385 0 discriminator 2
 610 0026 902B     		cmp	r3, #144
 611              		.loc 1 386 0 discriminator 2
 612 0028 0160     		str	r1, [r0]
 613              		.loc 1 387 0 discriminator 2
 614 002a A150     		str	r1, [r4, r2]
 615 002c 02F10802 		add	r2, r2, #8
 616              		.loc 1 385 0 discriminator 2
ARM GAS  /tmp/ccj7S6x5.s 			page 12


 617 0030 F7D1     		bne	.L67
 618              		.loc 1 389 0
 619 0032 0021     		movs	r1, #0
 620              		.loc 1 391 0
 621 0034 4FF48063 		mov	r3, #1024
 622              		.loc 1 389 0
 623 0038 4FF0FF32 		mov	r2, #-1
 624 003c C4F20201 		movt	r1, 16386
 625              		.loc 1 391 0
 626 0040 C4F20203 		movt	r3, 16386
 627              		.loc 1 389 0
 628 0044 4A60     		str	r2, [r1, #4]
 629              		.loc 1 393 0
 630 0046 30BC     		pop	{r4, r5}
 631              		.loc 1 391 0
 632 0048 5A60     		str	r2, [r3, #4]
 633              		.loc 1 393 0
 634 004a 7047     		bx	lr
 635              		.cfi_endproc
 636              	.LFE74:
 637              		.size	dmaInit, .-dmaInit
 638 004c AFF30080 		.section	.text.dmaStreamAllocate,"ax",%progbits
 639              		.align	2
 640              		.p2align 4,,15
 641              		.global	dmaStreamAllocate
 642              		.thumb
 643              		.thumb_func
 644              		.type	dmaStreamAllocate, %function
 645              	dmaStreamAllocate:
 646              	.LFB75:
 647              		.loc 1 422 0
 648              		.cfi_startproc
 649              		@ args = 0, pretend = 0, frame = 0
 650              		@ frame_needed = 0, uses_anonymous_args = 0
 651              	.LVL37:
 652 0000 F8B5     		push	{r3, r4, r5, r6, r7, lr}
 653              		.cfi_def_cfa_offset 24
 654              		.cfi_offset 3, -24
 655              		.cfi_offset 4, -20
 656              		.cfi_offset 5, -16
 657              		.cfi_offset 6, -12
 658              		.cfi_offset 7, -8
 659              		.cfi_offset 14, -4
 660              		.loc 1 427 0
 661 0002 457A     		ldrb	r5, [r0, #9]	@ zero_extendqisi2
 662 0004 0126     		movs	r6, #1
 663 0006 06FA05FC 		lsl	ip, r6, r5
 664 000a 40F20004 		movw	r4, #:lower16:.LANCHOR1
 665 000e C0F20004 		movt	r4, #:upper16:.LANCHOR1
 666 0012 2768     		ldr	r7, [r4]
 667 0014 1CEA070F 		tst	ip, r7
 668 0018 3AD1     		bne	.L73
 669              		.loc 1 431 0
 670 001a 40F20006 		movw	r6, #:lower16:.LANCHOR0
 671 001e C0F20006 		movt	r6, #:upper16:.LANCHOR0
 672              		.loc 1 433 0
 673 0022 4CEA0707 		orr	r7, ip, r7
ARM GAS  /tmp/ccj7S6x5.s 			page 13


 674              		.loc 1 432 0
 675 0026 06EBC50C 		add	ip, r6, r5, lsl #3
 676              		.loc 1 431 0
 677 002a 46F83520 		str	r2, [r6, r5, lsl #3]
 678              		.loc 1 432 0
 679 002e CCF80430 		str	r3, [ip, #4]
 680              		.loc 1 436 0
 681 0032 7B06     		lsls	r3, r7, #25
 682              	.LVL38:
 683              		.loc 1 437 0
 684 0034 18BF     		it	ne
 685 0036 4FF48053 		movne	r3, #4096
 686              		.loc 1 433 0
 687 003a 2760     		str	r7, [r4]
 688              		.loc 1 437 0
 689 003c 1CBF     		itt	ne
 690 003e C4F20203 		movtne	r3, 16386
 691 0042 5C69     		ldrne	r4, [r3, #20]
 692              		.loc 1 445 0
 693 0044 4FF00006 		mov	r6, #0
 694              		.loc 1 437 0
 695 0048 1CBF     		itt	ne
 696 004a 44F00104 		orrne	r4, r4, #1
 697 004e 5C61     		strne	r4, [r3, #20]
 698              		.loc 1 439 0
 699 0050 17F4786F 		tst	r7, #3968
 700              		.loc 1 440 0
 701 0054 1EBF     		ittt	ne
 702 0056 4FF48053 		movne	r3, #4096
 703 005a C4F20203 		movtne	r3, 16386
 704 005e 5C69     		ldrne	r4, [r3, #20]
 705              		.loc 1 444 0
 706 0060 4FF00F07 		mov	r7, #15
 707              		.loc 1 440 0
 708 0064 1CBF     		itt	ne
 709 0066 44F00204 		orrne	r4, r4, #2
 710 006a 5C61     		strne	r4, [r3, #20]
 711              		.loc 1 444 0
 712 006c 0368     		ldr	r3, [r0]
 713 006e 4468     		ldr	r4, [r0, #4]
 714 0070 1D68     		ldr	r5, [r3]
 715 0072 25F00F05 		bic	r5, r5, #15
 716 0076 1D60     		str	r5, [r3]
 717 0078 057A     		ldrb	r5, [r0, #8]	@ zero_extendqisi2
 718 007a 07FA05F5 		lsl	r5, r7, r5
 719 007e 2560     		str	r5, [r4]
 720              		.loc 1 445 0
 721 0080 1E60     		str	r6, [r3]
 722              		.loc 1 448 0
 723 0082 3AB1     		cbz	r2, .L74
 724              		.loc 1 449 0
 725 0084 807A     		ldrb	r0, [r0, #10]	@ zero_extendqisi2
 726              	.LVL39:
 727 0086 0901     		lsls	r1, r1, #4
 728              	.LVL40:
 729 0088 FFF7FEFF 		bl	nvicEnableVector
 730              	.LVL41:
ARM GAS  /tmp/ccj7S6x5.s 			page 14


 731              		.loc 1 451 0
 732 008c 3046     		mov	r0, r6
 733 008e F8BD     		pop	{r3, r4, r5, r6, r7, pc}
 734              	.LVL42:
 735              	.L73:
 736              		.loc 1 428 0
 737 0090 3046     		mov	r0, r6
 738              	.LVL43:
 739 0092 F8BD     		pop	{r3, r4, r5, r6, r7, pc}
 740              	.LVL44:
 741              	.L74:
 742              		.loc 1 451 0
 743 0094 1046     		mov	r0, r2
 744              	.LVL45:
 745              		.loc 1 452 0
 746 0096 F8BD     		pop	{r3, r4, r5, r6, r7, pc}
 747              		.cfi_endproc
 748              	.LFE75:
 749              		.size	dmaStreamAllocate, .-dmaStreamAllocate
 750 0098 AFF30080 		.section	.text.dmaStreamRelease,"ax",%progbits
 750      AFF30080 
 751              		.align	2
 752              		.p2align 4,,15
 753              		.global	dmaStreamRelease
 754              		.thumb
 755              		.thumb_func
 756              		.type	dmaStreamRelease, %function
 757              	dmaStreamRelease:
 758              	.LFB76:
 759              		.loc 1 467 0
 760              		.cfi_startproc
 761              		@ args = 0, pretend = 0, frame = 0
 762              		@ frame_needed = 0, uses_anonymous_args = 0
 763              	.LVL46:
 764 0000 10B5     		push	{r4, lr}
 765              		.cfi_def_cfa_offset 8
 766              		.cfi_offset 4, -8
 767              		.cfi_offset 14, -4
 768              		.loc 1 467 0
 769 0002 0446     		mov	r4, r0
 770              		.loc 1 476 0
 771 0004 807A     		ldrb	r0, [r0, #10]	@ zero_extendqisi2
 772              	.LVL47:
 773 0006 FFF7FEFF 		bl	nvicDisableVector
 774              	.LVL48:
 775              		.loc 1 479 0
 776 000a 637A     		ldrb	r3, [r4, #9]	@ zero_extendqisi2
 777 000c 0122     		movs	r2, #1
 778 000e 9A40     		lsls	r2, r2, r3
 779 0010 40F20003 		movw	r3, #:lower16:.LANCHOR1
 780 0014 C0F20003 		movt	r3, #:upper16:.LANCHOR1
 781 0018 1968     		ldr	r1, [r3]
 782 001a 21EA0202 		bic	r2, r1, r2
 783              		.loc 1 482 0
 784 001e 5106     		lsls	r1, r2, #25
 785              		.loc 1 479 0
 786 0020 1A60     		str	r2, [r3]
ARM GAS  /tmp/ccj7S6x5.s 			page 15


 787              		.loc 1 483 0
 788 0022 01BF     		itttt	eq
 789 0024 4FF48053 		moveq	r3, #4096
 790 0028 C4F20203 		movteq	r3, 16386
 791 002c 5969     		ldreq	r1, [r3, #20]
 792 002e 21F00101 		biceq	r1, r1, #1
 793 0032 08BF     		it	eq
 794 0034 5961     		streq	r1, [r3, #20]
 795              		.loc 1 485 0
 796 0036 12F4786F 		tst	r2, #3968
 797              		.loc 1 486 0
 798 003a 01BF     		itttt	eq
 799 003c 4FF48053 		moveq	r3, #4096
 800 0040 C4F20203 		movteq	r3, 16386
 801 0044 5A69     		ldreq	r2, [r3, #20]
 802 0046 22F00202 		biceq	r2, r2, #2
 803 004a 08BF     		it	eq
 804 004c 5A61     		streq	r2, [r3, #20]
 805 004e 10BD     		pop	{r4, pc}
 806              		.cfi_endproc
 807              	.LFE76:
 808              		.size	dmaStreamRelease, .-dmaStreamRelease
 809              		.global	_stm32_dma_streams
 810              		.section	.bss.dma_isr_redir,"aw",%nobits
 811              		.align	2
 812              		.set	.LANCHOR0,. + 0
 813              		.type	dma_isr_redir, %object
 814              		.size	dma_isr_redir, 96
 815              	dma_isr_redir:
 816 0000 00000000 		.space	96
 816      00000000 
 816      00000000 
 816      00000000 
 816      00000000 
 817              		.section	.rodata._stm32_dma_streams,"a",%progbits
 818              		.align	2
 819              		.set	.LANCHOR2,. + 0
 820              		.type	_stm32_dma_streams, %object
 821              		.size	_stm32_dma_streams, 144
 822              	_stm32_dma_streams:
 823 0000 08000240 		.word	1073872904
 824 0004 04000240 		.word	1073872900
 825 0008 00       		.byte	0
 826 0009 00       		.byte	0
 827 000a 0B       		.byte	11
 828 000b 00       		.space	1
 829 000c 1C000240 		.word	1073872924
 830 0010 04000240 		.word	1073872900
 831 0014 04       		.byte	4
 832 0015 01       		.byte	1
 833 0016 0C       		.byte	12
 834 0017 00       		.space	1
 835 0018 30000240 		.word	1073872944
 836 001c 04000240 		.word	1073872900
 837 0020 08       		.byte	8
 838 0021 02       		.byte	2
 839 0022 0D       		.byte	13
ARM GAS  /tmp/ccj7S6x5.s 			page 16


 840 0023 00       		.space	1
 841 0024 44000240 		.word	1073872964
 842 0028 04000240 		.word	1073872900
 843 002c 0C       		.byte	12
 844 002d 03       		.byte	3
 845 002e 0E       		.byte	14
 846 002f 00       		.space	1
 847 0030 58000240 		.word	1073872984
 848 0034 04000240 		.word	1073872900
 849 0038 10       		.byte	16
 850 0039 04       		.byte	4
 851 003a 0F       		.byte	15
 852 003b 00       		.space	1
 853 003c 6C000240 		.word	1073873004
 854 0040 04000240 		.word	1073872900
 855 0044 14       		.byte	20
 856 0045 05       		.byte	5
 857 0046 10       		.byte	16
 858 0047 00       		.space	1
 859 0048 80000240 		.word	1073873024
 860 004c 04000240 		.word	1073872900
 861 0050 18       		.byte	24
 862 0051 06       		.byte	6
 863 0052 11       		.byte	17
 864 0053 00       		.space	1
 865 0054 08040240 		.word	1073873928
 866 0058 04040240 		.word	1073873924
 867 005c 00       		.byte	0
 868 005d 07       		.byte	7
 869 005e 38       		.byte	56
 870 005f 00       		.space	1
 871 0060 1C040240 		.word	1073873948
 872 0064 04040240 		.word	1073873924
 873 0068 04       		.byte	4
 874 0069 08       		.byte	8
 875 006a 39       		.byte	57
 876 006b 00       		.space	1
 877 006c 30040240 		.word	1073873968
 878 0070 04040240 		.word	1073873924
 879 0074 08       		.byte	8
 880 0075 09       		.byte	9
 881 0076 3A       		.byte	58
 882 0077 00       		.space	1
 883 0078 44040240 		.word	1073873988
 884 007c 04040240 		.word	1073873924
 885 0080 0C       		.byte	12
 886 0081 0A       		.byte	10
 887 0082 3B       		.byte	59
 888 0083 00       		.space	1
 889 0084 58040240 		.word	1073874008
 890 0088 04040240 		.word	1073873924
 891 008c 10       		.byte	16
 892 008d 0B       		.byte	11
 893 008e 3B       		.byte	59
 894 008f 00       		.space	1
 895              		.section	.bss.dma_streams_mask,"aw",%nobits
 896              		.align	2
ARM GAS  /tmp/ccj7S6x5.s 			page 17


 897              		.set	.LANCHOR1,. + 0
 898              		.type	dma_streams_mask, %object
 899              		.size	dma_streams_mask, 4
 900              	dma_streams_mask:
 901 0000 00000000 		.space	4
 902              		.text
 903              	.Letext0:
 904              		.file 2 "/usr/include/newlib/machine/_default_types.h"
 905              		.file 3 "/usr/include/newlib/stdint.h"
 906              		.file 4 "../../../../ChibiOS_2.6.2/os/ports/GCC/ARMCMx/chtypes.h"
 907              		.file 5 "../../../../ChibiOS_2.6.2/os/hal/platforms/STM32F1xx/stm32f10x.h"
 908              		.file 6 "../../../../ChibiOS_2.6.2/os/hal/platforms/STM32F1xx/stm32_dma.h"
 909              		.file 7 "../../../../ChibiOS_2.6.2/os/ports/common/ARMCMx/CMSIS/include/core_cm3.h"
 910              		.file 8 "../../../../ChibiOS_2.6.2/os/ports/GCC/ARMCMx/chcore_v7m.h"
 911              		.file 9 "../../../../ChibiOS_2.6.2/os/ports/common/ARMCMx/nvic.h"
 912              		.section	.debug_info,"",%progbits
 913              	.Ldebug_info0:
 914 0000 0A080000 		.4byte	0x80a
 915 0004 0400     		.2byte	0x4
 916 0006 00000000 		.4byte	.Ldebug_abbrev0
 917 000a 04       		.byte	0x4
 918 000b 01       		.uleb128 0x1
 919 000c 9A020000 		.4byte	.LASF135
 920 0010 01       		.byte	0x1
 921 0011 4D050000 		.4byte	.LASF136
 922 0015 45020000 		.4byte	.LASF137
 923 0019 00000000 		.4byte	.Ldebug_ranges0+0
 924 001d 00000000 		.4byte	0
 925 0021 00000000 		.4byte	.Ldebug_line0
 926 0025 02       		.uleb128 0x2
 927 0026 04       		.byte	0x4
 928 0027 05       		.byte	0x5
 929 0028 696E7400 		.ascii	"int\000"
 930 002c 03       		.uleb128 0x3
 931 002d 04       		.byte	0x4
 932 002e 07       		.byte	0x7
 933 002f D9010000 		.4byte	.LASF0
 934 0033 03       		.uleb128 0x3
 935 0034 01       		.byte	0x1
 936 0035 06       		.byte	0x6
 937 0036 0A010000 		.4byte	.LASF1
 938 003a 04       		.uleb128 0x4
 939 003b 4A000000 		.4byte	.LASF4
 940 003f 02       		.byte	0x2
 941 0040 1C       		.byte	0x1c
 942 0041 45000000 		.4byte	0x45
 943 0045 03       		.uleb128 0x3
 944 0046 01       		.byte	0x1
 945 0047 08       		.byte	0x8
 946 0048 D8040000 		.4byte	.LASF2
 947 004c 03       		.uleb128 0x3
 948 004d 02       		.byte	0x2
 949 004e 05       		.byte	0x5
 950 004f 43050000 		.4byte	.LASF3
 951 0053 04       		.uleb128 0x4
 952 0054 3F060000 		.4byte	.LASF5
 953 0058 02       		.byte	0x2
ARM GAS  /tmp/ccj7S6x5.s 			page 18


 954 0059 26       		.byte	0x26
 955 005a 5E000000 		.4byte	0x5e
 956 005e 03       		.uleb128 0x3
 957 005f 02       		.byte	0x2
 958 0060 07       		.byte	0x7
 959 0061 4A030000 		.4byte	.LASF6
 960 0065 04       		.uleb128 0x4
 961 0066 68060000 		.4byte	.LASF7
 962 006a 02       		.byte	0x2
 963 006b 37       		.byte	0x37
 964 006c 70000000 		.4byte	0x70
 965 0070 03       		.uleb128 0x3
 966 0071 04       		.byte	0x4
 967 0072 05       		.byte	0x5
 968 0073 24010000 		.4byte	.LASF8
 969 0077 04       		.uleb128 0x4
 970 0078 AA010000 		.4byte	.LASF9
 971 007c 02       		.byte	0x2
 972 007d 38       		.byte	0x38
 973 007e 82000000 		.4byte	0x82
 974 0082 03       		.uleb128 0x3
 975 0083 04       		.byte	0x4
 976 0084 07       		.byte	0x7
 977 0085 0C020000 		.4byte	.LASF10
 978 0089 03       		.uleb128 0x3
 979 008a 08       		.byte	0x8
 980 008b 05       		.byte	0x5
 981 008c FC000000 		.4byte	.LASF11
 982 0090 03       		.uleb128 0x3
 983 0091 08       		.byte	0x8
 984 0092 07       		.byte	0x7
 985 0093 62000000 		.4byte	.LASF12
 986 0097 04       		.uleb128 0x4
 987 0098 27070000 		.4byte	.LASF13
 988 009c 03       		.byte	0x3
 989 009d 2A       		.byte	0x2a
 990 009e 3A000000 		.4byte	0x3a
 991 00a2 04       		.uleb128 0x4
 992 00a3 58010000 		.4byte	.LASF14
 993 00a7 03       		.byte	0x3
 994 00a8 36       		.byte	0x36
 995 00a9 53000000 		.4byte	0x53
 996 00ad 04       		.uleb128 0x4
 997 00ae D0040000 		.4byte	.LASF15
 998 00b2 03       		.byte	0x3
 999 00b3 41       		.byte	0x41
 1000 00b4 65000000 		.4byte	0x65
 1001 00b8 04       		.uleb128 0x4
 1002 00b9 61010000 		.4byte	.LASF16
 1003 00bd 03       		.byte	0x3
 1004 00be 42       		.byte	0x42
 1005 00bf 77000000 		.4byte	0x77
 1006 00c3 04       		.uleb128 0x4
 1007 00c4 16010000 		.4byte	.LASF17
 1008 00c8 04       		.byte	0x4
 1009 00c9 2B       		.byte	0x2b
 1010 00ca CE000000 		.4byte	0xce
ARM GAS  /tmp/ccj7S6x5.s 			page 19


 1011 00ce 03       		.uleb128 0x3
 1012 00cf 01       		.byte	0x1
 1013 00d0 02       		.byte	0x2
 1014 00d1 CA040000 		.4byte	.LASF18
 1015 00d5 05       		.uleb128 0x5
 1016 00d6 04       		.byte	0x4
 1017 00d7 06       		.uleb128 0x6
 1018 00d8 B8000000 		.4byte	0xb8
 1019 00dc 03       		.uleb128 0x3
 1020 00dd 04       		.byte	0x4
 1021 00de 07       		.byte	0x7
 1022 00df D2030000 		.4byte	.LASF19
 1023 00e3 03       		.uleb128 0x3
 1024 00e4 01       		.byte	0x1
 1025 00e5 08       		.byte	0x8
 1026 00e6 12060000 		.4byte	.LASF20
 1027 00ea 07       		.uleb128 0x7
 1028 00eb AC030000 		.4byte	.LASF138
 1029 00ef 01       		.byte	0x1
 1030 00f0 05       		.byte	0x5
 1031 00f1 A9       		.byte	0xa9
 1032 00f2 8F020000 		.4byte	0x28f
 1033 00f6 08       		.uleb128 0x8
 1034 00f7 54060000 		.4byte	.LASF21
 1035 00fb 72       		.sleb128 -14
 1036 00fc 08       		.uleb128 0x8
 1037 00fd 82040000 		.4byte	.LASF22
 1038 0101 74       		.sleb128 -12
 1039 0102 08       		.uleb128 0x8
 1040 0103 B5010000 		.4byte	.LASF23
 1041 0107 75       		.sleb128 -11
 1042 0108 08       		.uleb128 0x8
 1043 0109 EC050000 		.4byte	.LASF24
 1044 010d 76       		.sleb128 -10
 1045 010e 08       		.uleb128 0x8
 1046 010f E8030000 		.4byte	.LASF25
 1047 0113 7B       		.sleb128 -5
 1048 0114 08       		.uleb128 0x8
 1049 0115 B7060000 		.4byte	.LASF26
 1050 0119 7C       		.sleb128 -4
 1051 011a 08       		.uleb128 0x8
 1052 011b 8B010000 		.4byte	.LASF27
 1053 011f 7E       		.sleb128 -2
 1054 0120 08       		.uleb128 0x8
 1055 0121 92030000 		.4byte	.LASF28
 1056 0125 7F       		.sleb128 -1
 1057 0126 08       		.uleb128 0x8
 1058 0127 D7000000 		.4byte	.LASF29
 1059 012b 00       		.sleb128 0
 1060 012c 08       		.uleb128 0x8
 1061 012d 10000000 		.4byte	.LASF30
 1062 0131 01       		.sleb128 1
 1063 0132 08       		.uleb128 0x8
 1064 0133 8D060000 		.4byte	.LASF31
 1065 0137 02       		.sleb128 2
 1066 0138 08       		.uleb128 0x8
 1067 0139 73070000 		.4byte	.LASF32
ARM GAS  /tmp/ccj7S6x5.s 			page 20


 1068 013d 03       		.sleb128 3
 1069 013e 08       		.uleb128 0x8
 1070 013f BE050000 		.4byte	.LASF33
 1071 0143 04       		.sleb128 4
 1072 0144 08       		.uleb128 0x8
 1073 0145 B0070000 		.4byte	.LASF34
 1074 0149 05       		.sleb128 5
 1075 014a 08       		.uleb128 0x8
 1076 014b FE060000 		.4byte	.LASF35
 1077 014f 06       		.sleb128 6
 1078 0150 08       		.uleb128 0x8
 1079 0151 CA070000 		.4byte	.LASF36
 1080 0155 07       		.sleb128 7
 1081 0156 08       		.uleb128 0x8
 1082 0157 CC000000 		.4byte	.LASF37
 1083 015b 08       		.sleb128 8
 1084 015c 08       		.uleb128 0x8
 1085 015d 24040000 		.4byte	.LASF38
 1086 0161 09       		.sleb128 9
 1087 0162 08       		.uleb128 0x8
 1088 0163 38050000 		.4byte	.LASF39
 1089 0167 0A       		.sleb128 10
 1090 0168 08       		.uleb128 0x8
 1091 0169 6F040000 		.4byte	.LASF40
 1092 016d 0B       		.sleb128 11
 1093 016e 08       		.uleb128 0x8
 1094 016f B1030000 		.4byte	.LASF41
 1095 0173 0C       		.sleb128 12
 1096 0174 08       		.uleb128 0x8
 1097 0175 45010000 		.4byte	.LASF42
 1098 0179 0D       		.sleb128 13
 1099 017a 08       		.uleb128 0x8
 1100 017b 97010000 		.4byte	.LASF43
 1101 017f 0E       		.sleb128 14
 1102 0180 08       		.uleb128 0x8
 1103 0181 37030000 		.4byte	.LASF44
 1104 0185 0F       		.sleb128 15
 1105 0186 08       		.uleb128 0x8
 1106 0187 72060000 		.4byte	.LASF45
 1107 018b 10       		.sleb128 16
 1108 018c 08       		.uleb128 0x8
 1109 018d 7F030000 		.4byte	.LASF46
 1110 0191 11       		.sleb128 17
 1111 0192 08       		.uleb128 0x8
 1112 0193 6A010000 		.4byte	.LASF47
 1113 0197 12       		.sleb128 18
 1114 0198 08       		.uleb128 0x8
 1115 0199 0D050000 		.4byte	.LASF48
 1116 019d 13       		.sleb128 19
 1117 019e 08       		.uleb128 0x8
 1118 019f E6040000 		.4byte	.LASF49
 1119 01a3 14       		.sleb128 20
 1120 01a4 08       		.uleb128 0x8
 1121 01a5 54000000 		.4byte	.LASF50
 1122 01a9 15       		.sleb128 21
 1123 01aa 08       		.uleb128 0x8
 1124 01ab 90070000 		.4byte	.LASF51
ARM GAS  /tmp/ccj7S6x5.s 			page 21


 1125 01af 16       		.sleb128 22
 1126 01b0 08       		.uleb128 0x8
 1127 01b1 2B000000 		.4byte	.LASF52
 1128 01b5 17       		.sleb128 23
 1129 01b6 08       		.uleb128 0x8
 1130 01b7 31060000 		.4byte	.LASF53
 1131 01bb 18       		.sleb128 24
 1132 01bc 08       		.uleb128 0x8
 1133 01bd 99060000 		.4byte	.LASF54
 1134 01c1 19       		.sleb128 25
 1135 01c2 08       		.uleb128 0x8
 1136 01c3 19000000 		.4byte	.LASF55
 1137 01c7 1A       		.sleb128 26
 1138 01c8 08       		.uleb128 0x8
 1139 01c9 9F030000 		.4byte	.LASF56
 1140 01cd 1B       		.sleb128 27
 1141 01ce 08       		.uleb128 0x8
 1142 01cf E7060000 		.4byte	.LASF57
 1143 01d3 1C       		.sleb128 28
 1144 01d4 08       		.uleb128 0x8
 1145 01d5 B9070000 		.4byte	.LASF58
 1146 01d9 1D       		.sleb128 29
 1147 01da 08       		.uleb128 0x8
 1148 01db C2000000 		.4byte	.LASF59
 1149 01df 1E       		.sleb128 30
 1150 01e0 08       		.uleb128 0x8
 1151 01e1 3D000000 		.4byte	.LASF60
 1152 01e5 1F       		.sleb128 31
 1153 01e6 08       		.uleb128 0x8
 1154 01e7 66070000 		.4byte	.LASF61
 1155 01eb 20       		.sleb128 32
 1156 01ec 08       		.uleb128 0x8
 1157 01ed F4030000 		.4byte	.LASF62
 1158 01f1 21       		.sleb128 33
 1159 01f2 08       		.uleb128 0x8
 1160 01f3 B5000000 		.4byte	.LASF63
 1161 01f7 22       		.sleb128 34
 1162 01f8 08       		.uleb128 0x8
 1163 01f9 6C030000 		.4byte	.LASF64
 1164 01fd 23       		.sleb128 35
 1165 01fe 08       		.uleb128 0x8
 1166 01ff 2F040000 		.4byte	.LASF65
 1167 0203 24       		.sleb128 36
 1168 0204 08       		.uleb128 0x8
 1169 0205 98040000 		.4byte	.LASF66
 1170 0209 25       		.sleb128 37
 1171 020a 08       		.uleb128 0x8
 1172 020b E0050000 		.4byte	.LASF67
 1173 020f 26       		.sleb128 38
 1174 0210 08       		.uleb128 0x8
 1175 0211 D2060000 		.4byte	.LASF68
 1176 0215 27       		.sleb128 39
 1177 0216 08       		.uleb128 0x8
 1178 0217 5D030000 		.4byte	.LASF69
 1179 021b 28       		.sleb128 40
 1180 021c 08       		.uleb128 0x8
 1181 021d 8C000000 		.4byte	.LASF70
ARM GAS  /tmp/ccj7S6x5.s 			page 22


 1182 0221 29       		.sleb128 41
 1183 0222 08       		.uleb128 0x8
 1184 0223 55040000 		.4byte	.LASF71
 1185 0227 2A       		.sleb128 42
 1186 0228 08       		.uleb128 0x8
 1187 0229 C4030000 		.4byte	.LASF72
 1188 022d 2B       		.sleb128 43
 1189 022e 08       		.uleb128 0x8
 1190 022f F1060000 		.4byte	.LASF73
 1191 0233 2C       		.sleb128 44
 1192 0234 08       		.uleb128 0x8
 1193 0235 FB040000 		.4byte	.LASF74
 1194 0239 2D       		.sleb128 45
 1195 023a 08       		.uleb128 0x8
 1196 023b DB030000 		.4byte	.LASF75
 1197 023f 2E       		.sleb128 46
 1198 0240 08       		.uleb128 0x8
 1199 0241 3B010000 		.4byte	.LASF76
 1200 0245 2F       		.sleb128 47
 1201 0246 08       		.uleb128 0x8
 1202 0247 C0040000 		.4byte	.LASF77
 1203 024b 30       		.sleb128 48
 1204 024c 08       		.uleb128 0x8
 1205 024d E1000000 		.4byte	.LASF78
 1206 0251 31       		.sleb128 49
 1207 0252 08       		.uleb128 0x8
 1208 0253 1A040000 		.4byte	.LASF79
 1209 0257 32       		.sleb128 50
 1210 0258 08       		.uleb128 0x8
 1211 0259 7C070000 		.4byte	.LASF80
 1212 025d 33       		.sleb128 51
 1213 025e 08       		.uleb128 0x8
 1214 025f 76010000 		.4byte	.LASF81
 1215 0263 34       		.sleb128 52
 1216 0264 08       		.uleb128 0x8
 1217 0265 8E050000 		.4byte	.LASF82
 1218 0269 35       		.sleb128 53
 1219 026a 08       		.uleb128 0x8
 1220 026b 2E050000 		.4byte	.LASF83
 1221 026f 36       		.sleb128 54
 1222 0270 08       		.uleb128 0x8
 1223 0271 4A060000 		.4byte	.LASF84
 1224 0275 37       		.sleb128 55
 1225 0276 08       		.uleb128 0x8
 1226 0277 79000000 		.4byte	.LASF85
 1227 027b 38       		.sleb128 56
 1228 027c 08       		.uleb128 0x8
 1229 027d 01040000 		.4byte	.LASF86
 1230 0281 39       		.sleb128 57
 1231 0282 08       		.uleb128 0x8
 1232 0283 42040000 		.4byte	.LASF87
 1233 0287 3A       		.sleb128 58
 1234 0288 08       		.uleb128 0x8
 1235 0289 99050000 		.4byte	.LASF88
 1236 028d 3B       		.sleb128 59
 1237 028e 00       		.byte	0
 1238 028f 06       		.uleb128 0x6
ARM GAS  /tmp/ccj7S6x5.s 			page 23


 1239 0290 AD000000 		.4byte	0xad
 1240 0294 09       		.uleb128 0x9
 1241 0295 10       		.byte	0x10
 1242 0296 05       		.byte	0x5
 1243 0297 2D03     		.2byte	0x32d
 1244 0299 D2020000 		.4byte	0x2d2
 1245 029d 0A       		.uleb128 0xa
 1246 029e 43435200 		.ascii	"CCR\000"
 1247 02a2 05       		.byte	0x5
 1248 02a3 2F03     		.2byte	0x32f
 1249 02a5 D7000000 		.4byte	0xd7
 1250 02a9 00       		.byte	0
 1251 02aa 0B       		.uleb128 0xb
 1252 02ab 09070000 		.4byte	.LASF89
 1253 02af 05       		.byte	0x5
 1254 02b0 3003     		.2byte	0x330
 1255 02b2 D7000000 		.4byte	0xd7
 1256 02b6 04       		.byte	0x4
 1257 02b7 0B       		.uleb128 0xb
 1258 02b8 F8010000 		.4byte	.LASF90
 1259 02bc 05       		.byte	0x5
 1260 02bd 3103     		.2byte	0x331
 1261 02bf D7000000 		.4byte	0xd7
 1262 02c3 08       		.byte	0x8
 1263 02c4 0B       		.uleb128 0xb
 1264 02c5 38000000 		.4byte	.LASF91
 1265 02c9 05       		.byte	0x5
 1266 02ca 3203     		.2byte	0x332
 1267 02cc D7000000 		.4byte	0xd7
 1268 02d0 0C       		.byte	0xc
 1269 02d1 00       		.byte	0
 1270 02d2 0C       		.uleb128 0xc
 1271 02d3 2A020000 		.4byte	.LASF92
 1272 02d7 05       		.byte	0x5
 1273 02d8 3303     		.2byte	0x333
 1274 02da 94020000 		.4byte	0x294
 1275 02de 09       		.uleb128 0x9
 1276 02df 08       		.byte	0x8
 1277 02e0 05       		.byte	0x5
 1278 02e1 3503     		.2byte	0x335
 1279 02e3 02030000 		.4byte	0x302
 1280 02e7 0A       		.uleb128 0xa
 1281 02e8 49535200 		.ascii	"ISR\000"
 1282 02ec 05       		.byte	0x5
 1283 02ed 3703     		.2byte	0x337
 1284 02ef D7000000 		.4byte	0xd7
 1285 02f3 00       		.byte	0
 1286 02f4 0B       		.uleb128 0xb
 1287 02f5 0D060000 		.4byte	.LASF93
 1288 02f9 05       		.byte	0x5
 1289 02fa 3803     		.2byte	0x338
 1290 02fc D7000000 		.4byte	0xd7
 1291 0300 04       		.byte	0x4
 1292 0301 00       		.byte	0
 1293 0302 0C       		.uleb128 0xc
 1294 0303 CD010000 		.4byte	.LASF94
 1295 0307 05       		.byte	0x5
ARM GAS  /tmp/ccj7S6x5.s 			page 24


 1296 0308 3903     		.2byte	0x339
 1297 030a DE020000 		.4byte	0x2de
 1298 030e 09       		.uleb128 0x9
 1299 030f 28       		.byte	0x28
 1300 0310 05       		.byte	0x5
 1301 0311 4304     		.2byte	0x443
 1302 0313 99030000 		.4byte	0x399
 1303 0317 0A       		.uleb128 0xa
 1304 0318 435200   		.ascii	"CR\000"
 1305 031b 05       		.byte	0x5
 1306 031c 4504     		.2byte	0x445
 1307 031e D7000000 		.4byte	0xd7
 1308 0322 00       		.byte	0
 1309 0323 0B       		.uleb128 0xb
 1310 0324 4D070000 		.4byte	.LASF95
 1311 0328 05       		.byte	0x5
 1312 0329 4604     		.2byte	0x446
 1313 032b D7000000 		.4byte	0xd7
 1314 032f 04       		.byte	0x4
 1315 0330 0A       		.uleb128 0xa
 1316 0331 43495200 		.ascii	"CIR\000"
 1317 0335 05       		.byte	0x5
 1318 0336 4704     		.2byte	0x447
 1319 0338 D7000000 		.4byte	0xd7
 1320 033c 08       		.byte	0x8
 1321 033d 0B       		.uleb128 0xb
 1322 033e 2D010000 		.4byte	.LASF96
 1323 0342 05       		.byte	0x5
 1324 0343 4804     		.2byte	0x448
 1325 0345 D7000000 		.4byte	0xd7
 1326 0349 0C       		.byte	0xc
 1327 034a 0B       		.uleb128 0xb
 1328 034b 66040000 		.4byte	.LASF97
 1329 034f 05       		.byte	0x5
 1330 0350 4904     		.2byte	0x449
 1331 0352 D7000000 		.4byte	0xd7
 1332 0356 10       		.byte	0x10
 1333 0357 0B       		.uleb128 0xb
 1334 0358 C3070000 		.4byte	.LASF98
 1335 035c 05       		.byte	0x5
 1336 035d 4A04     		.2byte	0x44a
 1337 035f D7000000 		.4byte	0xd7
 1338 0363 14       		.byte	0x14
 1339 0364 0B       		.uleb128 0xb
 1340 0365 AE050000 		.4byte	.LASF99
 1341 0369 05       		.byte	0x5
 1342 036a 4B04     		.2byte	0x44b
 1343 036c D7000000 		.4byte	0xd7
 1344 0370 18       		.byte	0x18
 1345 0371 0B       		.uleb128 0xb
 1346 0372 85060000 		.4byte	.LASF100
 1347 0376 05       		.byte	0x5
 1348 0377 4C04     		.2byte	0x44c
 1349 0379 D7000000 		.4byte	0xd7
 1350 037d 1C       		.byte	0x1c
 1351 037e 0B       		.uleb128 0xb
 1352 037f 0F070000 		.4byte	.LASF101
ARM GAS  /tmp/ccj7S6x5.s 			page 25


 1353 0383 05       		.byte	0x5
 1354 0384 4D04     		.2byte	0x44d
 1355 0386 D7000000 		.4byte	0xd7
 1356 038a 20       		.byte	0x20
 1357 038b 0A       		.uleb128 0xa
 1358 038c 43535200 		.ascii	"CSR\000"
 1359 0390 05       		.byte	0x5
 1360 0391 4E04     		.2byte	0x44e
 1361 0393 D7000000 		.4byte	0xd7
 1362 0397 24       		.byte	0x24
 1363 0398 00       		.byte	0
 1364 0399 0C       		.uleb128 0xc
 1365 039a 1E020000 		.4byte	.LASF102
 1366 039e 05       		.byte	0x5
 1367 039f 5904     		.2byte	0x459
 1368 03a1 0E030000 		.4byte	0x30e
 1369 03a5 0D       		.uleb128 0xd
 1370 03a6 0C       		.byte	0xc
 1371 03a7 06       		.byte	0x6
 1372 03a8 C1       		.byte	0xc1
 1373 03a9 EA030000 		.4byte	0x3ea
 1374 03ad 0E       		.uleb128 0xe
 1375 03ae B6050000 		.4byte	.LASF103
 1376 03b2 06       		.byte	0x6
 1377 03b3 C2       		.byte	0xc2
 1378 03b4 EA030000 		.4byte	0x3ea
 1379 03b8 00       		.byte	0
 1380 03b9 0E       		.uleb128 0xe
 1381 03ba C9050000 		.4byte	.LASF104
 1382 03be 06       		.byte	0x6
 1383 03bf C3       		.byte	0xc3
 1384 03c0 F0030000 		.4byte	0x3f0
 1385 03c4 04       		.byte	0x4
 1386 03c5 0E       		.uleb128 0xe
 1387 03c6 3E020000 		.4byte	.LASF105
 1388 03ca 06       		.byte	0x6
 1389 03cb C4       		.byte	0xc4
 1390 03cc 97000000 		.4byte	0x97
 1391 03d0 08       		.byte	0x8
 1392 03d1 0E       		.uleb128 0xe
 1393 03d2 C3010000 		.4byte	.LASF106
 1394 03d6 06       		.byte	0x6
 1395 03d7 C6       		.byte	0xc6
 1396 03d8 97000000 		.4byte	0x97
 1397 03dc 09       		.byte	0x9
 1398 03dd 0E       		.uleb128 0xe
 1399 03de 9B000000 		.4byte	.LASF107
 1400 03e2 06       		.byte	0x6
 1401 03e3 C7       		.byte	0xc7
 1402 03e4 97000000 		.4byte	0x97
 1403 03e8 0A       		.byte	0xa
 1404 03e9 00       		.byte	0
 1405 03ea 0F       		.uleb128 0xf
 1406 03eb 04       		.byte	0x4
 1407 03ec D2020000 		.4byte	0x2d2
 1408 03f0 0F       		.uleb128 0xf
 1409 03f1 04       		.byte	0x4
ARM GAS  /tmp/ccj7S6x5.s 			page 26


 1410 03f2 D7000000 		.4byte	0xd7
 1411 03f6 04       		.uleb128 0x4
 1412 03f7 A4040000 		.4byte	.LASF108
 1413 03fb 06       		.byte	0x6
 1414 03fc C8       		.byte	0xc8
 1415 03fd A5030000 		.4byte	0x3a5
 1416 0401 04       		.uleb128 0x4
 1417 0402 FD010000 		.4byte	.LASF109
 1418 0406 06       		.byte	0x6
 1419 0407 D1       		.byte	0xd1
 1420 0408 0C040000 		.4byte	0x40c
 1421 040c 0F       		.uleb128 0xf
 1422 040d 04       		.byte	0x4
 1423 040e 12040000 		.4byte	0x412
 1424 0412 10       		.uleb128 0x10
 1425 0413 22040000 		.4byte	0x422
 1426 0417 11       		.uleb128 0x11
 1427 0418 D5000000 		.4byte	0xd5
 1428 041c 11       		.uleb128 0x11
 1429 041d B8000000 		.4byte	0xb8
 1430 0421 00       		.byte	0
 1431 0422 0F       		.uleb128 0xf
 1432 0423 04       		.byte	0x4
 1433 0424 28040000 		.4byte	0x428
 1434 0428 12       		.uleb128 0x12
 1435 0429 F6030000 		.4byte	0x3f6
 1436 042d 0D       		.uleb128 0xd
 1437 042e 08       		.byte	0x8
 1438 042f 01       		.byte	0x1
 1439 0430 62       		.byte	0x62
 1440 0431 4E040000 		.4byte	0x44e
 1441 0435 0E       		.uleb128 0xe
 1442 0436 39040000 		.4byte	.LASF110
 1443 043a 01       		.byte	0x1
 1444 043b 63       		.byte	0x63
 1445 043c 01040000 		.4byte	0x401
 1446 0440 00       		.byte	0
 1447 0441 0E       		.uleb128 0xe
 1448 0442 81010000 		.4byte	.LASF111
 1449 0446 01       		.byte	0x1
 1450 0447 64       		.byte	0x64
 1451 0448 D5000000 		.4byte	0xd5
 1452 044c 04       		.byte	0x4
 1453 044d 00       		.byte	0
 1454 044e 04       		.uleb128 0x4
 1455 044f 00000000 		.4byte	.LASF112
 1456 0453 01       		.byte	0x1
 1457 0454 65       		.byte	0x65
 1458 0455 2D040000 		.4byte	0x42d
 1459 0459 13       		.uleb128 0x13
 1460 045a B7040000 		.4byte	.LASF113
 1461 045e 01       		.byte	0x1
 1462 045f 7E       		.byte	0x7e
 1463 0460 00000000 		.4byte	.LFB63
 1464 0464 28000000 		.4byte	.LFE63-.LFB63
 1465 0468 01       		.uleb128 0x1
 1466 0469 9C       		.byte	0x9c
ARM GAS  /tmp/ccj7S6x5.s 			page 27


 1467 046a 8F040000 		.4byte	0x48f
 1468 046e 14       		.uleb128 0x14
 1469 046f 2F070000 		.4byte	.LASF115
 1470 0473 01       		.byte	0x1
 1471 0474 7F       		.byte	0x7f
 1472 0475 B8000000 		.4byte	0xb8
 1473 0479 00000000 		.4byte	.LLST0
 1474 047d 15       		.uleb128 0x15
 1475 047e 20000000 		.4byte	.LVL1
 1476 0482 02       		.uleb128 0x2
 1477 0483 74       		.byte	0x74
 1478 0484 00       		.sleb128 0
 1479 0485 16       		.uleb128 0x16
 1480 0486 28000000 		.4byte	.LVL2
 1481 048a E0070000 		.4byte	0x7e0
 1482 048e 00       		.byte	0
 1483 048f 13       		.uleb128 0x13
 1484 0490 CE050000 		.4byte	.LASF114
 1485 0494 01       		.byte	0x1
 1486 0495 90       		.byte	0x90
 1487 0496 00000000 		.4byte	.LFB64
 1488 049a 2A000000 		.4byte	.LFE64-.LFB64
 1489 049e 01       		.uleb128 0x1
 1490 049f 9C       		.byte	0x9c
 1491 04a0 C5040000 		.4byte	0x4c5
 1492 04a4 14       		.uleb128 0x14
 1493 04a5 2F070000 		.4byte	.LASF115
 1494 04a9 01       		.byte	0x1
 1495 04aa 91       		.byte	0x91
 1496 04ab B8000000 		.4byte	0xb8
 1497 04af 13000000 		.4byte	.LLST1
 1498 04b3 15       		.uleb128 0x15
 1499 04b4 22000000 		.4byte	.LVL4
 1500 04b8 02       		.uleb128 0x2
 1501 04b9 74       		.byte	0x74
 1502 04ba 00       		.sleb128 0
 1503 04bb 16       		.uleb128 0x16
 1504 04bc 2A000000 		.4byte	.LVL5
 1505 04c0 E0070000 		.4byte	0x7e0
 1506 04c4 00       		.byte	0
 1507 04c5 13       		.uleb128 0x13
 1508 04c6 D7050000 		.4byte	.LASF116
 1509 04ca 01       		.byte	0x1
 1510 04cb A2       		.byte	0xa2
 1511 04cc 00000000 		.4byte	.LFB65
 1512 04d0 2A000000 		.4byte	.LFE65-.LFB65
 1513 04d4 01       		.uleb128 0x1
 1514 04d5 9C       		.byte	0x9c
 1515 04d6 FB040000 		.4byte	0x4fb
 1516 04da 14       		.uleb128 0x14
 1517 04db 2F070000 		.4byte	.LASF115
 1518 04df 01       		.byte	0x1
 1519 04e0 A3       		.byte	0xa3
 1520 04e1 B8000000 		.4byte	0xb8
 1521 04e5 26000000 		.4byte	.LLST2
 1522 04e9 15       		.uleb128 0x15
 1523 04ea 22000000 		.4byte	.LVL7
ARM GAS  /tmp/ccj7S6x5.s 			page 28


 1524 04ee 02       		.uleb128 0x2
 1525 04ef 74       		.byte	0x74
 1526 04f0 00       		.sleb128 0
 1527 04f1 16       		.uleb128 0x16
 1528 04f2 2A000000 		.4byte	.LVL8
 1529 04f6 E0070000 		.4byte	0x7e0
 1530 04fa 00       		.byte	0
 1531 04fb 13       		.uleb128 0x13
 1532 04fc FC050000 		.4byte	.LASF117
 1533 0500 01       		.byte	0x1
 1534 0501 B4       		.byte	0xb4
 1535 0502 00000000 		.4byte	.LFB66
 1536 0506 2A000000 		.4byte	.LFE66-.LFB66
 1537 050a 01       		.uleb128 0x1
 1538 050b 9C       		.byte	0x9c
 1539 050c 31050000 		.4byte	0x531
 1540 0510 14       		.uleb128 0x14
 1541 0511 2F070000 		.4byte	.LASF115
 1542 0515 01       		.byte	0x1
 1543 0516 B5       		.byte	0xb5
 1544 0517 B8000000 		.4byte	0xb8
 1545 051b 39000000 		.4byte	.LLST3
 1546 051f 15       		.uleb128 0x15
 1547 0520 22000000 		.4byte	.LVL10
 1548 0524 02       		.uleb128 0x2
 1549 0525 74       		.byte	0x74
 1550 0526 00       		.sleb128 0
 1551 0527 16       		.uleb128 0x16
 1552 0528 2A000000 		.4byte	.LVL11
 1553 052c E0070000 		.4byte	0x7e0
 1554 0530 00       		.byte	0
 1555 0531 13       		.uleb128 0x13
 1556 0532 28060000 		.4byte	.LASF118
 1557 0536 01       		.byte	0x1
 1558 0537 C6       		.byte	0xc6
 1559 0538 00000000 		.4byte	.LFB67
 1560 053c 2A000000 		.4byte	.LFE67-.LFB67
 1561 0540 01       		.uleb128 0x1
 1562 0541 9C       		.byte	0x9c
 1563 0542 67050000 		.4byte	0x567
 1564 0546 14       		.uleb128 0x14
 1565 0547 2F070000 		.4byte	.LASF115
 1566 054b 01       		.byte	0x1
 1567 054c C7       		.byte	0xc7
 1568 054d B8000000 		.4byte	0xb8
 1569 0551 4C000000 		.4byte	.LLST4
 1570 0555 15       		.uleb128 0x15
 1571 0556 22000000 		.4byte	.LVL13
 1572 055a 02       		.uleb128 0x2
 1573 055b 74       		.byte	0x74
 1574 055c 00       		.sleb128 0
 1575 055d 16       		.uleb128 0x16
 1576 055e 2A000000 		.4byte	.LVL14
 1577 0562 E0070000 		.4byte	0x7e0
 1578 0566 00       		.byte	0
 1579 0567 13       		.uleb128 0x13
 1580 0568 C9060000 		.4byte	.LASF119
ARM GAS  /tmp/ccj7S6x5.s 			page 29


 1581 056c 01       		.byte	0x1
 1582 056d D8       		.byte	0xd8
 1583 056e 00000000 		.4byte	.LFB68
 1584 0572 2A000000 		.4byte	.LFE68-.LFB68
 1585 0576 01       		.uleb128 0x1
 1586 0577 9C       		.byte	0x9c
 1587 0578 9D050000 		.4byte	0x59d
 1588 057c 14       		.uleb128 0x14
 1589 057d 2F070000 		.4byte	.LASF115
 1590 0581 01       		.byte	0x1
 1591 0582 D9       		.byte	0xd9
 1592 0583 B8000000 		.4byte	0xb8
 1593 0587 5F000000 		.4byte	.LLST5
 1594 058b 15       		.uleb128 0x15
 1595 058c 22000000 		.4byte	.LVL16
 1596 0590 02       		.uleb128 0x2
 1597 0591 74       		.byte	0x74
 1598 0592 00       		.sleb128 0
 1599 0593 16       		.uleb128 0x16
 1600 0594 2A000000 		.4byte	.LVL17
 1601 0598 E0070000 		.4byte	0x7e0
 1602 059c 00       		.byte	0
 1603 059d 13       		.uleb128 0x13
 1604 059e DE060000 		.4byte	.LASF120
 1605 05a2 01       		.byte	0x1
 1606 05a3 EA       		.byte	0xea
 1607 05a4 00000000 		.4byte	.LFB69
 1608 05a8 2A000000 		.4byte	.LFE69-.LFB69
 1609 05ac 01       		.uleb128 0x1
 1610 05ad 9C       		.byte	0x9c
 1611 05ae D3050000 		.4byte	0x5d3
 1612 05b2 14       		.uleb128 0x14
 1613 05b3 2F070000 		.4byte	.LASF115
 1614 05b7 01       		.byte	0x1
 1615 05b8 EB       		.byte	0xeb
 1616 05b9 B8000000 		.4byte	0xb8
 1617 05bd 72000000 		.4byte	.LLST6
 1618 05c1 15       		.uleb128 0x15
 1619 05c2 22000000 		.4byte	.LVL19
 1620 05c6 02       		.uleb128 0x2
 1621 05c7 74       		.byte	0x74
 1622 05c8 00       		.sleb128 0
 1623 05c9 16       		.uleb128 0x16
 1624 05ca 2A000000 		.4byte	.LVL20
 1625 05ce E0070000 		.4byte	0x7e0
 1626 05d2 00       		.byte	0
 1627 05d3 13       		.uleb128 0x13
 1628 05d4 43070000 		.4byte	.LASF121
 1629 05d8 01       		.byte	0x1
 1630 05d9 FD       		.byte	0xfd
 1631 05da 00000000 		.4byte	.LFB70
 1632 05de 2A000000 		.4byte	.LFE70-.LFB70
 1633 05e2 01       		.uleb128 0x1
 1634 05e3 9C       		.byte	0x9c
 1635 05e4 09060000 		.4byte	0x609
 1636 05e8 14       		.uleb128 0x14
 1637 05e9 2F070000 		.4byte	.LASF115
ARM GAS  /tmp/ccj7S6x5.s 			page 30


 1638 05ed 01       		.byte	0x1
 1639 05ee FE       		.byte	0xfe
 1640 05ef B8000000 		.4byte	0xb8
 1641 05f3 85000000 		.4byte	.LLST7
 1642 05f7 15       		.uleb128 0x15
 1643 05f8 22000000 		.4byte	.LVL22
 1644 05fc 02       		.uleb128 0x2
 1645 05fd 74       		.byte	0x74
 1646 05fe 00       		.sleb128 0
 1647 05ff 16       		.uleb128 0x16
 1648 0600 2A000000 		.4byte	.LVL23
 1649 0604 E0070000 		.4byte	0x7e0
 1650 0608 00       		.byte	0
 1651 0609 17       		.uleb128 0x17
 1652 060a 52070000 		.4byte	.LASF122
 1653 060e 01       		.byte	0x1
 1654 060f 0F01     		.2byte	0x10f
 1655 0611 00000000 		.4byte	.LFB71
 1656 0615 2C000000 		.4byte	.LFE71-.LFB71
 1657 0619 01       		.uleb128 0x1
 1658 061a 9C       		.byte	0x9c
 1659 061b 41060000 		.4byte	0x641
 1660 061f 18       		.uleb128 0x18
 1661 0620 2F070000 		.4byte	.LASF115
 1662 0624 01       		.byte	0x1
 1663 0625 1001     		.2byte	0x110
 1664 0627 B8000000 		.4byte	0xb8
 1665 062b 98000000 		.4byte	.LLST8
 1666 062f 15       		.uleb128 0x15
 1667 0630 24000000 		.4byte	.LVL25
 1668 0634 02       		.uleb128 0x2
 1669 0635 74       		.byte	0x74
 1670 0636 00       		.sleb128 0
 1671 0637 16       		.uleb128 0x16
 1672 0638 2C000000 		.4byte	.LVL26
 1673 063c E0070000 		.4byte	0x7e0
 1674 0640 00       		.byte	0
 1675 0641 17       		.uleb128 0x17
 1676 0642 5C070000 		.4byte	.LASF123
 1677 0646 01       		.byte	0x1
 1678 0647 2101     		.2byte	0x121
 1679 0649 00000000 		.4byte	.LFB72
 1680 064d 2C000000 		.4byte	.LFE72-.LFB72
 1681 0651 01       		.uleb128 0x1
 1682 0652 9C       		.byte	0x9c
 1683 0653 79060000 		.4byte	0x679
 1684 0657 18       		.uleb128 0x18
 1685 0658 2F070000 		.4byte	.LASF115
 1686 065c 01       		.byte	0x1
 1687 065d 2201     		.2byte	0x122
 1688 065f B8000000 		.4byte	0xb8
 1689 0663 AB000000 		.4byte	.LLST9
 1690 0667 15       		.uleb128 0x15
 1691 0668 24000000 		.4byte	.LVL28
 1692 066c 02       		.uleb128 0x2
 1693 066d 74       		.byte	0x74
 1694 066e 00       		.sleb128 0
ARM GAS  /tmp/ccj7S6x5.s 			page 31


 1695 066f 16       		.uleb128 0x16
 1696 0670 2C000000 		.4byte	.LVL29
 1697 0674 E0070000 		.4byte	0x7e0
 1698 0678 00       		.byte	0
 1699 0679 17       		.uleb128 0x17
 1700 067a 86070000 		.4byte	.LASF124
 1701 067e 01       		.byte	0x1
 1702 067f 5A01     		.2byte	0x15a
 1703 0681 00000000 		.4byte	.LFB73
 1704 0685 52000000 		.4byte	.LFE73-.LFB73
 1705 0689 01       		.uleb128 0x1
 1706 068a 9C       		.byte	0x9c
 1707 068b B9060000 		.4byte	0x6b9
 1708 068f 18       		.uleb128 0x18
 1709 0690 2F070000 		.4byte	.LASF115
 1710 0694 01       		.byte	0x1
 1711 0695 5B01     		.2byte	0x15b
 1712 0697 B8000000 		.4byte	0xb8
 1713 069b BE000000 		.4byte	.LLST10
 1714 069f 15       		.uleb128 0x15
 1715 06a0 26000000 		.4byte	.LVL31
 1716 06a4 02       		.uleb128 0x2
 1717 06a5 74       		.byte	0x74
 1718 06a6 00       		.sleb128 0
 1719 06a7 15       		.uleb128 0x15
 1720 06a8 4A000000 		.4byte	.LVL33
 1721 06ac 02       		.uleb128 0x2
 1722 06ad 74       		.byte	0x74
 1723 06ae 00       		.sleb128 0
 1724 06af 16       		.uleb128 0x16
 1725 06b0 52000000 		.4byte	.LVL34
 1726 06b4 E0070000 		.4byte	0x7e0
 1727 06b8 00       		.byte	0
 1728 06b9 17       		.uleb128 0x17
 1729 06ba 05060000 		.4byte	.LASF125
 1730 06be 01       		.byte	0x1
 1731 06bf 7D01     		.2byte	0x17d
 1732 06c1 00000000 		.4byte	.LFB74
 1733 06c5 4C000000 		.4byte	.LFE74-.LFB74
 1734 06c9 01       		.uleb128 0x1
 1735 06ca 9C       		.byte	0x9c
 1736 06cb DE060000 		.4byte	0x6de
 1737 06cf 19       		.uleb128 0x19
 1738 06d0 6900     		.ascii	"i\000"
 1739 06d2 01       		.byte	0x1
 1740 06d3 7E01     		.2byte	0x17e
 1741 06d5 25000000 		.4byte	0x25
 1742 06d9 DC000000 		.4byte	.LLST11
 1743 06dd 00       		.byte	0
 1744 06de 1A       		.uleb128 0x1a
 1745 06df 9E070000 		.4byte	.LASF139
 1746 06e3 01       		.byte	0x1
 1747 06e4 A301     		.2byte	0x1a3
 1748 06e6 C3000000 		.4byte	0xc3
 1749 06ea 00000000 		.4byte	.LFB75
 1750 06ee 98000000 		.4byte	.LFE75-.LFB75
 1751 06f2 01       		.uleb128 0x1
ARM GAS  /tmp/ccj7S6x5.s 			page 32


 1752 06f3 9C       		.byte	0x9c
 1753 06f4 4C070000 		.4byte	0x74c
 1754 06f8 1B       		.uleb128 0x1b
 1755 06f9 1D010000 		.4byte	.LASF126
 1756 06fd 01       		.byte	0x1
 1757 06fe A301     		.2byte	0x1a3
 1758 0700 22040000 		.4byte	0x422
 1759 0704 F0000000 		.4byte	.LLST12
 1760 0708 1B       		.uleb128 0x1b
 1761 0709 76030000 		.4byte	.LASF127
 1762 070d 01       		.byte	0x1
 1763 070e A401     		.2byte	0x1a4
 1764 0710 B8000000 		.4byte	0xb8
 1765 0714 43010000 		.4byte	.LLST13
 1766 0718 1B       		.uleb128 0x1b
 1767 0719 36010000 		.4byte	.LASF128
 1768 071d 01       		.byte	0x1
 1769 071e A501     		.2byte	0x1a5
 1770 0720 01040000 		.4byte	0x401
 1771 0724 6F010000 		.4byte	.LLST14
 1772 0728 1B       		.uleb128 0x1b
 1773 0729 14040000 		.4byte	.LASF129
 1774 072d 01       		.byte	0x1
 1775 072e A601     		.2byte	0x1a6
 1776 0730 D5000000 		.4byte	0xd5
 1777 0734 9B010000 		.4byte	.LLST15
 1778 0738 1C       		.uleb128 0x1c
 1779 0739 8C000000 		.4byte	.LVL41
 1780 073d E8070000 		.4byte	0x7e8
 1781 0741 1D       		.uleb128 0x1d
 1782 0742 01       		.uleb128 0x1
 1783 0743 51       		.byte	0x51
 1784 0744 05       		.uleb128 0x5
 1785 0745 F3       		.byte	0xf3
 1786 0746 01       		.uleb128 0x1
 1787 0747 51       		.byte	0x51
 1788 0748 34       		.byte	0x34
 1789 0749 24       		.byte	0x24
 1790 074a 00       		.byte	0
 1791 074b 00       		.byte	0
 1792 074c 17       		.uleb128 0x17
 1793 074d 17060000 		.4byte	.LASF130
 1794 0751 01       		.byte	0x1
 1795 0752 D301     		.2byte	0x1d3
 1796 0754 00000000 		.4byte	.LFB76
 1797 0758 50000000 		.4byte	.LFE76-.LFB76
 1798 075c 01       		.uleb128 0x1
 1799 075d 9C       		.byte	0x9c
 1800 075e 7C070000 		.4byte	0x77c
 1801 0762 1B       		.uleb128 0x1b
 1802 0763 1D010000 		.4byte	.LASF126
 1803 0767 01       		.byte	0x1
 1804 0768 D301     		.2byte	0x1d3
 1805 076a 22040000 		.4byte	0x422
 1806 076e DF010000 		.4byte	.LLST16
 1807 0772 1E       		.uleb128 0x1e
 1808 0773 0A000000 		.4byte	.LVL48
ARM GAS  /tmp/ccj7S6x5.s 			page 33


 1809 0777 FF070000 		.4byte	0x7ff
 1810 077b 00       		.byte	0
 1811 077c 1F       		.uleb128 0x1f
 1812 077d A6060000 		.4byte	.LASF131
 1813 0781 01       		.byte	0x1
 1814 0782 6A       		.byte	0x6a
 1815 0783 B8000000 		.4byte	0xb8
 1816 0787 05       		.uleb128 0x5
 1817 0788 03       		.byte	0x3
 1818 0789 00000000 		.4byte	dma_streams_mask
 1819 078d 20       		.uleb128 0x20
 1820 078e 4E040000 		.4byte	0x44e
 1821 0792 9D070000 		.4byte	0x79d
 1822 0796 21       		.uleb128 0x21
 1823 0797 DC000000 		.4byte	0xdc
 1824 079b 0B       		.byte	0xb
 1825 079c 00       		.byte	0
 1826 079d 1F       		.uleb128 0x1f
 1827 079e 35070000 		.4byte	.LASF132
 1828 07a2 01       		.byte	0x1
 1829 07a3 6F       		.byte	0x6f
 1830 07a4 8D070000 		.4byte	0x78d
 1831 07a8 05       		.uleb128 0x5
 1832 07a9 03       		.byte	0x3
 1833 07aa 00000000 		.4byte	dma_isr_redir
 1834 07ae 22       		.uleb128 0x22
 1835 07af 21050000 		.4byte	.LASF133
 1836 07b3 07       		.byte	0x7
 1837 07b4 0706     		.2byte	0x607
 1838 07b6 8F020000 		.4byte	0x28f
 1839 07ba 20       		.uleb128 0x20
 1840 07bb F6030000 		.4byte	0x3f6
 1841 07bf CA070000 		.4byte	0x7ca
 1842 07c3 21       		.uleb128 0x21
 1843 07c4 DC000000 		.4byte	0xdc
 1844 07c8 0B       		.byte	0xb
 1845 07c9 00       		.byte	0
 1846 07ca 23       		.uleb128 0x23
 1847 07cb A2000000 		.4byte	.LASF134
 1848 07cf 01       		.byte	0x1
 1849 07d0 45       		.byte	0x45
 1850 07d1 DB070000 		.4byte	0x7db
 1851 07d5 05       		.uleb128 0x5
 1852 07d6 03       		.byte	0x3
 1853 07d7 00000000 		.4byte	_stm32_dma_streams
 1854 07db 12       		.uleb128 0x12
 1855 07dc BA070000 		.4byte	0x7ba
 1856 07e0 24       		.uleb128 0x24
 1857 07e1 14070000 		.4byte	.LASF140
 1858 07e5 08       		.byte	0x8
 1859 07e6 0302     		.2byte	0x203
 1860 07e8 25       		.uleb128 0x25
 1861 07e9 EB000000 		.4byte	.LASF141
 1862 07ed 09       		.byte	0x9
 1863 07ee 2301     		.2byte	0x123
 1864 07f0 FF070000 		.4byte	0x7ff
 1865 07f4 11       		.uleb128 0x11
ARM GAS  /tmp/ccj7S6x5.s 			page 34


 1866 07f5 B8000000 		.4byte	0xb8
 1867 07f9 11       		.uleb128 0x11
 1868 07fa B8000000 		.4byte	0xb8
 1869 07fe 00       		.byte	0
 1870 07ff 26       		.uleb128 0x26
 1871 0800 E6010000 		.4byte	.LASF142
 1872 0804 09       		.byte	0x9
 1873 0805 2401     		.2byte	0x124
 1874 0807 11       		.uleb128 0x11
 1875 0808 B8000000 		.4byte	0xb8
 1876 080c 00       		.byte	0
 1877 080d 00       		.byte	0
 1878              		.section	.debug_abbrev,"",%progbits
 1879              	.Ldebug_abbrev0:
 1880 0000 01       		.uleb128 0x1
 1881 0001 11       		.uleb128 0x11
 1882 0002 01       		.byte	0x1
 1883 0003 25       		.uleb128 0x25
 1884 0004 0E       		.uleb128 0xe
 1885 0005 13       		.uleb128 0x13
 1886 0006 0B       		.uleb128 0xb
 1887 0007 03       		.uleb128 0x3
 1888 0008 0E       		.uleb128 0xe
 1889 0009 1B       		.uleb128 0x1b
 1890 000a 0E       		.uleb128 0xe
 1891 000b 55       		.uleb128 0x55
 1892 000c 17       		.uleb128 0x17
 1893 000d 11       		.uleb128 0x11
 1894 000e 01       		.uleb128 0x1
 1895 000f 10       		.uleb128 0x10
 1896 0010 17       		.uleb128 0x17
 1897 0011 00       		.byte	0
 1898 0012 00       		.byte	0
 1899 0013 02       		.uleb128 0x2
 1900 0014 24       		.uleb128 0x24
 1901 0015 00       		.byte	0
 1902 0016 0B       		.uleb128 0xb
 1903 0017 0B       		.uleb128 0xb
 1904 0018 3E       		.uleb128 0x3e
 1905 0019 0B       		.uleb128 0xb
 1906 001a 03       		.uleb128 0x3
 1907 001b 08       		.uleb128 0x8
 1908 001c 00       		.byte	0
 1909 001d 00       		.byte	0
 1910 001e 03       		.uleb128 0x3
 1911 001f 24       		.uleb128 0x24
 1912 0020 00       		.byte	0
 1913 0021 0B       		.uleb128 0xb
 1914 0022 0B       		.uleb128 0xb
 1915 0023 3E       		.uleb128 0x3e
 1916 0024 0B       		.uleb128 0xb
 1917 0025 03       		.uleb128 0x3
 1918 0026 0E       		.uleb128 0xe
 1919 0027 00       		.byte	0
 1920 0028 00       		.byte	0
 1921 0029 04       		.uleb128 0x4
 1922 002a 16       		.uleb128 0x16
ARM GAS  /tmp/ccj7S6x5.s 			page 35


 1923 002b 00       		.byte	0
 1924 002c 03       		.uleb128 0x3
 1925 002d 0E       		.uleb128 0xe
 1926 002e 3A       		.uleb128 0x3a
 1927 002f 0B       		.uleb128 0xb
 1928 0030 3B       		.uleb128 0x3b
 1929 0031 0B       		.uleb128 0xb
 1930 0032 49       		.uleb128 0x49
 1931 0033 13       		.uleb128 0x13
 1932 0034 00       		.byte	0
 1933 0035 00       		.byte	0
 1934 0036 05       		.uleb128 0x5
 1935 0037 0F       		.uleb128 0xf
 1936 0038 00       		.byte	0
 1937 0039 0B       		.uleb128 0xb
 1938 003a 0B       		.uleb128 0xb
 1939 003b 00       		.byte	0
 1940 003c 00       		.byte	0
 1941 003d 06       		.uleb128 0x6
 1942 003e 35       		.uleb128 0x35
 1943 003f 00       		.byte	0
 1944 0040 49       		.uleb128 0x49
 1945 0041 13       		.uleb128 0x13
 1946 0042 00       		.byte	0
 1947 0043 00       		.byte	0
 1948 0044 07       		.uleb128 0x7
 1949 0045 04       		.uleb128 0x4
 1950 0046 01       		.byte	0x1
 1951 0047 03       		.uleb128 0x3
 1952 0048 0E       		.uleb128 0xe
 1953 0049 0B       		.uleb128 0xb
 1954 004a 0B       		.uleb128 0xb
 1955 004b 3A       		.uleb128 0x3a
 1956 004c 0B       		.uleb128 0xb
 1957 004d 3B       		.uleb128 0x3b
 1958 004e 0B       		.uleb128 0xb
 1959 004f 01       		.uleb128 0x1
 1960 0050 13       		.uleb128 0x13
 1961 0051 00       		.byte	0
 1962 0052 00       		.byte	0
 1963 0053 08       		.uleb128 0x8
 1964 0054 28       		.uleb128 0x28
 1965 0055 00       		.byte	0
 1966 0056 03       		.uleb128 0x3
 1967 0057 0E       		.uleb128 0xe
 1968 0058 1C       		.uleb128 0x1c
 1969 0059 0D       		.uleb128 0xd
 1970 005a 00       		.byte	0
 1971 005b 00       		.byte	0
 1972 005c 09       		.uleb128 0x9
 1973 005d 13       		.uleb128 0x13
 1974 005e 01       		.byte	0x1
 1975 005f 0B       		.uleb128 0xb
 1976 0060 0B       		.uleb128 0xb
 1977 0061 3A       		.uleb128 0x3a
 1978 0062 0B       		.uleb128 0xb
 1979 0063 3B       		.uleb128 0x3b
ARM GAS  /tmp/ccj7S6x5.s 			page 36


 1980 0064 05       		.uleb128 0x5
 1981 0065 01       		.uleb128 0x1
 1982 0066 13       		.uleb128 0x13
 1983 0067 00       		.byte	0
 1984 0068 00       		.byte	0
 1985 0069 0A       		.uleb128 0xa
 1986 006a 0D       		.uleb128 0xd
 1987 006b 00       		.byte	0
 1988 006c 03       		.uleb128 0x3
 1989 006d 08       		.uleb128 0x8
 1990 006e 3A       		.uleb128 0x3a
 1991 006f 0B       		.uleb128 0xb
 1992 0070 3B       		.uleb128 0x3b
 1993 0071 05       		.uleb128 0x5
 1994 0072 49       		.uleb128 0x49
 1995 0073 13       		.uleb128 0x13
 1996 0074 38       		.uleb128 0x38
 1997 0075 0B       		.uleb128 0xb
 1998 0076 00       		.byte	0
 1999 0077 00       		.byte	0
 2000 0078 0B       		.uleb128 0xb
 2001 0079 0D       		.uleb128 0xd
 2002 007a 00       		.byte	0
 2003 007b 03       		.uleb128 0x3
 2004 007c 0E       		.uleb128 0xe
 2005 007d 3A       		.uleb128 0x3a
 2006 007e 0B       		.uleb128 0xb
 2007 007f 3B       		.uleb128 0x3b
 2008 0080 05       		.uleb128 0x5
 2009 0081 49       		.uleb128 0x49
 2010 0082 13       		.uleb128 0x13
 2011 0083 38       		.uleb128 0x38
 2012 0084 0B       		.uleb128 0xb
 2013 0085 00       		.byte	0
 2014 0086 00       		.byte	0
 2015 0087 0C       		.uleb128 0xc
 2016 0088 16       		.uleb128 0x16
 2017 0089 00       		.byte	0
 2018 008a 03       		.uleb128 0x3
 2019 008b 0E       		.uleb128 0xe
 2020 008c 3A       		.uleb128 0x3a
 2021 008d 0B       		.uleb128 0xb
 2022 008e 3B       		.uleb128 0x3b
 2023 008f 05       		.uleb128 0x5
 2024 0090 49       		.uleb128 0x49
 2025 0091 13       		.uleb128 0x13
 2026 0092 00       		.byte	0
 2027 0093 00       		.byte	0
 2028 0094 0D       		.uleb128 0xd
 2029 0095 13       		.uleb128 0x13
 2030 0096 01       		.byte	0x1
 2031 0097 0B       		.uleb128 0xb
 2032 0098 0B       		.uleb128 0xb
 2033 0099 3A       		.uleb128 0x3a
 2034 009a 0B       		.uleb128 0xb
 2035 009b 3B       		.uleb128 0x3b
 2036 009c 0B       		.uleb128 0xb
ARM GAS  /tmp/ccj7S6x5.s 			page 37


 2037 009d 01       		.uleb128 0x1
 2038 009e 13       		.uleb128 0x13
 2039 009f 00       		.byte	0
 2040 00a0 00       		.byte	0
 2041 00a1 0E       		.uleb128 0xe
 2042 00a2 0D       		.uleb128 0xd
 2043 00a3 00       		.byte	0
 2044 00a4 03       		.uleb128 0x3
 2045 00a5 0E       		.uleb128 0xe
 2046 00a6 3A       		.uleb128 0x3a
 2047 00a7 0B       		.uleb128 0xb
 2048 00a8 3B       		.uleb128 0x3b
 2049 00a9 0B       		.uleb128 0xb
 2050 00aa 49       		.uleb128 0x49
 2051 00ab 13       		.uleb128 0x13
 2052 00ac 38       		.uleb128 0x38
 2053 00ad 0B       		.uleb128 0xb
 2054 00ae 00       		.byte	0
 2055 00af 00       		.byte	0
 2056 00b0 0F       		.uleb128 0xf
 2057 00b1 0F       		.uleb128 0xf
 2058 00b2 00       		.byte	0
 2059 00b3 0B       		.uleb128 0xb
 2060 00b4 0B       		.uleb128 0xb
 2061 00b5 49       		.uleb128 0x49
 2062 00b6 13       		.uleb128 0x13
 2063 00b7 00       		.byte	0
 2064 00b8 00       		.byte	0
 2065 00b9 10       		.uleb128 0x10
 2066 00ba 15       		.uleb128 0x15
 2067 00bb 01       		.byte	0x1
 2068 00bc 27       		.uleb128 0x27
 2069 00bd 19       		.uleb128 0x19
 2070 00be 01       		.uleb128 0x1
 2071 00bf 13       		.uleb128 0x13
 2072 00c0 00       		.byte	0
 2073 00c1 00       		.byte	0
 2074 00c2 11       		.uleb128 0x11
 2075 00c3 05       		.uleb128 0x5
 2076 00c4 00       		.byte	0
 2077 00c5 49       		.uleb128 0x49
 2078 00c6 13       		.uleb128 0x13
 2079 00c7 00       		.byte	0
 2080 00c8 00       		.byte	0
 2081 00c9 12       		.uleb128 0x12
 2082 00ca 26       		.uleb128 0x26
 2083 00cb 00       		.byte	0
 2084 00cc 49       		.uleb128 0x49
 2085 00cd 13       		.uleb128 0x13
 2086 00ce 00       		.byte	0
 2087 00cf 00       		.byte	0
 2088 00d0 13       		.uleb128 0x13
 2089 00d1 2E       		.uleb128 0x2e
 2090 00d2 01       		.byte	0x1
 2091 00d3 3F       		.uleb128 0x3f
 2092 00d4 19       		.uleb128 0x19
 2093 00d5 03       		.uleb128 0x3
ARM GAS  /tmp/ccj7S6x5.s 			page 38


 2094 00d6 0E       		.uleb128 0xe
 2095 00d7 3A       		.uleb128 0x3a
 2096 00d8 0B       		.uleb128 0xb
 2097 00d9 3B       		.uleb128 0x3b
 2098 00da 0B       		.uleb128 0xb
 2099 00db 27       		.uleb128 0x27
 2100 00dc 19       		.uleb128 0x19
 2101 00dd 11       		.uleb128 0x11
 2102 00de 01       		.uleb128 0x1
 2103 00df 12       		.uleb128 0x12
 2104 00e0 06       		.uleb128 0x6
 2105 00e1 40       		.uleb128 0x40
 2106 00e2 18       		.uleb128 0x18
 2107 00e3 9742     		.uleb128 0x2117
 2108 00e5 19       		.uleb128 0x19
 2109 00e6 01       		.uleb128 0x1
 2110 00e7 13       		.uleb128 0x13
 2111 00e8 00       		.byte	0
 2112 00e9 00       		.byte	0
 2113 00ea 14       		.uleb128 0x14
 2114 00eb 34       		.uleb128 0x34
 2115 00ec 00       		.byte	0
 2116 00ed 03       		.uleb128 0x3
 2117 00ee 0E       		.uleb128 0xe
 2118 00ef 3A       		.uleb128 0x3a
 2119 00f0 0B       		.uleb128 0xb
 2120 00f1 3B       		.uleb128 0x3b
 2121 00f2 0B       		.uleb128 0xb
 2122 00f3 49       		.uleb128 0x49
 2123 00f4 13       		.uleb128 0x13
 2124 00f5 02       		.uleb128 0x2
 2125 00f6 17       		.uleb128 0x17
 2126 00f7 00       		.byte	0
 2127 00f8 00       		.byte	0
 2128 00f9 15       		.uleb128 0x15
 2129 00fa 898201   		.uleb128 0x4109
 2130 00fd 00       		.byte	0
 2131 00fe 11       		.uleb128 0x11
 2132 00ff 01       		.uleb128 0x1
 2133 0100 9342     		.uleb128 0x2113
 2134 0102 18       		.uleb128 0x18
 2135 0103 00       		.byte	0
 2136 0104 00       		.byte	0
 2137 0105 16       		.uleb128 0x16
 2138 0106 898201   		.uleb128 0x4109
 2139 0109 00       		.byte	0
 2140 010a 11       		.uleb128 0x11
 2141 010b 01       		.uleb128 0x1
 2142 010c 9542     		.uleb128 0x2115
 2143 010e 19       		.uleb128 0x19
 2144 010f 31       		.uleb128 0x31
 2145 0110 13       		.uleb128 0x13
 2146 0111 00       		.byte	0
 2147 0112 00       		.byte	0
 2148 0113 17       		.uleb128 0x17
 2149 0114 2E       		.uleb128 0x2e
 2150 0115 01       		.byte	0x1
ARM GAS  /tmp/ccj7S6x5.s 			page 39


 2151 0116 3F       		.uleb128 0x3f
 2152 0117 19       		.uleb128 0x19
 2153 0118 03       		.uleb128 0x3
 2154 0119 0E       		.uleb128 0xe
 2155 011a 3A       		.uleb128 0x3a
 2156 011b 0B       		.uleb128 0xb
 2157 011c 3B       		.uleb128 0x3b
 2158 011d 05       		.uleb128 0x5
 2159 011e 27       		.uleb128 0x27
 2160 011f 19       		.uleb128 0x19
 2161 0120 11       		.uleb128 0x11
 2162 0121 01       		.uleb128 0x1
 2163 0122 12       		.uleb128 0x12
 2164 0123 06       		.uleb128 0x6
 2165 0124 40       		.uleb128 0x40
 2166 0125 18       		.uleb128 0x18
 2167 0126 9742     		.uleb128 0x2117
 2168 0128 19       		.uleb128 0x19
 2169 0129 01       		.uleb128 0x1
 2170 012a 13       		.uleb128 0x13
 2171 012b 00       		.byte	0
 2172 012c 00       		.byte	0
 2173 012d 18       		.uleb128 0x18
 2174 012e 34       		.uleb128 0x34
 2175 012f 00       		.byte	0
 2176 0130 03       		.uleb128 0x3
 2177 0131 0E       		.uleb128 0xe
 2178 0132 3A       		.uleb128 0x3a
 2179 0133 0B       		.uleb128 0xb
 2180 0134 3B       		.uleb128 0x3b
 2181 0135 05       		.uleb128 0x5
 2182 0136 49       		.uleb128 0x49
 2183 0137 13       		.uleb128 0x13
 2184 0138 02       		.uleb128 0x2
 2185 0139 17       		.uleb128 0x17
 2186 013a 00       		.byte	0
 2187 013b 00       		.byte	0
 2188 013c 19       		.uleb128 0x19
 2189 013d 34       		.uleb128 0x34
 2190 013e 00       		.byte	0
 2191 013f 03       		.uleb128 0x3
 2192 0140 08       		.uleb128 0x8
 2193 0141 3A       		.uleb128 0x3a
 2194 0142 0B       		.uleb128 0xb
 2195 0143 3B       		.uleb128 0x3b
 2196 0144 05       		.uleb128 0x5
 2197 0145 49       		.uleb128 0x49
 2198 0146 13       		.uleb128 0x13
 2199 0147 02       		.uleb128 0x2
 2200 0148 17       		.uleb128 0x17
 2201 0149 00       		.byte	0
 2202 014a 00       		.byte	0
 2203 014b 1A       		.uleb128 0x1a
 2204 014c 2E       		.uleb128 0x2e
 2205 014d 01       		.byte	0x1
 2206 014e 3F       		.uleb128 0x3f
 2207 014f 19       		.uleb128 0x19
ARM GAS  /tmp/ccj7S6x5.s 			page 40


 2208 0150 03       		.uleb128 0x3
 2209 0151 0E       		.uleb128 0xe
 2210 0152 3A       		.uleb128 0x3a
 2211 0153 0B       		.uleb128 0xb
 2212 0154 3B       		.uleb128 0x3b
 2213 0155 05       		.uleb128 0x5
 2214 0156 27       		.uleb128 0x27
 2215 0157 19       		.uleb128 0x19
 2216 0158 49       		.uleb128 0x49
 2217 0159 13       		.uleb128 0x13
 2218 015a 11       		.uleb128 0x11
 2219 015b 01       		.uleb128 0x1
 2220 015c 12       		.uleb128 0x12
 2221 015d 06       		.uleb128 0x6
 2222 015e 40       		.uleb128 0x40
 2223 015f 18       		.uleb128 0x18
 2224 0160 9742     		.uleb128 0x2117
 2225 0162 19       		.uleb128 0x19
 2226 0163 01       		.uleb128 0x1
 2227 0164 13       		.uleb128 0x13
 2228 0165 00       		.byte	0
 2229 0166 00       		.byte	0
 2230 0167 1B       		.uleb128 0x1b
 2231 0168 05       		.uleb128 0x5
 2232 0169 00       		.byte	0
 2233 016a 03       		.uleb128 0x3
 2234 016b 0E       		.uleb128 0xe
 2235 016c 3A       		.uleb128 0x3a
 2236 016d 0B       		.uleb128 0xb
 2237 016e 3B       		.uleb128 0x3b
 2238 016f 05       		.uleb128 0x5
 2239 0170 49       		.uleb128 0x49
 2240 0171 13       		.uleb128 0x13
 2241 0172 02       		.uleb128 0x2
 2242 0173 17       		.uleb128 0x17
 2243 0174 00       		.byte	0
 2244 0175 00       		.byte	0
 2245 0176 1C       		.uleb128 0x1c
 2246 0177 898201   		.uleb128 0x4109
 2247 017a 01       		.byte	0x1
 2248 017b 11       		.uleb128 0x11
 2249 017c 01       		.uleb128 0x1
 2250 017d 31       		.uleb128 0x31
 2251 017e 13       		.uleb128 0x13
 2252 017f 00       		.byte	0
 2253 0180 00       		.byte	0
 2254 0181 1D       		.uleb128 0x1d
 2255 0182 8A8201   		.uleb128 0x410a
 2256 0185 00       		.byte	0
 2257 0186 02       		.uleb128 0x2
 2258 0187 18       		.uleb128 0x18
 2259 0188 9142     		.uleb128 0x2111
 2260 018a 18       		.uleb128 0x18
 2261 018b 00       		.byte	0
 2262 018c 00       		.byte	0
 2263 018d 1E       		.uleb128 0x1e
 2264 018e 898201   		.uleb128 0x4109
ARM GAS  /tmp/ccj7S6x5.s 			page 41


 2265 0191 00       		.byte	0
 2266 0192 11       		.uleb128 0x11
 2267 0193 01       		.uleb128 0x1
 2268 0194 31       		.uleb128 0x31
 2269 0195 13       		.uleb128 0x13
 2270 0196 00       		.byte	0
 2271 0197 00       		.byte	0
 2272 0198 1F       		.uleb128 0x1f
 2273 0199 34       		.uleb128 0x34
 2274 019a 00       		.byte	0
 2275 019b 03       		.uleb128 0x3
 2276 019c 0E       		.uleb128 0xe
 2277 019d 3A       		.uleb128 0x3a
 2278 019e 0B       		.uleb128 0xb
 2279 019f 3B       		.uleb128 0x3b
 2280 01a0 0B       		.uleb128 0xb
 2281 01a1 49       		.uleb128 0x49
 2282 01a2 13       		.uleb128 0x13
 2283 01a3 02       		.uleb128 0x2
 2284 01a4 18       		.uleb128 0x18
 2285 01a5 00       		.byte	0
 2286 01a6 00       		.byte	0
 2287 01a7 20       		.uleb128 0x20
 2288 01a8 01       		.uleb128 0x1
 2289 01a9 01       		.byte	0x1
 2290 01aa 49       		.uleb128 0x49
 2291 01ab 13       		.uleb128 0x13
 2292 01ac 01       		.uleb128 0x1
 2293 01ad 13       		.uleb128 0x13
 2294 01ae 00       		.byte	0
 2295 01af 00       		.byte	0
 2296 01b0 21       		.uleb128 0x21
 2297 01b1 21       		.uleb128 0x21
 2298 01b2 00       		.byte	0
 2299 01b3 49       		.uleb128 0x49
 2300 01b4 13       		.uleb128 0x13
 2301 01b5 2F       		.uleb128 0x2f
 2302 01b6 0B       		.uleb128 0xb
 2303 01b7 00       		.byte	0
 2304 01b8 00       		.byte	0
 2305 01b9 22       		.uleb128 0x22
 2306 01ba 34       		.uleb128 0x34
 2307 01bb 00       		.byte	0
 2308 01bc 03       		.uleb128 0x3
 2309 01bd 0E       		.uleb128 0xe
 2310 01be 3A       		.uleb128 0x3a
 2311 01bf 0B       		.uleb128 0xb
 2312 01c0 3B       		.uleb128 0x3b
 2313 01c1 05       		.uleb128 0x5
 2314 01c2 49       		.uleb128 0x49
 2315 01c3 13       		.uleb128 0x13
 2316 01c4 3F       		.uleb128 0x3f
 2317 01c5 19       		.uleb128 0x19
 2318 01c6 3C       		.uleb128 0x3c
 2319 01c7 19       		.uleb128 0x19
 2320 01c8 00       		.byte	0
 2321 01c9 00       		.byte	0
ARM GAS  /tmp/ccj7S6x5.s 			page 42


 2322 01ca 23       		.uleb128 0x23
 2323 01cb 34       		.uleb128 0x34
 2324 01cc 00       		.byte	0
 2325 01cd 03       		.uleb128 0x3
 2326 01ce 0E       		.uleb128 0xe
 2327 01cf 3A       		.uleb128 0x3a
 2328 01d0 0B       		.uleb128 0xb
 2329 01d1 3B       		.uleb128 0x3b
 2330 01d2 0B       		.uleb128 0xb
 2331 01d3 49       		.uleb128 0x49
 2332 01d4 13       		.uleb128 0x13
 2333 01d5 3F       		.uleb128 0x3f
 2334 01d6 19       		.uleb128 0x19
 2335 01d7 02       		.uleb128 0x2
 2336 01d8 18       		.uleb128 0x18
 2337 01d9 00       		.byte	0
 2338 01da 00       		.byte	0
 2339 01db 24       		.uleb128 0x24
 2340 01dc 2E       		.uleb128 0x2e
 2341 01dd 00       		.byte	0
 2342 01de 3F       		.uleb128 0x3f
 2343 01df 19       		.uleb128 0x19
 2344 01e0 03       		.uleb128 0x3
 2345 01e1 0E       		.uleb128 0xe
 2346 01e2 3A       		.uleb128 0x3a
 2347 01e3 0B       		.uleb128 0xb
 2348 01e4 3B       		.uleb128 0x3b
 2349 01e5 05       		.uleb128 0x5
 2350 01e6 27       		.uleb128 0x27
 2351 01e7 19       		.uleb128 0x19
 2352 01e8 3C       		.uleb128 0x3c
 2353 01e9 19       		.uleb128 0x19
 2354 01ea 00       		.byte	0
 2355 01eb 00       		.byte	0
 2356 01ec 25       		.uleb128 0x25
 2357 01ed 2E       		.uleb128 0x2e
 2358 01ee 01       		.byte	0x1
 2359 01ef 3F       		.uleb128 0x3f
 2360 01f0 19       		.uleb128 0x19
 2361 01f1 03       		.uleb128 0x3
 2362 01f2 0E       		.uleb128 0xe
 2363 01f3 3A       		.uleb128 0x3a
 2364 01f4 0B       		.uleb128 0xb
 2365 01f5 3B       		.uleb128 0x3b
 2366 01f6 05       		.uleb128 0x5
 2367 01f7 27       		.uleb128 0x27
 2368 01f8 19       		.uleb128 0x19
 2369 01f9 3C       		.uleb128 0x3c
 2370 01fa 19       		.uleb128 0x19
 2371 01fb 01       		.uleb128 0x1
 2372 01fc 13       		.uleb128 0x13
 2373 01fd 00       		.byte	0
 2374 01fe 00       		.byte	0
 2375 01ff 26       		.uleb128 0x26
 2376 0200 2E       		.uleb128 0x2e
 2377 0201 01       		.byte	0x1
 2378 0202 3F       		.uleb128 0x3f
ARM GAS  /tmp/ccj7S6x5.s 			page 43


 2379 0203 19       		.uleb128 0x19
 2380 0204 03       		.uleb128 0x3
 2381 0205 0E       		.uleb128 0xe
 2382 0206 3A       		.uleb128 0x3a
 2383 0207 0B       		.uleb128 0xb
 2384 0208 3B       		.uleb128 0x3b
 2385 0209 05       		.uleb128 0x5
 2386 020a 27       		.uleb128 0x27
 2387 020b 19       		.uleb128 0x19
 2388 020c 3C       		.uleb128 0x3c
 2389 020d 19       		.uleb128 0x19
 2390 020e 00       		.byte	0
 2391 020f 00       		.byte	0
 2392 0210 00       		.byte	0
 2393              		.section	.debug_loc,"",%progbits
 2394              	.Ldebug_loc0:
 2395              	.LLST0:
 2396 0000 18000000 		.4byte	.LVL0
 2397 0004 1F000000 		.4byte	.LVL1-1
 2398 0008 0100     		.2byte	0x1
 2399 000a 51       		.byte	0x51
 2400 000b 00000000 		.4byte	0
 2401 000f 00000000 		.4byte	0
 2402              	.LLST1:
 2403 0013 16000000 		.4byte	.LVL3
 2404 0017 21000000 		.4byte	.LVL4-1
 2405 001b 0100     		.2byte	0x1
 2406 001d 51       		.byte	0x51
 2407 001e 00000000 		.4byte	0
 2408 0022 00000000 		.4byte	0
 2409              	.LLST2:
 2410 0026 16000000 		.4byte	.LVL6
 2411 002a 21000000 		.4byte	.LVL7-1
 2412 002e 0100     		.2byte	0x1
 2413 0030 51       		.byte	0x51
 2414 0031 00000000 		.4byte	0
 2415 0035 00000000 		.4byte	0
 2416              	.LLST3:
 2417 0039 16000000 		.4byte	.LVL9
 2418 003d 21000000 		.4byte	.LVL10-1
 2419 0041 0100     		.2byte	0x1
 2420 0043 51       		.byte	0x51
 2421 0044 00000000 		.4byte	0
 2422 0048 00000000 		.4byte	0
 2423              	.LLST4:
 2424 004c 16000000 		.4byte	.LVL12
 2425 0050 21000000 		.4byte	.LVL13-1
 2426 0054 0100     		.2byte	0x1
 2427 0056 51       		.byte	0x51
 2428 0057 00000000 		.4byte	0
 2429 005b 00000000 		.4byte	0
 2430              	.LLST5:
 2431 005f 16000000 		.4byte	.LVL15
 2432 0063 21000000 		.4byte	.LVL16-1
 2433 0067 0100     		.2byte	0x1
 2434 0069 51       		.byte	0x51
 2435 006a 00000000 		.4byte	0
ARM GAS  /tmp/ccj7S6x5.s 			page 44


 2436 006e 00000000 		.4byte	0
 2437              	.LLST6:
 2438 0072 16000000 		.4byte	.LVL18
 2439 0076 21000000 		.4byte	.LVL19-1
 2440 007a 0100     		.2byte	0x1
 2441 007c 51       		.byte	0x51
 2442 007d 00000000 		.4byte	0
 2443 0081 00000000 		.4byte	0
 2444              	.LLST7:
 2445 0085 1A000000 		.4byte	.LVL21
 2446 0089 21000000 		.4byte	.LVL22-1
 2447 008d 0100     		.2byte	0x1
 2448 008f 51       		.byte	0x51
 2449 0090 00000000 		.4byte	0
 2450 0094 00000000 		.4byte	0
 2451              	.LLST8:
 2452 0098 18000000 		.4byte	.LVL24
 2453 009c 23000000 		.4byte	.LVL25-1
 2454 00a0 0100     		.2byte	0x1
 2455 00a2 51       		.byte	0x51
 2456 00a3 00000000 		.4byte	0
 2457 00a7 00000000 		.4byte	0
 2458              	.LLST9:
 2459 00ab 18000000 		.4byte	.LVL27
 2460 00af 23000000 		.4byte	.LVL28-1
 2461 00b3 0100     		.2byte	0x1
 2462 00b5 51       		.byte	0x51
 2463 00b6 00000000 		.4byte	0
 2464 00ba 00000000 		.4byte	0
 2465              	.LLST10:
 2466 00be 10000000 		.4byte	.LVL30
 2467 00c2 25000000 		.4byte	.LVL31-1
 2468 00c6 0100     		.2byte	0x1
 2469 00c8 51       		.byte	0x51
 2470 00c9 34000000 		.4byte	.LVL32
 2471 00cd 49000000 		.4byte	.LVL33-1
 2472 00d1 0100     		.2byte	0x1
 2473 00d3 51       		.byte	0x51
 2474 00d4 00000000 		.4byte	0
 2475 00d8 00000000 		.4byte	0
 2476              	.LLST11:
 2477 00dc 16000000 		.4byte	.LVL35
 2478 00e0 22000000 		.4byte	.LVL36
 2479 00e4 0200     		.2byte	0x2
 2480 00e6 30       		.byte	0x30
 2481 00e7 9F       		.byte	0x9f
 2482 00e8 00000000 		.4byte	0
 2483 00ec 00000000 		.4byte	0
 2484              	.LLST12:
 2485 00f0 00000000 		.4byte	.LVL37
 2486 00f4 86000000 		.4byte	.LVL39
 2487 00f8 0100     		.2byte	0x1
 2488 00fa 50       		.byte	0x50
 2489 00fb 86000000 		.4byte	.LVL39
 2490 00ff 90000000 		.4byte	.LVL42
 2491 0103 0400     		.2byte	0x4
 2492 0105 F3       		.byte	0xf3
ARM GAS  /tmp/ccj7S6x5.s 			page 45


 2493 0106 01       		.uleb128 0x1
 2494 0107 50       		.byte	0x50
 2495 0108 9F       		.byte	0x9f
 2496 0109 90000000 		.4byte	.LVL42
 2497 010d 92000000 		.4byte	.LVL43
 2498 0111 0100     		.2byte	0x1
 2499 0113 50       		.byte	0x50
 2500 0114 92000000 		.4byte	.LVL43
 2501 0118 94000000 		.4byte	.LVL44
 2502 011c 0400     		.2byte	0x4
 2503 011e F3       		.byte	0xf3
 2504 011f 01       		.uleb128 0x1
 2505 0120 50       		.byte	0x50
 2506 0121 9F       		.byte	0x9f
 2507 0122 94000000 		.4byte	.LVL44
 2508 0126 96000000 		.4byte	.LVL45
 2509 012a 0100     		.2byte	0x1
 2510 012c 50       		.byte	0x50
 2511 012d 96000000 		.4byte	.LVL45
 2512 0131 98000000 		.4byte	.LFE75
 2513 0135 0400     		.2byte	0x4
 2514 0137 F3       		.byte	0xf3
 2515 0138 01       		.uleb128 0x1
 2516 0139 50       		.byte	0x50
 2517 013a 9F       		.byte	0x9f
 2518 013b 00000000 		.4byte	0
 2519 013f 00000000 		.4byte	0
 2520              	.LLST13:
 2521 0143 00000000 		.4byte	.LVL37
 2522 0147 88000000 		.4byte	.LVL40
 2523 014b 0100     		.2byte	0x1
 2524 014d 51       		.byte	0x51
 2525 014e 88000000 		.4byte	.LVL40
 2526 0152 90000000 		.4byte	.LVL42
 2527 0156 0400     		.2byte	0x4
 2528 0158 F3       		.byte	0xf3
 2529 0159 01       		.uleb128 0x1
 2530 015a 51       		.byte	0x51
 2531 015b 9F       		.byte	0x9f
 2532 015c 90000000 		.4byte	.LVL42
 2533 0160 98000000 		.4byte	.LFE75
 2534 0164 0100     		.2byte	0x1
 2535 0166 51       		.byte	0x51
 2536 0167 00000000 		.4byte	0
 2537 016b 00000000 		.4byte	0
 2538              	.LLST14:
 2539 016f 00000000 		.4byte	.LVL37
 2540 0173 8B000000 		.4byte	.LVL41-1
 2541 0177 0100     		.2byte	0x1
 2542 0179 52       		.byte	0x52
 2543 017a 8B000000 		.4byte	.LVL41-1
 2544 017e 90000000 		.4byte	.LVL42
 2545 0182 0400     		.2byte	0x4
 2546 0184 F3       		.byte	0xf3
 2547 0185 01       		.uleb128 0x1
 2548 0186 52       		.byte	0x52
 2549 0187 9F       		.byte	0x9f
ARM GAS  /tmp/ccj7S6x5.s 			page 46


 2550 0188 90000000 		.4byte	.LVL42
 2551 018c 98000000 		.4byte	.LFE75
 2552 0190 0100     		.2byte	0x1
 2553 0192 52       		.byte	0x52
 2554 0193 00000000 		.4byte	0
 2555 0197 00000000 		.4byte	0
 2556              	.LLST15:
 2557 019b 00000000 		.4byte	.LVL37
 2558 019f 34000000 		.4byte	.LVL38
 2559 01a3 0100     		.2byte	0x1
 2560 01a5 53       		.byte	0x53
 2561 01a6 34000000 		.4byte	.LVL38
 2562 01aa 8B000000 		.4byte	.LVL41-1
 2563 01ae 0200     		.2byte	0x2
 2564 01b0 7C       		.byte	0x7c
 2565 01b1 04       		.sleb128 4
 2566 01b2 8B000000 		.4byte	.LVL41-1
 2567 01b6 90000000 		.4byte	.LVL42
 2568 01ba 0400     		.2byte	0x4
 2569 01bc F3       		.byte	0xf3
 2570 01bd 01       		.uleb128 0x1
 2571 01be 53       		.byte	0x53
 2572 01bf 9F       		.byte	0x9f
 2573 01c0 90000000 		.4byte	.LVL42
 2574 01c4 94000000 		.4byte	.LVL44
 2575 01c8 0100     		.2byte	0x1
 2576 01ca 53       		.byte	0x53
 2577 01cb 94000000 		.4byte	.LVL44
 2578 01cf 98000000 		.4byte	.LFE75
 2579 01d3 0200     		.2byte	0x2
 2580 01d5 7C       		.byte	0x7c
 2581 01d6 04       		.sleb128 4
 2582 01d7 00000000 		.4byte	0
 2583 01db 00000000 		.4byte	0
 2584              	.LLST16:
 2585 01df 00000000 		.4byte	.LVL46
 2586 01e3 06000000 		.4byte	.LVL47
 2587 01e7 0100     		.2byte	0x1
 2588 01e9 50       		.byte	0x50
 2589 01ea 06000000 		.4byte	.LVL47
 2590 01ee 50000000 		.4byte	.LFE76
 2591 01f2 0100     		.2byte	0x1
 2592 01f4 54       		.byte	0x54
 2593 01f5 00000000 		.4byte	0
 2594 01f9 00000000 		.4byte	0
 2595              		.section	.debug_aranges,"",%progbits
 2596 0000 84000000 		.4byte	0x84
 2597 0004 0200     		.2byte	0x2
 2598 0006 00000000 		.4byte	.Ldebug_info0
 2599 000a 04       		.byte	0x4
 2600 000b 00       		.byte	0
 2601 000c 0000     		.2byte	0
 2602 000e 0000     		.2byte	0
 2603 0010 00000000 		.4byte	.LFB63
 2604 0014 28000000 		.4byte	.LFE63-.LFB63
 2605 0018 00000000 		.4byte	.LFB64
 2606 001c 2A000000 		.4byte	.LFE64-.LFB64
ARM GAS  /tmp/ccj7S6x5.s 			page 47


 2607 0020 00000000 		.4byte	.LFB65
 2608 0024 2A000000 		.4byte	.LFE65-.LFB65
 2609 0028 00000000 		.4byte	.LFB66
 2610 002c 2A000000 		.4byte	.LFE66-.LFB66
 2611 0030 00000000 		.4byte	.LFB67
 2612 0034 2A000000 		.4byte	.LFE67-.LFB67
 2613 0038 00000000 		.4byte	.LFB68
 2614 003c 2A000000 		.4byte	.LFE68-.LFB68
 2615 0040 00000000 		.4byte	.LFB69
 2616 0044 2A000000 		.4byte	.LFE69-.LFB69
 2617 0048 00000000 		.4byte	.LFB70
 2618 004c 2A000000 		.4byte	.LFE70-.LFB70
 2619 0050 00000000 		.4byte	.LFB71
 2620 0054 2C000000 		.4byte	.LFE71-.LFB71
 2621 0058 00000000 		.4byte	.LFB72
 2622 005c 2C000000 		.4byte	.LFE72-.LFB72
 2623 0060 00000000 		.4byte	.LFB73
 2624 0064 52000000 		.4byte	.LFE73-.LFB73
 2625 0068 00000000 		.4byte	.LFB74
 2626 006c 4C000000 		.4byte	.LFE74-.LFB74
 2627 0070 00000000 		.4byte	.LFB75
 2628 0074 98000000 		.4byte	.LFE75-.LFB75
 2629 0078 00000000 		.4byte	.LFB76
 2630 007c 50000000 		.4byte	.LFE76-.LFB76
 2631 0080 00000000 		.4byte	0
 2632 0084 00000000 		.4byte	0
 2633              		.section	.debug_ranges,"",%progbits
 2634              	.Ldebug_ranges0:
 2635 0000 00000000 		.4byte	.LFB63
 2636 0004 28000000 		.4byte	.LFE63
 2637 0008 00000000 		.4byte	.LFB64
 2638 000c 2A000000 		.4byte	.LFE64
 2639 0010 00000000 		.4byte	.LFB65
 2640 0014 2A000000 		.4byte	.LFE65
 2641 0018 00000000 		.4byte	.LFB66
 2642 001c 2A000000 		.4byte	.LFE66
 2643 0020 00000000 		.4byte	.LFB67
 2644 0024 2A000000 		.4byte	.LFE67
 2645 0028 00000000 		.4byte	.LFB68
 2646 002c 2A000000 		.4byte	.LFE68
 2647 0030 00000000 		.4byte	.LFB69
 2648 0034 2A000000 		.4byte	.LFE69
 2649 0038 00000000 		.4byte	.LFB70
 2650 003c 2A000000 		.4byte	.LFE70
 2651 0040 00000000 		.4byte	.LFB71
 2652 0044 2C000000 		.4byte	.LFE71
 2653 0048 00000000 		.4byte	.LFB72
 2654 004c 2C000000 		.4byte	.LFE72
 2655 0050 00000000 		.4byte	.LFB73
 2656 0054 52000000 		.4byte	.LFE73
 2657 0058 00000000 		.4byte	.LFB74
 2658 005c 4C000000 		.4byte	.LFE74
 2659 0060 00000000 		.4byte	.LFB75
 2660 0064 98000000 		.4byte	.LFE75
 2661 0068 00000000 		.4byte	.LFB76
 2662 006c 50000000 		.4byte	.LFE76
 2663 0070 00000000 		.4byte	0
ARM GAS  /tmp/ccj7S6x5.s 			page 48


 2664 0074 00000000 		.4byte	0
 2665              		.section	.debug_line,"",%progbits
 2666              	.Ldebug_line0:
 2667 0000 58030000 		.section	.debug_str,"MS",%progbits,1
 2667      02009801 
 2667      00000201 
 2667      FB0E0D00 
 2667      01010101 
 2668              	.LASF112:
 2669 0000 646D615F 		.ascii	"dma_isr_redir_t\000"
 2669      6973725F 
 2669      72656469 
 2669      725F7400 
 2670              	.LASF30:
 2671 0010 5056445F 		.ascii	"PVD_IRQn\000"
 2671      4952516E 
 2671      00
 2672              	.LASF55:
 2673 0019 54494D31 		.ascii	"TIM1_TRG_COM_IRQn\000"
 2673      5F545247 
 2673      5F434F4D 
 2673      5F495251 
 2673      6E00
 2674              	.LASF52:
 2675 002b 45585449 		.ascii	"EXTI9_5_IRQn\000"
 2675      395F355F 
 2675      4952516E 
 2675      00
 2676              	.LASF91:
 2677 0038 434D4152 		.ascii	"CMAR\000"
 2677      00
 2678              	.LASF60:
 2679 003d 49324331 		.ascii	"I2C1_EV_IRQn\000"
 2679      5F45565F 
 2679      4952516E 
 2679      00
 2680              	.LASF4:
 2681 004a 5F5F7569 		.ascii	"__uint8_t\000"
 2681      6E74385F 
 2681      7400
 2682              	.LASF50:
 2683 0054 43414E31 		.ascii	"CAN1_RX1_IRQn\000"
 2683      5F525831 
 2683      5F495251 
 2683      6E00
 2684              	.LASF12:
 2685 0062 6C6F6E67 		.ascii	"long long unsigned int\000"
 2685      206C6F6E 
 2685      6720756E 
 2685      7369676E 
 2685      65642069 
 2686              	.LASF85:
 2687 0079 444D4132 		.ascii	"DMA2_Channel1_IRQn\000"
 2687      5F436861 
 2687      6E6E656C 
 2687      315F4952 
 2687      516E00
ARM GAS  /tmp/ccj7S6x5.s 			page 49


 2688              	.LASF70:
 2689 008c 5254435F 		.ascii	"RTC_Alarm_IRQn\000"
 2689      416C6172 
 2689      6D5F4952 
 2689      516E00
 2690              	.LASF107:
 2691 009b 76656374 		.ascii	"vector\000"
 2691      6F7200
 2692              	.LASF134:
 2693 00a2 5F73746D 		.ascii	"_stm32_dma_streams\000"
 2693      33325F64 
 2693      6D615F73 
 2693      74726561 
 2693      6D7300
 2694              	.LASF63:
 2695 00b5 49324332 		.ascii	"I2C2_ER_IRQn\000"
 2695      5F45525F 
 2695      4952516E 
 2695      00
 2696              	.LASF59:
 2697 00c2 54494D34 		.ascii	"TIM4_IRQn\000"
 2697      5F495251 
 2697      6E00
 2698              	.LASF37:
 2699 00cc 45585449 		.ascii	"EXTI2_IRQn\000"
 2699      325F4952 
 2699      516E00
 2700              	.LASF29:
 2701 00d7 57574447 		.ascii	"WWDG_IRQn\000"
 2701      5F495251 
 2701      6E00
 2702              	.LASF78:
 2703 00e1 5344494F 		.ascii	"SDIO_IRQn\000"
 2703      5F495251 
 2703      6E00
 2704              	.LASF141:
 2705 00eb 6E766963 		.ascii	"nvicEnableVector\000"
 2705      456E6162 
 2705      6C655665 
 2705      63746F72 
 2705      00
 2706              	.LASF11:
 2707 00fc 6C6F6E67 		.ascii	"long long int\000"
 2707      206C6F6E 
 2707      6720696E 
 2707      7400
 2708              	.LASF1:
 2709 010a 7369676E 		.ascii	"signed char\000"
 2709      65642063 
 2709      68617200 
 2710              	.LASF17:
 2711 0116 626F6F6C 		.ascii	"bool_t\000"
 2711      5F7400
 2712              	.LASF126:
 2713 011d 646D6173 		.ascii	"dmastp\000"
 2713      747000
 2714              	.LASF8:
ARM GAS  /tmp/ccj7S6x5.s 			page 50


 2715 0124 6C6F6E67 		.ascii	"long int\000"
 2715      20696E74 
 2715      00
 2716              	.LASF96:
 2717 012d 41504232 		.ascii	"APB2RSTR\000"
 2717      52535452 
 2717      00
 2718              	.LASF128:
 2719 0136 66756E63 		.ascii	"func\000"
 2719      00
 2720              	.LASF76:
 2721 013b 41444333 		.ascii	"ADC3_IRQn\000"
 2721      5F495251 
 2721      6E00
 2722              	.LASF42:
 2723 0145 444D4131 		.ascii	"DMA1_Channel3_IRQn\000"
 2723      5F436861 
 2723      6E6E656C 
 2723      335F4952 
 2723      516E00
 2724              	.LASF14:
 2725 0158 75696E74 		.ascii	"uint16_t\000"
 2725      31365F74 
 2725      00
 2726              	.LASF16:
 2727 0161 75696E74 		.ascii	"uint32_t\000"
 2727      33325F74 
 2727      00
 2728              	.LASF47:
 2729 016a 41444331 		.ascii	"ADC1_2_IRQn\000"
 2729      5F325F49 
 2729      52516E00 
 2730              	.LASF81:
 2731 0176 55415254 		.ascii	"UART4_IRQn\000"
 2731      345F4952 
 2731      516E00
 2732              	.LASF111:
 2733 0181 646D615F 		.ascii	"dma_param\000"
 2733      70617261 
 2733      6D00
 2734              	.LASF27:
 2735 018b 50656E64 		.ascii	"PendSV_IRQn\000"
 2735      53565F49 
 2735      52516E00 
 2736              	.LASF43:
 2737 0197 444D4131 		.ascii	"DMA1_Channel4_IRQn\000"
 2737      5F436861 
 2737      6E6E656C 
 2737      345F4952 
 2737      516E00
 2738              	.LASF9:
 2739 01aa 5F5F7569 		.ascii	"__uint32_t\000"
 2739      6E743332 
 2739      5F7400
 2740              	.LASF23:
 2741 01b5 42757346 		.ascii	"BusFault_IRQn\000"
 2741      61756C74 
ARM GAS  /tmp/ccj7S6x5.s 			page 51


 2741      5F495251 
 2741      6E00
 2742              	.LASF106:
 2743 01c3 73656C66 		.ascii	"selfindex\000"
 2743      696E6465 
 2743      7800
 2744              	.LASF94:
 2745 01cd 444D415F 		.ascii	"DMA_TypeDef\000"
 2745      54797065 
 2745      44656600 
 2746              	.LASF0:
 2747 01d9 756E7369 		.ascii	"unsigned int\000"
 2747      676E6564 
 2747      20696E74 
 2747      00
 2748              	.LASF142:
 2749 01e6 6E766963 		.ascii	"nvicDisableVector\000"
 2749      44697361 
 2749      626C6556 
 2749      6563746F 
 2749      7200
 2750              	.LASF90:
 2751 01f8 43504152 		.ascii	"CPAR\000"
 2751      00
 2752              	.LASF109:
 2753 01fd 73746D33 		.ascii	"stm32_dmaisr_t\000"
 2753      325F646D 
 2753      61697372 
 2753      5F7400
 2754              	.LASF10:
 2755 020c 6C6F6E67 		.ascii	"long unsigned int\000"
 2755      20756E73 
 2755      69676E65 
 2755      6420696E 
 2755      7400
 2756              	.LASF102:
 2757 021e 5243435F 		.ascii	"RCC_TypeDef\000"
 2757      54797065 
 2757      44656600 
 2758              	.LASF92:
 2759 022a 444D415F 		.ascii	"DMA_Channel_TypeDef\000"
 2759      4368616E 
 2759      6E656C5F 
 2759      54797065 
 2759      44656600 
 2760              	.LASF105:
 2761 023e 69736869 		.ascii	"ishift\000"
 2761      667400
 2762              	.LASF137:
 2763 0245 2F6D6E74 		.ascii	"/mnt/c/Users/DQ Sullivan/Downloads/Convex/convex/co"
 2763      2F632F55 
 2763      73657273 
 2763      2F445120 
 2763      53756C6C 
 2764 0278 72746578 		.ascii	"rtex/projects/Vex2016 CyberBrains\000"
 2764      2F70726F 
 2764      6A656374 
ARM GAS  /tmp/ccj7S6x5.s 			page 52


 2764      732F5665 
 2764      78323031 
 2765              	.LASF135:
 2766 029a 474E5520 		.ascii	"GNU C 4.8.2 -mcpu=cortex-m3 -mno-thumb-interwork -m"
 2766      4320342E 
 2766      382E3220 
 2766      2D6D6370 
 2766      753D636F 
 2767 02cd 7468756D 		.ascii	"thumb -ggdb -O2 -fomit-frame-pointer -falign-functi"
 2767      62202D67 
 2767      67646220 
 2767      2D4F3220 
 2767      2D666F6D 
 2768 0300 6F6E733D 		.ascii	"ons=16 -ffunction-sections -fdata-sections -fno-com"
 2768      3136202D 
 2768      6666756E 
 2768      6374696F 
 2768      6E2D7365 
 2769 0333 6D6F6E00 		.ascii	"mon\000"
 2770              	.LASF44:
 2771 0337 444D4131 		.ascii	"DMA1_Channel5_IRQn\000"
 2771      5F436861 
 2771      6E6E656C 
 2771      355F4952 
 2771      516E00
 2772              	.LASF6:
 2773 034a 73686F72 		.ascii	"short unsigned int\000"
 2773      7420756E 
 2773      7369676E 
 2773      65642069 
 2773      6E7400
 2774              	.LASF69:
 2775 035d 45585449 		.ascii	"EXTI15_10_IRQn\000"
 2775      31355F31 
 2775      305F4952 
 2775      516E00
 2776              	.LASF64:
 2777 036c 53504931 		.ascii	"SPI1_IRQn\000"
 2777      5F495251 
 2777      6E00
 2778              	.LASF127:
 2779 0376 7072696F 		.ascii	"priority\000"
 2779      72697479 
 2779      00
 2780              	.LASF46:
 2781 037f 444D4131 		.ascii	"DMA1_Channel7_IRQn\000"
 2781      5F436861 
 2781      6E6E656C 
 2781      375F4952 
 2781      516E00
 2782              	.LASF28:
 2783 0392 53797354 		.ascii	"SysTick_IRQn\000"
 2783      69636B5F 
 2783      4952516E 
 2783      00
 2784              	.LASF56:
 2785 039f 54494D31 		.ascii	"TIM1_CC_IRQn\000"
ARM GAS  /tmp/ccj7S6x5.s 			page 53


 2785      5F43435F 
 2785      4952516E 
 2785      00
 2786              	.LASF138:
 2787 03ac 4952516E 		.ascii	"IRQn\000"
 2787      00
 2788              	.LASF41:
 2789 03b1 444D4131 		.ascii	"DMA1_Channel2_IRQn\000"
 2789      5F436861 
 2789      6E6E656C 
 2789      325F4952 
 2789      516E00
 2790              	.LASF72:
 2791 03c4 54494D38 		.ascii	"TIM8_BRK_IRQn\000"
 2791      5F42524B 
 2791      5F495251 
 2791      6E00
 2792              	.LASF19:
 2793 03d2 73697A65 		.ascii	"sizetype\000"
 2793      74797065 
 2793      00
 2794              	.LASF75:
 2795 03db 54494D38 		.ascii	"TIM8_CC_IRQn\000"
 2795      5F43435F 
 2795      4952516E 
 2795      00
 2796              	.LASF25:
 2797 03e8 53564361 		.ascii	"SVCall_IRQn\000"
 2797      6C6C5F49 
 2797      52516E00 
 2798              	.LASF62:
 2799 03f4 49324332 		.ascii	"I2C2_EV_IRQn\000"
 2799      5F45565F 
 2799      4952516E 
 2799      00
 2800              	.LASF86:
 2801 0401 444D4132 		.ascii	"DMA2_Channel2_IRQn\000"
 2801      5F436861 
 2801      6E6E656C 
 2801      325F4952 
 2801      516E00
 2802              	.LASF129:
 2803 0414 70617261 		.ascii	"param\000"
 2803      6D00
 2804              	.LASF79:
 2805 041a 54494D35 		.ascii	"TIM5_IRQn\000"
 2805      5F495251 
 2805      6E00
 2806              	.LASF38:
 2807 0424 45585449 		.ascii	"EXTI3_IRQn\000"
 2807      335F4952 
 2807      516E00
 2808              	.LASF65:
 2809 042f 53504932 		.ascii	"SPI2_IRQn\000"
 2809      5F495251 
 2809      6E00
 2810              	.LASF110:
ARM GAS  /tmp/ccj7S6x5.s 			page 54


 2811 0439 646D615F 		.ascii	"dma_func\000"
 2811      66756E63 
 2811      00
 2812              	.LASF87:
 2813 0442 444D4132 		.ascii	"DMA2_Channel3_IRQn\000"
 2813      5F436861 
 2813      6E6E656C 
 2813      335F4952 
 2813      516E00
 2814              	.LASF71:
 2815 0455 5553425F 		.ascii	"USB_FS_WKUP_IRQn\000"
 2815      46535F57 
 2815      4B55505F 
 2815      4952516E 
 2815      00
 2816              	.LASF97:
 2817 0466 41504231 		.ascii	"APB1RSTR\000"
 2817      52535452 
 2817      00
 2818              	.LASF40:
 2819 046f 444D4131 		.ascii	"DMA1_Channel1_IRQn\000"
 2819      5F436861 
 2819      6E6E656C 
 2819      315F4952 
 2819      516E00
 2820              	.LASF22:
 2821 0482 4D656D6F 		.ascii	"MemoryManagement_IRQn\000"
 2821      72794D61 
 2821      6E616765 
 2821      6D656E74 
 2821      5F495251 
 2822              	.LASF66:
 2823 0498 55534152 		.ascii	"USART1_IRQn\000"
 2823      54315F49 
 2823      52516E00 
 2824              	.LASF108:
 2825 04a4 73746D33 		.ascii	"stm32_dma_stream_t\000"
 2825      325F646D 
 2825      615F7374 
 2825      7265616D 
 2825      5F7400
 2826              	.LASF113:
 2827 04b7 56656374 		.ascii	"Vector6C\000"
 2827      6F723643 
 2827      00
 2828              	.LASF77:
 2829 04c0 46534D43 		.ascii	"FSMC_IRQn\000"
 2829      5F495251 
 2829      6E00
 2830              	.LASF18:
 2831 04ca 5F426F6F 		.ascii	"_Bool\000"
 2831      6C00
 2832              	.LASF15:
 2833 04d0 696E7433 		.ascii	"int32_t\000"
 2833      325F7400 
 2834              	.LASF2:
 2835 04d8 756E7369 		.ascii	"unsigned char\000"
ARM GAS  /tmp/ccj7S6x5.s 			page 55


 2835      676E6564 
 2835      20636861 
 2835      7200
 2836              	.LASF49:
 2837 04e6 5553425F 		.ascii	"USB_LP_CAN1_RX0_IRQn\000"
 2837      4C505F43 
 2837      414E315F 
 2837      5258305F 
 2837      4952516E 
 2838              	.LASF74:
 2839 04fb 54494D38 		.ascii	"TIM8_TRG_COM_IRQn\000"
 2839      5F545247 
 2839      5F434F4D 
 2839      5F495251 
 2839      6E00
 2840              	.LASF48:
 2841 050d 5553425F 		.ascii	"USB_HP_CAN1_TX_IRQn\000"
 2841      48505F43 
 2841      414E315F 
 2841      54585F49 
 2841      52516E00 
 2842              	.LASF133:
 2843 0521 49544D5F 		.ascii	"ITM_RxBuffer\000"
 2843      52784275 
 2843      66666572 
 2843      00
 2844              	.LASF83:
 2845 052e 54494D36 		.ascii	"TIM6_IRQn\000"
 2845      5F495251 
 2845      6E00
 2846              	.LASF39:
 2847 0538 45585449 		.ascii	"EXTI4_IRQn\000"
 2847      345F4952 
 2847      516E00
 2848              	.LASF3:
 2849 0543 73686F72 		.ascii	"short int\000"
 2849      7420696E 
 2849      7400
 2850              	.LASF136:
 2851 054d 2E2E2F2E 		.ascii	"../../../../ChibiOS_2.6.2/os/hal/platforms/STM32F1x"
 2851      2E2F2E2E 
 2851      2F2E2E2F 
 2851      43686962 
 2851      694F535F 
 2852 0580 782F7374 		.ascii	"x/stm32_dma.c\000"
 2852      6D33325F 
 2852      646D612E 
 2852      6300
 2853              	.LASF82:
 2854 058e 55415254 		.ascii	"UART5_IRQn\000"
 2854      355F4952 
 2854      516E00
 2855              	.LASF88:
 2856 0599 444D4132 		.ascii	"DMA2_Channel4_5_IRQn\000"
 2856      5F436861 
 2856      6E6E656C 
 2856      345F355F 
ARM GAS  /tmp/ccj7S6x5.s 			page 56


 2856      4952516E 
 2857              	.LASF99:
 2858 05ae 41504232 		.ascii	"APB2ENR\000"
 2858      454E5200 
 2859              	.LASF103:
 2860 05b6 6368616E 		.ascii	"channel\000"
 2860      6E656C00 
 2861              	.LASF33:
 2862 05be 464C4153 		.ascii	"FLASH_IRQn\000"
 2862      485F4952 
 2862      516E00
 2863              	.LASF104:
 2864 05c9 69666372 		.ascii	"ifcr\000"
 2864      00
 2865              	.LASF114:
 2866 05ce 56656374 		.ascii	"Vector70\000"
 2866      6F723730 
 2866      00
 2867              	.LASF116:
 2868 05d7 56656374 		.ascii	"Vector74\000"
 2868      6F723734 
 2868      00
 2869              	.LASF67:
 2870 05e0 55534152 		.ascii	"USART2_IRQn\000"
 2870      54325F49 
 2870      52516E00 
 2871              	.LASF24:
 2872 05ec 55736167 		.ascii	"UsageFault_IRQn\000"
 2872      65466175 
 2872      6C745F49 
 2872      52516E00 
 2873              	.LASF117:
 2874 05fc 56656374 		.ascii	"Vector78\000"
 2874      6F723738 
 2874      00
 2875              	.LASF125:
 2876 0605 646D6149 		.ascii	"dmaInit\000"
 2876      6E697400 
 2877              	.LASF93:
 2878 060d 49464352 		.ascii	"IFCR\000"
 2878      00
 2879              	.LASF20:
 2880 0612 63686172 		.ascii	"char\000"
 2880      00
 2881              	.LASF130:
 2882 0617 646D6153 		.ascii	"dmaStreamRelease\000"
 2882      74726561 
 2882      6D52656C 
 2882      65617365 
 2882      00
 2883              	.LASF118:
 2884 0628 56656374 		.ascii	"Vector7C\000"
 2884      6F723743 
 2884      00
 2885              	.LASF53:
 2886 0631 54494D31 		.ascii	"TIM1_BRK_IRQn\000"
 2886      5F42524B 
ARM GAS  /tmp/ccj7S6x5.s 			page 57


 2886      5F495251 
 2886      6E00
 2887              	.LASF5:
 2888 063f 5F5F7569 		.ascii	"__uint16_t\000"
 2888      6E743136 
 2888      5F7400
 2889              	.LASF84:
 2890 064a 54494D37 		.ascii	"TIM7_IRQn\000"
 2890      5F495251 
 2890      6E00
 2891              	.LASF21:
 2892 0654 4E6F6E4D 		.ascii	"NonMaskableInt_IRQn\000"
 2892      61736B61 
 2892      626C6549 
 2892      6E745F49 
 2892      52516E00 
 2893              	.LASF7:
 2894 0668 5F5F696E 		.ascii	"__int32_t\000"
 2894      7433325F 
 2894      7400
 2895              	.LASF45:
 2896 0672 444D4131 		.ascii	"DMA1_Channel6_IRQn\000"
 2896      5F436861 
 2896      6E6E656C 
 2896      365F4952 
 2896      516E00
 2897              	.LASF100:
 2898 0685 41504231 		.ascii	"APB1ENR\000"
 2898      454E5200 
 2899              	.LASF31:
 2900 068d 54414D50 		.ascii	"TAMPER_IRQn\000"
 2900      45525F49 
 2900      52516E00 
 2901              	.LASF54:
 2902 0699 54494D31 		.ascii	"TIM1_UP_IRQn\000"
 2902      5F55505F 
 2902      4952516E 
 2902      00
 2903              	.LASF131:
 2904 06a6 646D615F 		.ascii	"dma_streams_mask\000"
 2904      73747265 
 2904      616D735F 
 2904      6D61736B 
 2904      00
 2905              	.LASF26:
 2906 06b7 44656275 		.ascii	"DebugMonitor_IRQn\000"
 2906      674D6F6E 
 2906      69746F72 
 2906      5F495251 
 2906      6E00
 2907              	.LASF119:
 2908 06c9 56656374 		.ascii	"Vector80\000"
 2908      6F723830 
 2908      00
 2909              	.LASF68:
 2910 06d2 55534152 		.ascii	"USART3_IRQn\000"
 2910      54335F49 
ARM GAS  /tmp/ccj7S6x5.s 			page 58


 2910      52516E00 
 2911              	.LASF120:
 2912 06de 56656374 		.ascii	"Vector84\000"
 2912      6F723834 
 2912      00
 2913              	.LASF57:
 2914 06e7 54494D32 		.ascii	"TIM2_IRQn\000"
 2914      5F495251 
 2914      6E00
 2915              	.LASF73:
 2916 06f1 54494D38 		.ascii	"TIM8_UP_IRQn\000"
 2916      5F55505F 
 2916      4952516E 
 2916      00
 2917              	.LASF35:
 2918 06fe 45585449 		.ascii	"EXTI0_IRQn\000"
 2918      305F4952 
 2918      516E00
 2919              	.LASF89:
 2920 0709 434E4454 		.ascii	"CNDTR\000"
 2920      5200
 2921              	.LASF101:
 2922 070f 42444352 		.ascii	"BDCR\000"
 2922      00
 2923              	.LASF140:
 2924 0714 5F706F72 		.ascii	"_port_irq_epilogue\000"
 2924      745F6972 
 2924      715F6570 
 2924      696C6F67 
 2924      756500
 2925              	.LASF13:
 2926 0727 75696E74 		.ascii	"uint8_t\000"
 2926      385F7400 
 2927              	.LASF115:
 2928 072f 666C6167 		.ascii	"flags\000"
 2928      7300
 2929              	.LASF132:
 2930 0735 646D615F 		.ascii	"dma_isr_redir\000"
 2930      6973725F 
 2930      72656469 
 2930      7200
 2931              	.LASF121:
 2932 0743 56656374 		.ascii	"Vector120\000"
 2932      6F723132 
 2932      3000
 2933              	.LASF95:
 2934 074d 43464752 		.ascii	"CFGR\000"
 2934      00
 2935              	.LASF122:
 2936 0752 56656374 		.ascii	"Vector124\000"
 2936      6F723132 
 2936      3400
 2937              	.LASF123:
 2938 075c 56656374 		.ascii	"Vector128\000"
 2938      6F723132 
 2938      3800
 2939              	.LASF61:
ARM GAS  /tmp/ccj7S6x5.s 			page 59


 2940 0766 49324331 		.ascii	"I2C1_ER_IRQn\000"
 2940      5F45525F 
 2940      4952516E 
 2940      00
 2941              	.LASF32:
 2942 0773 5254435F 		.ascii	"RTC_IRQn\000"
 2942      4952516E 
 2942      00
 2943              	.LASF80:
 2944 077c 53504933 		.ascii	"SPI3_IRQn\000"
 2944      5F495251 
 2944      6E00
 2945              	.LASF124:
 2946 0786 56656374 		.ascii	"Vector12C\000"
 2946      6F723132 
 2946      4300
 2947              	.LASF51:
 2948 0790 43414E31 		.ascii	"CAN1_SCE_IRQn\000"
 2948      5F534345 
 2948      5F495251 
 2948      6E00
 2949              	.LASF139:
 2950 079e 646D6153 		.ascii	"dmaStreamAllocate\000"
 2950      74726561 
 2950      6D416C6C 
 2950      6F636174 
 2950      6500
 2951              	.LASF34:
 2952 07b0 5243435F 		.ascii	"RCC_IRQn\000"
 2952      4952516E 
 2952      00
 2953              	.LASF58:
 2954 07b9 54494D33 		.ascii	"TIM3_IRQn\000"
 2954      5F495251 
 2954      6E00
 2955              	.LASF98:
 2956 07c3 41484245 		.ascii	"AHBENR\000"
 2956      4E5200
 2957              	.LASF36:
 2958 07ca 45585449 		.ascii	"EXTI1_IRQn\000"
 2958      315F4952 
 2958      516E00
 2959              		.ident	"GCC: (4.8.2-14ubuntu1+6) 4.8.2"
ARM GAS  /tmp/ccj7S6x5.s 			page 60


DEFINED SYMBOLS
                            *ABS*:0000000000000000 stm32_dma.c
     /tmp/ccj7S6x5.s:19     .text.Vector6C:0000000000000000 $t
     /tmp/ccj7S6x5.s:25     .text.Vector6C:0000000000000000 Vector6C
     /tmp/ccj7S6x5.s:812    .bss.dma_isr_redir:0000000000000000 .LANCHOR0
     /tmp/ccj7S6x5.s:69     .text.Vector70:0000000000000000 $t
     /tmp/ccj7S6x5.s:75     .text.Vector70:0000000000000000 Vector70
     /tmp/ccj7S6x5.s:117    .text.Vector74:0000000000000000 $t
     /tmp/ccj7S6x5.s:123    .text.Vector74:0000000000000000 Vector74
     /tmp/ccj7S6x5.s:165    .text.Vector78:0000000000000000 $t
     /tmp/ccj7S6x5.s:171    .text.Vector78:0000000000000000 Vector78
     /tmp/ccj7S6x5.s:213    .text.Vector7C:0000000000000000 $t
     /tmp/ccj7S6x5.s:219    .text.Vector7C:0000000000000000 Vector7C
     /tmp/ccj7S6x5.s:261    .text.Vector80:0000000000000000 $t
     /tmp/ccj7S6x5.s:267    .text.Vector80:0000000000000000 Vector80
     /tmp/ccj7S6x5.s:309    .text.Vector84:0000000000000000 $t
     /tmp/ccj7S6x5.s:315    .text.Vector84:0000000000000000 Vector84
     /tmp/ccj7S6x5.s:357    .text.Vector120:0000000000000000 $t
     /tmp/ccj7S6x5.s:363    .text.Vector120:0000000000000000 Vector120
     /tmp/ccj7S6x5.s:406    .text.Vector124:0000000000000000 $t
     /tmp/ccj7S6x5.s:412    .text.Vector124:0000000000000000 Vector124
     /tmp/ccj7S6x5.s:454    .text.Vector128:0000000000000000 $t
     /tmp/ccj7S6x5.s:460    .text.Vector128:0000000000000000 Vector128
     /tmp/ccj7S6x5.s:502    .text.Vector12C:0000000000000000 $t
     /tmp/ccj7S6x5.s:508    .text.Vector12C:0000000000000000 Vector12C
     /tmp/ccj7S6x5.s:573    .text.dmaInit:0000000000000000 $t
     /tmp/ccj7S6x5.s:579    .text.dmaInit:0000000000000000 dmaInit
     /tmp/ccj7S6x5.s:897    .bss.dma_streams_mask:0000000000000000 .LANCHOR1
     /tmp/ccj7S6x5.s:819    .rodata._stm32_dma_streams:0000000000000000 .LANCHOR2
     /tmp/ccj7S6x5.s:639    .text.dmaStreamAllocate:0000000000000000 $t
     /tmp/ccj7S6x5.s:645    .text.dmaStreamAllocate:0000000000000000 dmaStreamAllocate
     /tmp/ccj7S6x5.s:751    .text.dmaStreamRelease:0000000000000000 $t
     /tmp/ccj7S6x5.s:757    .text.dmaStreamRelease:0000000000000000 dmaStreamRelease
     /tmp/ccj7S6x5.s:822    .rodata._stm32_dma_streams:0000000000000000 _stm32_dma_streams
     /tmp/ccj7S6x5.s:811    .bss.dma_isr_redir:0000000000000000 $d
     /tmp/ccj7S6x5.s:815    .bss.dma_isr_redir:0000000000000000 dma_isr_redir
     /tmp/ccj7S6x5.s:818    .rodata._stm32_dma_streams:0000000000000000 $d
     /tmp/ccj7S6x5.s:896    .bss.dma_streams_mask:0000000000000000 $d
     /tmp/ccj7S6x5.s:900    .bss.dma_streams_mask:0000000000000000 dma_streams_mask
                     .debug_frame:0000000000000010 $d

UNDEFINED SYMBOLS
_port_irq_epilogue
nvicEnableVector
nvicDisableVector
