ARM GAS  /tmp/ccj7S6x5.s 			page 1


   1              		.syntax unified
   2              		.cpu cortex-m3
   3              		.fpu softvfp
   4              		.eabi_attribute 20, 1
   5              		.eabi_attribute 21, 1
   6              		.eabi_attribute 23, 3
   7              		.eabi_attribute 24, 1
   8              		.eabi_attribute 25, 1
   9              		.eabi_attribute 26, 1
  10              		.eabi_attribute 30, 2
  11              		.eabi_attribute 34, 1
  12              		.eabi_attribute 18, 4
  13              		.thumb
  14              		.file	"stm32_dma.c"
  15              		.text
  16              	.Ltext0:
  17              		.cfi_sections	.debug_frame
  18              		.section	.text.Vector6C,"ax",%progbits
  19              		.align	2
  20              		.p2align 4,,15
  21              		.global	Vector6C
  22              		.thumb
  23              		.thumb_func
  24              		.type	Vector6C, %function
  25              	Vector6C:
  26              	.LFB63:
  27              		.file 1 "../../../../ChibiOS_2.6.2/os/hal/platforms/STM32F1xx/stm32_dma.c"
  28              		.loc 1 126 0
  29              		.cfi_startproc
  30              		@ args = 0, pretend = 0, frame = 0
  31              		@ frame_needed = 0, uses_anonymous_args = 0
  32              		.loc 1 131 0
  33 0000 0022     		movs	r2, #0
  34 0002 C4F20202 		movt	r2, 16386
  35              		.loc 1 133 0
  36 0006 40F20003 		movw	r3, #:lower16:.LANCHOR0
  37              		.loc 1 131 0
  38 000a 1168     		ldr	r1, [r2]
  39              		.loc 1 133 0
  40 000c C0F20003 		movt	r3, #:upper16:.LANCHOR0
  41              		.loc 1 126 0
  42 0010 10B5     		push	{r4, lr}
  43              		.cfi_def_cfa_offset 8
  44              		.cfi_offset 4, -8
  45              		.cfi_offset 14, -4
  46              		.loc 1 133 0
  47 0012 1C68     		ldr	r4, [r3]
  48              		.loc 1 131 0
  49 0014 01F00F01 		and	r1, r1, #15
  50              	.LVL0:
  51              		.loc 1 132 0
  52 0018 5160     		str	r1, [r2, #4]
  53              		.loc 1 133 0
  54 001a 0CB1     		cbz	r4, .L2
  55              		.loc 1 134 0
  56 001c 5868     		ldr	r0, [r3, #4]
  57 001e A047     		blx	r4
ARM GAS  /tmp/ccj7S6x5.s 			page 2


  58              	.LVL1:
  59              	.L2:
  60              		.loc 1 137 0
  61 0020 BDE81040 		pop	{r4, lr}
  62              		.loc 1 136 0
  63 0024 FFF7FEBF 		b	_port_irq_epilogue
  64              	.LVL2:
  65              		.cfi_endproc
  66              	.LFE63:
  67              		.size	Vector6C, .-Vector6C
  68 0028 AFF30080 		.section	.text.Vector70,"ax",%progbits
  68      AFF30080 
  69              		.align	2
  70              		.p2align 4,,15
  71              		.global	Vector70
  72              		.thumb
  73              		.thumb_func
  74              		.type	Vector70, %function
  75              	Vector70:
  76              	.LFB64:
  77              		.loc 1 144 0
  78              		.cfi_startproc
  79              		@ args = 0, pretend = 0, frame = 0
  80              		@ frame_needed = 0, uses_anonymous_args = 0
  81              		.loc 1 149 0
  82 0000 0022     		movs	r2, #0
  83 0002 C4F20202 		movt	r2, 16386
  84 0006 1168     		ldr	r1, [r2]
  85              		.loc 1 151 0
  86 0008 40F20003 		movw	r3, #:lower16:.LANCHOR0
  87 000c C0F20003 		movt	r3, #:upper16:.LANCHOR0
  88              		.loc 1 144 0
  89 0010 10B5     		push	{r4, lr}
  90              		.cfi_def_cfa_offset 8
  91              		.cfi_offset 4, -8
  92              		.cfi_offset 14, -4
  93              		.loc 1 149 0
  94 0012 C1F30311 		ubfx	r1, r1, #4, #4
  95              	.LVL3:
  96              		.loc 1 151 0
  97 0016 9C68     		ldr	r4, [r3, #8]
  98              		.loc 1 150 0
  99 0018 0801     		lsls	r0, r1, #4
 100 001a 5060     		str	r0, [r2, #4]
 101              		.loc 1 151 0
 102 001c 0CB1     		cbz	r4, .L8
 103              		.loc 1 152 0
 104 001e D868     		ldr	r0, [r3, #12]
 105 0020 A047     		blx	r4
 106              	.LVL4:
 107              	.L8:
 108              		.loc 1 155 0
 109 0022 BDE81040 		pop	{r4, lr}
 110              		.loc 1 154 0
 111 0026 FFF7FEBF 		b	_port_irq_epilogue
 112              	.LVL5:
 113              		.cfi_endproc
ARM GAS  /tmp/ccj7S6x5.s 			page 3


 114              	.LFE64:
 115              		.size	Vector70, .-Vector70
 116 002a 00BFAFF3 		.section	.text.Vector74,"ax",%progbits
 116      0080
 117              		.align	2
 118              		.p2align 4,,15
 119              		.global	Vector74
 120              		.thumb
 121              		.thumb_func
 122              		.type	Vector74, %function
 123              	Vector74:
 124              	.LFB65:
 125              		.loc 1 162 0
 126              		.cfi_startproc
 127              		@ args = 0, pretend = 0, frame = 0
 128              		@ frame_needed = 0, uses_anonymous_args = 0
 129              		.loc 1 167 0
 130 0000 0022     		movs	r2, #0
 131 0002 C4F20202 		movt	r2, 16386
 132 0006 1168     		ldr	r1, [r2]
 133              		.loc 1 169 0
 134 0008 40F20003 		movw	r3, #:lower16:.LANCHOR0
 135 000c C0F20003 		movt	r3, #:upper16:.LANCHOR0
 136              		.loc 1 162 0
 137 0010 10B5     		push	{r4, lr}
 138              		.cfi_def_cfa_offset 8
 139              		.cfi_offset 4, -8
 140              		.cfi_offset 14, -4
 141              		.loc 1 167 0
 142 0012 C1F30321 		ubfx	r1, r1, #8, #4
 143              	.LVL6:
 144              		.loc 1 169 0
 145 0016 1C69     		ldr	r4, [r3, #16]
 146              		.loc 1 168 0
 147 0018 0802     		lsls	r0, r1, #8
 148 001a 5060     		str	r0, [r2, #4]
 149              		.loc 1 169 0
 150 001c 0CB1     		cbz	r4, .L13
 151              		.loc 1 170 0
 152 001e 5869     		ldr	r0, [r3, #20]
 153 0020 A047     		blx	r4
 154              	.LVL7:
 155              	.L13:
 156              		.loc 1 173 0
 157 0022 BDE81040 		pop	{r4, lr}
 158              		.loc 1 172 0
 159 0026 FFF7FEBF 		b	_port_irq_epilogue
 160              	.LVL8:
 161              		.cfi_endproc
 162              	.LFE65:
 163              		.size	Vector74, .-Vector74
 164 002a 00BFAFF3 		.section	.text.Vector78,"ax",%progbits
 164      0080
 165              		.align	2
 166              		.p2align 4,,15
 167              		.global	Vector78
 168              		.thumb
ARM GAS  /tmp/ccj7S6x5.s 			page 4


 169              		.thumb_func
 170              		.type	Vector78, %function
 171              	Vector78:
 172              	.LFB66:
 173              		.loc 1 180 0
 174              		.cfi_startproc
 175              		@ args = 0, pretend = 0, frame = 0
 176              		@ frame_needed = 0, uses_anonymous_args = 0
 177              		.loc 1 185 0
 178 0000 0022     		movs	r2, #0
 179 0002 C4F20202 		movt	r2, 16386
 180 0006 1168     		ldr	r1, [r2]
 181              		.loc 1 187 0
 182 0008 40F20003 		movw	r3, #:lower16:.LANCHOR0
 183 000c C0F20003 		movt	r3, #:upper16:.LANCHOR0
 184              		.loc 1 180 0
 185 0010 10B5     		push	{r4, lr}
 186              		.cfi_def_cfa_offset 8
 187              		.cfi_offset 4, -8
 188              		.cfi_offset 14, -4
 189              		.loc 1 185 0
 190 0012 C1F30331 		ubfx	r1, r1, #12, #4
 191              	.LVL9:
 192              		.loc 1 187 0
 193 0016 9C69     		ldr	r4, [r3, #24]
 194              		.loc 1 186 0
 195 0018 0803     		lsls	r0, r1, #12
 196 001a 5060     		str	r0, [r2, #4]
 197              		.loc 1 187 0
 198 001c 0CB1     		cbz	r4, .L18
 199              		.loc 1 188 0
 200 001e D869     		ldr	r0, [r3, #28]
 201 0020 A047     		blx	r4
 202              	.LVL10:
 203              	.L18:
 204              		.loc 1 191 0
 205 0022 BDE81040 		pop	{r4, lr}
 206              		.loc 1 190 0
 207 0026 FFF7FEBF 		b	_port_irq_epilogue
 208              	.LVL11:
 209              		.cfi_endproc
 210              	.LFE66:
 211              		.size	Vector78, .-Vector78
 212 002a 00BFAFF3 		.section	.text.Vector7C,"ax",%progbits
 212      0080
 213              		.align	2
 214              		.p2align 4,,15
 215              		.global	Vector7C
 216              		.thumb
 217              		.thumb_func
 218              		.type	Vector7C, %function
 219              	Vector7C:
 220              	.LFB67:
 221              		.loc 1 198 0
 222              		.cfi_startproc
 223              		@ args = 0, pretend = 0, frame = 0
 224              		@ frame_needed = 0, uses_anonymous_args = 0
ARM GAS  /tmp/ccj7S6x5.s 			page 5


 225              		.loc 1 203 0
 226 0000 0022     		movs	r2, #0
 227 0002 C4F20202 		movt	r2, 16386
 228 0006 1168     		ldr	r1, [r2]
 229              		.loc 1 205 0
 230 0008 40F20003 		movw	r3, #:lower16:.LANCHOR0
 231 000c C0F20003 		movt	r3, #:upper16:.LANCHOR0
 232              		.loc 1 198 0
 233 0010 10B5     		push	{r4, lr}
 234              		.cfi_def_cfa_offset 8
 235              		.cfi_offset 4, -8
 236              		.cfi_offset 14, -4
 237              		.loc 1 203 0
 238 0012 C1F30341 		ubfx	r1, r1, #16, #4
 239              	.LVL12:
 240              		.loc 1 205 0
 241 0016 1C6A     		ldr	r4, [r3, #32]
 242              		.loc 1 204 0
 243 0018 0804     		lsls	r0, r1, #16
 244 001a 5060     		str	r0, [r2, #4]
 245              		.loc 1 205 0
 246 001c 0CB1     		cbz	r4, .L23
 247              		.loc 1 206 0
 248 001e 586A     		ldr	r0, [r3, #36]
 249 0020 A047     		blx	r4
 250              	.LVL13:
 251              	.L23:
 252              		.loc 1 209 0
 253 0022 BDE81040 		pop	{r4, lr}
 254              		.loc 1 208 0
 255 0026 FFF7FEBF 		b	_port_irq_epilogue
 256              	.LVL14:
 257              		.cfi_endproc
 258              	.LFE67:
 259              		.size	Vector7C, .-Vector7C
 260 002a 00BFAFF3 		.section	.text.Vector80,"ax",%progbits
 260      0080
 261              		.align	2
 262              		.p2align 4,,15
 263              		.global	Vector80
 264              		.thumb
 265              		.thumb_func
 266              		.type	Vector80, %function
 267              	Vector80:
 268              	.LFB68:
 269              		.loc 1 216 0
 270              		.cfi_startproc
 271              		@ args = 0, pretend = 0, frame = 0
 272              		@ frame_needed = 0, uses_anonymous_args = 0
 273              		.loc 1 221 0
 274 0000 0022     		movs	r2, #0
 275 0002 C4F20202 		movt	r2, 16386
 276 0006 1168     		ldr	r1, [r2]
 277              		.loc 1 223 0
 278 0008 40F20003 		movw	r3, #:lower16:.LANCHOR0
 279 000c C0F20003 		movt	r3, #:upper16:.LANCHOR0
 280              		.loc 1 216 0
ARM GAS  /tmp/ccj7S6x5.s 			page 6


 281 0010 10B5     		push	{r4, lr}
 282              		.cfi_def_cfa_offset 8
 283              		.cfi_offset 4, -8
 284              		.cfi_offset 14, -4
 285              		.loc 1 221 0
 286 0012 C1F30351 		ubfx	r1, r1, #20, #4
 287              	.LVL15:
 288              		.loc 1 223 0
 289 0016 9C6A     		ldr	r4, [r3, #40]
 290              		.loc 1 222 0
 291 0018 0805     		lsls	r0, r1, #20
 292 001a 5060     		str	r0, [r2, #4]
 293              		.loc 1 223 0
 294 001c 0CB1     		cbz	r4, .L28
 295              		.loc 1 224 0
 296 001e D86A     		ldr	r0, [r3, #44]
 297 0020 A047     		blx	r4
 298              	.LVL16:
 299              	.L28:
 300              		.loc 1 227 0
 301 0022 BDE81040 		pop	{r4, lr}
 302              		.loc 1 226 0
 303 0026 FFF7FEBF 		b	_port_irq_epilogue
 304              	.LVL17:
 305              		.cfi_endproc
 306              	.LFE68:
 307              		.size	Vector80, .-Vector80
 308 002a 00BFAFF3 		.section	.text.Vector84,"ax",%progbits
 308      0080
 309              		.align	2
 310              		.p2align 4,,15
 311              		.global	Vector84
 312              		.thumb
 313              		.thumb_func
 314              		.type	Vector84, %function
 315              	Vector84:
 316              	.LFB69:
 317              		.loc 1 234 0
 318              		.cfi_startproc
 319              		@ args = 0, pretend = 0, frame = 0
 320              		@ frame_needed = 0, uses_anonymous_args = 0
 321              		.loc 1 239 0
 322 0000 0022     		movs	r2, #0
 323 0002 C4F20202 		movt	r2, 16386
 324 0006 1168     		ldr	r1, [r2]
 325              		.loc 1 241 0
 326 0008 40F20003 		movw	r3, #:lower16:.LANCHOR0
 327 000c C0F20003 		movt	r3, #:upper16:.LANCHOR0
 328              		.loc 1 234 0
 329 0010 10B5     		push	{r4, lr}
 330              		.cfi_def_cfa_offset 8
 331              		.cfi_offset 4, -8
 332              		.cfi_offset 14, -4
 333              		.loc 1 239 0
 334 0012 C1F30361 		ubfx	r1, r1, #24, #4
 335              	.LVL18:
 336              		.loc 1 241 0
ARM GAS  /tmp/ccj7S6x5.s 			page 7


 337 0016 1C6B     		ldr	r4, [r3, #48]
 338              		.loc 1 240 0
 339 0018 0806     		lsls	r0, r1, #24
 340 001a 5060     		str	r0, [r2, #4]
 341              		.loc 1 241 0
 342 001c 0CB1     		cbz	r4, .L33
 343              		.loc 1 242 0
 344 001e 586B     		ldr	r0, [r3, #52]
 345 0020 A047     		blx	r4
 346              	.LVL19:
 347              	.L33:
 348              		.loc 1 245 0
 349 0022 BDE81040 		pop	{r4, lr}
 350              		.loc 1 244 0
 351 0026 FFF7FEBF 		b	_port_irq_epilogue
 352              	.LVL20:
 353              		.cfi_endproc
 354              	.LFE69:
 355              		.size	Vector84, .-Vector84
 356 002a 00BFAFF3 		.section	.text.Vector120,"ax",%progbits
 356      0080
 357              		.align	2
 358              		.p2align 4,,15
 359              		.global	Vector120
 360              		.thumb
 361              		.thumb_func
 362              		.type	Vector120, %function
 363              	Vector120:
 364              	.LFB70:
 365              		.loc 1 253 0
 366              		.cfi_startproc
 367              		@ args = 0, pretend = 0, frame = 0
 368              		@ frame_needed = 0, uses_anonymous_args = 0
 369              		.loc 1 258 0
 370 0000 4FF48062 		mov	r2, #1024
 371 0004 C4F20202 		movt	r2, 16386
 372              		.loc 1 260 0
 373 0008 40F20003 		movw	r3, #:lower16:.LANCHOR0
 374              		.loc 1 258 0
 375 000c 1168     		ldr	r1, [r2]
 376              		.loc 1 260 0
 377 000e C0F20003 		movt	r3, #:upper16:.LANCHOR0
 378              		.loc 1 253 0
 379 0012 10B5     		push	{r4, lr}
 380              		.cfi_def_cfa_offset 8
 381              		.cfi_offset 4, -8
 382              		.cfi_offset 14, -4
 383              		.loc 1 260 0
 384 0014 9C6B     		ldr	r4, [r3, #56]
 385              		.loc 1 258 0
 386 0016 01F00F01 		and	r1, r1, #15
 387              	.LVL21:
 388              		.loc 1 259 0
 389 001a 5160     		str	r1, [r2, #4]
 390              		.loc 1 260 0
 391 001c 0CB1     		cbz	r4, .L38
 392              		.loc 1 261 0
ARM GAS  /tmp/ccj7S6x5.s 			page 8


 393 001e D86B     		ldr	r0, [r3, #60]
 394 0020 A047     		blx	r4
 395              	.LVL22:
 396              	.L38:
 397              		.loc 1 264 0
 398 0022 BDE81040 		pop	{r4, lr}
 399              		.loc 1 263 0
 400 0026 FFF7FEBF 		b	_port_irq_epilogue
 401              	.LVL23:
 402              		.cfi_endproc
 403              	.LFE70:
 404              		.size	Vector120, .-Vector120
 405 002a 00BFAFF3 		.section	.text.Vector124,"ax",%progbits
 405      0080
 406              		.align	2
 407              		.p2align 4,,15
 408              		.global	Vector124
 409              		.thumb
 410              		.thumb_func
 411              		.type	Vector124, %function
 412              	Vector124:
 413              	.LFB71:
 414              		.loc 1 271 0
 415              		.cfi_startproc
 416              		@ args = 0, pretend = 0, frame = 0
 417              		@ frame_needed = 0, uses_anonymous_args = 0
 418              		.loc 1 276 0
 419 0000 4FF48062 		mov	r2, #1024
 420 0004 C4F20202 		movt	r2, 16386
 421 0008 1168     		ldr	r1, [r2]
 422              		.loc 1 278 0
 423 000a 40F20003 		movw	r3, #:lower16:.LANCHOR0
 424 000e C0F20003 		movt	r3, #:upper16:.LANCHOR0
 425              		.loc 1 271 0
 426 0012 10B5     		push	{r4, lr}
 427              		.cfi_def_cfa_offset 8
 428              		.cfi_offset 4, -8
 429              		.cfi_offset 14, -4
 430              		.loc 1 276 0
 431 0014 C1F30311 		ubfx	r1, r1, #4, #4
 432              	.LVL24:
 433              		.loc 1 278 0
 434 0018 1C6C     		ldr	r4, [r3, #64]
 435              		.loc 1 277 0
 436 001a 0801     		lsls	r0, r1, #4
 437 001c 5060     		str	r0, [r2, #4]
 438              		.loc 1 278 0
 439 001e 0CB1     		cbz	r4, .L43
 440              		.loc 1 279 0
 441 0020 586C     		ldr	r0, [r3, #68]
 442 0022 A047     		blx	r4
 443              	.LVL25:
 444              	.L43:
 445              		.loc 1 282 0
 446 0024 BDE81040 		pop	{r4, lr}
 447              		.loc 1 281 0
 448 0028 FFF7FEBF 		b	_port_irq_epilogue
ARM GAS  /tmp/ccj7S6x5.s 			page 9


 449              	.LVL26:
 450              		.cfi_endproc
 451              	.LFE71:
 452              		.size	Vector124, .-Vector124
 453 002c AFF30080 		.section	.text.Vector128,"ax",%progbits
 454              		.align	2
 455              		.p2align 4,,15
 456              		.global	Vector128
 457              		.thumb
 458              		.thumb_func
 459              		.type	Vector128, %function
 460              	Vector128:
 461              	.LFB72:
 462              		.loc 1 289 0
 463              		.cfi_startproc
 464              		@ args = 0, pretend = 0, frame = 0
 465              		@ frame_needed = 0, uses_anonymous_args = 0
 466              		.loc 1 294 0
 467 0000 4FF48062 		mov	r2, #1024
 468 0004 C4F20202 		movt	r2, 16386
 469 0008 1168     		ldr	r1, [r2]
 470              		.loc 1 296 0
 471 000a 40F20003 		movw	r3, #:lower16:.LANCHOR0
 472 000e C0F20003 		movt	r3, #:upper16:.LANCHOR0
 473              		.loc 1 289 0
 474 0012 10B5     		push	{r4, lr}
 475              		.cfi_def_cfa_offset 8
 476              		.cfi_offset 4, -8
 477              		.cfi_offset 14, -4
 478              		.loc 1 294 0
 479 0014 C1F30321 		ubfx	r1, r1, #8, #4
 480              	.LVL27:
 481              		.loc 1 296 0
 482 0018 9C6C     		ldr	r4, [r3, #72]
 483              		.loc 1 295 0
 484 001a 0802     		lsls	r0, r1, #8
 485 001c 5060     		str	r0, [r2, #4]
 486              		.loc 1 296 0
 487 001e 0CB1     		cbz	r4, .L48
 488              		.loc 1 297 0
 489 0020 D86C     		ldr	r0, [r3, #76]
 490 0022 A047     		blx	r4
 491              	.LVL28:
 492              	.L48:
 493              		.loc 1 300 0
 494 0024 BDE81040 		pop	{r4, lr}
 495              		.loc 1 299 0
 496 0028 FFF7FEBF 		b	_port_irq_epilogue
 497              	.LVL29:
 498              		.cfi_endproc
 499              	.LFE72:
 500              		.size	Vector128, .-Vector128
 501 002c AFF30080 		.section	.text.Vector12C,"ax",%progbits
 502              		.align	2
 503              		.p2align 4,,15
 504              		.global	Vector12C
 505              		.thumb
ARM GAS  /tmp/ccj7S6x5.s 			page 10


 506              		.thumb_func
 507              		.type	Vector12C, %function
 508              	Vector12C:
 509              	.LFB73:
 510              		.loc 1 346 0
 511              		.cfi_startproc
 512              		@ args = 0, pretend = 0, frame = 0
 513              		@ frame_needed = 0, uses_anonymous_args = 0
 514              		.loc 1 352 0
 515 0000 4FF48063 		mov	r3, #1024
 516 0004 C4F20203 		movt	r3, 16386
 517 0008 1968     		ldr	r1, [r3]
 518              		.loc 1 346 0
 519 000a 10B5     		push	{r4, lr}
 520              		.cfi_def_cfa_offset 8
 521              		.cfi_offset 4, -8
 522              		.cfi_offset 14, -4
 523              		.loc 1 352 0
 524 000c C1F30331 		ubfx	r1, r1, #12, #4
 525              	.LVL30:
 526              		.loc 1 353 0
 527 0010 49B1     		cbz	r1, .L54
 528              		.loc 1 355 0
 529 0012 40F20002 		movw	r2, #:lower16:.LANCHOR0
 530 0016 C0F20002 		movt	r2, #:upper16:.LANCHOR0
 531 001a 146D     		ldr	r4, [r2, #80]
 532              		.loc 1 354 0
 533 001c 0803     		lsls	r0, r1, #12
 534 001e 5860     		str	r0, [r3, #4]
 535              		.loc 1 355 0
 536 0020 0CB1     		cbz	r4, .L54
 537              		.loc 1 356 0
 538 0022 506D     		ldr	r0, [r2, #84]
 539 0024 A047     		blx	r4
 540              	.LVL31:
 541              	.L54:
 542              		.loc 1 360 0
 543 0026 4FF48063 		mov	r3, #1024
 544 002a C4F20203 		movt	r3, 16386
 545 002e 1968     		ldr	r1, [r3]
 546 0030 C1F30341 		ubfx	r1, r1, #16, #4
 547              	.LVL32:
 548              		.loc 1 361 0
 549 0034 49B1     		cbz	r1, .L57
 550              		.loc 1 363 0
 551 0036 40F20002 		movw	r2, #:lower16:.LANCHOR0
 552 003a C0F20002 		movt	r2, #:upper16:.LANCHOR0
 553 003e 946D     		ldr	r4, [r2, #88]
 554              		.loc 1 362 0
 555 0040 0804     		lsls	r0, r1, #16
 556 0042 5860     		str	r0, [r3, #4]
 557              		.loc 1 363 0
 558 0044 0CB1     		cbz	r4, .L57
 559              		.loc 1 364 0
 560 0046 D06D     		ldr	r0, [r2, #92]
 561 0048 A047     		blx	r4
 562              	.LVL33:
ARM GAS  /tmp/ccj7S6x5.s 			page 11


 563              	.L57:
 564              		.loc 1 368 0
 565 004a BDE81040 		pop	{r4, lr}
 566              		.loc 1 367 0
 567 004e FFF7FEBF 		b	_port_irq_epilogue
 568              	.LVL34:
 569              		.cfi_endproc
 570              	.LFE73:
 571              		.size	Vector12C, .-Vector12C
 572 0052 00BFAFF3 		.section	.text.dmaInit,"ax",%progbits
 572      0080AFF3 
 572      0080AFF3 
 572      0080
 573              		.align	2
 574              		.p2align 4,,15
 575              		.global	dmaInit
 576              		.thumb
 577              		.thumb_func
 578              		.type	dmaInit, %function
 579              	dmaInit:
 580              	.LFB74:
 581              		.loc 1 381 0
 582              		.cfi_startproc
 583              		@ args = 0, pretend = 0, frame = 0
 584              		@ frame_needed = 0, uses_anonymous_args = 0
 585              		@ link register save eliminated.
 586              		.loc 1 384 0
 587 0000 40F20003 		movw	r3, #:lower16:.LANCHOR1
 588              		.loc 1 381 0
 589 0004 30B4     		push	{r4, r5}
 590              		.cfi_def_cfa_offset 8
 591              		.cfi_offset 4, -8
 592              		.cfi_offset 5, -4
 593              		.loc 1 384 0
 594 0006 0021     		movs	r1, #0
 595 0008 C0F20003 		movt	r3, #:upper16:.LANCHOR1
 596 000c 40F20005 		movw	r5, #:lower16:.LANCHOR2
 597 0010 40F20004 		movw	r4, #:lower16:.LANCHOR0
 598 0014 1960     		str	r1, [r3]
 599              	.LVL35:
 600 0016 0A46     		mov	r2, r1
 601 0018 0B46     		mov	r3, r1
 602 001a C0F20005 		movt	r5, #:upper16:.LANCHOR2
 603 001e C0F20004 		movt	r4, #:upper16:.LANCHOR0
 604              	.LVL36:
 605              	.L67:
 606              		.loc 1 386 0 discriminator 2
 607 0022 E858     		ldr	r0, [r5, r3]
 608 0024 0C33     		adds	r3, r3, #12
 609              		.loc 1 385 0 discriminator 2
 610 0026 902B     		cmp	r3, #144
 611              		.loc 1 386 0 discriminator 2
 612 0028 0160     		str	r1, [r0]
 613              		.loc 1 387 0 discriminator 2
 614 002a A150     		str	r1, [r4, r2]
 615 002c 02F10802 		add	r2, r2, #8
 616              		.loc 1 385 0 discriminator 2
ARM GAS  /tmp/ccj7S6x5.s 			page 12


 617 0030 F7D1     		bne	.L67
 618              		.loc 1 389 0
 619 0032 0021     		movs	r1, #0
 620              		.loc 1 391 0
 621 0034 4FF48063 		mov	r3, #1024
 622              		.loc 1 389 0
 623 0038 4FF0FF32 		mov	r2, #-1
 624 003c C4F20201 		movt	r1, 16386
 625              		.loc 1 391 0
 626 0040 C4F20203 		movt	r3, 16386
 627              		.loc 1 389 0
 628 0044 4A60     		str	r2, [r1, #4]
 629              		.loc 1 393 0
 630 0046 30BC     		pop	{r4, r5}
 631              		.loc 1 391 0
 632 0048 5A60     		str	r2, [r3, #4]
 633              		.loc 1 393 0
 634 004a 7047     		bx	lr
 635              		.cfi_endproc
 636              	.LFE74:
 637              		.size	dmaInit, .-dmaInit
 638 004c AFF30080 		.section	.text.dmaStreamAllocate,"ax",%progbits
 639              		.align	2
 640              		.p2align 4,,15
 641              		.global	dmaStreamAllocate
 642              		.thumb
 643              		.thumb_func
 644              		.type	dmaStreamAllocate, %function
 645              	dmaStreamAllocate:
 646              	.LFB75:
 647              		.loc 1 422 0
 648              		.cfi_startproc
 649              		@ args = 0, pretend = 0, frame = 0
 650              		@ frame_needed = 0, uses_anonymous_args = 0
 651              	.LVL37:
 652 0000 F8B5     		push	{r3, r4, r5, r6, r7, lr}
 653              		.cfi_def_cfa_offset 24
 654              		.cfi_offset 3, -24
 655              		.cfi_offset 4, -20
 656              		.cfi_offset 5, -16
 657              		.cfi_offset 6, -12
 658              		.cfi_offset 7, -8
 659              		.cfi_offset 14, -4
 660              		.loc 1 427 0
 661 0002 457A     		ldrb	r5, [r0, #9]	@ zero_extendqisi2
 662 0004 0126     		movs	r6, #1
 663 0006 06FA05FC 		lsl	ip, r6, r5
 664 000a 40F20004 		movw	r4, #:lower16:.LANCHOR1
 665 000e C0F20004 		movt	r4, #:upper16:.LANCHOR1
 666 0012 2768     		ldr	r7, [r4]
 667 0014 1CEA070F 		tst	ip, r7
 668 0018 3AD1     		bne	.L73
 669              		.loc 1 431 0
 670 001a 40F20006 		movw	r6, #:lower16:.LANCHOR0
 671 001e C0F20006 		movt	r6, #:upper16:.LANCHOR0
 672              		.loc 1 433 0
 673 0022 4CEA0707 		orr	r7, ip, r7
ARM GAS  /tmp/ccj7S6x5.s 			page 13


 674              		.loc 1 432 0
 675 0026 06EBC50C 		add	ip, r6, r5, lsl #3
 676              		.loc 1 431 0
 677 002a 46F83520 		str	r2, [r6, r5, lsl #3]
 678              		.loc 1 432 0
 679 002e CCF80430 		str	r3, [ip, #4]
 680              		.loc 1 436 0
 681 0032 7B06     		lsls	r3, r7, #25
 682              	.LVL38:
 683              		.loc 1 437 0
 684 0034 18BF     		it	ne
 685 0036 4FF48053 		movne	r3, #4096
 686              		.loc 1 433 0
 687 003a 2760     		str	r7, [r4]
 688              		.loc 1 437 0
 689 003c 1CBF     		itt	ne
 690 003e C4F20203 		movtne	r3, 16386
 691 0042 5C69     		ldrne	r4, [r3, #20]
 692              		.loc 1 445 0
 693 0044 4FF00006 		mov	r6, #0
 694              		.loc 1 437 0
 695 0048 1CBF     		itt	ne
 696 004a 44F00104 		orrne	r4, r4, #1
 697 004e 5C61     		strne	r4, [r3, #20]
 698              		.loc 1 439 0
 699 0050 17F4786F 		tst	r7, #3968
 700              		.loc 1 440 0
 701 0054 1EBF     		ittt	ne
 702 0056 4FF48053 		movne	r3, #4096
 703 005a C4F20203 		movtne	r3, 16386
 704 005e 5C69     		ldrne	r4, [r3, #20]
 705              		.loc 1 444 0
 706 0060 4FF00F07 		mov	r7, #15
 707              		.loc 1 440 0
 708 0064 1CBF     		itt	ne
 709 0066 44F00204 		orrne	r4, r4, #2
 710 006a 5C61     		strne	r4, [r3, #20]
 711              		.loc 1 444 0
 712 006c 0368     		ldr	r3, [r0]
 713 006e 4468     		ldr	r4, [r0, #4]
 714 0070 1D68     		ldr	r5, [r3]
 715 0072 25F00F05 		bic	r5, r5, #15
 716 0076 1D60     		str	r5, [r3]
 717 0078 057A     		ldrb	r5, [r0, #8]	@ zero_extendqisi2
 718 007a 07FA05F5 		lsl	r5, r7, r5
 719 007e 2560     		str	r5, [r4]
 720              		.loc 1 445 0
 721 0080 1E60     		str	r6, [r3]
 722              		.loc 1 448 0
 723 0082 3AB1     		cbz	r2, .L74
 724              		.loc 1 449 0
 725 0084 807A     		ldrb	r0, [r0, #10]	@ zero_extendqisi2
 726              	.LVL39:
 727 0086 0901     		lsls	r1, r1, #4
 728              	.LVL40:
 729 0088 FFF7FEFF 		bl	nvicEnableVector
 730              	.LVL41:
ARM GAS  /tmp/ccj7S6x5.s 			page 14


 731              		.loc 1 451 0
 732 008c 3046     		mov	r0, r6
 733 008e F8BD     		pop	{r3, r4, r5, r6, r7, pc}
 734              	.LVL42:
 735              	.L73:
 736              		.loc 1 428 0
 737 0090 3046     		mov	r0, r6
 738              	.LVL43:
 739 0092 F8BD     		pop	{r3, r4, r5, r6, r7, pc}
 740              	.LVL44:
 741              	.L74:
 742              		.loc 1 451 0
 743 0094 1046     		mov	r0, r2
 744              	.LVL45:
 745              		.loc 1 452 0
 746 0096 F8BD     		pop	{r3, r4, r5, r6, r7, pc}
 747              		.cfi_endproc
 748              	.LFE75:
 749              		.size	dmaStreamAllocate, .-dmaStreamAllocate
 750 0098 AFF30080 		.section	.text.dmaStreamRelease,"ax",%progbits
 750      AFF30080 
 751              		.align	2
 752              		.p2align 4,,15
 753              		.global	dmaStreamRelease
 754              		.thumb
 755              		.thumb_func
 756              		.type	dmaStreamRelease, %function
 757              	dmaStreamRelease:
 758              	.LFB76:
 759              		.loc 1 467 0
 760              		.cfi_startproc
 761              		@ args = 0, pretend = 0, frame = 0
 762              		@ frame_needed = 0, uses_anonymous_args = 0
 763              	.LVL46:
 764 0000 10B5     		push	{r4, lr}
 765              		.cfi_def_cfa_offset 8
 766              		.cfi_offset 4, -8
 767              		.cfi_offset 14, -4
 768              		.loc 1 467 0
 769 0002 0446     		mov	r4, r0
 770              		.loc 1 476 0
 771 0004 807A     		ldrb	r0, [r0, #10]	@ zero_extendqisi2
 772              	.LVL47:
 773 0006 FFF7FEFF 		bl	nvicDisableVector
 774              	.LVL48:
 775              		.loc 1 479 0
 776 000a 637A     		ldrb	r3, [r4, #9]	@ zero_extendqisi2
 777 000c 0122     		movs	r2, #1
 778 000e 9A40     		lsls	r2, r2, r3
 779 0010 40F20003 		movw	r3, #:lower16:.LANCHOR1
 780 0014 C0F20003 		movt	r3, #:upper16:.LANCHOR1
 781 0018 1968     		ldr	r1, [r3]
 782 001a 21EA0202 		bic	r2, r1, r2
 783              		.loc 1 482 0
 784 001e 5106     		lsls	r1, r2, #25
 785              		.loc 1 479 0
 786 0020 1A60     		str	r2, [r3]
ARM GAS  /tmp/ccj7S6x5.s 			page 15


 787              		.loc 1 483 0
 788 0022 01BF     		itttt	eq
 789 0024 4FF48053 		moveq	r3, #4096
 790 0028 C4F20203 		movteq	r3, 16386
 791 002c 5969     		ldreq	r1, [r3, #20]
 792 002e 21F00101 		biceq	r1, r1, #1
 793 0032 08BF     		it	eq
 794 0034 5961     		streq	r1, [r3, #20]
 795              		.loc 1 485 0
 796 0036 12F4786F 		tst	r2, #3968
 797              		.loc 1 486 0
 798 003a 01BF     		itttt	eq
 799 003c 4FF48053 		moveq	r3, #4096
 800 0040 C4F20203 		movteq	r3, 16386
 801 0044 5A69     		ldreq	r2, [r3, #20]
 802 0046 22F00202 		biceq	r2, r2, #2
 803 004a 08BF     		it	eq
 804 004c 5A61     		streq	r2, [r3, #20]
 805 004e 10BD     		pop	{r4, pc}
 806              		.cfi_endproc
 807              	.LFE76:
 808              		.size	dmaStreamRelease, .-dmaStreamRelease
 809              		.global	_stm32_dma_streams
 810              		.section	.bss.dma_isr_redir,"aw",%nobits
 811              		.align	2
 812              		.set	.LANCHOR0,. + 0
 813              		.type	dma_isr_redir, %object
 814              		.size	dma_isr_redir, 96
 815              	dma_isr_redir:
 816 0000 00000000 		.space	96
 816      00000000 
 816      00000000 
 816      00000000 
 816      00000000 
 817              		.section	.rodata._stm32_dma_streams,"a",%progbits
 818              		.align	2
 819              		.set	.LANCHOR2,. + 0
 820              		.type	_stm32_dma_streams, %object
 821              		.size	_stm32_dma_streams, 144
 822              	_stm32_dma_streams:
 823 0000 08000240 		.word	1073872904
 824 0004 04000240 		.word	1073872900
 825 0008 00       		.byte	0
 826 0009 00       		.byte	0
 827 000a 0B       		.byte	11
 828 000b 00       		.space	1
 829 000c 1C000240 		.word	1073872924
 830 0010 04000240 		.word	1073872900
 831 0014 04       		.byte	4
 832 0015 01       		.byte	1
 833 0016 0C       		.byte	12
 834 0017 00       		.space	1
 835 0018 30000240 		.word	1073872944
 836 001c 04000240 		.word	1073872900
 837 0020 08       		.byte	8
 838 0021 02       		.byte	2
 839 0022 0D       		.byte	13
ARM GAS  /tmp/ccj7S6x5.s 			page 16


 840 0023 00       		.space	1
 841 0024 44000240 		.word	1073872964
 842 0028 04000240 		.word	1073872900
 843 002c 0C       		.byte	12
 844 002d 03       		.byte	3
 845 002e 0E       		.byte	14
 846 002f 00       		.space	1
 847 0030 58000240 		.word	1073872984
 848 0034 04000240 		.word	1073872900
 849 0038 10       		.byte	16
 850 0039 04       		.byte	4
 851 003a 0F       		.byte	15
 852 003b 00       		.space	1
 853 003c 6C000240 		.word	1073873004
 854 0040 04000240 		.word	1073872900
 855 0044 14       		.byte	20
 856 0045 05       		.byte	5
 857 0046 10       		.byte	16
 858 0047 00       		.space	1
 859 0048 80000240 		.word	1073873024
 860 004c 04000240 		.word	1073872900
 861 0050 18       		.byte	24
 862 0051 06       		.byte	6
 863 0052 11       		.byte	17
 864 0053 00       		.space	1
 865 0054 08040240 		.word	1073873928
 866 0058 04040240 		.word	1073873924
 867 005c 00       		.byte	0
 868 005d 07       		.byte	7
 869 005e 38       		.byte	56
 870 005f 00       		.space	1
 871 0060 1C040240 		.word	1073873948
 872 0064 04040240 		.word	1073873924
 873 0068 04       		.byte	4
 874 0069 08       		.byte	8
 875 006a 39       		.byte	57
 876 006b 00       		.space	1
 877 006c 30040240 		.word	1073873968
 878 0070 04040240 		.word	1073873924
 879 0074 08       		.byte	8
 880 0075 09       		.byte	9
 881 0076 3A       		.byte	58
 882 0077 00       		.space	1
 883 0078 44040240 		.word	1073873988
 884 007c 04040240 		.word	1073873924
 885 0080 0C       		.byte	12
 886 0081 0A       		.byte	10
 887 0082 3B       		.byte	59
 888 0083 00       		.space	1
 889 0084 58040240 		.word	1073874008
 890 0088 04040240 		.word	1073873924
 891 008c 10       		.byte	16
 892 008d 0B       		.byte	11
 893 008e 3B       		.byte	59
 894 008f 00       		.space	1
 895              		.section	.bss.dma_streams_mask,"aw",%nobits
 896              		.align	2
ARM GAS  /tmp/ccj7S6x5.s 			page 17


 897              		.set	.LANCHOR1,. + 0
 898              		.type	dma_streams_mask, %object
 899              		.size	dma_streams_mask, 4
 900              	dma_streams_mask:
 901 0000 00000000 		.space	4
 902              		.text
 903              	.Letext0:
 904              		.file 2 "/usr/include/newlib/machine/_default_types.h"
 905              		.file 3 "/usr/include/newlib/stdint.h"
 906              		.file 4 "../../../../ChibiOS_2.6.2/os/ports/GCC/ARMCMx/chtypes.h"
 907              		.file 5 "../../../../ChibiOS_2.6.2/os/hal/platforms/STM32F1xx/stm32f10x.h"
 908              		.file 6 "../../../../ChibiOS_2.6.2/os/hal/platforms/STM32F1xx/stm32_dma.h"
 909              		.file 7 "../../../../ChibiOS_2.6.2/os/ports/common/ARMCMx/CMSIS/include/core_cm3.h"
 910              		.file 8 "../../../../ChibiOS_2.6.2/os/ports/GCC/ARMCMx/chcore_v7m.h"
 911              		.file 9 "../../../../ChibiOS_2.6.2/os/ports/common/ARMCMx/nvic.h"