ARM GAS  /tmp/cc1yoGvr.s 			page 1


   1              		.syntax unified
   2              		.cpu cortex-m3
   3              		.fpu softvfp
   4              		.eabi_attribute 20, 1
   5              		.eabi_attribute 21, 1
   6              		.eabi_attribute 23, 3
   7              		.eabi_attribute 24, 1
   8              		.eabi_attribute 25, 1
   9              		.eabi_attribute 26, 1
  10              		.eabi_attribute 30, 2
  11              		.eabi_attribute 34, 1
  12              		.eabi_attribute 18, 4
  13              		.thumb
  14              		.file	"tm.c"
  15              		.text
  16              	.Ltext0:
  17              		.cfi_sections	.debug_frame
  18              		.section	.text.tm_start,"ax",%progbits
  19              		.align	2
  20              		.p2align 4,,15
  21              		.thumb
  22              		.thumb_func
  23              		.type	tm_start, %function
  24              	tm_start:
  25              	.LFB63:
  26              		.file 1 "../../../../ChibiOS_2.6.2/os/hal/src/tm.c"
  27              		.loc 1 69 0
  28              		.cfi_startproc
  29              		@ args = 0, pretend = 0, frame = 0
  30              		@ frame_needed = 0, uses_anonymous_args = 0
  31              		@ link register save eliminated.
  32              	.LVL0:
  33              		.loc 1 71 0
  34 0000 4FF48053 		mov	r3, #4096
  35 0004 CEF20003 		movt	r3, 57344
  36 0008 5B68     		ldr	r3, [r3, #4]
  37 000a 8360     		str	r3, [r0, #8]
  38 000c 7047     		bx	lr
  39              		.cfi_endproc
  40              	.LFE63:
  41              		.size	tm_start, .-tm_start
  42 000e 00BF     		.section	.text.tm_stop,"ax",%progbits
  43              		.align	2
  44              		.p2align 4,,15
  45              		.thumb
  46              		.thumb_func
  47              		.type	tm_stop, %function
  48              	tm_stop:
  49              	.LFB64:
  50              		.loc 1 81 0
  51              		.cfi_startproc
  52              		@ args = 0, pretend = 0, frame = 0
  53              		@ frame_needed = 0, uses_anonymous_args = 0
  54              		@ link register save eliminated.
  55              	.LVL1:
  56              		.loc 1 83 0
  57 0000 4FF48053 		mov	r3, #4096
ARM GAS  /tmp/cc1yoGvr.s 			page 2


  58 0004 CEF20003 		movt	r3, 57344
  59              		.loc 1 84 0
  60 0008 40F20002 		movw	r2, #:lower16:.LANCHOR0
  61              		.loc 1 83 0
  62 000c 5B68     		ldr	r3, [r3, #4]
  63              	.LVL2:
  64              		.loc 1 84 0
  65 000e 8168     		ldr	r1, [r0, #8]
  66 0010 C0F20002 		movt	r2, #:upper16:.LANCHOR0
  67              		.loc 1 81 0
  68 0014 10B4     		push	{r4}
  69              		.cfi_def_cfa_offset 4
  70              		.cfi_offset 4, -4
  71              		.loc 1 84 0
  72 0016 1468     		ldr	r4, [r2]
  73 0018 5B1A     		subs	r3, r3, r1
  74              	.LVL3:
  75              		.loc 1 85 0
  76 001a C268     		ldr	r2, [r0, #12]
  77              		.loc 1 84 0
  78 001c 1B1B     		subs	r3, r3, r4
  79              		.loc 1 85 0
  80 001e 9342     		cmp	r3, r2
  81              		.loc 1 84 0
  82 0020 8360     		str	r3, [r0, #8]
  83              		.loc 1 86 0
  84 0022 88BF     		it	hi
  85 0024 C360     		strhi	r3, [r0, #12]
  86              		.loc 1 85 0
  87 0026 03D8     		bhi	.L2
  88              		.loc 1 87 0
  89 0028 0269     		ldr	r2, [r0, #16]
  90 002a 9342     		cmp	r3, r2
  91              		.loc 1 88 0
  92 002c 38BF     		it	cc
  93 002e 0361     		strcc	r3, [r0, #16]
  94              	.L2:
  95              		.loc 1 89 0
  96 0030 5DF8044B 		ldr	r4, [sp], #4
  97 0034 7047     		bx	lr
  98              		.cfi_endproc
  99              	.LFE64:
 100              		.size	tm_stop, .-tm_stop
 101 0036 00BFAFF3 		.section	.text.tmInit,"ax",%progbits
 101      0080AFF3 
 101      0080
 102              		.align	2
 103              		.p2align 4,,15
 104              		.global	tmInit
 105              		.thumb
 106              		.thumb_func
 107              		.type	tmInit, %function
 108              	tmInit:
 109              	.LFB65:
 110              		.loc 1 104 0
 111              		.cfi_startproc
 112              		@ args = 0, pretend = 0, frame = 24
ARM GAS  /tmp/cc1yoGvr.s 			page 3


 113              		@ frame_needed = 0, uses_anonymous_args = 0
 114 0000 10B5     		push	{r4, lr}
 115              		.cfi_def_cfa_offset 8
 116              		.cfi_offset 4, -8
 117              		.cfi_offset 14, -4
 118              		.loc 1 110 0
 119 0002 40F20004 		movw	r4, #:lower16:.LANCHOR0
 120              		.loc 1 104 0
 121 0006 86B0     		sub	sp, sp, #24
 122              		.cfi_def_cfa_offset 32
 123              		.loc 1 110 0
 124 0008 C0F20004 		movt	r4, #:upper16:.LANCHOR0
 125 000c 0022     		movs	r2, #0
 126              	.LBB8:
 127              	.LBB9:
 128              		.loc 1 130 0
 129 000e 4FF0FF31 		mov	r1, #-1
 130              	.LBE9:
 131              	.LBE8:
 132              	.LBB14:
 133              	.LBB15:
 134              		.loc 1 71 0
 135 0012 4FF48053 		mov	r3, #4096
 136              	.LBE15:
 137              	.LBE14:
 138              		.loc 1 110 0
 139 0016 2260     		str	r2, [r4]
 140              	.LVL4:
 141              	.LBB18:
 142              	.LBB10:
 143              		.loc 1 129 0
 144 0018 0492     		str	r2, [sp, #16]
 145              		.loc 1 130 0
 146 001a 0591     		str	r1, [sp, #20]
 147              	.LVL5:
 148              	.LBE10:
 149              	.LBE18:
 150              	.LBB19:
 151              	.LBB16:
 152              		.loc 1 71 0
 153 001c CEF20003 		movt	r3, 57344
 154 0020 5968     		ldr	r1, [r3, #4]
 155              	.LBE16:
 156              	.LBE19:
 157              	.LBB20:
 158              	.LBB11:
 159              		.loc 1 126 0
 160 0022 40F20002 		movw	r2, #:lower16:tm_start
 161              		.loc 1 127 0
 162 0026 40F20003 		movw	r3, #:lower16:tm_stop
 163              		.loc 1 126 0
 164 002a C0F20002 		movt	r2, #:upper16:tm_start
 165              		.loc 1 127 0
 166 002e C0F20003 		movt	r3, #:upper16:tm_stop
 167              	.LBE11:
 168              	.LBE20:
 169              		.loc 1 113 0
ARM GAS  /tmp/cc1yoGvr.s 			page 4


 170 0032 01A8     		add	r0, sp, #4
 171              	.LVL6:
 172              	.LBB21:
 173              	.LBB12:
 174              		.loc 1 127 0
 175 0034 0293     		str	r3, [sp, #8]
 176              	.LBE12:
 177              	.LBE21:
 178              	.LBB22:
 179              	.LBB17:
 180              		.loc 1 71 0
 181 0036 0391     		str	r1, [sp, #12]
 182              	.LBE17:
 183              	.LBE22:
 184              	.LBB23:
 185              	.LBB13:
 186              		.loc 1 126 0
 187 0038 0192     		str	r2, [sp, #4]
 188              	.LBE13:
 189              	.LBE23:
 190              		.loc 1 113 0
 191 003a FFF7FEFF 		bl	tm_stop
 192              	.LVL7:
 193              		.loc 1 114 0
 194 003e 039B     		ldr	r3, [sp, #12]
 195 0040 2360     		str	r3, [r4]
 196              		.loc 1 115 0
 197 0042 06B0     		add	sp, sp, #24
 198              		@ sp needed
 199 0044 10BD     		pop	{r4, pc}
 200              		.cfi_endproc
 201              	.LFE65:
 202              		.size	tmInit, .-tmInit
 203 0046 00BFAFF3 		.section	.text.tmObjectInit,"ax",%progbits
 203      0080AFF3 
 203      0080
 204              		.align	2
 205              		.p2align 4,,15
 206              		.global	tmObjectInit
 207              		.thumb
 208              		.thumb_func
 209              		.type	tmObjectInit, %function
 210              	tmObjectInit:
 211              	.LFB66:
 212              		.loc 1 124 0
 213              		.cfi_startproc
 214              		@ args = 0, pretend = 0, frame = 0
 215              		@ frame_needed = 0, uses_anonymous_args = 0
 216              		@ link register save eliminated.
 217              	.LVL8:
 218              		.loc 1 126 0
 219 0000 40F20002 		movw	r2, #:lower16:tm_start
 220              		.loc 1 127 0
 221 0004 40F20003 		movw	r3, #:lower16:tm_stop
 222              		.loc 1 124 0
 223 0008 10B4     		push	{r4}
 224              		.cfi_def_cfa_offset 4
ARM GAS  /tmp/cc1yoGvr.s 			page 5


 225              		.cfi_offset 4, -4
 226              		.loc 1 128 0
 227 000a 0021     		movs	r1, #0
 228              		.loc 1 130 0
 229 000c 4FF0FF34 		mov	r4, #-1
 230              		.loc 1 126 0
 231 0010 C0F20002 		movt	r2, #:upper16:tm_start
 232              		.loc 1 127 0
 233 0014 C0F20003 		movt	r3, #:upper16:tm_stop
 234              		.loc 1 130 0
 235 0018 0461     		str	r4, [r0, #16]
 236              		.loc 1 127 0
 237 001a 80E80C00 		stmia	r0, {r2, r3}
 238              		.loc 1 128 0
 239 001e 8160     		str	r1, [r0, #8]
 240              		.loc 1 129 0
 241 0020 C160     		str	r1, [r0, #12]
 242              		.loc 1 131 0
 243 0022 5DF8044B 		ldr	r4, [sp], #4
 244 0026 7047     		bx	lr
 245              		.cfi_endproc
 246              	.LFE66:
 247              		.size	tmObjectInit, .-tmObjectInit
 248              		.section	.bss.measurement_offset,"aw",%nobits
 249              		.align	2
 250              		.set	.LANCHOR0,. + 0
 251              		.type	measurement_offset, %object
 252              		.size	measurement_offset, 4
 253              	measurement_offset:
 254 0000 00000000 		.space	4
 255              		.text
 256              	.Letext0:
 257              		.file 2 "/usr/include/newlib/machine/_default_types.h"
 258              		.file 3 "/usr/include/newlib/stdint.h"
 259              		.file 4 "../../../../ChibiOS_2.6.2/os/ports/common/ARMCMx/nvic.h"
 260              		.file 5 "../../../../ChibiOS_2.6.2/os/hal/platforms/STM32F1xx/hal_lld.h"
 261              		.file 6 "../../../../ChibiOS_2.6.2/os/hal/include/tm.h"
 262              		.file 7 "../../../../ChibiOS_2.6.2/os/ports/common/ARMCMx/CMSIS/include/core_cm3.h"