ARM GAS  /tmp/cc1yoGvr.s 			page 1


   1              		.syntax unified
   2              		.cpu cortex-m3
   3              		.fpu softvfp
   4              		.eabi_attribute 20, 1
   5              		.eabi_attribute 21, 1
   6              		.eabi_attribute 23, 3
   7              		.eabi_attribute 24, 1
   8              		.eabi_attribute 25, 1
   9              		.eabi_attribute 26, 1
  10              		.eabi_attribute 30, 2
  11              		.eabi_attribute 34, 1
  12              		.eabi_attribute 18, 4
  13              		.thumb
  14              		.file	"tm.c"
  15              		.text
  16              	.Ltext0:
  17              		.cfi_sections	.debug_frame
  18              		.section	.text.tm_start,"ax",%progbits
  19              		.align	2
  20              		.p2align 4,,15
  21              		.thumb
  22              		.thumb_func
  23              		.type	tm_start, %function
  24              	tm_start:
  25              	.LFB63:
  26              		.file 1 "../../../../ChibiOS_2.6.2/os/hal/src/tm.c"
  27              		.loc 1 69 0
  28              		.cfi_startproc
  29              		@ args = 0, pretend = 0, frame = 0
  30              		@ frame_needed = 0, uses_anonymous_args = 0
  31              		@ link register save eliminated.
  32              	.LVL0:
  33              		.loc 1 71 0
  34 0000 4FF48053 		mov	r3, #4096
  35 0004 CEF20003 		movt	r3, 57344
  36 0008 5B68     		ldr	r3, [r3, #4]
  37 000a 8360     		str	r3, [r0, #8]
  38 000c 7047     		bx	lr
  39              		.cfi_endproc
  40              	.LFE63:
  41              		.size	tm_start, .-tm_start
  42 000e 00BF     		.section	.text.tm_stop,"ax",%progbits
  43              		.align	2
  44              		.p2align 4,,15
  45              		.thumb
  46              		.thumb_func
  47              		.type	tm_stop, %function
  48              	tm_stop:
  49              	.LFB64:
  50              		.loc 1 81 0
  51              		.cfi_startproc
  52              		@ args = 0, pretend = 0, frame = 0
  53              		@ frame_needed = 0, uses_anonymous_args = 0
  54              		@ link register save eliminated.
  55              	.LVL1:
  56              		.loc 1 83 0
  57 0000 4FF48053 		mov	r3, #4096
ARM GAS  /tmp/cc1yoGvr.s 			page 2


  58 0004 CEF20003 		movt	r3, 57344
  59              		.loc 1 84 0
  60 0008 40F20002 		movw	r2, #:lower16:.LANCHOR0
  61              		.loc 1 83 0
  62 000c 5B68     		ldr	r3, [r3, #4]
  63              	.LVL2:
  64              		.loc 1 84 0
  65 000e 8168     		ldr	r1, [r0, #8]
  66 0010 C0F20002 		movt	r2, #:upper16:.LANCHOR0
  67              		.loc 1 81 0
  68 0014 10B4     		push	{r4}
  69              		.cfi_def_cfa_offset 4
  70              		.cfi_offset 4, -4
  71              		.loc 1 84 0
  72 0016 1468     		ldr	r4, [r2]
  73 0018 5B1A     		subs	r3, r3, r1
  74              	.LVL3:
  75              		.loc 1 85 0
  76 001a C268     		ldr	r2, [r0, #12]
  77              		.loc 1 84 0
  78 001c 1B1B     		subs	r3, r3, r4
  79              		.loc 1 85 0
  80 001e 9342     		cmp	r3, r2
  81              		.loc 1 84 0
  82 0020 8360     		str	r3, [r0, #8]
  83              		.loc 1 86 0
  84 0022 88BF     		it	hi
  85 0024 C360     		strhi	r3, [r0, #12]
  86              		.loc 1 85 0
  87 0026 03D8     		bhi	.L2
  88              		.loc 1 87 0
  89 0028 0269     		ldr	r2, [r0, #16]
  90 002a 9342     		cmp	r3, r2
  91              		.loc 1 88 0
  92 002c 38BF     		it	cc
  93 002e 0361     		strcc	r3, [r0, #16]
  94              	.L2:
  95              		.loc 1 89 0
  96 0030 5DF8044B 		ldr	r4, [sp], #4
  97 0034 7047     		bx	lr
  98              		.cfi_endproc
  99              	.LFE64:
 100              		.size	tm_stop, .-tm_stop
 101 0036 00BFAFF3 		.section	.text.tmInit,"ax",%progbits
 101      0080AFF3 
 101      0080
 102              		.align	2
 103              		.p2align 4,,15
 104              		.global	tmInit
 105              		.thumb
 106              		.thumb_func
 107              		.type	tmInit, %function
 108              	tmInit:
 109              	.LFB65:
 110              		.loc 1 104 0
 111              		.cfi_startproc
 112              		@ args = 0, pretend = 0, frame = 24
ARM GAS  /tmp/cc1yoGvr.s 			page 3


 113              		@ frame_needed = 0, uses_anonymous_args = 0
 114 0000 10B5     		push	{r4, lr}
 115              		.cfi_def_cfa_offset 8
 116              		.cfi_offset 4, -8
 117              		.cfi_offset 14, -4
 118              		.loc 1 110 0
 119 0002 40F20004 		movw	r4, #:lower16:.LANCHOR0
 120              		.loc 1 104 0
 121 0006 86B0     		sub	sp, sp, #24
 122              		.cfi_def_cfa_offset 32
 123              		.loc 1 110 0
 124 0008 C0F20004 		movt	r4, #:upper16:.LANCHOR0
 125 000c 0022     		movs	r2, #0
 126              	.LBB8:
 127              	.LBB9:
 128              		.loc 1 130 0
 129 000e 4FF0FF31 		mov	r1, #-1
 130              	.LBE9:
 131              	.LBE8:
 132              	.LBB14:
 133              	.LBB15:
 134              		.loc 1 71 0
 135 0012 4FF48053 		mov	r3, #4096
 136              	.LBE15:
 137              	.LBE14:
 138              		.loc 1 110 0
 139 0016 2260     		str	r2, [r4]
 140              	.LVL4:
 141              	.LBB18:
 142              	.LBB10:
 143              		.loc 1 129 0
 144 0018 0492     		str	r2, [sp, #16]
 145              		.loc 1 130 0
 146 001a 0591     		str	r1, [sp, #20]
 147              	.LVL5:
 148              	.LBE10:
 149              	.LBE18:
 150              	.LBB19:
 151              	.LBB16:
 152              		.loc 1 71 0
 153 001c CEF20003 		movt	r3, 57344
 154 0020 5968     		ldr	r1, [r3, #4]
 155              	.LBE16:
 156              	.LBE19:
 157              	.LBB20:
 158              	.LBB11:
 159              		.loc 1 126 0
 160 0022 40F20002 		movw	r2, #:lower16:tm_start
 161              		.loc 1 127 0
 162 0026 40F20003 		movw	r3, #:lower16:tm_stop
 163              		.loc 1 126 0
 164 002a C0F20002 		movt	r2, #:upper16:tm_start
 165              		.loc 1 127 0
 166 002e C0F20003 		movt	r3, #:upper16:tm_stop
 167              	.LBE11:
 168              	.LBE20:
 169              		.loc 1 113 0
ARM GAS  /tmp/cc1yoGvr.s 			page 4


 170 0032 01A8     		add	r0, sp, #4
 171              	.LVL6:
 172              	.LBB21:
 173              	.LBB12:
 174              		.loc 1 127 0
 175 0034 0293     		str	r3, [sp, #8]
 176              	.LBE12:
 177              	.LBE21:
 178              	.LBB22:
 179              	.LBB17:
 180              		.loc 1 71 0
 181 0036 0391     		str	r1, [sp, #12]
 182              	.LBE17:
 183              	.LBE22:
 184              	.LBB23:
 185              	.LBB13:
 186              		.loc 1 126 0
 187 0038 0192     		str	r2, [sp, #4]
 188              	.LBE13:
 189              	.LBE23:
 190              		.loc 1 113 0
 191 003a FFF7FEFF 		bl	tm_stop
 192              	.LVL7:
 193              		.loc 1 114 0
 194 003e 039B     		ldr	r3, [sp, #12]
 195 0040 2360     		str	r3, [r4]
 196              		.loc 1 115 0
 197 0042 06B0     		add	sp, sp, #24
 198              		@ sp needed
 199 0044 10BD     		pop	{r4, pc}
 200              		.cfi_endproc
 201              	.LFE65:
 202              		.size	tmInit, .-tmInit
 203 0046 00BFAFF3 		.section	.text.tmObjectInit,"ax",%progbits
 203      0080AFF3 
 203      0080
 204              		.align	2
 205              		.p2align 4,,15
 206              		.global	tmObjectInit
 207              		.thumb
 208              		.thumb_func
 209              		.type	tmObjectInit, %function
 210              	tmObjectInit:
 211              	.LFB66:
 212              		.loc 1 124 0
 213              		.cfi_startproc
 214              		@ args = 0, pretend = 0, frame = 0
 215              		@ frame_needed = 0, uses_anonymous_args = 0
 216              		@ link register save eliminated.
 217              	.LVL8:
 218              		.loc 1 126 0
 219 0000 40F20002 		movw	r2, #:lower16:tm_start
 220              		.loc 1 127 0
 221 0004 40F20003 		movw	r3, #:lower16:tm_stop
 222              		.loc 1 124 0
 223 0008 10B4     		push	{r4}
 224              		.cfi_def_cfa_offset 4
ARM GAS  /tmp/cc1yoGvr.s 			page 5


 225              		.cfi_offset 4, -4
 226              		.loc 1 128 0
 227 000a 0021     		movs	r1, #0
 228              		.loc 1 130 0
 229 000c 4FF0FF34 		mov	r4, #-1
 230              		.loc 1 126 0
 231 0010 C0F20002 		movt	r2, #:upper16:tm_start
 232              		.loc 1 127 0
 233 0014 C0F20003 		movt	r3, #:upper16:tm_stop
 234              		.loc 1 130 0
 235 0018 0461     		str	r4, [r0, #16]
 236              		.loc 1 127 0
 237 001a 80E80C00 		stmia	r0, {r2, r3}
 238              		.loc 1 128 0
 239 001e 8160     		str	r1, [r0, #8]
 240              		.loc 1 129 0
 241 0020 C160     		str	r1, [r0, #12]
 242              		.loc 1 131 0
 243 0022 5DF8044B 		ldr	r4, [sp], #4
 244 0026 7047     		bx	lr
 245              		.cfi_endproc
 246              	.LFE66:
 247              		.size	tmObjectInit, .-tmObjectInit
 248              		.section	.bss.measurement_offset,"aw",%nobits
 249              		.align	2
 250              		.set	.LANCHOR0,. + 0
 251              		.type	measurement_offset, %object
 252              		.size	measurement_offset, 4
 253              	measurement_offset:
 254 0000 00000000 		.space	4
 255              		.text
 256              	.Letext0:
 257              		.file 2 "/usr/include/newlib/machine/_default_types.h"
 258              		.file 3 "/usr/include/newlib/stdint.h"
 259              		.file 4 "../../../../ChibiOS_2.6.2/os/ports/common/ARMCMx/nvic.h"
 260              		.file 5 "../../../../ChibiOS_2.6.2/os/hal/platforms/STM32F1xx/hal_lld.h"
 261              		.file 6 "../../../../ChibiOS_2.6.2/os/hal/include/tm.h"
 262              		.file 7 "../../../../ChibiOS_2.6.2/os/ports/common/ARMCMx/CMSIS/include/core_cm3.h"
 263              		.section	.debug_info,"",%progbits
 264              	.Ldebug_info0:
 265 0000 D4020000 		.4byte	0x2d4
 266 0004 0400     		.2byte	0x4
 267 0006 00000000 		.4byte	.Ldebug_abbrev0
 268 000a 04       		.byte	0x4
 269 000b 01       		.uleb128 0x1
 270 000c 30010000 		.4byte	.LASF34
 271 0010 01       		.byte	0x1
 272 0011 77000000 		.4byte	.LASF35
 273 0015 05000000 		.4byte	.LASF36
 274 0019 50000000 		.4byte	.Ldebug_ranges0+0x50
 275 001d 00000000 		.4byte	0
 276 0021 00000000 		.4byte	.Ldebug_line0
 277 0025 02       		.uleb128 0x2
 278 0026 04       		.byte	0x4
 279 0027 05       		.byte	0x5
 280 0028 696E7400 		.ascii	"int\000"
 281 002c 03       		.uleb128 0x3
ARM GAS  /tmp/cc1yoGvr.s 			page 6


 282 002d 04       		.byte	0x4
 283 002e 07       		.byte	0x7
 284 002f E5010000 		.4byte	.LASF0
 285 0033 03       		.uleb128 0x3
 286 0034 01       		.byte	0x1
 287 0035 06       		.byte	0x6
 288 0036 7A020000 		.4byte	.LASF1
 289 003a 03       		.uleb128 0x3
 290 003b 01       		.byte	0x1
 291 003c 08       		.byte	0x8
 292 003d C6000000 		.4byte	.LASF2
 293 0041 03       		.uleb128 0x3
 294 0042 02       		.byte	0x2
 295 0043 05       		.byte	0x5
 296 0044 51020000 		.4byte	.LASF3
 297 0048 03       		.uleb128 0x3
 298 0049 02       		.byte	0x2
 299 004a 07       		.byte	0x7
 300 004b 01010000 		.4byte	.LASF4
 301 004f 04       		.uleb128 0x4
 302 0050 5F000000 		.4byte	.LASF6
 303 0054 02       		.byte	0x2
 304 0055 37       		.byte	0x37
 305 0056 5A000000 		.4byte	0x5a
 306 005a 03       		.uleb128 0x3
 307 005b 04       		.byte	0x4
 308 005c 05       		.byte	0x5
 309 005d 71020000 		.4byte	.LASF5
 310 0061 04       		.uleb128 0x4
 311 0062 D3010000 		.4byte	.LASF7
 312 0066 02       		.byte	0x2
 313 0067 38       		.byte	0x38
 314 0068 6C000000 		.4byte	0x6c
 315 006c 03       		.uleb128 0x3
 316 006d 04       		.byte	0x4
 317 006e 07       		.byte	0x7
 318 006f E2000000 		.4byte	.LASF8
 319 0073 03       		.uleb128 0x3
 320 0074 08       		.byte	0x8
 321 0075 05       		.byte	0x5
 322 0076 28020000 		.4byte	.LASF9
 323 007a 03       		.uleb128 0x3
 324 007b 08       		.byte	0x8
 325 007c 07       		.byte	0x7
 326 007d AF000000 		.4byte	.LASF10
 327 0081 04       		.uleb128 0x4
 328 0082 17020000 		.4byte	.LASF11
 329 0086 03       		.byte	0x3
 330 0087 41       		.byte	0x41
 331 0088 4F000000 		.4byte	0x4f
 332 008c 04       		.uleb128 0x4
 333 008d 68020000 		.4byte	.LASF12
 334 0091 03       		.byte	0x3
 335 0092 42       		.byte	0x42
 336 0093 61000000 		.4byte	0x61
 337 0097 03       		.uleb128 0x3
 338 0098 01       		.byte	0x1
ARM GAS  /tmp/cc1yoGvr.s 			page 7


 339 0099 02       		.byte	0x2
 340 009a 96020000 		.4byte	.LASF13
 341 009e 04       		.uleb128 0x4
 342 009f 36020000 		.4byte	.LASF14
 343 00a3 04       		.byte	0x4
 344 00a4 3A       		.byte	0x3a
 345 00a5 A9000000 		.4byte	0xa9
 346 00a9 05       		.uleb128 0x5
 347 00aa 8C000000 		.4byte	0x8c
 348 00ae 03       		.uleb128 0x3
 349 00af 04       		.byte	0x4
 350 00b0 07       		.byte	0x7
 351 00b1 1F020000 		.4byte	.LASF15
 352 00b5 06       		.uleb128 0x6
 353 00b6 20       		.byte	0x20
 354 00b7 04       		.byte	0x4
 355 00b8 0601     		.2byte	0x106
 356 00ba 27010000 		.4byte	0x127
 357 00be 07       		.uleb128 0x7
 358 00bf 0B020000 		.4byte	.LASF16
 359 00c3 04       		.byte	0x4
 360 00c4 0701     		.2byte	0x107
 361 00c6 9E000000 		.4byte	0x9e
 362 00ca 00       		.byte	0
 363 00cb 07       		.uleb128 0x7
 364 00cc D4000000 		.4byte	.LASF17
 365 00d0 04       		.byte	0x4
 366 00d1 0801     		.2byte	0x108
 367 00d3 9E000000 		.4byte	0x9e
 368 00d7 04       		.byte	0x4
 369 00d8 07       		.uleb128 0x7
 370 00d9 14010000 		.4byte	.LASF18
 371 00dd 04       		.byte	0x4
 372 00de 0901     		.2byte	0x109
 373 00e0 9E000000 		.4byte	0x9e
 374 00e4 08       		.byte	0x8
 375 00e5 07       		.uleb128 0x7
 376 00e6 10020000 		.4byte	.LASF19
 377 00ea 04       		.byte	0x4
 378 00eb 0A01     		.2byte	0x10a
 379 00ed 9E000000 		.4byte	0x9e
 380 00f1 0C       		.byte	0xc
 381 00f2 07       		.uleb128 0x7
 382 00f3 A1000000 		.4byte	.LASF20
 383 00f7 04       		.byte	0x4
 384 00f8 0B01     		.2byte	0x10b
 385 00fa 9E000000 		.4byte	0x9e
 386 00fe 10       		.byte	0x10
 387 00ff 07       		.uleb128 0x7
 388 0100 DE010000 		.4byte	.LASF21
 389 0104 04       		.byte	0x4
 390 0105 0C01     		.2byte	0x10c
 391 0107 9E000000 		.4byte	0x9e
 392 010b 14       		.byte	0x14
 393 010c 07       		.uleb128 0x7
 394 010d 28010000 		.4byte	.LASF22
 395 0111 04       		.byte	0x4
ARM GAS  /tmp/cc1yoGvr.s 			page 8


 396 0112 0D01     		.2byte	0x10d
 397 0114 9E000000 		.4byte	0x9e
 398 0118 18       		.byte	0x18
 399 0119 07       		.uleb128 0x7
 400 011a 5A000000 		.4byte	.LASF23
 401 011e 04       		.byte	0x4
 402 011f 0E01     		.2byte	0x10e
 403 0121 9E000000 		.4byte	0x9e
 404 0125 1C       		.byte	0x1c
 405 0126 00       		.byte	0
 406 0127 08       		.uleb128 0x8
 407 0128 5B020000 		.4byte	.LASF24
 408 012c 04       		.byte	0x4
 409 012d 0F01     		.2byte	0x10f
 410 012f B5000000 		.4byte	0xb5
 411 0133 03       		.uleb128 0x3
 412 0134 01       		.byte	0x1
 413 0135 08       		.byte	0x8
 414 0136 FD010000 		.4byte	.LASF25
 415 013a 05       		.uleb128 0x5
 416 013b 81000000 		.4byte	0x81
 417 013f 04       		.uleb128 0x4
 418 0140 F2010000 		.4byte	.LASF26
 419 0144 05       		.byte	0x5
 420 0145 CE       		.byte	0xce
 421 0146 8C000000 		.4byte	0x8c
 422 014a 04       		.uleb128 0x4
 423 014b 86020000 		.4byte	.LASF27
 424 014f 06       		.byte	0x6
 425 0150 45       		.byte	0x45
 426 0151 55010000 		.4byte	0x155
 427 0155 09       		.uleb128 0x9
 428 0156 86020000 		.4byte	.LASF27
 429 015a 14       		.byte	0x14
 430 015b 06       		.byte	0x6
 431 015c 4A       		.byte	0x4a
 432 015d 9E010000 		.4byte	0x19e
 433 0161 0A       		.uleb128 0xa
 434 0162 71000000 		.4byte	.LASF28
 435 0166 06       		.byte	0x6
 436 0167 4B       		.byte	0x4b
 437 0168 AF010000 		.4byte	0x1af
 438 016c 00       		.byte	0
 439 016d 0A       		.uleb128 0xa
 440 016e AA000000 		.4byte	.LASF29
 441 0172 06       		.byte	0x6
 442 0173 4C       		.byte	0x4c
 443 0174 AF010000 		.4byte	0x1af
 444 0178 04       		.byte	0x4
 445 0179 0A       		.uleb128 0xa
 446 017a 00000000 		.4byte	.LASF30
 447 017e 06       		.byte	0x6
 448 017f 4D       		.byte	0x4d
 449 0180 3F010000 		.4byte	0x13f
 450 0184 08       		.byte	0x8
 451 0185 0A       		.uleb128 0xa
 452 0186 CD010000 		.4byte	.LASF31
ARM GAS  /tmp/cc1yoGvr.s 			page 9


 453 018a 06       		.byte	0x6
 454 018b 4E       		.byte	0x4e
 455 018c 3F010000 		.4byte	0x13f
 456 0190 0C       		.byte	0xc
 457 0191 0A       		.uleb128 0xa
 458 0192 63020000 		.4byte	.LASF32
 459 0196 06       		.byte	0x6
 460 0197 4F       		.byte	0x4f
 461 0198 3F010000 		.4byte	0x13f
 462 019c 10       		.byte	0x10
 463 019d 00       		.byte	0
 464 019e 0B       		.uleb128 0xb
 465 019f A9010000 		.4byte	0x1a9
 466 01a3 0C       		.uleb128 0xc
 467 01a4 A9010000 		.4byte	0x1a9
 468 01a8 00       		.byte	0
 469 01a9 0D       		.uleb128 0xd
 470 01aa 04       		.byte	0x4
 471 01ab 4A010000 		.4byte	0x14a
 472 01af 0D       		.uleb128 0xd
 473 01b0 04       		.byte	0x4
 474 01b1 9E010000 		.4byte	0x19e
 475 01b5 0E       		.uleb128 0xe
 476 01b6 F4000000 		.4byte	.LASF37
 477 01ba 01       		.byte	0x1
 478 01bb 7C       		.byte	0x7c
 479 01bc 01       		.byte	0x1
 480 01bd CD010000 		.4byte	0x1cd
 481 01c1 0F       		.uleb128 0xf
 482 01c2 746D7000 		.ascii	"tmp\000"
 483 01c6 01       		.byte	0x1
 484 01c7 7C       		.byte	0x7c
 485 01c8 A9010000 		.4byte	0x1a9
 486 01cc 00       		.byte	0
 487 01cd 10       		.uleb128 0x10
 488 01ce 02020000 		.4byte	.LASF38
 489 01d2 01       		.byte	0x1
 490 01d3 45       		.byte	0x45
 491 01d4 01       		.byte	0x1
 492 01d5 E5010000 		.4byte	0x1e5
 493 01d9 0F       		.uleb128 0xf
 494 01da 746D7000 		.ascii	"tmp\000"
 495 01de 01       		.byte	0x1
 496 01df 45       		.byte	0x45
 497 01e0 A9010000 		.4byte	0x1a9
 498 01e4 00       		.byte	0
 499 01e5 11       		.uleb128 0x11
 500 01e6 CD010000 		.4byte	0x1cd
 501 01ea 00000000 		.4byte	.LFB63
 502 01ee 0E000000 		.4byte	.LFE63-.LFB63
 503 01f2 01       		.uleb128 0x1
 504 01f3 9C       		.byte	0x9c
 505 01f4 00020000 		.4byte	0x200
 506 01f8 12       		.uleb128 0x12
 507 01f9 D9010000 		.4byte	0x1d9
 508 01fd 01       		.uleb128 0x1
 509 01fe 50       		.byte	0x50
ARM GAS  /tmp/cc1yoGvr.s 			page 10


 510 01ff 00       		.byte	0
 511 0200 13       		.uleb128 0x13
 512 0201 69000000 		.4byte	.LASF39
 513 0205 01       		.byte	0x1
 514 0206 51       		.byte	0x51
 515 0207 00000000 		.4byte	.LFB64
 516 020b 36000000 		.4byte	.LFE64-.LFB64
 517 020f 01       		.uleb128 0x1
 518 0210 9C       		.byte	0x9c
 519 0211 32020000 		.4byte	0x232
 520 0215 14       		.uleb128 0x14
 521 0216 746D7000 		.ascii	"tmp\000"
 522 021a 01       		.byte	0x1
 523 021b 51       		.byte	0x51
 524 021c A9010000 		.4byte	0x1a9
 525 0220 01       		.uleb128 0x1
 526 0221 50       		.byte	0x50
 527 0222 15       		.uleb128 0x15
 528 0223 6E6F7700 		.ascii	"now\000"
 529 0227 01       		.byte	0x1
 530 0228 53       		.byte	0x53
 531 0229 3F010000 		.4byte	0x13f
 532 022d 00000000 		.4byte	.LLST0
 533 0231 00       		.byte	0
 534 0232 16       		.uleb128 0x16
 535 0233 DB000000 		.4byte	.LASF40
 536 0237 01       		.byte	0x1
 537 0238 68       		.byte	0x68
 538 0239 00000000 		.4byte	.LFB65
 539 023d 46000000 		.4byte	.LFE65-.LFB65
 540 0241 01       		.uleb128 0x1
 541 0242 9C       		.byte	0x9c
 542 0243 9F020000 		.4byte	0x29f
 543 0247 17       		.uleb128 0x17
 544 0248 746D00   		.ascii	"tm\000"
 545 024b 01       		.byte	0x1
 546 024c 69       		.byte	0x69
 547 024d 4A010000 		.4byte	0x14a
 548 0251 02       		.uleb128 0x2
 549 0252 91       		.byte	0x91
 550 0253 64       		.sleb128 -28
 551 0254 18       		.uleb128 0x18
 552 0255 B5010000 		.4byte	0x1b5
 553 0259 0E000000 		.4byte	.LBB8
 554 025d 00000000 		.4byte	.Ldebug_ranges0+0
 555 0261 01       		.byte	0x1
 556 0262 6F       		.byte	0x6f
 557 0263 71020000 		.4byte	0x271
 558 0267 19       		.uleb128 0x19
 559 0268 C1010000 		.4byte	0x1c1
 560 026c 13000000 		.4byte	.LLST1
 561 0270 00       		.byte	0
 562 0271 18       		.uleb128 0x18
 563 0272 CD010000 		.4byte	0x1cd
 564 0276 12000000 		.4byte	.LBB14
 565 027a 30000000 		.4byte	.Ldebug_ranges0+0x30
 566 027e 01       		.byte	0x1
ARM GAS  /tmp/cc1yoGvr.s 			page 11


 567 027f 70       		.byte	0x70
 568 0280 8E020000 		.4byte	0x28e
 569 0284 19       		.uleb128 0x19
 570 0285 D9010000 		.4byte	0x1d9
 571 0289 40000000 		.4byte	.LLST2
 572 028d 00       		.byte	0
 573 028e 1A       		.uleb128 0x1a
 574 028f 3E000000 		.4byte	.LVL7
 575 0293 00020000 		.4byte	0x200
 576 0297 1B       		.uleb128 0x1b
 577 0298 01       		.uleb128 0x1
 578 0299 50       		.byte	0x50
 579 029a 02       		.uleb128 0x2
 580 029b 91       		.byte	0x91
 581 029c 64       		.sleb128 -28
 582 029d 00       		.byte	0
 583 029e 00       		.byte	0
 584 029f 11       		.uleb128 0x11
 585 02a0 B5010000 		.4byte	0x1b5
 586 02a4 00000000 		.4byte	.LFB66
 587 02a8 28000000 		.4byte	.LFE66-.LFB66
 588 02ac 01       		.uleb128 0x1
 589 02ad 9C       		.byte	0x9c
 590 02ae BA020000 		.4byte	0x2ba
 591 02b2 12       		.uleb128 0x12
 592 02b3 C1010000 		.4byte	0x1c1
 593 02b7 01       		.uleb128 0x1
 594 02b8 50       		.byte	0x50
 595 02b9 00       		.byte	0
 596 02ba 1C       		.uleb128 0x1c
 597 02bb 3E020000 		.4byte	.LASF33
 598 02bf 01       		.byte	0x1
 599 02c0 38       		.byte	0x38
 600 02c1 3F010000 		.4byte	0x13f
 601 02c5 05       		.uleb128 0x5
 602 02c6 03       		.byte	0x3
 603 02c7 00000000 		.4byte	measurement_offset
 604 02cb 1D       		.uleb128 0x1d
 605 02cc 1B010000 		.4byte	.LASF41
 606 02d0 07       		.byte	0x7
 607 02d1 0706     		.2byte	0x607
 608 02d3 3A010000 		.4byte	0x13a
 609 02d7 00       		.byte	0
 610              		.section	.debug_abbrev,"",%progbits
 611              	.Ldebug_abbrev0:
 612 0000 01       		.uleb128 0x1
 613 0001 11       		.uleb128 0x11
 614 0002 01       		.byte	0x1
 615 0003 25       		.uleb128 0x25
 616 0004 0E       		.uleb128 0xe
 617 0005 13       		.uleb128 0x13
 618 0006 0B       		.uleb128 0xb
 619 0007 03       		.uleb128 0x3
 620 0008 0E       		.uleb128 0xe
 621 0009 1B       		.uleb128 0x1b
 622 000a 0E       		.uleb128 0xe
 623 000b 55       		.uleb128 0x55
ARM GAS  /tmp/cc1yoGvr.s 			page 12


 624 000c 17       		.uleb128 0x17
 625 000d 11       		.uleb128 0x11
 626 000e 01       		.uleb128 0x1
 627 000f 10       		.uleb128 0x10
 628 0010 17       		.uleb128 0x17
 629 0011 00       		.byte	0
 630 0012 00       		.byte	0
 631 0013 02       		.uleb128 0x2
 632 0014 24       		.uleb128 0x24
 633 0015 00       		.byte	0
 634 0016 0B       		.uleb128 0xb
 635 0017 0B       		.uleb128 0xb
 636 0018 3E       		.uleb128 0x3e
 637 0019 0B       		.uleb128 0xb
 638 001a 03       		.uleb128 0x3
 639 001b 08       		.uleb128 0x8
 640 001c 00       		.byte	0
 641 001d 00       		.byte	0
 642 001e 03       		.uleb128 0x3
 643 001f 24       		.uleb128 0x24
 644 0020 00       		.byte	0
 645 0021 0B       		.uleb128 0xb
 646 0022 0B       		.uleb128 0xb
 647 0023 3E       		.uleb128 0x3e
 648 0024 0B       		.uleb128 0xb
 649 0025 03       		.uleb128 0x3
 650 0026 0E       		.uleb128 0xe
 651 0027 00       		.byte	0
 652 0028 00       		.byte	0
 653 0029 04       		.uleb128 0x4
 654 002a 16       		.uleb128 0x16
 655 002b 00       		.byte	0
 656 002c 03       		.uleb128 0x3
 657 002d 0E       		.uleb128 0xe
 658 002e 3A       		.uleb128 0x3a
 659 002f 0B       		.uleb128 0xb
 660 0030 3B       		.uleb128 0x3b
 661 0031 0B       		.uleb128 0xb
 662 0032 49       		.uleb128 0x49
 663 0033 13       		.uleb128 0x13
 664 0034 00       		.byte	0
 665 0035 00       		.byte	0
 666 0036 05       		.uleb128 0x5
 667 0037 35       		.uleb128 0x35
 668 0038 00       		.byte	0
 669 0039 49       		.uleb128 0x49
 670 003a 13       		.uleb128 0x13
 671 003b 00       		.byte	0
 672 003c 00       		.byte	0
 673 003d 06       		.uleb128 0x6
 674 003e 13       		.uleb128 0x13
 675 003f 01       		.byte	0x1
 676 0040 0B       		.uleb128 0xb
 677 0041 0B       		.uleb128 0xb
 678 0042 3A       		.uleb128 0x3a
 679 0043 0B       		.uleb128 0xb
 680 0044 3B       		.uleb128 0x3b
ARM GAS  /tmp/cc1yoGvr.s 			page 13


 681 0045 05       		.uleb128 0x5
 682 0046 01       		.uleb128 0x1
 683 0047 13       		.uleb128 0x13
 684 0048 00       		.byte	0
 685 0049 00       		.byte	0
 686 004a 07       		.uleb128 0x7
 687 004b 0D       		.uleb128 0xd
 688 004c 00       		.byte	0
 689 004d 03       		.uleb128 0x3
 690 004e 0E       		.uleb128 0xe
 691 004f 3A       		.uleb128 0x3a
 692 0050 0B       		.uleb128 0xb
 693 0051 3B       		.uleb128 0x3b
 694 0052 05       		.uleb128 0x5
 695 0053 49       		.uleb128 0x49
 696 0054 13       		.uleb128 0x13
 697 0055 38       		.uleb128 0x38
 698 0056 0B       		.uleb128 0xb
 699 0057 00       		.byte	0
 700 0058 00       		.byte	0
 701 0059 08       		.uleb128 0x8
 702 005a 16       		.uleb128 0x16
 703 005b 00       		.byte	0
 704 005c 03       		.uleb128 0x3
 705 005d 0E       		.uleb128 0xe
 706 005e 3A       		.uleb128 0x3a
 707 005f 0B       		.uleb128 0xb
 708 0060 3B       		.uleb128 0x3b
 709 0061 05       		.uleb128 0x5
 710 0062 49       		.uleb128 0x49
 711 0063 13       		.uleb128 0x13
 712 0064 00       		.byte	0
 713 0065 00       		.byte	0
 714 0066 09       		.uleb128 0x9
 715 0067 13       		.uleb128 0x13
 716 0068 01       		.byte	0x1
 717 0069 03       		.uleb128 0x3
 718 006a 0E       		.uleb128 0xe
 719 006b 0B       		.uleb128 0xb
 720 006c 0B       		.uleb128 0xb
 721 006d 3A       		.uleb128 0x3a
 722 006e 0B       		.uleb128 0xb
 723 006f 3B       		.uleb128 0x3b
 724 0070 0B       		.uleb128 0xb
 725 0071 01       		.uleb128 0x1
 726 0072 13       		.uleb128 0x13
 727 0073 00       		.byte	0
 728 0074 00       		.byte	0
 729 0075 0A       		.uleb128 0xa
 730 0076 0D       		.uleb128 0xd
 731 0077 00       		.byte	0
 732 0078 03       		.uleb128 0x3
 733 0079 0E       		.uleb128 0xe
 734 007a 3A       		.uleb128 0x3a
 735 007b 0B       		.uleb128 0xb
 736 007c 3B       		.uleb128 0x3b
 737 007d 0B       		.uleb128 0xb
ARM GAS  /tmp/cc1yoGvr.s 			page 14


 738 007e 49       		.uleb128 0x49
 739 007f 13       		.uleb128 0x13
 740 0080 38       		.uleb128 0x38
 741 0081 0B       		.uleb128 0xb
 742 0082 00       		.byte	0
 743 0083 00       		.byte	0
 744 0084 0B       		.uleb128 0xb
 745 0085 15       		.uleb128 0x15
 746 0086 01       		.byte	0x1
 747 0087 27       		.uleb128 0x27
 748 0088 19       		.uleb128 0x19
 749 0089 01       		.uleb128 0x1
 750 008a 13       		.uleb128 0x13
 751 008b 00       		.byte	0
 752 008c 00       		.byte	0
 753 008d 0C       		.uleb128 0xc
 754 008e 05       		.uleb128 0x5
 755 008f 00       		.byte	0
 756 0090 49       		.uleb128 0x49
 757 0091 13       		.uleb128 0x13
 758 0092 00       		.byte	0
 759 0093 00       		.byte	0
 760 0094 0D       		.uleb128 0xd
 761 0095 0F       		.uleb128 0xf
 762 0096 00       		.byte	0
 763 0097 0B       		.uleb128 0xb
 764 0098 0B       		.uleb128 0xb
 765 0099 49       		.uleb128 0x49
 766 009a 13       		.uleb128 0x13
 767 009b 00       		.byte	0
 768 009c 00       		.byte	0
 769 009d 0E       		.uleb128 0xe
 770 009e 2E       		.uleb128 0x2e
 771 009f 01       		.byte	0x1
 772 00a0 3F       		.uleb128 0x3f
 773 00a1 19       		.uleb128 0x19
 774 00a2 03       		.uleb128 0x3
 775 00a3 0E       		.uleb128 0xe
 776 00a4 3A       		.uleb128 0x3a
 777 00a5 0B       		.uleb128 0xb
 778 00a6 3B       		.uleb128 0x3b
 779 00a7 0B       		.uleb128 0xb
 780 00a8 27       		.uleb128 0x27
 781 00a9 19       		.uleb128 0x19
 782 00aa 20       		.uleb128 0x20
 783 00ab 0B       		.uleb128 0xb
 784 00ac 01       		.uleb128 0x1
 785 00ad 13       		.uleb128 0x13
 786 00ae 00       		.byte	0
 787 00af 00       		.byte	0
 788 00b0 0F       		.uleb128 0xf
 789 00b1 05       		.uleb128 0x5
 790 00b2 00       		.byte	0
 791 00b3 03       		.uleb128 0x3
 792 00b4 08       		.uleb128 0x8
 793 00b5 3A       		.uleb128 0x3a
 794 00b6 0B       		.uleb128 0xb
ARM GAS  /tmp/cc1yoGvr.s 			page 15


 795 00b7 3B       		.uleb128 0x3b
 796 00b8 0B       		.uleb128 0xb
 797 00b9 49       		.uleb128 0x49
 798 00ba 13       		.uleb128 0x13
 799 00bb 00       		.byte	0
 800 00bc 00       		.byte	0
 801 00bd 10       		.uleb128 0x10
 802 00be 2E       		.uleb128 0x2e
 803 00bf 01       		.byte	0x1
 804 00c0 03       		.uleb128 0x3
 805 00c1 0E       		.uleb128 0xe
 806 00c2 3A       		.uleb128 0x3a
 807 00c3 0B       		.uleb128 0xb
 808 00c4 3B       		.uleb128 0x3b
 809 00c5 0B       		.uleb128 0xb
 810 00c6 27       		.uleb128 0x27
 811 00c7 19       		.uleb128 0x19
 812 00c8 20       		.uleb128 0x20
 813 00c9 0B       		.uleb128 0xb
 814 00ca 01       		.uleb128 0x1
 815 00cb 13       		.uleb128 0x13
 816 00cc 00       		.byte	0
 817 00cd 00       		.byte	0
 818 00ce 11       		.uleb128 0x11
 819 00cf 2E       		.uleb128 0x2e
 820 00d0 01       		.byte	0x1
 821 00d1 31       		.uleb128 0x31
 822 00d2 13       		.uleb128 0x13
 823 00d3 11       		.uleb128 0x11
 824 00d4 01       		.uleb128 0x1
 825 00d5 12       		.uleb128 0x12
 826 00d6 06       		.uleb128 0x6
 827 00d7 40       		.uleb128 0x40
 828 00d8 18       		.uleb128 0x18
 829 00d9 9742     		.uleb128 0x2117
 830 00db 19       		.uleb128 0x19
 831 00dc 01       		.uleb128 0x1
 832 00dd 13       		.uleb128 0x13
 833 00de 00       		.byte	0
 834 00df 00       		.byte	0
 835 00e0 12       		.uleb128 0x12
 836 00e1 05       		.uleb128 0x5
 837 00e2 00       		.byte	0
 838 00e3 31       		.uleb128 0x31
 839 00e4 13       		.uleb128 0x13
 840 00e5 02       		.uleb128 0x2
 841 00e6 18       		.uleb128 0x18
 842 00e7 00       		.byte	0
 843 00e8 00       		.byte	0
 844 00e9 13       		.uleb128 0x13
 845 00ea 2E       		.uleb128 0x2e
 846 00eb 01       		.byte	0x1
 847 00ec 03       		.uleb128 0x3
 848 00ed 0E       		.uleb128 0xe
 849 00ee 3A       		.uleb128 0x3a
 850 00ef 0B       		.uleb128 0xb
 851 00f0 3B       		.uleb128 0x3b
ARM GAS  /tmp/cc1yoGvr.s 			page 16


 852 00f1 0B       		.uleb128 0xb
 853 00f2 27       		.uleb128 0x27
 854 00f3 19       		.uleb128 0x19
 855 00f4 11       		.uleb128 0x11
 856 00f5 01       		.uleb128 0x1
 857 00f6 12       		.uleb128 0x12
 858 00f7 06       		.uleb128 0x6
 859 00f8 40       		.uleb128 0x40
 860 00f9 18       		.uleb128 0x18
 861 00fa 9742     		.uleb128 0x2117
 862 00fc 19       		.uleb128 0x19
 863 00fd 01       		.uleb128 0x1
 864 00fe 13       		.uleb128 0x13
 865 00ff 00       		.byte	0
 866 0100 00       		.byte	0
 867 0101 14       		.uleb128 0x14
 868 0102 05       		.uleb128 0x5
 869 0103 00       		.byte	0
 870 0104 03       		.uleb128 0x3
 871 0105 08       		.uleb128 0x8
 872 0106 3A       		.uleb128 0x3a
 873 0107 0B       		.uleb128 0xb
 874 0108 3B       		.uleb128 0x3b
 875 0109 0B       		.uleb128 0xb
 876 010a 49       		.uleb128 0x49
 877 010b 13       		.uleb128 0x13
 878 010c 02       		.uleb128 0x2
 879 010d 18       		.uleb128 0x18
 880 010e 00       		.byte	0
 881 010f 00       		.byte	0
 882 0110 15       		.uleb128 0x15
 883 0111 34       		.uleb128 0x34
 884 0112 00       		.byte	0
 885 0113 03       		.uleb128 0x3
 886 0114 08       		.uleb128 0x8
 887 0115 3A       		.uleb128 0x3a
 888 0116 0B       		.uleb128 0xb
 889 0117 3B       		.uleb128 0x3b
 890 0118 0B       		.uleb128 0xb
 891 0119 49       		.uleb128 0x49
 892 011a 13       		.uleb128 0x13
 893 011b 02       		.uleb128 0x2
 894 011c 17       		.uleb128 0x17
 895 011d 00       		.byte	0
 896 011e 00       		.byte	0
 897 011f 16       		.uleb128 0x16
 898 0120 2E       		.uleb128 0x2e
 899 0121 01       		.byte	0x1
 900 0122 3F       		.uleb128 0x3f
 901 0123 19       		.uleb128 0x19
 902 0124 03       		.uleb128 0x3
 903 0125 0E       		.uleb128 0xe
 904 0126 3A       		.uleb128 0x3a
 905 0127 0B       		.uleb128 0xb
 906 0128 3B       		.uleb128 0x3b
 907 0129 0B       		.uleb128 0xb
 908 012a 27       		.uleb128 0x27
ARM GAS  /tmp/cc1yoGvr.s 			page 17


 909 012b 19       		.uleb128 0x19
 910 012c 11       		.uleb128 0x11
 911 012d 01       		.uleb128 0x1
 912 012e 12       		.uleb128 0x12
 913 012f 06       		.uleb128 0x6
 914 0130 40       		.uleb128 0x40
 915 0131 18       		.uleb128 0x18
 916 0132 9742     		.uleb128 0x2117
 917 0134 19       		.uleb128 0x19
 918 0135 01       		.uleb128 0x1
 919 0136 13       		.uleb128 0x13
 920 0137 00       		.byte	0
 921 0138 00       		.byte	0
 922 0139 17       		.uleb128 0x17
 923 013a 34       		.uleb128 0x34
 924 013b 00       		.byte	0
 925 013c 03       		.uleb128 0x3
 926 013d 08       		.uleb128 0x8
 927 013e 3A       		.uleb128 0x3a
 928 013f 0B       		.uleb128 0xb
 929 0140 3B       		.uleb128 0x3b
 930 0141 0B       		.uleb128 0xb
 931 0142 49       		.uleb128 0x49
 932 0143 13       		.uleb128 0x13
 933 0144 02       		.uleb128 0x2
 934 0145 18       		.uleb128 0x18
 935 0146 00       		.byte	0
 936 0147 00       		.byte	0
 937 0148 18       		.uleb128 0x18
 938 0149 1D       		.uleb128 0x1d
 939 014a 01       		.byte	0x1
 940 014b 31       		.uleb128 0x31
 941 014c 13       		.uleb128 0x13
 942 014d 52       		.uleb128 0x52
 943 014e 01       		.uleb128 0x1
 944 014f 55       		.uleb128 0x55
 945 0150 17       		.uleb128 0x17
 946 0151 58       		.uleb128 0x58
 947 0152 0B       		.uleb128 0xb
 948 0153 59       		.uleb128 0x59
 949 0154 0B       		.uleb128 0xb
 950 0155 01       		.uleb128 0x1
 951 0156 13       		.uleb128 0x13
 952 0157 00       		.byte	0
 953 0158 00       		.byte	0
 954 0159 19       		.uleb128 0x19
 955 015a 05       		.uleb128 0x5
 956 015b 00       		.byte	0
 957 015c 31       		.uleb128 0x31
 958 015d 13       		.uleb128 0x13
 959 015e 02       		.uleb128 0x2
 960 015f 17       		.uleb128 0x17
 961 0160 00       		.byte	0
 962 0161 00       		.byte	0
 963 0162 1A       		.uleb128 0x1a
 964 0163 898201   		.uleb128 0x4109
 965 0166 01       		.byte	0x1
ARM GAS  /tmp/cc1yoGvr.s 			page 18


 966 0167 11       		.uleb128 0x11
 967 0168 01       		.uleb128 0x1
 968 0169 31       		.uleb128 0x31
 969 016a 13       		.uleb128 0x13
 970 016b 00       		.byte	0
 971 016c 00       		.byte	0
 972 016d 1B       		.uleb128 0x1b
 973 016e 8A8201   		.uleb128 0x410a
 974 0171 00       		.byte	0
 975 0172 02       		.uleb128 0x2
 976 0173 18       		.uleb128 0x18
 977 0174 9142     		.uleb128 0x2111
 978 0176 18       		.uleb128 0x18
 979 0177 00       		.byte	0
 980 0178 00       		.byte	0
 981 0179 1C       		.uleb128 0x1c
 982 017a 34       		.uleb128 0x34
 983 017b 00       		.byte	0
 984 017c 03       		.uleb128 0x3
 985 017d 0E       		.uleb128 0xe
 986 017e 3A       		.uleb128 0x3a
 987 017f 0B       		.uleb128 0xb
 988 0180 3B       		.uleb128 0x3b
 989 0181 0B       		.uleb128 0xb
 990 0182 49       		.uleb128 0x49
 991 0183 13       		.uleb128 0x13
 992 0184 02       		.uleb128 0x2
 993 0185 18       		.uleb128 0x18
 994 0186 00       		.byte	0
 995 0187 00       		.byte	0
 996 0188 1D       		.uleb128 0x1d
 997 0189 34       		.uleb128 0x34
 998 018a 00       		.byte	0
 999 018b 03       		.uleb128 0x3
 1000 018c 0E       		.uleb128 0xe
 1001 018d 3A       		.uleb128 0x3a
 1002 018e 0B       		.uleb128 0xb
 1003 018f 3B       		.uleb128 0x3b
 1004 0190 05       		.uleb128 0x5
 1005 0191 49       		.uleb128 0x49
 1006 0192 13       		.uleb128 0x13
 1007 0193 3F       		.uleb128 0x3f
 1008 0194 19       		.uleb128 0x19
 1009 0195 3C       		.uleb128 0x3c
 1010 0196 19       		.uleb128 0x19
 1011 0197 00       		.byte	0
 1012 0198 00       		.byte	0
 1013 0199 00       		.byte	0
 1014              		.section	.debug_loc,"",%progbits
 1015              	.Ldebug_loc0:
 1016              	.LLST0:
 1017 0000 0E000000 		.4byte	.LVL2
 1018 0004 1A000000 		.4byte	.LVL3
 1019 0008 0100     		.2byte	0x1
 1020 000a 53       		.byte	0x53
 1021 000b 00000000 		.4byte	0
 1022 000f 00000000 		.4byte	0
ARM GAS  /tmp/cc1yoGvr.s 			page 19


 1023              	.LLST1:
 1024 0013 18000000 		.4byte	.LVL4
 1025 0017 34000000 		.4byte	.LVL6
 1026 001b 0300     		.2byte	0x3
 1027 001d 91       		.byte	0x91
 1028 001e 64       		.sleb128 -28
 1029 001f 9F       		.byte	0x9f
 1030 0020 34000000 		.4byte	.LVL6
 1031 0024 3D000000 		.4byte	.LVL7-1
 1032 0028 0100     		.2byte	0x1
 1033 002a 50       		.byte	0x50
 1034 002b 3D000000 		.4byte	.LVL7-1
 1035 002f 46000000 		.4byte	.LFE65
 1036 0033 0300     		.2byte	0x3
 1037 0035 91       		.byte	0x91
 1038 0036 64       		.sleb128 -28
 1039 0037 9F       		.byte	0x9f
 1040 0038 00000000 		.4byte	0
 1041 003c 00000000 		.4byte	0
 1042              	.LLST2:
 1043 0040 1C000000 		.4byte	.LVL5
 1044 0044 34000000 		.4byte	.LVL6
 1045 0048 0300     		.2byte	0x3
 1046 004a 91       		.byte	0x91
 1047 004b 64       		.sleb128 -28
 1048 004c 9F       		.byte	0x9f
 1049 004d 34000000 		.4byte	.LVL6
 1050 0051 3D000000 		.4byte	.LVL7-1
 1051 0055 0100     		.2byte	0x1
 1052 0057 50       		.byte	0x50
 1053 0058 3D000000 		.4byte	.LVL7-1
 1054 005c 46000000 		.4byte	.LFE65
 1055 0060 0300     		.2byte	0x3
 1056 0062 91       		.byte	0x91
 1057 0063 64       		.sleb128 -28
 1058 0064 9F       		.byte	0x9f
 1059 0065 00000000 		.4byte	0
 1060 0069 00000000 		.4byte	0
 1061              		.section	.debug_aranges,"",%progbits
 1062 0000 34000000 		.4byte	0x34
 1063 0004 0200     		.2byte	0x2
 1064 0006 00000000 		.4byte	.Ldebug_info0
 1065 000a 04       		.byte	0x4
 1066 000b 00       		.byte	0
 1067 000c 0000     		.2byte	0
 1068 000e 0000     		.2byte	0
 1069 0010 00000000 		.4byte	.LFB63
 1070 0014 0E000000 		.4byte	.LFE63-.LFB63
 1071 0018 00000000 		.4byte	.LFB64
 1072 001c 36000000 		.4byte	.LFE64-.LFB64
 1073 0020 00000000 		.4byte	.LFB65
 1074 0024 46000000 		.4byte	.LFE65-.LFB65
 1075 0028 00000000 		.4byte	.LFB66
 1076 002c 28000000 		.4byte	.LFE66-.LFB66
 1077 0030 00000000 		.4byte	0
 1078 0034 00000000 		.4byte	0
 1079              		.section	.debug_ranges,"",%progbits
ARM GAS  /tmp/cc1yoGvr.s 			page 20


 1080              	.Ldebug_ranges0:
 1081 0000 0E000000 		.4byte	.LBB8
 1082 0004 12000000 		.4byte	.LBE8
 1083 0008 18000000 		.4byte	.LBB18
 1084 000c 1C000000 		.4byte	.LBE18
 1085 0010 22000000 		.4byte	.LBB20
 1086 0014 32000000 		.4byte	.LBE20
 1087 0018 34000000 		.4byte	.LBB21
 1088 001c 36000000 		.4byte	.LBE21
 1089 0020 38000000 		.4byte	.LBB23
 1090 0024 3A000000 		.4byte	.LBE23
 1091 0028 00000000 		.4byte	0
 1092 002c 00000000 		.4byte	0
 1093 0030 12000000 		.4byte	.LBB14
 1094 0034 16000000 		.4byte	.LBE14
 1095 0038 1C000000 		.4byte	.LBB19
 1096 003c 22000000 		.4byte	.LBE19
 1097 0040 36000000 		.4byte	.LBB22
 1098 0044 38000000 		.4byte	.LBE22
 1099 0048 00000000 		.4byte	0
 1100 004c 00000000 		.4byte	0
 1101 0050 00000000 		.4byte	.LFB63
 1102 0054 0E000000 		.4byte	.LFE63
 1103 0058 00000000 		.4byte	.LFB64
 1104 005c 36000000 		.4byte	.LFE64
 1105 0060 00000000 		.4byte	.LFB65
 1106 0064 46000000 		.4byte	.LFE65
 1107 0068 00000000 		.4byte	.LFB66
 1108 006c 28000000 		.4byte	.LFE66
 1109 0070 00000000 		.4byte	0
 1110 0074 00000000 		.4byte	0
 1111              		.section	.debug_line,"",%progbits
 1112              	.Ldebug_line0:
 1113 0000 19020000 		.section	.debug_str,"MS",%progbits,1
 1113      02008B01 
 1113      00000201 
 1113      FB0E0D00 
 1113      01010101 
 1114              	.LASF30:
 1115 0000 6C617374 		.ascii	"last\000"
 1115      00
 1116              	.LASF36:
 1117 0005 2F6D6E74 		.ascii	"/mnt/c/Users/DQ Sullivan/Downloads/Convex/convex/co"
 1117      2F632F55 
 1117      73657273 
 1117      2F445120 
 1117      53756C6C 
 1118 0038 72746578 		.ascii	"rtex/projects/Vex2016 CyberBrains\000"
 1118      2F70726F 
 1118      6A656374 
 1118      732F5665 
 1118      78323031 
 1119              	.LASF23:
 1120 005a 50435352 		.ascii	"PCSR\000"
 1120      00
 1121              	.LASF6:
 1122 005f 5F5F696E 		.ascii	"__int32_t\000"
ARM GAS  /tmp/cc1yoGvr.s 			page 21


 1122      7433325F 
 1122      7400
 1123              	.LASF39:
 1124 0069 746D5F73 		.ascii	"tm_stop\000"
 1124      746F7000 
 1125              	.LASF28:
 1126 0071 73746172 		.ascii	"start\000"
 1126      7400
 1127              	.LASF35:
 1128 0077 2E2E2F2E 		.ascii	"../../../../ChibiOS_2.6.2/os/hal/src/tm.c\000"
 1128      2E2F2E2E 
 1128      2F2E2E2F 
 1128      43686962 
 1128      694F535F 
 1129              	.LASF20:
 1130 00a1 534C4545 		.ascii	"SLEEPCNT\000"
 1130      50434E54 
 1130      00
 1131              	.LASF29:
 1132 00aa 73746F70 		.ascii	"stop\000"
 1132      00
 1133              	.LASF10:
 1134 00af 6C6F6E67 		.ascii	"long long unsigned int\000"
 1134      206C6F6E 
 1134      6720756E 
 1134      7369676E 
 1134      65642069 
 1135              	.LASF2:
 1136 00c6 756E7369 		.ascii	"unsigned char\000"
 1136      676E6564 
 1136      20636861 
 1136      7200
 1137              	.LASF17:
 1138 00d4 43594343 		.ascii	"CYCCNT\000"
 1138      4E5400
 1139              	.LASF40:
 1140 00db 746D496E 		.ascii	"tmInit\000"
 1140      697400
 1141              	.LASF8:
 1142 00e2 6C6F6E67 		.ascii	"long unsigned int\000"
 1142      20756E73 
 1142      69676E65 
 1142      6420696E 
 1142      7400
 1143              	.LASF37:
 1144 00f4 746D4F62 		.ascii	"tmObjectInit\000"
 1144      6A656374 
 1144      496E6974 
 1144      00
 1145              	.LASF4:
 1146 0101 73686F72 		.ascii	"short unsigned int\000"
 1146      7420756E 
 1146      7369676E 
 1146      65642069 
 1146      6E7400
 1147              	.LASF18:
 1148 0114 43504943 		.ascii	"CPICNT\000"
ARM GAS  /tmp/cc1yoGvr.s 			page 22


 1148      4E5400
 1149              	.LASF41:
 1150 011b 49544D5F 		.ascii	"ITM_RxBuffer\000"
 1150      52784275 
 1150      66666572 
 1150      00
 1151              	.LASF22:
 1152 0128 464F4C44 		.ascii	"FOLDCNT\000"
 1152      434E5400 
 1153              	.LASF34:
 1154 0130 474E5520 		.ascii	"GNU C 4.8.2 -mcpu=cortex-m3 -mno-thumb-interwork -m"
 1154      4320342E 
 1154      382E3220 
 1154      2D6D6370 
 1154      753D636F 
 1155 0163 7468756D 		.ascii	"thumb -ggdb -O2 -fomit-frame-pointer -falign-functi"
 1155      62202D67 
 1155      67646220 
 1155      2D4F3220 
 1155      2D666F6D 
 1156 0196 6F6E733D 		.ascii	"ons=16 -ffunction-sections -fdata-sections -fno-com"
 1156      3136202D 
 1156      6666756E 
 1156      6374696F 
 1156      6E2D7365 
 1157 01c9 6D6F6E00 		.ascii	"mon\000"
 1158              	.LASF31:
 1159 01cd 776F7273 		.ascii	"worst\000"
 1159      7400
 1160              	.LASF7:
 1161 01d3 5F5F7569 		.ascii	"__uint32_t\000"
 1161      6E743332 
 1161      5F7400
 1162              	.LASF21:
 1163 01de 4C535543 		.ascii	"LSUCNT\000"
 1163      4E5400
 1164              	.LASF0:
 1165 01e5 756E7369 		.ascii	"unsigned int\000"
 1165      676E6564 
 1165      20696E74 
 1165      00
 1166              	.LASF26:
 1167 01f2 68616C72 		.ascii	"halrtcnt_t\000"
 1167      74636E74 
 1167      5F7400
 1168              	.LASF25:
 1169 01fd 63686172 		.ascii	"char\000"
 1169      00
 1170              	.LASF38:
 1171 0202 746D5F73 		.ascii	"tm_start\000"
 1171      74617274 
 1171      00
 1172              	.LASF16:
 1173 020b 4354524C 		.ascii	"CTRL\000"
 1173      00
 1174              	.LASF19:
 1175 0210 45584343 		.ascii	"EXCCNT\000"
ARM GAS  /tmp/cc1yoGvr.s 			page 23


 1175      4E5400
 1176              	.LASF11:
 1177 0217 696E7433 		.ascii	"int32_t\000"
 1177      325F7400 
 1178              	.LASF15:
 1179 021f 73697A65 		.ascii	"sizetype\000"
 1179      74797065 
 1179      00
 1180              	.LASF9:
 1181 0228 6C6F6E67 		.ascii	"long long int\000"
 1181      206C6F6E 
 1181      6720696E 
 1181      7400
 1182              	.LASF14:
 1183 0236 494F5245 		.ascii	"IOREG32\000"
 1183      47333200 
 1184              	.LASF33:
 1185 023e 6D656173 		.ascii	"measurement_offset\000"
 1185      7572656D 
 1185      656E745F 
 1185      6F666673 
 1185      657400
 1186              	.LASF3:
 1187 0251 73686F72 		.ascii	"short int\000"
 1187      7420696E 
 1187      7400
 1188              	.LASF24:
 1189 025b 434D785F 		.ascii	"CMx_DWT\000"
 1189      44575400 
 1190              	.LASF32:
 1191 0263 62657374 		.ascii	"best\000"
 1191      00
 1192              	.LASF12:
 1193 0268 75696E74 		.ascii	"uint32_t\000"
 1193      33325F74 
 1193      00
 1194              	.LASF5:
 1195 0271 6C6F6E67 		.ascii	"long int\000"
 1195      20696E74 
 1195      00
 1196              	.LASF1:
 1197 027a 7369676E 		.ascii	"signed char\000"
 1197      65642063 
 1197      68617200 
 1198              	.LASF27:
 1199 0286 54696D65 		.ascii	"TimeMeasurement\000"
 1199      4D656173 
 1199      7572656D 
 1199      656E7400 
 1200              	.LASF13:
 1201 0296 5F426F6F 		.ascii	"_Bool\000"
 1201      6C00
 1202              		.ident	"GCC: (4.8.2-14ubuntu1+6) 4.8.2"
ARM GAS  /tmp/cc1yoGvr.s 			page 24


DEFINED SYMBOLS
                            *ABS*:0000000000000000 tm.c
     /tmp/cc1yoGvr.s:19     .text.tm_start:0000000000000000 $t
     /tmp/cc1yoGvr.s:24     .text.tm_start:0000000000000000 tm_start
     /tmp/cc1yoGvr.s:43     .text.tm_stop:0000000000000000 $t
     /tmp/cc1yoGvr.s:48     .text.tm_stop:0000000000000000 tm_stop
     /tmp/cc1yoGvr.s:250    .bss.measurement_offset:0000000000000000 .LANCHOR0
     /tmp/cc1yoGvr.s:102    .text.tmInit:0000000000000000 $t
     /tmp/cc1yoGvr.s:108    .text.tmInit:0000000000000000 tmInit
     /tmp/cc1yoGvr.s:204    .text.tmObjectInit:0000000000000000 $t
     /tmp/cc1yoGvr.s:210    .text.tmObjectInit:0000000000000000 tmObjectInit
     /tmp/cc1yoGvr.s:249    .bss.measurement_offset:0000000000000000 $d
     /tmp/cc1yoGvr.s:253    .bss.measurement_offset:0000000000000000 measurement_offset
                     .debug_frame:0000000000000010 $d

NO UNDEFINED SYMBOLS
