ARM GAS  /tmp/ccDnWTRu.s 			page 1


   1              		.syntax unified
   2              		.cpu cortex-m3
   3              		.fpu softvfp
   4              		.eabi_attribute 20, 1
   5              		.eabi_attribute 21, 1
   6              		.eabi_attribute 23, 3
   7              		.eabi_attribute 24, 1
   8              		.eabi_attribute 25, 1
   9              		.eabi_attribute 26, 1
  10              		.eabi_attribute 30, 2
  11              		.eabi_attribute 34, 1
  12              		.eabi_attribute 18, 4
  13              		.thumb
  14              		.file	"vexaudio.c"
  15              		.text
  16              	.Ltext0:
  17              		.cfi_sections	.debug_frame
  18              		.global	__aeabi_i2f
  19              		.global	__aeabi_fmul
  20              		.global	__aeabi_fadd
  21              		.global	__aeabi_f2uiz
  22              		.section	.text.VSL_CreateSineWave.part.0,"ax",%progbits
  23              		.align	2
  24              		.p2align 4,,15
  25              		.thumb
  26              		.thumb_func
  27              		.type	VSL_CreateSineWave.part.0, %function
  28              	VSL_CreateSineWave.part.0:
  29              	.LFB79:
  30              		.file 1 "../../fw/vexaudio.c"
  31              		.loc 1 522 0
  32              		.cfi_startproc
  33              		@ args = 0, pretend = 0, frame = 0
  34              		@ frame_needed = 0, uses_anonymous_args = 0
  35              	.LVL0:
  36 0000 F8B5     		push	{r3, r4, r5, r6, r7, lr}
  37              		.cfi_def_cfa_offset 24
  38              		.cfi_offset 3, -24
  39              		.cfi_offset 4, -20
  40              		.cfi_offset 5, -16
  41              		.cfi_offset 6, -12
  42              		.cfi_offset 7, -8
  43              		.cfi_offset 14, -4
  44 0002 C000     		lsls	r0, r0, #3
  45              	.LVL1:
  46 0004 FFF7FEFF 		bl	__aeabi_i2f
  47              	.LVL2:
  48 0008 094C     		ldr	r4, .L5
  49 000a 0A4E     		ldr	r6, .L5+4
  50 000c 0546     		mov	r5, r0
  51 000e 04F18007 		add	r7, r4, #128
  52              	.LVL3:
  53              	.L3:
  54              		.loc 1 540 0
  55 0012 54F8041F 		ldr	r1, [r4, #4]!	@ float
  56              	.LVL4:
  57 0016 2846     		mov	r0, r5
ARM GAS  /tmp/ccDnWTRu.s 			page 2


  58 0018 FFF7FEFF 		bl	__aeabi_fmul
  59              	.LVL5:
  60 001c 2946     		mov	r1, r5
  61 001e FFF7FEFF 		bl	__aeabi_fadd
  62              	.LVL6:
  63              		.loc 1 541 0
  64 0022 FFF7FEFF 		bl	__aeabi_f2uiz
  65              	.LVL7:
  66              		.loc 1 533 0
  67 0026 BC42     		cmp	r4, r7
  68              		.loc 1 541 0
  69 0028 26F8020F 		strh	r0, [r6, #2]!	@ movhi
  70              		.loc 1 533 0
  71 002c F1D1     		bne	.L3
  72              		.loc 1 543 0
  73 002e F8BD     		pop	{r3, r4, r5, r6, r7, pc}
  74              	.L6:
  75              		.align	2
  76              	.L5:
  77 0030 FCFFFFFF 		.word	.LANCHOR0-4
  78 0034 FEFFFFFF 		.word	.LANCHOR1-2
  79              		.cfi_endproc
  80              	.LFE79:
  81              		.size	VSL_CreateSineWave.part.0, .-VSL_CreateSineWave.part.0
  82 0038 AFF30080 		.section	.text.vexAudioStopSound,"ax",%progbits
  82      AFF30080 
  83              		.align	2
  84              		.p2align 4,,15
  85              		.global	vexAudioStopSound
  86              		.thumb
  87              		.thumb_func
  88              		.type	vexAudioStopSound, %function
  89              	vexAudioStopSound:
  90              	.LFB66:
  91              		.loc 1 237 0
  92              		.cfi_startproc
  93              		@ args = 0, pretend = 0, frame = 0
  94              		@ frame_needed = 0, uses_anonymous_args = 0
  95              		@ link register save eliminated.
  96 0000 30B4     		push	{r4, r5}
  97              		.cfi_def_cfa_offset 8
  98              		.cfi_offset 4, -8
  99              		.cfi_offset 5, -4
 100              	.LBB17:
 101              	.LBB18:
 102              		.loc 1 356 0
 103 0002 40F20003 		movw	r3, #:lower16:.LANCHOR4
 104 0006 C0F20003 		movt	r3, #:upper16:.LANCHOR4
 105 000a 1D68     		ldr	r5, [r3]
 106 000c 40F20002 		movw	r2, #:lower16:.LANCHOR3
 107              	.LBE18:
 108              	.LBE17:
 109              		.loc 1 239 0
 110 0010 40F20003 		movw	r3, #:lower16:.LANCHOR2
 111 0014 0024     		movs	r4, #0
 112              		.loc 1 243 0
 113 0016 40F20000 		movw	r0, #:lower16:.LANCHOR5
ARM GAS  /tmp/ccDnWTRu.s 			page 3


 114              	.LBB21:
 115              	.LBB19:
 116              		.loc 1 356 0
 117 001a C0F20002 		movt	r2, #:upper16:.LANCHOR3
 118              	.LBE19:
 119              	.LBE21:
 120              		.loc 1 239 0
 121 001e C0F20003 		movt	r3, #:upper16:.LANCHOR2
 122              		.loc 1 243 0
 123 0022 2146     		mov	r1, r4
 124              	.LBB22:
 125              	.LBB20:
 126              		.loc 1 356 0
 127 0024 1560     		str	r5, [r2]
 128              	.LBE20:
 129              	.LBE22:
 130              		.loc 1 239 0
 131 0026 1C60     		str	r4, [r3]
 132              		.loc 1 243 0
 133 0028 C0F20000 		movt	r0, #:upper16:.LANCHOR5
 134              		.loc 1 244 0
 135 002c 30BC     		pop	{r4, r5}
 136              		.loc 1 243 0
 137 002e FFF7FEBF 		b	chSemReset
 138              	.LVL8:
 139              		.cfi_endproc
 140              	.LFE66:
 141              		.size	vexAudioStopSound, .-vexAudioStopSound
 142 0032 00BFAFF3 		.section	.text.vexAudioInitChipToneSong,"ax",%progbits
 142      0080AFF3 
 142      0080AFF3 
 142      0080
 143              		.align	2
 144              		.p2align 4,,15
 145              		.global	vexAudioInitChipToneSong
 146              		.thumb
 147              		.thumb_func
 148              		.type	vexAudioInitChipToneSong, %function
 149              	vexAudioInitChipToneSong:
 150              	.LFB67:
 151              		.loc 1 272 0
 152              		.cfi_startproc
 153              		@ args = 0, pretend = 0, frame = 0
 154              		@ frame_needed = 0, uses_anonymous_args = 0
 155              	.LVL9:
 156 0000 F8B5     		push	{r3, r4, r5, r6, r7, lr}
 157              		.cfi_def_cfa_offset 24
 158              		.cfi_offset 3, -24
 159              		.cfi_offset 4, -20
 160              		.cfi_offset 5, -16
 161              		.cfi_offset 6, -12
 162              		.cfi_offset 7, -8
 163              		.cfi_offset 14, -4
 164              		.loc 1 277 0
 165 0002 40F20006 		movw	r6, #:lower16:.LANCHOR6
 166 0006 C0F20006 		movt	r6, #:upper16:.LANCHOR6
 167 000a 3368     		ldr	r3, [r6]
ARM GAS  /tmp/ccDnWTRu.s 			page 4


 168              		.loc 1 279 0
 169 000c 40F20005 		movw	r5, #:lower16:.LANCHOR7
 170              		.loc 1 272 0
 171 0010 0446     		mov	r4, r0
 172              		.loc 1 279 0
 173 0012 C0F20005 		movt	r5, #:upper16:.LANCHOR7
 174              		.loc 1 277 0
 175 0016 53B3     		cbz	r3, .L9
 176              		.loc 1 279 0
 177 0018 2A68     		ldr	r2, [r5]
 178 001a 8242     		cmp	r2, r0
 179 001c 22DB     		blt	.L22
 180              		.loc 1 291 0
 181 001e 40F20007 		movw	r7, #:lower16:.LANCHOR4
 182              		.loc 1 293 0
 183 0022 40F20006 		movw	r6, #:lower16:.LANCHOR3
 184              		.loc 1 294 0
 185 0026 40F20001 		movw	r1, #:lower16:.LANCHOR8
 186              		.loc 1 291 0
 187 002a 0022     		movs	r2, #0
 188 002c C0F20007 		movt	r7, #:upper16:.LANCHOR4
 189              		.loc 1 293 0
 190 0030 C0F20006 		movt	r6, #:upper16:.LANCHOR3
 191              		.loc 1 294 0
 192 0034 C0F20001 		movt	r1, #:upper16:.LANCHOR8
 193              		.loc 1 291 0
 194 0038 3A60     		str	r2, [r7]
 195              		.loc 1 292 0
 196 003a 2A60     		str	r2, [r5]
 197              		.loc 1 293 0
 198 003c 3260     		str	r2, [r6]
 199              		.loc 1 294 0
 200 003e 0A60     		str	r2, [r1]
 201              	.LVL10:
 202              	.L15:
 203              		.loc 1 301 0 discriminator 1
 204 0040 002C     		cmp	r4, #0
 205 0042 C2BF     		ittt	gt
 206 0044 0022     		movgt	r2, #0
 207 0046 0833     		addgt	r3, r3, #8
 208              	.LVL11:
 209              		.loc 1 303 0 discriminator 1
 210 0048 1146     		movgt	r1, r2
 211              		.loc 1 301 0 discriminator 1
 212 004a 08DD     		ble	.L13
 213              	.LVL12:
 214              	.L14:
 215              		.loc 1 301 0 is_stmt 0 discriminator 2
 216 004c 0132     		adds	r2, r2, #1
 217              	.LVL13:
 218 004e A242     		cmp	r2, r4
 219              		.loc 1 303 0 is_stmt 1 discriminator 2
 220 0050 43F8081C 		str	r1, [r3, #-8]
 221              		.loc 1 307 0 discriminator 2
 222 0054 43F8041C 		str	r1, [r3, #-4]
 223 0058 03F10803 		add	r3, r3, #8
 224              	.LVL14:
ARM GAS  /tmp/ccDnWTRu.s 			page 5


 225              		.loc 1 301 0 discriminator 2
 226 005c F6D1     		bne	.L14
 227              	.LVL15:
 228              	.L13:
 229              		.loc 1 309 0
 230 005e 2C60     		str	r4, [r5]
 231              		.loc 1 311 0
 232 0060 0120     		movs	r0, #1
 233 0062 F8BD     		pop	{r3, r4, r5, r6, r7, pc}
 234              	.LVL16:
 235              	.L22:
 236              		.loc 1 281 0
 237 0064 1846     		mov	r0, r3
 238              	.LVL17:
 239 0066 FFF7FEFF 		bl	chHeapFree
 240              	.LVL18:
 241              		.loc 1 282 0
 242 006a 0023     		movs	r3, #0
 243 006c 3360     		str	r3, [r6]
 244              	.L9:
 245              		.loc 1 288 0
 246 006e 611C     		adds	r1, r4, #1
 247 0070 C900     		lsls	r1, r1, #3
 248 0072 0020     		movs	r0, #0
 249 0074 FFF7FEFF 		bl	chHeapAlloc
 250              	.LVL19:
 251              		.loc 1 291 0
 252 0078 40F20007 		movw	r7, #:lower16:.LANCHOR4
 253              		.loc 1 293 0
 254 007c 40F20001 		movw	r1, #:lower16:.LANCHOR3
 255              		.loc 1 294 0
 256 0080 40F20003 		movw	r3, #:lower16:.LANCHOR8
 257              		.loc 1 291 0
 258 0084 0022     		movs	r2, #0
 259              		.loc 1 294 0
 260 0086 C0F20003 		movt	r3, #:upper16:.LANCHOR8
 261              		.loc 1 291 0
 262 008a C0F20007 		movt	r7, #:upper16:.LANCHOR4
 263              		.loc 1 293 0
 264 008e C0F20001 		movt	r1, #:upper16:.LANCHOR3
 265              		.loc 1 294 0
 266 0092 1A60     		str	r2, [r3]
 267              		.loc 1 288 0
 268 0094 3060     		str	r0, [r6]
 269              		.loc 1 291 0
 270 0096 3A60     		str	r2, [r7]
 271              		.loc 1 292 0
 272 0098 2A60     		str	r2, [r5]
 273              		.loc 1 293 0
 274 009a 0A60     		str	r2, [r1]
 275 009c 0346     		mov	r3, r0
 276              		.loc 1 297 0
 277 009e 0028     		cmp	r0, #0
 278 00a0 CED1     		bne	.L15
 279 00a2 F8BD     		pop	{r3, r4, r5, r6, r7, pc}
 280              		.cfi_endproc
 281              	.LFE67:
ARM GAS  /tmp/ccDnWTRu.s 			page 6


 282              		.size	vexAudioInitChipToneSong, .-vexAudioInitChipToneSong
 283 00a4 AFF30080 		.section	.text.vexAudioDeinitChipToneSong,"ax",%progbits
 283      AFF30080 
 283      AFF30080 
 284              		.align	2
 285              		.p2align 4,,15
 286              		.global	vexAudioDeinitChipToneSong
 287              		.thumb
 288              		.thumb_func
 289              		.type	vexAudioDeinitChipToneSong, %function
 290              	vexAudioDeinitChipToneSong:
 291              	.LFB68:
 292              		.loc 1 323 0
 293              		.cfi_startproc
 294              		@ args = 0, pretend = 0, frame = 0
 295              		@ frame_needed = 0, uses_anonymous_args = 0
 296 0000 10B5     		push	{r4, lr}
 297              		.cfi_def_cfa_offset 8
 298              		.cfi_offset 4, -8
 299              		.cfi_offset 14, -4
 300              		.loc 1 325 0
 301 0002 40F20004 		movw	r4, #:lower16:.LANCHOR6
 302 0006 C0F20004 		movt	r4, #:upper16:.LANCHOR6
 303 000a 2068     		ldr	r0, [r4]
 304 000c 40B1     		cbz	r0, .L23
 305              		.loc 1 327 0
 306 000e FFF7FEFF 		bl	chHeapFree
 307              	.LVL20:
 308              		.loc 1 329 0
 309 0012 40F20003 		movw	r3, #:lower16:.LANCHOR7
 310              		.loc 1 328 0
 311 0016 0022     		movs	r2, #0
 312              		.loc 1 329 0
 313 0018 C0F20003 		movt	r3, #:upper16:.LANCHOR7
 314 001c 1A60     		str	r2, [r3]
 315              		.loc 1 328 0
 316 001e 2260     		str	r2, [r4]
 317              	.L23:
 318 0020 10BD     		pop	{r4, pc}
 319              		.cfi_endproc
 320              	.LFE68:
 321              		.size	vexAudioDeinitChipToneSong, .-vexAudioDeinitChipToneSong
 322 0022 00BFAFF3 		.section	.text.vexAudioStopChipToneSong,"ax",%progbits
 322      0080AFF3 
 322      0080AFF3 
 322      0080
 323              		.align	2
 324              		.p2align 4,,15
 325              		.global	vexAudioStopChipToneSong
 326              		.thumb
 327              		.thumb_func
 328              		.type	vexAudioStopChipToneSong, %function
 329              	vexAudioStopChipToneSong:
 330              	.LFB70:
 331              		.loc 1 355 0
 332              		.cfi_startproc
 333              		@ args = 0, pretend = 0, frame = 0
ARM GAS  /tmp/ccDnWTRu.s 			page 7


 334              		@ frame_needed = 0, uses_anonymous_args = 0
 335              		@ link register save eliminated.
 336              		.loc 1 356 0
 337 0000 40F20003 		movw	r3, #:lower16:.LANCHOR4
 338 0004 C0F20003 		movt	r3, #:upper16:.LANCHOR4
 339 0008 1A68     		ldr	r2, [r3]
 340 000a 40F20003 		movw	r3, #:lower16:.LANCHOR3
 341 000e C0F20003 		movt	r3, #:upper16:.LANCHOR3
 342 0012 1A60     		str	r2, [r3]
 343 0014 7047     		bx	lr
 344              		.cfi_endproc
 345              	.LFE70:
 346              		.size	vexAudioStopChipToneSong, .-vexAudioStopChipToneSong
 347 0016 00BFAFF3 		.section	.text.vexAudioSetNextChipTone,"ax",%progbits
 347      0080AFF3 
 347      0080
 348              		.align	2
 349              		.p2align 4,,15
 350              		.global	vexAudioSetNextChipTone
 351              		.thumb
 352              		.thumb_func
 353              		.type	vexAudioSetNextChipTone, %function
 354              	vexAudioSetNextChipTone:
 355              	.LFB71:
 356              		.loc 1 368 0
 357              		.cfi_startproc
 358              		@ args = 0, pretend = 0, frame = 0
 359              		@ frame_needed = 0, uses_anonymous_args = 0
 360              		@ link register save eliminated.
 361              	.LVL21:
 362              		.loc 1 371 0
 363 0000 40F20003 		movw	r3, #:lower16:.LANCHOR6
 364 0004 C0F20003 		movt	r3, #:upper16:.LANCHOR6
 365              		.loc 1 368 0
 366 0008 F0B4     		push	{r4, r5, r6, r7}
 367              		.cfi_def_cfa_offset 16
 368              		.cfi_offset 4, -16
 369              		.cfi_offset 5, -12
 370              		.cfi_offset 6, -8
 371              		.cfi_offset 7, -4
 372              		.loc 1 371 0
 373 000a 1E68     		ldr	r6, [r3]
 374 000c 9EB1     		cbz	r6, .L29
 375              		.loc 1 373 0
 376 000e 40F20003 		movw	r3, #:lower16:.LANCHOR4
 377 0012 40F20005 		movw	r5, #:lower16:.LANCHOR7
 378 0016 C0F20003 		movt	r3, #:upper16:.LANCHOR4
 379 001a C0F20005 		movt	r5, #:upper16:.LANCHOR7
 380 001e 1C68     		ldr	r4, [r3]
 381 0020 2D68     		ldr	r5, [r5]
 382 0022 AC42     		cmp	r4, r5
 383 0024 07DA     		bge	.L29
 384              		.loc 1 375 0
 385 0026 06EBC405 		add	r5, r6, r4, lsl #3
 386              	.LVL22:
 387              		.loc 1 378 0
 388 002a 34B1     		cbz	r4, .L35
ARM GAS  /tmp/ccDnWTRu.s 			page 8


 389              	.L31:
 390              		.loc 1 387 0
 391 002c 611C     		adds	r1, r4, #1
 392              	.LVL23:
 393              		.loc 1 381 0
 394 002e 46F83400 		str	r0, [r6, r4, lsl #3]
 395              		.loc 1 387 0
 396 0032 1960     		str	r1, [r3]
 397              		.loc 1 385 0
 398 0034 6A60     		str	r2, [r5, #4]
 399              	.LVL24:
 400              	.L29:
 401              		.loc 1 390 0
 402 0036 F0BC     		pop	{r4, r5, r6, r7}
 403 0038 7047     		bx	lr
 404              	.LVL25:
 405              	.L35:
 406              		.loc 1 379 0
 407 003a 40F20007 		movw	r7, #:lower16:.LANCHOR9
 408 003e C0F20007 		movt	r7, #:upper16:.LANCHOR9
 409 0042 3960     		str	r1, [r7]
 410 0044 F2E7     		b	.L31
 411              		.cfi_endproc
 412              	.LFE71:
 413              		.size	vexAudioSetNextChipTone, .-vexAudioSetNextChipTone
 414 0046 00BFAFF3 		.section	.text.vexAudioDebugChipTone,"ax",%progbits
 414      0080AFF3 
 414      0080
 415              		.align	2
 416              		.p2align 4,,15
 417              		.global	vexAudioDebugChipTone
 418              		.thumb
 419              		.thumb_func
 420              		.type	vexAudioDebugChipTone, %function
 421              	vexAudioDebugChipTone:
 422              	.LFB72:
 423              		.loc 1 398 0
 424              		.cfi_startproc
 425              		@ args = 0, pretend = 0, frame = 0
 426              		@ frame_needed = 0, uses_anonymous_args = 0
 427 0000 F8B5     		push	{r3, r4, r5, r6, r7, lr}
 428              		.cfi_def_cfa_offset 24
 429              		.cfi_offset 3, -24
 430              		.cfi_offset 4, -20
 431              		.cfi_offset 5, -16
 432              		.cfi_offset 6, -12
 433              		.cfi_offset 7, -8
 434              		.cfi_offset 14, -4
 435              		.loc 1 402 0
 436 0002 40F20006 		movw	r6, #:lower16:.LANCHOR6
 437 0006 C0F20006 		movt	r6, #:upper16:.LANCHOR6
 438 000a 3268     		ldr	r2, [r6]
 439 000c EAB1     		cbz	r2, .L36
 440              	.LVL26:
 441              		.loc 1 404 0 discriminator 1
 442 000e 40F20005 		movw	r5, #:lower16:.LANCHOR7
 443 0012 C0F20005 		movt	r5, #:upper16:.LANCHOR7
ARM GAS  /tmp/ccDnWTRu.s 			page 9


 444 0016 2B68     		ldr	r3, [r5]
 445 0018 002B     		cmp	r3, #0
 446 001a 16DD     		ble	.L36
 447 001c 40F20007 		movw	r7, #:lower16:.LANCHOR9
 448 0020 C0F20007 		movt	r7, #:upper16:.LANCHOR9
 449              		.loc 1 404 0 is_stmt 0
 450 0024 0024     		movs	r4, #0
 451 0026 00E0     		b	.L39
 452              	.LVL27:
 453              	.L40:
 454 0028 3268     		ldr	r2, [r6]
 455              	.LVL28:
 456              	.L39:
 457              		.loc 1 406 0 is_stmt 1 discriminator 2
 458 002a 02EBC403 		add	r3, r2, r4, lsl #3
 459              	.LVL29:
 460              		.loc 1 411 0 discriminator 2
 461 002e 40F20000 		movw	r0, #:lower16:.LC0
 462 0032 52F83410 		ldr	r1, [r2, r4, lsl #3]
 463 0036 5B68     		ldr	r3, [r3, #4]
 464              	.LVL30:
 465 0038 C0F20000 		movt	r0, #:upper16:.LC0
 466 003c 3A68     		ldr	r2, [r7]
 467              	.LVL31:
 468 003e FFF7FEFF 		bl	vex_printf
 469              	.LVL32:
 470              		.loc 1 404 0 discriminator 2
 471 0042 2B68     		ldr	r3, [r5]
 472 0044 0134     		adds	r4, r4, #1
 473              	.LVL33:
 474 0046 A342     		cmp	r3, r4
 475 0048 EEDC     		bgt	.L40
 476              	.LVL34:
 477              	.L36:
 478 004a F8BD     		pop	{r3, r4, r5, r6, r7, pc}
 479              		.cfi_endproc
 480              	.LFE72:
 481              		.size	vexAudioDebugChipTone, .-vexAudioDebugChipTone
 482 004c AFF30080 		.section	.text.VSL_Factorize,"ax",%progbits
 483              		.align	2
 484              		.p2align 4,,15
 485              		.global	VSL_Factorize
 486              		.thumb
 487              		.thumb_func
 488              		.type	VSL_Factorize, %function
 489              	VSL_Factorize:
 490              	.LFB74:
 491              		.loc 1 472 0
 492              		.cfi_startproc
 493              		@ args = 0, pretend = 0, frame = 0
 494              		@ frame_needed = 0, uses_anonymous_args = 0
 495              		@ link register save eliminated.
 496              	.LVL35:
 497              		.loc 1 475 0
 498 0000 0123     		movs	r3, #1
 499              		.loc 1 477 0
 500 0002 9842     		cmp	r0, r3
ARM GAS  /tmp/ccDnWTRu.s 			page 10


 501              		.loc 1 472 0
 502 0004 30B4     		push	{r4, r5}
 503              		.cfi_def_cfa_offset 8
 504              		.cfi_offset 4, -8
 505              		.cfi_offset 5, -4
 506              		.loc 1 475 0
 507 0006 1360     		str	r3, [r2]
 508 0008 0B60     		str	r3, [r1]
 509              		.loc 1 477 0
 510 000a 1FDD     		ble	.L41
 511              		.loc 1 482 0 discriminator 1
 512 000c 0228     		cmp	r0, #2
 513 000e 1FD0     		beq	.L49
 514              		.loc 1 482 0 is_stmt 0
 515 0010 0223     		movs	r3, #2
 516 0012 0BE0     		b	.L48
 517              	.LVL36:
 518              	.L51:
 519              		.loc 1 487 0 is_stmt 1
 520 0014 0868     		ldr	r0, [r1]
 521              	.LVL37:
 522 0016 00FB03F0 		mul	r0, r0, r3
 523 001a FF28     		cmp	r0, #255
 524              		.loc 1 490 0
 525 001c C9BF     		itett	gt
 526 001e 1068     		ldrgt	r0, [r2]
 527              		.loc 1 488 0
 528 0020 0860     		strle	r0, [r1]
 529              		.loc 1 490 0
 530 0022 5843     		mulgt	r0, r3, r0
 531 0024 1060     		strgt	r0, [r2]
 532              		.loc 1 492 0
 533 0026 2046     		mov	r0, r4
 534              	.LVL38:
 535              		.loc 1 482 0
 536 0028 8342     		cmp	r3, r0
 537 002a 0BDA     		bge	.L43
 538              	.LVL39:
 539              	.L48:
 540              		.loc 1 485 0
 541 002c 90FBF3F4 		sdiv	r4, r0, r3
 542 0030 03FB1405 		mls	r5, r3, r4, r0
 543 0034 002D     		cmp	r5, #0
 544 0036 EDD0     		beq	.L51
 545              		.loc 1 497 0
 546 0038 022B     		cmp	r3, #2
 547              		.loc 1 500 0
 548 003a 14BF     		ite	ne
 549 003c 0233     		addne	r3, r3, #2
 550              	.LVL40:
 551              		.loc 1 498 0
 552 003e 0323     		moveq	r3, #3
 553              	.LVL41:
 554              		.loc 1 482 0
 555 0040 8342     		cmp	r3, r0
 556 0042 F3DB     		blt	.L48
 557              	.LVL42:
ARM GAS  /tmp/ccDnWTRu.s 			page 11


 558              	.L43:
 559              		.loc 1 504 0
 560 0044 1168     		ldr	r1, [r2]
 561              	.LVL43:
 562 0046 03FB01F3 		mul	r3, r3, r1
 563 004a 1360     		str	r3, [r2]
 564              	.L41:
 565              		.loc 1 505 0
 566 004c 30BC     		pop	{r4, r5}
 567 004e 7047     		bx	lr
 568              	.LVL44:
 569              	.L49:
 570              		.loc 1 482 0
 571 0050 0346     		mov	r3, r0
 572 0052 F7E7     		b	.L43
 573              		.cfi_endproc
 574              	.LFE74:
 575              		.size	VSL_Factorize, .-VSL_Factorize
 576 0054 AFF30080 		.section	.text.VSL_CreateSineWave,"ax",%progbits
 576      AFF30080 
 576      AFF30080 
 577              		.align	2
 578              		.p2align 4,,15
 579              		.global	VSL_CreateSineWave
 580              		.thumb
 581              		.thumb_func
 582              		.type	VSL_CreateSineWave, %function
 583              	VSL_CreateSineWave:
 584              	.LFB75:
 585              		.loc 1 523 0
 586              		.cfi_startproc
 587              		@ args = 0, pretend = 0, frame = 0
 588              		@ frame_needed = 0, uses_anonymous_args = 0
 589              		@ link register save eliminated.
 590              	.LVL45:
 591              		.loc 1 529 0
 592 0000 FF28     		cmp	r0, #255
 593 0002 01D8     		bhi	.L52
 594 0004 FFF7FEBF 		b	VSL_CreateSineWave.part.0
 595              	.LVL46:
 596              	.L52:
 597 0008 7047     		bx	lr
 598              		.cfi_endproc
 599              	.LFE75:
 600              		.size	VSL_CreateSineWave, .-VSL_CreateSineWave
 601 000a 00BFAFF3 		.section	.text.VSL_InitTimer,"ax",%progbits
 601      0080
 602              		.align	2
 603              		.p2align 4,,15
 604              		.global	VSL_InitTimer
 605              		.thumb
 606              		.thumb_func
 607              		.type	VSL_InitTimer, %function
 608              	VSL_InitTimer:
 609              	.LFB76:
 610              		.loc 1 555 0
 611              		.cfi_startproc
ARM GAS  /tmp/ccDnWTRu.s 			page 12


 612              		@ args = 0, pretend = 0, frame = 0
 613              		@ frame_needed = 0, uses_anonymous_args = 0
 614              		@ link register save eliminated.
 615              	.LVL47:
 616              		.loc 1 562 0
 617 0000 4FF48052 		mov	r2, #4096
 618 0004 C4F20202 		movt	r2, 16386
 619              		.loc 1 555 0
 620 0008 10B4     		push	{r4}
 621              		.cfi_def_cfa_offset 4
 622              		.cfi_offset 4, -4
 623              		.loc 1 562 0
 624 000a D469     		ldr	r4, [r2, #28]
 625              		.loc 1 565 0
 626 000c 4FF4A053 		mov	r3, #5120
 627              		.loc 1 562 0
 628 0010 44F02004 		orr	r4, r4, #32
 629 0014 D461     		str	r4, [r2, #28]
 630              		.loc 1 565 0
 631 0016 C4F20003 		movt	r3, 16384
 632 001a 1A88     		ldrh	r2, [r3]
 633              		.loc 1 568 0
 634 001c 0028     		cmp	r0, #0
 635 001e 18BF     		it	ne
 636 0020 0029     		cmpne	r1, #0
 637              		.loc 1 565 0
 638 0022 22F00102 		bic	r2, r2, #1
 639 0026 4FEA0242 		lsl	r2, r2, #16
 640 002a 4FEA1242 		lsr	r2, r2, #16
 641 002e 1A80     		strh	r2, [r3]	@ movhi
 642              		.loc 1 568 0
 643 0030 18D0     		beq	.L54
 644              	.LVL48:
 645              	.LBB25:
 646              	.LBB26:
 647              		.loc 1 572 0
 648 0032 1A88     		ldrh	r2, [r3]
 649              	.LVL49:
 650              		.loc 1 579 0
 651 0034 0139     		subs	r1, r1, #1
 652              	.LVL50:
 653              		.loc 1 574 0
 654 0036 22F44072 		bic	r2, r2, #768
 655              	.LVL51:
 656              		.loc 1 581 0
 657 003a 0138     		subs	r0, r0, #1
 658              	.LVL52:
 659              		.loc 1 574 0
 660 003c 1204     		lsls	r2, r2, #16
 661 003e 120C     		lsrs	r2, r2, #16
 662              	.LVL53:
 663              		.loc 1 579 0
 664 0040 89B2     		uxth	r1, r1
 665              	.LVL54:
 666              		.loc 1 581 0
 667 0042 80B2     		uxth	r0, r0
 668              	.LVL55:
ARM GAS  /tmp/ccDnWTRu.s 			page 13


 669              		.loc 1 584 0
 670 0044 0124     		movs	r4, #1
 671              		.loc 1 576 0
 672 0046 1A80     		strh	r2, [r3]	@ movhi
 673              		.loc 1 579 0
 674 0048 9985     		strh	r1, [r3, #44]	@ movhi
 675              		.loc 1 581 0
 676 004a 1885     		strh	r0, [r3, #40]	@ movhi
 677              		.loc 1 584 0
 678 004c 9C82     		strh	r4, [r3, #20]	@ movhi
 679              		.loc 1 588 0
 680 004e 9A88     		ldrh	r2, [r3, #4]
 681              	.LVL56:
 682 0050 22F07002 		bic	r2, r2, #112
 683 0054 1204     		lsls	r2, r2, #16
 684 0056 120C     		lsrs	r2, r2, #16
 685 0058 9A80     		strh	r2, [r3, #4]	@ movhi
 686              		.loc 1 590 0
 687 005a 9A88     		ldrh	r2, [r3, #4]
 688 005c 92B2     		uxth	r2, r2
 689 005e 42F02002 		orr	r2, r2, #32
 690 0062 9A80     		strh	r2, [r3, #4]	@ movhi
 691              	.LVL57:
 692              	.L54:
 693              	.LBE26:
 694              	.LBE25:
 695              		.loc 1 592 0
 696 0064 5DF8044B 		ldr	r4, [sp], #4
 697 0068 7047     		bx	lr
 698              		.cfi_endproc
 699              	.LFE76:
 700              		.size	VSL_InitTimer, .-VSL_InitTimer
 701 006a 00BFAFF3 		.section	.text.VSL_Init,"ax",%progbits
 701      0080
 702              		.align	2
 703              		.p2align 4,,15
 704              		.global	VSL_Init
 705              		.thumb
 706              		.thumb_func
 707              		.type	VSL_Init, %function
 708              	VSL_Init:
 709              	.LFB77:
 710              		.loc 1 600 0
 711              		.cfi_startproc
 712              		@ args = 0, pretend = 0, frame = 0
 713              		@ frame_needed = 0, uses_anonymous_args = 0
 714              	.LVL58:
 715 0000 38B5     		push	{r3, r4, r5, lr}
 716              		.cfi_def_cfa_offset 16
 717              		.cfi_offset 3, -16
 718              		.cfi_offset 4, -12
 719              		.cfi_offset 5, -8
 720              		.cfi_offset 14, -4
 721              	.LBB27:
 722              	.LBB28:
 723 0002 4020     		movs	r0, #64
 724 0004 FFF7FEFF 		bl	VSL_CreateSineWave.part.0
ARM GAS  /tmp/ccDnWTRu.s 			page 14


 725              	.LVL59:
 726              	.LBE28:
 727              	.LBE27:
 728              		.loc 1 616 0
 729 0008 0920     		movs	r0, #9
 730 000a FA21     		movs	r1, #250
 731 000c FFF7FEFF 		bl	VSL_InitTimer
 732              	.LVL60:
 733              		.loc 1 619 0
 734 0010 4FF48053 		mov	r3, #4096
 735 0014 C4F20203 		movt	r3, 16386
 736 0018 DA69     		ldr	r2, [r3, #28]
 737              		.loc 1 623 0
 738 001a 4FF4E844 		mov	r4, #29696
 739              		.loc 1 619 0
 740 001e 42F00052 		orr	r2, r2, #536870912
 741 0022 DA61     		str	r2, [r3, #28]
 742              		.loc 1 623 0
 743 0024 C4F20004 		movt	r4, 16384
 744 0028 2368     		ldr	r3, [r4]
 745              	.LVL61:
 746              		.loc 1 634 0
 747 002a 0021     		movs	r1, #0
 748              		.loc 1 625 0
 749 002c 23F47F63 		bic	r3, r3, #4080
 750              	.LVL62:
 751 0030 23F00E03 		bic	r3, r3, #14
 752              	.LVL63:
 753              		.loc 1 629 0
 754 0034 43F01603 		orr	r3, r3, #22
 755              	.LVL64:
 756              		.loc 1 631 0
 757 0038 2360     		str	r3, [r4]
 758              		.loc 1 634 0
 759 003a 0A46     		mov	r2, r1
 760 003c 0B46     		mov	r3, r1
 761              	.LVL65:
 762 003e 1148     		ldr	r0, .L58
 763 0040 FFF7FEFF 		bl	dmaStreamAllocate
 764              	.LVL66:
 765 0044 E0B9     		cbnz	r0, .L56
 766              	.LVL67:
 767              	.LBB29:
 768              		.loc 1 642 0
 769 0046 104B     		ldr	r3, .L58+4
 770              		.loc 1 645 0
 771 0048 47F20841 		movw	r1, #29704
 772              		.loc 1 642 0
 773 004c DB6E     		ldr	r3, [r3, #108]
 774              		.loc 1 646 0
 775 004e 40F20002 		movw	r2, #:lower16:.LANCHOR1
 776 0052 C0F20002 		movt	r2, #:upper16:.LANCHOR1
 777              		.loc 1 642 0
 778 0056 42F2B055 		movw	r5, #9648
 779              		.loc 1 644 0
 780 005a 2020     		movs	r0, #32
 781              		.loc 1 645 0
ARM GAS  /tmp/ccDnWTRu.s 			page 15


 782 005c C4F20001 		movt	r1, 16384
 783              		.loc 1 642 0
 784 0060 1D60     		str	r5, [r3]
 785              		.loc 1 644 0
 786 0062 5860     		str	r0, [r3, #4]
 787              		.loc 1 645 0
 788 0064 9960     		str	r1, [r3, #8]
 789              		.loc 1 646 0
 790 0066 DA60     		str	r2, [r3, #12]
 791              		.loc 1 649 0
 792 0068 1A68     		ldr	r2, [r3]
 793 006a 42F00102 		orr	r2, r2, #1
 794 006e 1A60     		str	r2, [r3]
 795              		.loc 1 653 0
 796 0070 2368     		ldr	r3, [r4]
 797 0072 43F00103 		orr	r3, r3, #1
 798 0076 2360     		str	r3, [r4]
 799              		.loc 1 656 0
 800 0078 2368     		ldr	r3, [r4]
 801 007a 43F48053 		orr	r3, r3, #4096
 802 007e 2360     		str	r3, [r4]
 803              	.LVL68:
 804              	.L56:
 805 0080 38BD     		pop	{r3, r4, r5, pc}
 806              	.L59:
 807 0082 00BF     		.align	2
 808              	.L58:
 809 0084 6C000000 		.word	_stm32_dma_streams+108
 810 0088 00000000 		.word	_stm32_dma_streams+0
 811              	.LBE29:
 812              		.cfi_endproc
 813              	.LFE77:
 814              		.size	VSL_Init, .-VSL_Init
 815 008c AFF30080 		.section	.text.vexAudioPlaySound,"ax",%progbits
 816              		.align	2
 817              		.p2align 4,,15
 818              		.global	vexAudioPlaySound
 819              		.thumb
 820              		.thumb_func
 821              		.type	vexAudioPlaySound, %function
 822              	vexAudioPlaySound:
 823              	.LFB64:
 824              		.loc 1 153 0
 825              		.cfi_startproc
 826              		@ args = 0, pretend = 0, frame = 8
 827              		@ frame_needed = 0, uses_anonymous_args = 0
 828              	.LVL69:
 829 0000 2DE9F041 		push	{r4, r5, r6, r7, r8, lr}
 830              		.cfi_def_cfa_offset 24
 831              		.cfi_offset 4, -24
 832              		.cfi_offset 5, -20
 833              		.cfi_offset 6, -16
 834              		.cfi_offset 7, -12
 835              		.cfi_offset 8, -8
 836              		.cfi_offset 14, -4
 837              		.loc 1 161 0
 838 0004 40F20004 		movw	r4, #:lower16:.LANCHOR10
ARM GAS  /tmp/ccDnWTRu.s 			page 16


 839 0008 C0F20004 		movt	r4, #:upper16:.LANCHOR10
 840 000c D4F80080 		ldr	r8, [r4]
 841              		.loc 1 153 0
 842 0010 84B0     		sub	sp, sp, #16
 843              		.cfi_def_cfa_offset 40
 844              		.loc 1 153 0
 845 0012 0546     		mov	r5, r0
 846 0014 0E46     		mov	r6, r1
 847 0016 1746     		mov	r7, r2
 848              		.loc 1 161 0
 849 0018 B8F1000F 		cmp	r8, #0
 850 001c 4BD0     		beq	.L70
 851              	.LVL70:
 852              	.L61:
 853              		.loc 1 171 0
 854 001e 15B9     		cbnz	r5, .L62
 855              		.loc 1 174 0
 856 0020 2E46     		mov	r6, r5
 857              	.LVL71:
 858              		.loc 1 173 0
 859 0022 4FF47A75 		mov	r5, #1000
 860              	.LVL72:
 861              	.L62:
 862              		.loc 1 178 0
 863 0026 40F20004 		movw	r4, #:lower16:.LANCHOR11
 864 002a C0F20004 		movt	r4, #:upper16:.LANCHOR11
 865 002e 2368     		ldr	r3, [r4]
 866 0030 9E42     		cmp	r6, r3
 867 0032 02D0     		beq	.L63
 868              	.LVL73:
 869              	.LBB30:
 870              	.LBB31:
 871              		.loc 1 529 0
 872 0034 FF2E     		cmp	r6, #255
 873 0036 3AD9     		bls	.L71
 874              	.L64:
 875              	.LBE31:
 876              	.LBE30:
 877              		.loc 1 181 0
 878 0038 2660     		str	r6, [r4]
 879              	.LVL74:
 880              	.L63:
 881              		.loc 1 185 0
 882 003a C72D     		cmp	r5, #199
 883 003c D8BF     		it	le
 884 003e 42F6F230 		movwle	r0, #11250
 885 0042 0CDD     		ble	.L66
 886              		.loc 1 186 0
 887 0044 42F21073 		movw	r3, #10000
 888 0048 9D42     		cmp	r5, r3
 889 004a DFBF     		itttt	le
 890 004c 4FF42243 		movle	r3, #41472
 891 0050 6801     		lslle	r0, r5, #5
 892 0052 C0F24A43 		movtle	r3, 1098
 893 0056 93FBF0F0 		sdivle	r0, r3, r0
 894 005a C8BF     		it	gt
 895 005c E120     		movgt	r0, #225
ARM GAS  /tmp/ccDnWTRu.s 			page 17


 896              	.L66:
 897              	.LVL75:
 898              		.loc 1 189 0
 899 005e 03AA     		add	r2, sp, #12
 900 0060 02A9     		add	r1, sp, #8
 901 0062 FFF7FEFF 		bl	VSL_Factorize
 902              	.LVL76:
 903              		.loc 1 192 0
 904 0066 0298     		ldr	r0, [sp, #8]
 905 0068 0399     		ldr	r1, [sp, #12]
 906 006a FFF7FEFF 		bl	VSL_InitTimer
 907              	.LVL77:
 908              		.loc 1 195 0
 909 006e 4FF4E843 		mov	r3, #29696
 910 0072 C4F20003 		movt	r3, 16384
 911 0076 1A68     		ldr	r2, [r3]
 912              		.loc 1 198 0
 913 0078 4FF4A051 		mov	r1, #5120
 914              		.loc 1 195 0
 915 007c 42F00102 		orr	r2, r2, #1
 916 0080 1A60     		str	r2, [r3]
 917              		.loc 1 198 0
 918 0082 C4F20001 		movt	r1, 16384
 919 0086 0A88     		ldrh	r2, [r1]
 920              		.loc 1 201 0
 921 0088 40F20003 		movw	r3, #:lower16:.LANCHOR2
 922              		.loc 1 198 0
 923 008c 92B2     		uxth	r2, r2
 924 008e 42F00102 		orr	r2, r2, #1
 925              		.loc 1 203 0
 926 0092 40F20000 		movw	r0, #:lower16:.LANCHOR5
 927              		.loc 1 198 0
 928 0096 0A80     		strh	r2, [r1]	@ movhi
 929              		.loc 1 201 0
 930 0098 C0F20003 		movt	r3, #:upper16:.LANCHOR2
 931              		.loc 1 203 0
 932 009c C0F20000 		movt	r0, #:upper16:.LANCHOR5
 933 00a0 0021     		movs	r1, #0
 934              		.loc 1 201 0
 935 00a2 1F60     		str	r7, [r3]
 936              		.loc 1 203 0
 937 00a4 FFF7FEFF 		bl	chSemReset
 938              	.LVL78:
 939              		.loc 1 205 0
 940 00a8 04B0     		add	sp, sp, #16
 941              		@ sp needed
 942 00aa BDE8F081 		pop	{r4, r5, r6, r7, r8, pc}
 943              	.LVL79:
 944              	.L71:
 945              	.LBB33:
 946              	.LBB32:
 947 00ae 3046     		mov	r0, r6
 948 00b0 FFF7FEFF 		bl	VSL_CreateSineWave.part.0
 949              	.LVL80:
 950 00b4 C0E7     		b	.L64
 951              	.LVL81:
 952              	.L70:
ARM GAS  /tmp/ccDnWTRu.s 			page 18


 953              	.LBE32:
 954              	.LBE33:
 955              		.loc 1 163 0
 956 00b6 FFF7FEFF 		bl	VSL_Init
 957              	.LVL82:
 958              		.loc 1 165 0
 959 00ba 40F20000 		movw	r0, #:lower16:.LANCHOR5
 960 00be C0F20000 		movt	r0, #:upper16:.LANCHOR5
 961 00c2 4146     		mov	r1, r8
 962 00c4 FFF7FEFF 		bl	chSemInit
 963              	.LVL83:
 964              		.loc 1 166 0
 965 00c8 40F20003 		movw	r3, #:lower16:vexAudioTask
 966 00cc CDF80080 		str	r8, [sp]
 967 00d0 4046     		mov	r0, r8
 968 00d2 C0F20003 		movt	r3, #:upper16:vexAudioTask
 969 00d6 4FF4C071 		mov	r1, #384
 970 00da 4022     		movs	r2, #64
 971 00dc FFF7FEFF 		bl	chThdCreateFromHeap
 972              	.LVL84:
 973 00e0 2060     		str	r0, [r4]
 974 00e2 9CE7     		b	.L61
 975              		.cfi_endproc
 976              	.LFE64:
 977              		.size	vexAudioPlaySound, .-vexAudioPlaySound
 978 00e4 AFF30080 		.section	.text.vexAudioPlaySoundWait,"ax",%progbits
 978      AFF30080 
 978      AFF30080 
 979              		.align	2
 980              		.p2align 4,,15
 981              		.global	vexAudioPlaySoundWait
 982              		.thumb
 983              		.thumb_func
 984              		.type	vexAudioPlaySoundWait, %function
 985              	vexAudioPlaySoundWait:
 986              	.LFB65:
 987              		.loc 1 213 0
 988              		.cfi_startproc
 989              		@ args = 0, pretend = 0, frame = 16
 990              		@ frame_needed = 0, uses_anonymous_args = 0
 991              	.LVL85:
 992 0000 F0B5     		push	{r4, r5, r6, r7, lr}
 993              		.cfi_def_cfa_offset 20
 994              		.cfi_offset 4, -20
 995              		.cfi_offset 5, -16
 996              		.cfi_offset 6, -12
 997              		.cfi_offset 7, -8
 998              		.cfi_offset 14, -4
 999              		.loc 1 217 0
 1000 0002 40F20004 		movw	r4, #:lower16:.LANCHOR12
 1001              		.loc 1 213 0
 1002 0006 85B0     		sub	sp, sp, #20
 1003              		.cfi_def_cfa_offset 40
 1004              		.loc 1 217 0
 1005 0008 C0F20004 		movt	r4, #:upper16:.LANCHOR12
 1006              		.loc 1 213 0
 1007 000c 0746     		mov	r7, r0
ARM GAS  /tmp/ccDnWTRu.s 			page 19


 1008 000e 0E46     		mov	r6, r1
 1009 0010 1546     		mov	r5, r2
 1010              		.loc 1 217 0
 1011 0012 2046     		mov	r0, r4
 1012              	.LVL86:
 1013 0014 6946     		mov	r1, sp
 1014              	.LVL87:
 1015 0016 0122     		movs	r2, #1
 1016              	.LVL88:
 1017 0018 FFF7FEFF 		bl	chEvtRegisterMask
 1018              	.LVL89:
 1019              		.loc 1 219 0
 1020 001c 2A46     		mov	r2, r5
 1021 001e 3846     		mov	r0, r7
 1022 0020 3146     		mov	r1, r6
 1023 0022 FFF7FEFF 		bl	vexAudioPlaySound
 1024              	.LVL90:
 1025              		.loc 1 222 0
 1026 0026 42F21071 		movw	r1, #10000
 1027 002a 4FF0FF30 		mov	r0, #-1
 1028 002e FFF7FEFF 		bl	chEvtWaitAnyTimeout
 1029              	.LVL91:
 1030              		.loc 1 225 0
 1031 0032 2046     		mov	r0, r4
 1032 0034 6946     		mov	r1, sp
 1033 0036 FFF7FEFF 		bl	chEvtUnregister
 1034              	.LVL92:
 1035              		.loc 1 226 0
 1036 003a 05B0     		add	sp, sp, #20
 1037              		@ sp needed
 1038 003c F0BD     		pop	{r4, r5, r6, r7, pc}
 1039              		.cfi_endproc
 1040              	.LFE65:
 1041              		.size	vexAudioPlaySoundWait, .-vexAudioPlaySoundWait
 1042              		.section	.text.vexAudioPlayNextChipTone.part.2,"ax",%progbits
 1043              		.align	2
 1044              		.p2align 4,,15
 1045              		.thumb
 1046              		.thumb_func
 1047              		.type	vexAudioPlayNextChipTone.part.2, %function
 1048              	vexAudioPlayNextChipTone.part.2:
 1049              	.LFB81:
 1050              		.loc 1 425 0
 1051              		.cfi_startproc
 1052              		@ args = 0, pretend = 0, frame = 0
 1053              		@ frame_needed = 0, uses_anonymous_args = 0
 1054              		.loc 1 435 0
 1055 0000 40F20003 		movw	r3, #:lower16:.LANCHOR6
 1056 0004 C0F20003 		movt	r3, #:upper16:.LANCHOR6
 1057 0008 1868     		ldr	r0, [r3]
 1058              		.loc 1 425 0
 1059 000a 70B5     		push	{r4, r5, r6, lr}
 1060              		.cfi_def_cfa_offset 16
 1061              		.cfi_offset 4, -16
 1062              		.cfi_offset 5, -12
 1063              		.cfi_offset 6, -8
 1064              		.cfi_offset 14, -4
ARM GAS  /tmp/ccDnWTRu.s 			page 20


 1065              		.loc 1 435 0
 1066 000c 00B3     		cbz	r0, .L74
 1067              		.loc 1 437 0
 1068 000e 40F20004 		movw	r4, #:lower16:.LANCHOR3
 1069 0012 40F20005 		movw	r5, #:lower16:.LANCHOR4
 1070 0016 C0F20004 		movt	r4, #:upper16:.LANCHOR3
 1071 001a C0F20005 		movt	r5, #:upper16:.LANCHOR4
 1072 001e 2368     		ldr	r3, [r4]
 1073 0020 2A68     		ldr	r2, [r5]
 1074 0022 9342     		cmp	r3, r2
 1075 0024 01DB     		blt	.L79
 1076              		.loc 1 428 0
 1077 0026 0020     		movs	r0, #0
 1078 0028 70BD     		pop	{r4, r5, r6, pc}
 1079              	.L79:
 1080              		.loc 1 444 0
 1081 002a 40F20002 		movw	r2, #:lower16:.LANCHOR9
 1082              		.loc 1 439 0
 1083 002e 00EBC306 		add	r6, r0, r3, lsl #3
 1084              	.LVL93:
 1085              		.loc 1 444 0
 1086 0032 C0F20002 		movt	r2, #:upper16:.LANCHOR9
 1087 0036 1168     		ldr	r1, [r2]
 1088 0038 50F83300 		ldr	r0, [r0, r3, lsl #3]
 1089 003c 7268     		ldr	r2, [r6, #4]
 1090 003e FFF7FEFF 		bl	vexAudioPlaySound
 1091              	.LVL94:
 1092              		.loc 1 447 0
 1093 0042 2368     		ldr	r3, [r4]
 1094              		.loc 1 450 0
 1095 0044 2A68     		ldr	r2, [r5]
 1096              		.loc 1 447 0
 1097 0046 0133     		adds	r3, r3, #1
 1098              		.loc 1 450 0
 1099 0048 9342     		cmp	r3, r2
 1100              		.loc 1 447 0
 1101 004a 2360     		str	r3, [r4]
 1102              		.loc 1 450 0
 1103 004c 01D0     		beq	.L80
 1104              	.L78:
 1105              		.loc 1 456 0
 1106 004e 0120     		movs	r0, #1
 1107              	.LVL95:
 1108              	.L74:
 1109              		.loc 1 461 0
 1110 0050 70BD     		pop	{r4, r5, r6, pc}
 1111              	.LVL96:
 1112              	.L80:
 1113              		.loc 1 452 0
 1114 0052 40F20003 		movw	r3, #:lower16:.LANCHOR8
 1115 0056 C0F20003 		movt	r3, #:upper16:.LANCHOR8
 1116 005a 1B68     		ldr	r3, [r3]
 1117 005c 002B     		cmp	r3, #0
 1118 005e F6D0     		beq	.L78
 1119              		.loc 1 453 0
 1120 0060 0023     		movs	r3, #0
 1121 0062 2360     		str	r3, [r4]
ARM GAS  /tmp/ccDnWTRu.s 			page 21


 1122              		.loc 1 456 0
 1123 0064 0120     		movs	r0, #1
 1124 0066 70BD     		pop	{r4, r5, r6, pc}
 1125              		.cfi_endproc
 1126              	.LFE81:
 1127              		.size	vexAudioPlayNextChipTone.part.2, .-vexAudioPlayNextChipTone.part.2
 1128 0068 AFF30080 		.section	.text.vexAudioPlayNextChipTone,"ax",%progbits
 1128      AFF30080 
 1129              		.align	2
 1130              		.p2align 4,,15
 1131              		.global	vexAudioPlayNextChipTone
 1132              		.thumb
 1133              		.thumb_func
 1134              		.type	vexAudioPlayNextChipTone, %function
 1135              	vexAudioPlayNextChipTone:
 1136              	.LFB73:
 1137              		.loc 1 426 0
 1138              		.cfi_startproc
 1139              		@ args = 0, pretend = 0, frame = 0
 1140              		@ frame_needed = 0, uses_anonymous_args = 0
 1141              		@ link register save eliminated.
 1142              	.LVL97:
 1143              		.loc 1 431 0
 1144 0000 40F20003 		movw	r3, #:lower16:.LANCHOR7
 1145 0004 C0F20003 		movt	r3, #:upper16:.LANCHOR7
 1146 0008 1868     		ldr	r0, [r3]
 1147 000a 08B1     		cbz	r0, .L82
 1148 000c FFF7FEBF 		b	vexAudioPlayNextChipTone.part.2
 1149              	.LVL98:
 1150              	.L82:
 1151              		.loc 1 461 0
 1152 0010 7047     		bx	lr
 1153              		.cfi_endproc
 1154              	.LFE73:
 1155              		.size	vexAudioPlayNextChipTone, .-vexAudioPlayNextChipTone
 1156 0012 00BFAFF3 		.section	.text.vexAudioStartChipToneSong,"ax",%progbits
 1156      0080AFF3 
 1156      0080AFF3 
 1156      0080
 1157              		.align	2
 1158              		.p2align 4,,15
 1159              		.global	vexAudioStartChipToneSong
 1160              		.thumb
 1161              		.thumb_func
 1162              		.type	vexAudioStartChipToneSong, %function
 1163              	vexAudioStartChipToneSong:
 1164              	.LFB69:
 1165              		.loc 1 339 0
 1166              		.cfi_startproc
 1167              		@ args = 0, pretend = 0, frame = 0
 1168              		@ frame_needed = 0, uses_anonymous_args = 0
 1169              		@ link register save eliminated.
 1170              	.LVL99:
 1171              		.loc 1 340 0
 1172 0000 40F20003 		movw	r3, #:lower16:.LANCHOR7
 1173 0004 C0F20003 		movt	r3, #:upper16:.LANCHOR7
 1174 0008 1B68     		ldr	r3, [r3]
ARM GAS  /tmp/ccDnWTRu.s 			page 22


 1175 000a 002B     		cmp	r3, #0
 1176 000c 0CDD     		ble	.L83
 1177              		.loc 1 342 0
 1178 000e 40F20002 		movw	r2, #:lower16:.LANCHOR3
 1179              		.loc 1 343 0
 1180 0012 40F20003 		movw	r3, #:lower16:.LANCHOR8
 1181              		.loc 1 342 0
 1182 0016 C0F20002 		movt	r2, #:upper16:.LANCHOR3
 1183 001a 0021     		movs	r1, #0
 1184              		.loc 1 343 0
 1185 001c C0F20003 		movt	r3, #:upper16:.LANCHOR8
 1186              		.loc 1 342 0
 1187 0020 1160     		str	r1, [r2]
 1188              		.loc 1 343 0
 1189 0022 1860     		str	r0, [r3]
 1190              	.LVL100:
 1191              	.LBB34:
 1192              	.LBB35:
 1193 0024 FFF7FEBF 		b	vexAudioPlayNextChipTone.part.2
 1194              	.LVL101:
 1195              	.L83:
 1196 0028 7047     		bx	lr
 1197              	.LBE35:
 1198              	.LBE34:
 1199              		.cfi_endproc
 1200              	.LFE69:
 1201              		.size	vexAudioStartChipToneSong, .-vexAudioStartChipToneSong
 1202 002a 00BFAFF3 		.section	.text.vexAudioTask,"ax",%progbits
 1202      0080
 1203              		.align	2
 1204              		.p2align 4,,15
 1205              		.thumb
 1206              		.thumb_func
 1207              		.type	vexAudioTask, %function
 1208              	vexAudioTask:
 1209              	.LFB63:
 1210              		.loc 1 104 0
 1211              		.cfi_startproc
 1212              		@ args = 0, pretend = 0, frame = 0
 1213              		@ frame_needed = 0, uses_anonymous_args = 0
 1214              	.LVL102:
 1215 0000 2DE9F843 		push	{r3, r4, r5, r6, r7, r8, r9, lr}
 1216              		.cfi_def_cfa_offset 32
 1217              		.cfi_offset 3, -32
 1218              		.cfi_offset 4, -28
 1219              		.cfi_offset 5, -24
 1220              		.cfi_offset 6, -20
 1221              		.cfi_offset 7, -16
 1222              		.cfi_offset 8, -12
 1223              		.cfi_offset 9, -8
 1224              		.cfi_offset 14, -4
 1225              		.loc 1 109 0
 1226 0004 40F20006 		movw	r6, #:lower16:rlist
 1227 0008 C0F20006 		movt	r6, #:upper16:rlist
 1228 000c B369     		ldr	r3, [r6, #24]
 1229 000e 40F20002 		movw	r2, #:lower16:.LC1
 1230              		.loc 1 110 0
ARM GAS  /tmp/ccDnWTRu.s 			page 23


 1231 0012 40F20005 		movw	r5, #:lower16:.LANCHOR12
 1232              		.loc 1 109 0
 1233 0016 C0F20002 		movt	r2, #:upper16:.LC1
 1234              		.loc 1 110 0
 1235 001a C0F20005 		movt	r5, #:upper16:.LANCHOR12
 1236              		.loc 1 114 0
 1237 001e 40F20004 		movw	r4, #:lower16:.LANCHOR2
 1238              	.LBB36:
 1239              	.LBB37:
 1240              		.loc 1 431 0
 1241 0022 40F20009 		movw	r9, #:lower16:.LANCHOR7
 1242              	.LBE37:
 1243              	.LBE36:
 1244              	.LBB41:
 1245              	.LBB42:
 1246              		.loc 1 669 0
 1247 0026 4FF4A058 		mov	r8, #5120
 1248              		.loc 1 671 0
 1249 002a 4FF4E847 		mov	r7, #29696
 1250              	.LBE42:
 1251              	.LBE41:
 1252              		.loc 1 109 0
 1253 002e 9A61     		str	r2, [r3, #24]
 1254              		.loc 1 110 0
 1255 0030 2D60     		str	r5, [r5]
 1256              		.loc 1 114 0
 1257 0032 C0F20004 		movt	r4, #:upper16:.LANCHOR2
 1258              	.LBB45:
 1259              	.LBB38:
 1260              		.loc 1 431 0
 1261 0036 C0F20009 		movt	r9, #:upper16:.LANCHOR7
 1262              	.LBE38:
 1263              	.LBE45:
 1264              	.LBB46:
 1265              	.LBB43:
 1266              		.loc 1 669 0
 1267 003a C4F20008 		movt	r8, 16384
 1268              		.loc 1 671 0
 1269 003e C4F20007 		movt	r7, 16384
 1270              	.LBE43:
 1271              	.LBE46:
 1272              		.loc 1 112 0
 1273 0042 2CE0     		b	.L86
 1274              	.LVL103:
 1275              	.L99:
 1276              		.loc 1 119 0
 1277 0044 40F20000 		movw	r0, #:lower16:.LANCHOR5
 1278              		.loc 1 116 0
 1279 0048 1968     		ldr	r1, [r3]
 1280              	.LVL104:
 1281              		.loc 1 119 0
 1282 004a C0F20000 		movt	r0, #:upper16:.LANCHOR5
 1283              		.loc 1 117 0
 1284 004e C3F800C0 		str	ip, [r3]
 1285              		.loc 1 119 0
 1286 0052 FFF7FEFF 		bl	chSemWaitTimeout
 1287              	.LVL105:
ARM GAS  /tmp/ccDnWTRu.s 			page 24


 1288              	.LBB47:
 1289              		.loc 1 121 0
 1290 0056 2023     		movs	r3, #32
 1291              	@ 121 "../../fw/vexaudio.c" 1
 1292 0058 83F31188 		msr     BASEPRI, r3
 1293              	@ 0 "" 2
 1294              		.thumb
 1295              	.LBE47:
 1296              		.loc 1 122 0
 1297 005c 2B68     		ldr	r3, [r5]
 1298 005e AB42     		cmp	r3, r5
 1299 0060 06D0     		beq	.L88
 1300              		.loc 1 123 0
 1301 0062 40F20000 		movw	r0, #:lower16:.LANCHOR12
 1302 0066 C0F20000 		movt	r0, #:upper16:.LANCHOR12
 1303 006a 0021     		movs	r1, #0
 1304 006c FFF7FEFF 		bl	chEvtBroadcastFlagsI
 1305              	.LVL106:
 1306              	.L88:
 1307              	.LBB48:
 1308              		.loc 1 124 0
 1309 0070 0023     		movs	r3, #0
 1310              	@ 124 "../../fw/vexaudio.c" 1
 1311 0072 83F31188 		msr     BASEPRI, r3
 1312              	@ 0 "" 2
 1313              		.thumb
 1314              	.LBE48:
 1315              		.loc 1 126 0
 1316 0076 2368     		ldr	r3, [r4]
 1317 0078 83B9     		cbnz	r3, .L90
 1318              	.LVL107:
 1319              	.LBB49:
 1320              	.LBB39:
 1321              		.loc 1 431 0
 1322 007a D9F80030 		ldr	r3, [r9]
 1323 007e 2BBB     		cbnz	r3, .L91
 1324              	.L92:
 1325              	.LBE39:
 1326              	.LBE49:
 1327              	.LBB50:
 1328              	.LBB44:
 1329              		.loc 1 669 0
 1330 0080 B8F80030 		ldrh	r3, [r8]
 1331              		.loc 1 673 0
 1332 0084 0022     		movs	r2, #0
 1333              		.loc 1 669 0
 1334 0086 23F00103 		bic	r3, r3, #1
 1335 008a 1B04     		lsls	r3, r3, #16
 1336 008c 1B0C     		lsrs	r3, r3, #16
 1337 008e A8F80030 		strh	r3, [r8]	@ movhi
 1338              		.loc 1 671 0
 1339 0092 3B68     		ldr	r3, [r7]
 1340 0094 23F00103 		bic	r3, r3, #1
 1341 0098 3B60     		str	r3, [r7]
 1342              		.loc 1 673 0
 1343 009a BA60     		str	r2, [r7, #8]
 1344              	.LVL108:
ARM GAS  /tmp/ccDnWTRu.s 			page 25


 1345              	.L90:
 1346 009c B369     		ldr	r3, [r6, #24]
 1347              	.L86:
 1348              	.LBE44:
 1349              	.LBE50:
 1350              		.loc 1 112 0 discriminator 1
 1351 009e 5B7F     		ldrb	r3, [r3, #29]	@ zero_extendqisi2
 1352 00a0 03F00403 		and	r3, r3, #4
 1353 00a4 03F0FF0C 		and	ip, r3, #255
 1354 00a8 6BB9     		cbnz	r3, .L98
 1355              		.loc 1 114 0
 1356 00aa 2268     		ldr	r2, [r4]
 1357 00ac 40F20003 		movw	r3, #:lower16:.LANCHOR2
 1358 00b0 C0F20003 		movt	r3, #:upper16:.LANCHOR2
 1359 00b4 002A     		cmp	r2, #0
 1360 00b6 C5D1     		bne	.L99
 1361              		.loc 1 133 0
 1362 00b8 40F20000 		movw	r0, #:lower16:.LANCHOR5
 1363 00bc C0F20000 		movt	r0, #:upper16:.LANCHOR5
 1364 00c0 FFF7FEFF 		bl	chSemWait
 1365              	.LVL109:
 1366 00c4 EAE7     		b	.L90
 1367              	.L98:
 1368              		.loc 1 137 0
 1369 00c6 0020     		movs	r0, #0
 1370 00c8 BDE8F883 		pop	{r3, r4, r5, r6, r7, r8, r9, pc}
 1371              	.LVL110:
 1372              	.L91:
 1373              	.LBB51:
 1374              	.LBB40:
 1375 00cc FFF7FEFF 		bl	vexAudioPlayNextChipTone.part.2
 1376              	.LVL111:
 1377              	.LBE40:
 1378              	.LBE51:
 1379              		.loc 1 128 0
 1380 00d0 0028     		cmp	r0, #0
 1381 00d2 E3D1     		bne	.L90
 1382 00d4 D4E7     		b	.L92
 1383              		.cfi_endproc
 1384              	.LFE63:
 1385              		.size	vexAudioTask, .-vexAudioTask
 1386 00d6 00BFAFF3 		.section	.text.VSL_Deinit,"ax",%progbits
 1386      0080AFF3 
 1386      0080
 1387              		.align	2
 1388              		.p2align 4,,15
 1389              		.global	VSL_Deinit
 1390              		.thumb
 1391              		.thumb_func
 1392              		.type	VSL_Deinit, %function
 1393              	VSL_Deinit:
 1394              	.LFB78:
 1395              		.loc 1 667 0
 1396              		.cfi_startproc
 1397              		@ args = 0, pretend = 0, frame = 0
 1398              		@ frame_needed = 0, uses_anonymous_args = 0
 1399              		@ link register save eliminated.
ARM GAS  /tmp/ccDnWTRu.s 			page 26


 1400              		.loc 1 669 0
 1401 0000 4FF4A051 		mov	r1, #5120
 1402 0004 C4F20001 		movt	r1, 16384
 1403 0008 0B88     		ldrh	r3, [r1]
 1404              		.loc 1 671 0
 1405 000a 4FF4E842 		mov	r2, #29696
 1406              		.loc 1 669 0
 1407 000e 23F00103 		bic	r3, r3, #1
 1408 0012 1B04     		lsls	r3, r3, #16
 1409 0014 1B0C     		lsrs	r3, r3, #16
 1410 0016 0B80     		strh	r3, [r1]	@ movhi
 1411              		.loc 1 671 0
 1412 0018 C4F20002 		movt	r2, 16384
 1413 001c 1168     		ldr	r1, [r2]
 1414              		.loc 1 673 0
 1415 001e 0023     		movs	r3, #0
 1416              		.loc 1 671 0
 1417 0020 21F00101 		bic	r1, r1, #1
 1418 0024 1160     		str	r1, [r2]
 1419              		.loc 1 673 0
 1420 0026 9360     		str	r3, [r2, #8]
 1421 0028 7047     		bx	lr
 1422              		.cfi_endproc
 1423              	.LFE78:
 1424              		.size	VSL_Deinit, .-VSL_Deinit
 1425 002a 00BFAFF3 		.section	.rodata.sinPreCalc,"a",%progbits
 1425      0080
 1426              		.align	2
 1427              		.set	.LANCHOR0,. + 0
 1428              		.type	sinPreCalc, %object
 1429              		.size	sinPreCalc, 128
 1430              	sinPreCalc:
 1431 0000 00000000 		.word	0
 1432 0004 ACC5473E 		.word	1044891052
 1433 0008 A2EEC33E 		.word	1053028002
 1434 000c D6390E3F 		.word	1057896918
 1435 0010 2905353F 		.word	1060439337
 1436 0014 38DB543F 		.word	1062525752
 1437 0018 66836C3F 		.word	1064076134
 1438 001c 0E157B3F 		.word	1065030926
 1439 0020 0000803F 		.word	1065353216
 1440 0024 0E157B3F 		.word	1065030926
 1441 0028 66836C3F 		.word	1064076134
 1442 002c 38DB543F 		.word	1062525752
 1443 0030 2905353F 		.word	1060439337
 1444 0034 D6390E3F 		.word	1057896918
 1445 0038 A2EEC33E 		.word	1053028002
 1446 003c ACC5473E 		.word	1044891052
 1447 0040 00000000 		.word	0
 1448 0044 ACC547BE 		.word	3192374700
 1449 0048 A2EEC3BE 		.word	3200511650
 1450 004c D6390EBF 		.word	3205380566
 1451 0050 290535BF 		.word	3207922985
 1452 0054 38DB54BF 		.word	3210009400
 1453 0058 66836CBF 		.word	3211559782
 1454 005c 0E157BBF 		.word	3212514574
 1455 0060 000080BF 		.word	3212836864
ARM GAS  /tmp/ccDnWTRu.s 			page 27


 1456 0064 0E157BBF 		.word	3212514574
 1457 0068 66836CBF 		.word	3211559782
 1458 006c 38DB54BF 		.word	3210009400
 1459 0070 290535BF 		.word	3207922985
 1460 0074 D6390EBF 		.word	3205380566
 1461 0078 A2EEC3BE 		.word	3200511650
 1462 007c ACC547BE 		.word	3192374700
 1463              		.section	.bss.vslThread,"aw",%nobits
 1464              		.align	2
 1465              		.set	.LANCHOR10,. + 0
 1466              		.type	vslThread, %object
 1467              		.size	vslThread, 4
 1468              	vslThread:
 1469 0000 00000000 		.space	4
 1470              		.section	.bss.Sine12bit,"aw",%nobits
 1471              		.align	2
 1472              		.set	.LANCHOR1,. + 0
 1473              		.type	Sine12bit, %object
 1474              		.size	Sine12bit, 64
 1475              	Sine12bit:
 1476 0000 00000000 		.space	64
 1476      00000000 
 1476      00000000 
 1476      00000000 
 1476      00000000 
 1477              		.section	.bss.vslSem,"aw",%nobits
 1478              		.align	2
 1479              		.set	.LANCHOR5,. + 0
 1480              		.type	vslSem, %object
 1481              		.size	vslSem, 12
 1482              	vslSem:
 1483 0000 00000000 		.space	12
 1483      00000000 
 1483      00000000 
 1484              		.section	.bss.ctPlayPtr,"aw",%nobits
 1485              		.align	2
 1486              		.set	.LANCHOR3,. + 0
 1487              		.type	ctPlayPtr, %object
 1488              		.size	ctPlayPtr, 4
 1489              	ctPlayPtr:
 1490 0000 00000000 		.space	4
 1491              		.section	.bss.ctRepeat,"aw",%nobits
 1492              		.align	2
 1493              		.set	.LANCHOR8,. + 0
 1494              		.type	ctRepeat, %object
 1495              		.size	ctRepeat, 4
 1496              	ctRepeat:
 1497 0000 00000000 		.space	4
 1498              		.section	.bss.ctSetPtr,"aw",%nobits
 1499              		.align	2
 1500              		.set	.LANCHOR4,. + 0
 1501              		.type	ctSetPtr, %object
 1502              		.size	ctSetPtr, 4
 1503              	ctSetPtr:
 1504 0000 00000000 		.space	4
 1505              		.section	.rodata.str1.4,"aMS",%progbits,1
 1506              		.align	2
ARM GAS  /tmp/ccDnWTRu.s 			page 28


 1507              	.LC0:
 1508 0000 25642025 		.ascii	"%d %d %d\015\012\000"
 1508      64202564 
 1508      0D0A00
 1509 000b 00       		.space	1
 1510              	.LC1:
 1511 000c 61756469 		.ascii	"audio\000"
 1511      6F00
 1512 0012 0000     		.section	.data.current_amplitude.7341,"aw",%progbits
 1513              		.align	2
 1514              		.set	.LANCHOR11,. + 0
 1515              		.type	current_amplitude.7341, %object
 1516              		.size	current_amplitude.7341, 4
 1517              	current_amplitude.7341:
 1518 0000 40000000 		.word	64
 1519              		.section	.bss.ctAmplitude,"aw",%nobits
 1520              		.align	2
 1521              		.set	.LANCHOR9,. + 0
 1522              		.type	ctAmplitude, %object
 1523              		.size	ctAmplitude, 4
 1524              	ctAmplitude:
 1525 0000 00000000 		.space	4
 1526              		.section	.bss.VSL_ctarray,"aw",%nobits
 1527              		.align	2
 1528              		.set	.LANCHOR6,. + 0
 1529              		.type	VSL_ctarray, %object
 1530              		.size	VSL_ctarray, 4
 1531              	VSL_ctarray:
 1532 0000 00000000 		.space	4
 1533              		.section	.bss.ctSize,"aw",%nobits
 1534              		.align	2
 1535              		.set	.LANCHOR7,. + 0
 1536              		.type	ctSize, %object
 1537              		.size	ctSize, 4
 1538              	ctSize:
 1539 0000 00000000 		.space	4
 1540              		.section	.data.sound_done,"aw",%progbits
 1541              		.align	2
 1542              		.set	.LANCHOR12,. + 0
 1543              		.type	sound_done, %object
 1544              		.size	sound_done, 4
 1545              	sound_done:
 1546 0000 00000000 		.word	sound_done
 1547              		.section	.bss.VSL_Counter,"aw",%nobits
 1548              		.align	2
 1549              		.set	.LANCHOR2,. + 0
 1550              		.type	VSL_Counter, %object
 1551              		.size	VSL_Counter, 4
 1552              	VSL_Counter:
 1553 0000 00000000 		.space	4
 1554              		.text
 1555              	.Letext0:
 1556              		.file 2 "/usr/lib/gcc/arm-none-eabi/4.8.2/include/stddef.h"
 1557              		.file 3 "/usr/include/newlib/machine/_default_types.h"
 1558              		.file 4 "/usr/include/newlib/stdint.h"
 1559              		.file 5 "../../../../ChibiOS_2.6.2/os/ports/GCC/ARMCMx/chtypes.h"
 1560              		.file 6 "../../../../ChibiOS_2.6.2/os/kernel/include/chlists.h"
ARM GAS  /tmp/ccDnWTRu.s 			page 29


 1561              		.file 7 "../../../../ChibiOS_2.6.2/os/kernel/include/chthreads.h"
 1562              		.file 8 "../../../../ChibiOS_2.6.2/os/ports/GCC/ARMCMx/chcore_v7m.h"
 1563              		.file 9 "../../../../ChibiOS_2.6.2/os/kernel/include/chschd.h"
 1564              		.file 10 "../../../../ChibiOS_2.6.2/os/kernel/include/chsem.h"
 1565              		.file 11 "../../../../ChibiOS_2.6.2/os/kernel/include/chmtx.h"
 1566              		.file 12 "../../../../ChibiOS_2.6.2/os/kernel/include/chevents.h"
 1567              		.file 13 "../../../../ChibiOS_2.6.2/os/kernel/include/chmemcore.h"
 1568              		.file 14 "../../../../ChibiOS_2.6.2/os/kernel/include/chheap.h"
 1569              		.file 15 "../../../../ChibiOS_2.6.2/os/hal/platforms/STM32F1xx/stm32f10x.h"
 1570              		.file 16 "../../../../ChibiOS_2.6.2/os/hal/platforms/STM32F1xx/stm32_dma.h"
 1571              		.file 17 "../../fw/vexdigital.h"
 1572              		.file 18 "../../fw/vexime.h"
 1573              		.file 19 "../../fw/vexaudio.h"
 1574              		.file 20 "../../../../ChibiOS_2.6.2/os/ports/common/ARMCMx/CMSIS/include/core_cm3.h"
 1575              		.file 21 "../../fw/vexprintf.h"
 1576              		.file 22 "../../../../ChibiOS_2.6.2/os/kernel/include/chdynamic.h"