ARM GAS  /tmp/ccPBXtzN.s 			page 1


   1              		.syntax unified
   2              		.cpu cortex-m3
   3              		.fpu softvfp
   4              		.eabi_attribute 20, 1
   5              		.eabi_attribute 21, 1
   6              		.eabi_attribute 23, 3
   7              		.eabi_attribute 24, 1
   8              		.eabi_attribute 25, 1
   9              		.eabi_attribute 26, 1
  10              		.eabi_attribute 30, 2
  11              		.eabi_attribute 34, 1
  12              		.eabi_attribute 18, 4
  13              		.thumb
  14              		.file	"vexanalog.c"
  15              		.text
  16              	.Ltext0:
  17              		.cfi_sections	.debug_frame
  18              		.section	.text.vexAdcInit,"ax",%progbits
  19              		.align	2
  20              		.p2align 4,,15
  21              		.global	vexAdcInit
  22              		.thumb
  23              		.thumb_func
  24              		.type	vexAdcInit, %function
  25              	vexAdcInit:
  26              	.LFB63:
  27              		.file 1 "../../fw/vexanalog.c"
  28              		.loc 1 104 0
  29              		.cfi_startproc
  30              		@ args = 0, pretend = 0, frame = 0
  31              		@ frame_needed = 0, uses_anonymous_args = 0
  32 0000 10B5     		push	{r4, lr}
  33              		.cfi_def_cfa_offset 8
  34              		.cfi_offset 4, -8
  35              		.cfi_offset 14, -4
  36              		.loc 1 107 0
  37 0002 40F20004 		movw	r4, #:lower16:ADCD1
  38              		.loc 1 106 0
  39 0006 FFF7FEFF 		bl	adcInit
  40              	.LVL0:
  41              		.loc 1 107 0
  42 000a C0F20004 		movt	r4, #:upper16:ADCD1
  43 000e 40F20001 		movw	r1, #:lower16:.LANCHOR0
  44 0012 2046     		mov	r0, r4
  45 0014 C0F20001 		movt	r1, #:upper16:.LANCHOR0
  46 0018 FFF7FEFF 		bl	adcStart
  47              	.LVL1:
  48              		.loc 1 110 0
  49 001c 40F20001 		movw	r1, #:lower16:.LANCHOR1
  50 0020 40F20002 		movw	r2, #:lower16:.LANCHOR2
  51 0024 2046     		mov	r0, r4
  52 0026 C0F20001 		movt	r1, #:upper16:.LANCHOR1
  53 002a C0F20002 		movt	r2, #:upper16:.LANCHOR2
  54 002e 0123     		movs	r3, #1
  55              		.loc 1 111 0
  56 0030 BDE81040 		pop	{r4, lr}
  57              		.loc 1 110 0
ARM GAS  /tmp/ccPBXtzN.s 			page 2


  58 0034 FFF7FEBF 		b	adcStartConversion
  59              	.LVL2:
  60              		.cfi_endproc
  61              	.LFE63:
  62              		.size	vexAdcInit, .-vexAdcInit
  63 0038 AFF30080 		.section	.text.vexAdcGet,"ax",%progbits
  63      AFF30080 
  64              		.align	2
  65              		.p2align 4,,15
  66              		.global	vexAdcGet
  67              		.thumb
  68              		.thumb_func
  69              		.type	vexAdcGet, %function
  70              	vexAdcGet:
  71              	.LFB64:
  72              		.loc 1 121 0
  73              		.cfi_startproc
  74              		@ args = 0, pretend = 0, frame = 0
  75              		@ frame_needed = 0, uses_anonymous_args = 0
  76              		@ link register save eliminated.
  77              	.LVL3:
  78              		.loc 1 122 0
  79 0000 83B2     		uxth	r3, r0
  80 0002 072B     		cmp	r3, #7
  81              		.loc 1 125 0
  82 0004 9DBF     		ittte	ls
  83 0006 40F20003 		movwls	r3, #:lower16:.LANCHOR2
  84 000a C0F20003 		movtls	r3, #:upper16:.LANCHOR2
  85 000e 33F81000 		ldrhls	r0, [r3, r0, lsl #1]
  86              	.LVL4:
  87              		.loc 1 123 0
  88 0012 4FF6FF70 		movwhi	r0, #65535
  89              		.loc 1 126 0
  90 0016 00B2     		sxth	r0, r0
  91 0018 7047     		bx	lr
  92              		.cfi_endproc
  93              	.LFE64:
  94              		.size	vexAdcGet, .-vexAdcGet
  95 001a 00BFAFF3 		.section	.text.vexAdcDebug,"ax",%progbits
  95      0080
  96              		.align	2
  97              		.p2align 4,,15
  98              		.global	vexAdcDebug
  99              		.thumb
 100              		.thumb_func
 101              		.type	vexAdcDebug, %function
 102              	vexAdcDebug:
 103              	.LFB65:
 104              		.loc 1 137 0
 105              		.cfi_startproc
 106              		@ args = 0, pretend = 0, frame = 0
 107              		@ frame_needed = 0, uses_anonymous_args = 0
 108              	.LVL5:
 109 0000 70B5     		push	{r4, r5, r6, lr}
 110              		.cfi_def_cfa_offset 16
 111              		.cfi_offset 4, -16
 112              		.cfi_offset 5, -12
ARM GAS  /tmp/ccPBXtzN.s 			page 3


 113              		.cfi_offset 6, -8
 114              		.cfi_offset 14, -4
 115 0002 084D     		ldr	r5, .L9
 116              		.loc 1 137 0
 117 0004 0646     		mov	r6, r0
 118              		.loc 1 143 0
 119 0006 0024     		movs	r4, #0
 120              	.LVL6:
 121              	.L7:
 122              		.loc 1 144 0 discriminator 2
 123 0008 40F20001 		movw	r1, #:lower16:.LC0
 124 000c 2246     		mov	r2, r4
 125 000e C0F20001 		movt	r1, #:upper16:.LC0
 126 0012 3046     		mov	r0, r6
 127 0014 35F9023F 		ldrsh	r3, [r5, #2]!
 128              		.loc 1 143 0 discriminator 2
 129 0018 0134     		adds	r4, r4, #1
 130              	.LVL7:
 131              		.loc 1 144 0 discriminator 2
 132 001a FFF7FEFF 		bl	vex_chprintf
 133              	.LVL8:
 134              		.loc 1 143 0 discriminator 2
 135 001e 082C     		cmp	r4, #8
 136 0020 F2D1     		bne	.L7
 137              		.loc 1 145 0
 138 0022 70BD     		pop	{r4, r5, r6, pc}
 139              	.LVL9:
 140              	.L10:
 141              		.align	2
 142              	.L9:
 143 0024 FEFFFFFF 		.word	.LANCHOR2-2
 144              		.cfi_endproc
 145              	.LFE65:
 146              		.size	vexAdcDebug, .-vexAdcDebug
 147 0028 AFF30080 		.section	.bss.adccfg,"aw",%nobits
 147      AFF30080 
 148              		.align	2
 149              		.set	.LANCHOR0,. + 0
 150              		.type	adccfg, %object
 151              		.size	adccfg, 4
 152              	adccfg:
 153 0000 00000000 		.space	4
 154              		.section	.rodata.str1.4,"aMS",%progbits,1
 155              		.align	2
 156              	.LC0:
 157 0000 6368616E 		.ascii	"channel %d = %4d\015\012\000"
 157      6E656C20 
 157      2564203D 
 157      20253464 
 157      0D0A00
 158 0013 00       		.section	.data.adccg,"aw",%progbits
 159              		.align	2
 160              		.set	.LANCHOR1,. + 0
 161              		.type	adccg, %object
 162              		.size	adccg, 40
 163              	adccg:
 164 0000 01       		.byte	1
ARM GAS  /tmp/ccPBXtzN.s 			page 4


 165 0001 00       		.space	1
 166 0002 0800     		.short	8
 167 0004 00000000 		.word	0
 168 0008 00000000 		.word	0
 169 000c 00000000 		.word	0
 170 0010 00000000 		.word	0
 171 0014 6D0B0000 		.word	2925
 172 0018 6D0B0000 		.word	2925
 173 001c 00007000 		.word	7340032
 174 0020 6A010000 		.word	362
 175 0024 2088C11A 		.word	448890912
 176              		.section	.bss.samples_buf,"aw",%nobits
 177              		.align	2
 178              		.set	.LANCHOR2,. + 0
 179              		.type	samples_buf, %object
 180              		.size	samples_buf, 16
 181              	samples_buf:
 182 0000 00000000 		.space	16
 182      00000000 
 182      00000000 
 182      00000000 
 183              		.text
 184              	.Letext0:
 185              		.file 2 "/usr/lib/gcc/arm-none-eabi/4.8.2/include/stddef.h"
 186              		.file 3 "/usr/include/newlib/machine/_default_types.h"
 187              		.file 4 "/usr/include/newlib/stdint.h"
 188              		.file 5 "../../../../ChibiOS_2.6.2/os/ports/GCC/ARMCMx/chtypes.h"
 189              		.file 6 "../../../../ChibiOS_2.6.2/os/kernel/include/chlists.h"
 190              		.file 7 "../../../../ChibiOS_2.6.2/os/kernel/include/chthreads.h"
 191              		.file 8 "../../../../ChibiOS_2.6.2/os/ports/GCC/ARMCMx/chcore_v7m.h"
 192              		.file 9 "../../../../ChibiOS_2.6.2/os/kernel/include/chmtx.h"
 193              		.file 10 "../../../../ChibiOS_2.6.2/os/kernel/include/chstreams.h"
 194              		.file 11 "../../../../ChibiOS_2.6.2/os/hal/platforms/STM32F1xx/stm32f10x.h"
 195              		.file 12 "../../../../ChibiOS_2.6.2/os/hal/platforms/STM32F1xx/stm32_dma.h"
 196              		.file 13 "../../../../ChibiOS_2.6.2/os/hal/include/adc.h"
 197              		.file 14 "../../../../ChibiOS_2.6.2/os/hal/platforms/STM32F1xx/adc_lld.h"
 198              		.file 15 "../../fw/vexcompat.h"
 199              		.file 16 "../../fw/vexdigital.h"
 200              		.file 17 "../../fw/vexime.h"
 201              		.file 18 "../../../../ChibiOS_2.6.2/os/ports/common/ARMCMx/CMSIS/include/core_cm3.h"
 202              		.file 19 "../../fw/vexprintf.h"
 203              		.section	.debug_info,"",%progbits
 204              	.Ldebug_info0:
 205 0000 580B0000 		.4byte	0xb58
 206 0004 0400     		.2byte	0x4
 207 0006 00000000 		.4byte	.Ldebug_abbrev0
 208 000a 04       		.byte	0x4
 209 000b 01       		.uleb128 0x1
 210 000c 5A020000 		.4byte	.LASF168
 211 0010 01       		.byte	0x1
 212 0011 A8040000 		.4byte	.LASF169
 213 0015 B3060000 		.4byte	.LASF170
 214 0019 00000000 		.4byte	.Ldebug_ranges0+0
 215 001d 00000000 		.4byte	0
 216 0021 00000000 		.4byte	.Ldebug_line0
 217 0025 02       		.uleb128 0x2
 218 0026 04       		.byte	0x4
ARM GAS  /tmp/ccPBXtzN.s 			page 5


 219 0027 05       		.byte	0x5
 220 0028 696E7400 		.ascii	"int\000"
 221 002c 03       		.uleb128 0x3
 222 002d 00000000 		.4byte	.LASF2
 223 0031 02       		.byte	0x2
 224 0032 D4       		.byte	0xd4
 225 0033 37000000 		.4byte	0x37
 226 0037 04       		.uleb128 0x4
 227 0038 04       		.byte	0x4
 228 0039 07       		.byte	0x7
 229 003a 0E020000 		.4byte	.LASF0
 230 003e 04       		.uleb128 0x4
 231 003f 01       		.byte	0x1
 232 0040 06       		.byte	0x6
 233 0041 CB000000 		.4byte	.LASF1
 234 0045 03       		.uleb128 0x3
 235 0046 34000000 		.4byte	.LASF3
 236 004a 03       		.byte	0x3
 237 004b 1C       		.byte	0x1c
 238 004c 50000000 		.4byte	0x50
 239 0050 04       		.uleb128 0x4
 240 0051 01       		.byte	0x1
 241 0052 08       		.byte	0x8
 242 0053 9A040000 		.4byte	.LASF4
 243 0057 03       		.uleb128 0x3
 244 0058 47070000 		.4byte	.LASF5
 245 005c 03       		.byte	0x3
 246 005d 25       		.byte	0x25
 247 005e 62000000 		.4byte	0x62
 248 0062 04       		.uleb128 0x4
 249 0063 02       		.byte	0x2
 250 0064 05       		.byte	0x5
 251 0065 C7040000 		.4byte	.LASF6
 252 0069 03       		.uleb128 0x3
 253 006a E1050000 		.4byte	.LASF7
 254 006e 03       		.byte	0x3
 255 006f 26       		.byte	0x26
 256 0070 74000000 		.4byte	0x74
 257 0074 04       		.uleb128 0x4
 258 0075 02       		.byte	0x2
 259 0076 07       		.byte	0x7
 260 0077 F7020000 		.4byte	.LASF8
 261 007b 03       		.uleb128 0x3
 262 007c B6030000 		.4byte	.LASF9
 263 0080 03       		.byte	0x3
 264 0081 37       		.byte	0x37
 265 0082 86000000 		.4byte	0x86
 266 0086 04       		.uleb128 0x4
 267 0087 04       		.byte	0x4
 268 0088 05       		.byte	0x5
 269 0089 0F010000 		.4byte	.LASF10
 270 008d 03       		.uleb128 0x3
 271 008e BA010000 		.4byte	.LASF11
 272 0092 03       		.byte	0x3
 273 0093 38       		.byte	0x38
 274 0094 98000000 		.4byte	0x98
 275 0098 04       		.uleb128 0x4
ARM GAS  /tmp/ccPBXtzN.s 			page 6


 276 0099 04       		.byte	0x4
 277 009a 07       		.byte	0x7
 278 009b 6A050000 		.4byte	.LASF12
 279 009f 04       		.uleb128 0x4
 280 00a0 08       		.byte	0x8
 281 00a1 05       		.byte	0x5
 282 00a2 BD000000 		.4byte	.LASF13
 283 00a6 04       		.uleb128 0x4
 284 00a7 08       		.byte	0x8
 285 00a8 07       		.byte	0x7
 286 00a9 6A000000 		.4byte	.LASF14
 287 00ad 03       		.uleb128 0x3
 288 00ae 18070000 		.4byte	.LASF15
 289 00b2 04       		.byte	0x4
 290 00b3 2A       		.byte	0x2a
 291 00b4 45000000 		.4byte	0x45
 292 00b8 03       		.uleb128 0x3
 293 00b9 B5000000 		.4byte	.LASF16
 294 00bd 04       		.byte	0x4
 295 00be 35       		.byte	0x35
 296 00bf 57000000 		.4byte	0x57
 297 00c3 03       		.uleb128 0x3
 298 00c4 5F010000 		.4byte	.LASF17
 299 00c8 04       		.byte	0x4
 300 00c9 36       		.byte	0x36
 301 00ca 69000000 		.4byte	0x69
 302 00ce 03       		.uleb128 0x3
 303 00cf 92040000 		.4byte	.LASF18
 304 00d3 04       		.byte	0x4
 305 00d4 41       		.byte	0x41
 306 00d5 7B000000 		.4byte	0x7b
 307 00d9 03       		.uleb128 0x3
 308 00da 43050000 		.4byte	.LASF19
 309 00de 04       		.byte	0x4
 310 00df 42       		.byte	0x42
 311 00e0 8D000000 		.4byte	0x8d
 312 00e4 03       		.uleb128 0x3
 313 00e5 DF000000 		.4byte	.LASF20
 314 00e9 05       		.byte	0x5
 315 00ea 2B       		.byte	0x2b
 316 00eb EF000000 		.4byte	0xef
 317 00ef 04       		.uleb128 0x4
 318 00f0 01       		.byte	0x1
 319 00f1 02       		.byte	0x2
 320 00f2 8C040000 		.4byte	.LASF21
 321 00f6 03       		.uleb128 0x3
 322 00f7 76070000 		.4byte	.LASF22
 323 00fb 05       		.byte	0x5
 324 00fc 2C       		.byte	0x2c
 325 00fd AD000000 		.4byte	0xad
 326 0101 03       		.uleb128 0x3
 327 0102 3E010000 		.4byte	.LASF23
 328 0106 05       		.byte	0x5
 329 0107 2D       		.byte	0x2d
 330 0108 AD000000 		.4byte	0xad
 331 010c 03       		.uleb128 0x3
 332 010d 5C050000 		.4byte	.LASF24
ARM GAS  /tmp/ccPBXtzN.s 			page 7


 333 0111 05       		.byte	0x5
 334 0112 2E       		.byte	0x2e
 335 0113 AD000000 		.4byte	0xad
 336 0117 03       		.uleb128 0x3
 337 0118 04020000 		.4byte	.LASF25
 338 011c 05       		.byte	0x5
 339 011d 2F       		.byte	0x2f
 340 011e AD000000 		.4byte	0xad
 341 0122 03       		.uleb128 0x3
 342 0123 7E040000 		.4byte	.LASF26
 343 0127 05       		.byte	0x5
 344 0128 30       		.byte	0x30
 345 0129 D9000000 		.4byte	0xd9
 346 012d 03       		.uleb128 0x3
 347 012e 1A030000 		.4byte	.LASF27
 348 0132 05       		.byte	0x5
 349 0133 31       		.byte	0x31
 350 0134 CE000000 		.4byte	0xce
 351 0138 03       		.uleb128 0x3
 352 0139 AA030000 		.4byte	.LASF28
 353 013d 05       		.byte	0x5
 354 013e 33       		.byte	0x33
 355 013f D9000000 		.4byte	0xd9
 356 0143 03       		.uleb128 0x3
 357 0144 28060000 		.4byte	.LASF29
 358 0148 05       		.byte	0x5
 359 0149 35       		.byte	0x35
 360 014a D9000000 		.4byte	0xd9
 361 014e 03       		.uleb128 0x3
 362 014f E8010000 		.4byte	.LASF30
 363 0153 06       		.byte	0x6
 364 0154 2A       		.byte	0x2a
 365 0155 59010000 		.4byte	0x159
 366 0159 05       		.uleb128 0x5
 367 015a E8010000 		.4byte	.LASF30
 368 015e 48       		.byte	0x48
 369 015f 07       		.byte	0x7
 370 0160 5E       		.byte	0x5e
 371 0161 56020000 		.4byte	0x256
 372 0165 06       		.uleb128 0x6
 373 0166 F3040000 		.4byte	.LASF31
 374 016a 07       		.byte	0x7
 375 016b 5F       		.byte	0x5f
 376 016c 77020000 		.4byte	0x277
 377 0170 00       		.byte	0
 378 0171 06       		.uleb128 0x6
 379 0172 64040000 		.4byte	.LASF32
 380 0176 07       		.byte	0x7
 381 0177 61       		.byte	0x61
 382 0178 77020000 		.4byte	0x277
 383 017c 04       		.byte	0x4
 384 017d 06       		.uleb128 0x6
 385 017e A9000000 		.4byte	.LASF33
 386 0182 07       		.byte	0x7
 387 0183 63       		.byte	0x63
 388 0184 22010000 		.4byte	0x122
 389 0188 08       		.byte	0x8
ARM GAS  /tmp/ccPBXtzN.s 			page 8


 390 0189 06       		.uleb128 0x6
 391 018a 91070000 		.4byte	.LASF34
 392 018e 07       		.byte	0x7
 393 018f 64       		.byte	0x64
 394 0190 31030000 		.4byte	0x331
 395 0194 0C       		.byte	0xc
 396 0195 06       		.uleb128 0x6
 397 0196 7B010000 		.4byte	.LASF35
 398 019a 07       		.byte	0x7
 399 019b 66       		.byte	0x66
 400 019c 77020000 		.4byte	0x277
 401 01a0 10       		.byte	0x10
 402 01a1 06       		.uleb128 0x6
 403 01a2 11040000 		.4byte	.LASF36
 404 01a6 07       		.byte	0x7
 405 01a7 67       		.byte	0x67
 406 01a8 77020000 		.4byte	0x277
 407 01ac 14       		.byte	0x14
 408 01ad 06       		.uleb128 0x6
 409 01ae 87060000 		.4byte	.LASF37
 410 01b2 07       		.byte	0x7
 411 01b3 6E       		.byte	0x6e
 412 01b4 DA030000 		.4byte	0x3da
 413 01b8 18       		.byte	0x18
 414 01b9 06       		.uleb128 0x6
 415 01ba D1040000 		.4byte	.LASF38
 416 01be 07       		.byte	0x7
 417 01bf 79       		.byte	0x79
 418 01c0 01010000 		.4byte	0x101
 419 01c4 1C       		.byte	0x1c
 420 01c5 06       		.uleb128 0x6
 421 01c6 12050000 		.4byte	.LASF39
 422 01ca 07       		.byte	0x7
 423 01cb 7D       		.byte	0x7d
 424 01cc F6000000 		.4byte	0xf6
 425 01d0 1D       		.byte	0x1d
 426 01d1 06       		.uleb128 0x6
 427 01d2 8E060000 		.4byte	.LASF40
 428 01d6 07       		.byte	0x7
 429 01d7 82       		.byte	0x82
 430 01d8 0C010000 		.4byte	0x10c
 431 01dc 1E       		.byte	0x1e
 432 01dd 06       		.uleb128 0x6
 433 01de D9040000 		.4byte	.LASF41
 434 01e2 07       		.byte	0x7
 435 01e3 88       		.byte	0x88
 436 01e4 17010000 		.4byte	0x117
 437 01e8 1F       		.byte	0x1f
 438 01e9 06       		.uleb128 0x6
 439 01ea 68010000 		.4byte	.LASF42
 440 01ee 07       		.byte	0x7
 441 01ef 8F       		.byte	0x8f
 442 01f0 5E030000 		.4byte	0x35e
 443 01f4 20       		.byte	0x20
 444 01f5 07       		.uleb128 0x7
 445 01f6 705F7500 		.ascii	"p_u\000"
 446 01fa 07       		.byte	0x7
ARM GAS  /tmp/ccPBXtzN.s 			page 9


 447 01fb B4       		.byte	0xb4
 448 01fc A5030000 		.4byte	0x3a5
 449 0200 24       		.byte	0x24
 450 0201 06       		.uleb128 0x6
 451 0202 97070000 		.4byte	.LASF43
 452 0206 07       		.byte	0x7
 453 0207 B9       		.byte	0xb9
 454 0208 9D020000 		.4byte	0x29d
 455 020c 28       		.byte	0x28
 456 020d 06       		.uleb128 0x6
 457 020e 20020000 		.4byte	.LASF44
 458 0212 07       		.byte	0x7
 459 0213 BF       		.byte	0xbf
 460 0214 7D020000 		.4byte	0x27d
 461 0218 2C       		.byte	0x2c
 462 0219 06       		.uleb128 0x6
 463 021a 7E070000 		.4byte	.LASF45
 464 021e 07       		.byte	0x7
 465 021f C3       		.byte	0xc3
 466 0220 2D010000 		.4byte	0x12d
 467 0224 34       		.byte	0x34
 468 0225 06       		.uleb128 0x6
 469 0226 33050000 		.4byte	.LASF46
 470 022a 07       		.byte	0x7
 471 022b C9       		.byte	0xc9
 472 022c 38010000 		.4byte	0x138
 473 0230 38       		.byte	0x38
 474 0231 06       		.uleb128 0x6
 475 0232 BD040000 		.4byte	.LASF47
 476 0236 07       		.byte	0x7
 477 0237 D0       		.byte	0xd0
 478 0238 EC030000 		.4byte	0x3ec
 479 023c 3C       		.byte	0x3c
 480 023d 06       		.uleb128 0x6
 481 023e 32060000 		.4byte	.LASF48
 482 0242 07       		.byte	0x7
 483 0243 D4       		.byte	0xd4
 484 0244 22010000 		.4byte	0x122
 485 0248 40       		.byte	0x40
 486 0249 06       		.uleb128 0x6
 487 024a D7000000 		.4byte	.LASF49
 488 024e 07       		.byte	0x7
 489 024f DA       		.byte	0xda
 490 0250 B3020000 		.4byte	0x2b3
 491 0254 44       		.byte	0x44
 492 0255 00       		.byte	0
 493 0256 08       		.uleb128 0x8
 494 0257 08       		.byte	0x8
 495 0258 06       		.byte	0x6
 496 0259 61       		.byte	0x61
 497 025a 77020000 		.4byte	0x277
 498 025e 06       		.uleb128 0x6
 499 025f F3040000 		.4byte	.LASF31
 500 0263 06       		.byte	0x6
 501 0264 62       		.byte	0x62
 502 0265 77020000 		.4byte	0x277
 503 0269 00       		.byte	0
ARM GAS  /tmp/ccPBXtzN.s 			page 10


 504 026a 06       		.uleb128 0x6
 505 026b 64040000 		.4byte	.LASF32
 506 026f 06       		.byte	0x6
 507 0270 64       		.byte	0x64
 508 0271 77020000 		.4byte	0x277
 509 0275 04       		.byte	0x4
 510 0276 00       		.byte	0
 511 0277 09       		.uleb128 0x9
 512 0278 04       		.byte	0x4
 513 0279 4E010000 		.4byte	0x14e
 514 027d 03       		.uleb128 0x3
 515 027e 19040000 		.4byte	.LASF50
 516 0282 06       		.byte	0x6
 517 0283 66       		.byte	0x66
 518 0284 56020000 		.4byte	0x256
 519 0288 08       		.uleb128 0x8
 520 0289 04       		.byte	0x4
 521 028a 06       		.byte	0x6
 522 028b 6B       		.byte	0x6b
 523 028c 9D020000 		.4byte	0x29d
 524 0290 06       		.uleb128 0x6
 525 0291 F3040000 		.4byte	.LASF31
 526 0295 06       		.byte	0x6
 527 0296 6D       		.byte	0x6d
 528 0297 77020000 		.4byte	0x277
 529 029b 00       		.byte	0
 530 029c 00       		.byte	0
 531 029d 03       		.uleb128 0x3
 532 029e 9E030000 		.4byte	.LASF51
 533 02a2 06       		.byte	0x6
 534 02a3 70       		.byte	0x70
 535 02a4 88020000 		.4byte	0x288
 536 02a8 03       		.uleb128 0x3
 537 02a9 C5010000 		.4byte	.LASF52
 538 02ad 08       		.byte	0x8
 539 02ae E5       		.byte	0xe5
 540 02af B3020000 		.4byte	0x2b3
 541 02b3 0A       		.uleb128 0xa
 542 02b4 04       		.byte	0x4
 543 02b5 0B       		.uleb128 0xb
 544 02b6 6D060000 		.4byte	.LASF53
 545 02ba 24       		.byte	0x24
 546 02bb 08       		.byte	0x8
 547 02bc 0C01     		.2byte	0x10c
 548 02be 31030000 		.4byte	0x331
 549 02c2 0C       		.uleb128 0xc
 550 02c3 723400   		.ascii	"r4\000"
 551 02c6 08       		.byte	0x8
 552 02c7 1F01     		.2byte	0x11f
 553 02c9 A8020000 		.4byte	0x2a8
 554 02cd 00       		.byte	0
 555 02ce 0C       		.uleb128 0xc
 556 02cf 723500   		.ascii	"r5\000"
 557 02d2 08       		.byte	0x8
 558 02d3 2001     		.2byte	0x120
 559 02d5 A8020000 		.4byte	0x2a8
 560 02d9 04       		.byte	0x4
ARM GAS  /tmp/ccPBXtzN.s 			page 11


 561 02da 0C       		.uleb128 0xc
 562 02db 723600   		.ascii	"r6\000"
 563 02de 08       		.byte	0x8
 564 02df 2101     		.2byte	0x121
 565 02e1 A8020000 		.4byte	0x2a8
 566 02e5 08       		.byte	0x8
 567 02e6 0C       		.uleb128 0xc
 568 02e7 723700   		.ascii	"r7\000"
 569 02ea 08       		.byte	0x8
 570 02eb 2201     		.2byte	0x122
 571 02ed A8020000 		.4byte	0x2a8
 572 02f1 0C       		.byte	0xc
 573 02f2 0C       		.uleb128 0xc
 574 02f3 723800   		.ascii	"r8\000"
 575 02f6 08       		.byte	0x8
 576 02f7 2301     		.2byte	0x123
 577 02f9 A8020000 		.4byte	0x2a8
 578 02fd 10       		.byte	0x10
 579 02fe 0C       		.uleb128 0xc
 580 02ff 723900   		.ascii	"r9\000"
 581 0302 08       		.byte	0x8
 582 0303 2401     		.2byte	0x124
 583 0305 A8020000 		.4byte	0x2a8
 584 0309 14       		.byte	0x14
 585 030a 0C       		.uleb128 0xc
 586 030b 72313000 		.ascii	"r10\000"
 587 030f 08       		.byte	0x8
 588 0310 2501     		.2byte	0x125
 589 0312 A8020000 		.4byte	0x2a8
 590 0316 18       		.byte	0x18
 591 0317 0C       		.uleb128 0xc
 592 0318 72313100 		.ascii	"r11\000"
 593 031c 08       		.byte	0x8
 594 031d 2601     		.2byte	0x126
 595 031f A8020000 		.4byte	0x2a8
 596 0323 1C       		.byte	0x1c
 597 0324 0C       		.uleb128 0xc
 598 0325 6C7200   		.ascii	"lr\000"
 599 0328 08       		.byte	0x8
 600 0329 2701     		.2byte	0x127
 601 032b A8020000 		.4byte	0x2a8
 602 032f 20       		.byte	0x20
 603 0330 00       		.byte	0
 604 0331 0B       		.uleb128 0xb
 605 0332 48060000 		.4byte	.LASF54
 606 0336 04       		.byte	0x4
 607 0337 08       		.byte	0x8
 608 0338 3101     		.2byte	0x131
 609 033a 4C030000 		.4byte	0x34c
 610 033e 0C       		.uleb128 0xc
 611 033f 72313300 		.ascii	"r13\000"
 612 0343 08       		.byte	0x8
 613 0344 3201     		.2byte	0x132
 614 0346 4C030000 		.4byte	0x34c
 615 034a 00       		.byte	0
 616 034b 00       		.byte	0
 617 034c 09       		.uleb128 0x9
ARM GAS  /tmp/ccPBXtzN.s 			page 12


 618 034d 04       		.byte	0x4
 619 034e B5020000 		.4byte	0x2b5
 620 0352 0D       		.uleb128 0xd
 621 0353 D9000000 		.4byte	0xd9
 622 0357 04       		.uleb128 0x4
 623 0358 04       		.byte	0x4
 624 0359 07       		.byte	0x7
 625 035a F2030000 		.4byte	.LASF55
 626 035e 0D       		.uleb128 0xd
 627 035f 43010000 		.4byte	0x143
 628 0363 05       		.uleb128 0x5
 629 0364 FB030000 		.4byte	.LASF56
 630 0368 10       		.byte	0x10
 631 0369 09       		.byte	0x9
 632 036a 2C       		.byte	0x2c
 633 036b 94030000 		.4byte	0x394
 634 036f 06       		.uleb128 0x6
 635 0370 E6000000 		.4byte	.LASF57
 636 0374 09       		.byte	0x9
 637 0375 2D       		.byte	0x2d
 638 0376 7D020000 		.4byte	0x27d
 639 037a 00       		.byte	0
 640 037b 06       		.uleb128 0x6
 641 037c 89070000 		.4byte	.LASF58
 642 0380 09       		.byte	0x9
 643 0381 2F       		.byte	0x2f
 644 0382 77020000 		.4byte	0x277
 645 0386 08       		.byte	0x8
 646 0387 06       		.uleb128 0x6
 647 0388 32040000 		.4byte	.LASF59
 648 038c 09       		.byte	0x9
 649 038d 31       		.byte	0x31
 650 038e 94030000 		.4byte	0x394
 651 0392 0C       		.byte	0xc
 652 0393 00       		.byte	0
 653 0394 09       		.uleb128 0x9
 654 0395 04       		.byte	0x4
 655 0396 63030000 		.4byte	0x363
 656 039a 03       		.uleb128 0x3
 657 039b FB030000 		.4byte	.LASF56
 658 039f 09       		.byte	0x9
 659 03a0 33       		.byte	0x33
 660 03a1 63030000 		.4byte	0x363
 661 03a5 0E       		.uleb128 0xe
 662 03a6 04       		.byte	0x4
 663 03a7 07       		.byte	0x7
 664 03a8 96       		.byte	0x96
 665 03a9 DA030000 		.4byte	0x3da
 666 03ad 0F       		.uleb128 0xf
 667 03ae 07000000 		.4byte	.LASF60
 668 03b2 07       		.byte	0x7
 669 03b3 9D       		.byte	0x9d
 670 03b4 2D010000 		.4byte	0x12d
 671 03b8 0F       		.uleb128 0xf
 672 03b9 98010000 		.4byte	.LASF61
 673 03bd 07       		.byte	0x7
 674 03be A4       		.byte	0xa4
ARM GAS  /tmp/ccPBXtzN.s 			page 13


 675 03bf 2D010000 		.4byte	0x12d
 676 03c3 0F       		.uleb128 0xf
 677 03c4 51070000 		.4byte	.LASF62
 678 03c8 07       		.byte	0x7
 679 03c9 AB       		.byte	0xab
 680 03ca B3020000 		.4byte	0x2b3
 681 03ce 0F       		.uleb128 0xf
 682 03cf EC040000 		.4byte	.LASF63
 683 03d3 07       		.byte	0x7
 684 03d4 B2       		.byte	0xb2
 685 03d5 38010000 		.4byte	0x138
 686 03d9 00       		.byte	0
 687 03da 09       		.uleb128 0x9
 688 03db 04       		.byte	0x4
 689 03dc E0030000 		.4byte	0x3e0
 690 03e0 10       		.uleb128 0x10
 691 03e1 E5030000 		.4byte	0x3e5
 692 03e5 04       		.uleb128 0x4
 693 03e6 01       		.byte	0x1
 694 03e7 08       		.byte	0x8
 695 03e8 81050000 		.4byte	.LASF64
 696 03ec 09       		.uleb128 0x9
 697 03ed 04       		.byte	0x4
 698 03ee 9A030000 		.4byte	0x39a
 699 03f2 09       		.uleb128 0x9
 700 03f3 04       		.byte	0x4
 701 03f4 F8030000 		.4byte	0x3f8
 702 03f8 11       		.uleb128 0x11
 703 03f9 2D010000 		.4byte	0x12d
 704 03fd 07040000 		.4byte	0x407
 705 0401 12       		.uleb128 0x12
 706 0402 B3020000 		.4byte	0x2b3
 707 0406 00       		.byte	0
 708 0407 09       		.uleb128 0x9
 709 0408 04       		.byte	0x4
 710 0409 AD000000 		.4byte	0xad
 711 040d 05       		.uleb128 0x5
 712 040e FA040000 		.4byte	.LASF65
 713 0412 10       		.byte	0x10
 714 0413 0A       		.byte	0xa
 715 0414 48       		.byte	0x48
 716 0415 4A040000 		.4byte	0x44a
 717 0419 06       		.uleb128 0x6
 718 041a CD030000 		.4byte	.LASF66
 719 041e 0A       		.byte	0xa
 720 041f 49       		.byte	0x49
 721 0420 6E040000 		.4byte	0x46e
 722 0424 00       		.byte	0
 723 0425 06       		.uleb128 0x6
 724 0426 7C050000 		.4byte	.LASF67
 725 042a 0A       		.byte	0xa
 726 042b 49       		.byte	0x49
 727 042c 8D040000 		.4byte	0x48d
 728 0430 04       		.byte	0x4
 729 0431 07       		.uleb128 0x7
 730 0432 70757400 		.ascii	"put\000"
 731 0436 0A       		.byte	0xa
ARM GAS  /tmp/ccPBXtzN.s 			page 14


 732 0437 49       		.byte	0x49
 733 0438 A7040000 		.4byte	0x4a7
 734 043c 08       		.byte	0x8
 735 043d 07       		.uleb128 0x7
 736 043e 67657400 		.ascii	"get\000"
 737 0442 0A       		.byte	0xa
 738 0443 49       		.byte	0x49
 739 0444 F2030000 		.4byte	0x3f2
 740 0448 0C       		.byte	0xc
 741 0449 00       		.byte	0
 742 044a 11       		.uleb128 0x11
 743 044b 2C000000 		.4byte	0x2c
 744 044f 63040000 		.4byte	0x463
 745 0453 12       		.uleb128 0x12
 746 0454 B3020000 		.4byte	0x2b3
 747 0458 12       		.uleb128 0x12
 748 0459 63040000 		.4byte	0x463
 749 045d 12       		.uleb128 0x12
 750 045e 2C000000 		.4byte	0x2c
 751 0462 00       		.byte	0
 752 0463 09       		.uleb128 0x9
 753 0464 04       		.byte	0x4
 754 0465 69040000 		.4byte	0x469
 755 0469 10       		.uleb128 0x10
 756 046a AD000000 		.4byte	0xad
 757 046e 09       		.uleb128 0x9
 758 046f 04       		.byte	0x4
 759 0470 4A040000 		.4byte	0x44a
 760 0474 11       		.uleb128 0x11
 761 0475 2C000000 		.4byte	0x2c
 762 0479 8D040000 		.4byte	0x48d
 763 047d 12       		.uleb128 0x12
 764 047e B3020000 		.4byte	0x2b3
 765 0482 12       		.uleb128 0x12
 766 0483 07040000 		.4byte	0x407
 767 0487 12       		.uleb128 0x12
 768 0488 2C000000 		.4byte	0x2c
 769 048c 00       		.byte	0
 770 048d 09       		.uleb128 0x9
 771 048e 04       		.byte	0x4
 772 048f 74040000 		.4byte	0x474
 773 0493 11       		.uleb128 0x11
 774 0494 2D010000 		.4byte	0x12d
 775 0498 A7040000 		.4byte	0x4a7
 776 049c 12       		.uleb128 0x12
 777 049d B3020000 		.4byte	0x2b3
 778 04a1 12       		.uleb128 0x12
 779 04a2 AD000000 		.4byte	0xad
 780 04a6 00       		.byte	0
 781 04a7 09       		.uleb128 0x9
 782 04a8 04       		.byte	0x4
 783 04a9 93040000 		.4byte	0x493
 784 04ad 08       		.uleb128 0x8
 785 04ae 04       		.byte	0x4
 786 04af 0A       		.byte	0xa
 787 04b0 51       		.byte	0x51
 788 04b1 C2040000 		.4byte	0x4c2
ARM GAS  /tmp/ccPBXtzN.s 			page 15


 789 04b5 07       		.uleb128 0x7
 790 04b6 766D7400 		.ascii	"vmt\000"
 791 04ba 0A       		.byte	0xa
 792 04bb 53       		.byte	0x53
 793 04bc C2040000 		.4byte	0x4c2
 794 04c0 00       		.byte	0
 795 04c1 00       		.byte	0
 796 04c2 09       		.uleb128 0x9
 797 04c3 04       		.byte	0x4
 798 04c4 C8040000 		.4byte	0x4c8
 799 04c8 10       		.uleb128 0x10
 800 04c9 0D040000 		.4byte	0x40d
 801 04cd 03       		.uleb128 0x3
 802 04ce EF010000 		.4byte	.LASF68
 803 04d2 0A       		.byte	0xa
 804 04d3 55       		.byte	0x55
 805 04d4 AD040000 		.4byte	0x4ad
 806 04d8 0D       		.uleb128 0xd
 807 04d9 CE000000 		.4byte	0xce
 808 04dd 13       		.uleb128 0x13
 809 04de 50       		.byte	0x50
 810 04df 0B       		.byte	0xb
 811 04e0 2D02     		.2byte	0x22d
 812 04e2 E9050000 		.4byte	0x5e9
 813 04e6 0C       		.uleb128 0xc
 814 04e7 535200   		.ascii	"SR\000"
 815 04ea 0B       		.byte	0xb
 816 04eb 2F02     		.2byte	0x22f
 817 04ed 52030000 		.4byte	0x352
 818 04f1 00       		.byte	0
 819 04f2 0C       		.uleb128 0xc
 820 04f3 43523100 		.ascii	"CR1\000"
 821 04f7 0B       		.byte	0xb
 822 04f8 3002     		.2byte	0x230
 823 04fa 52030000 		.4byte	0x352
 824 04fe 04       		.byte	0x4
 825 04ff 0C       		.uleb128 0xc
 826 0500 43523200 		.ascii	"CR2\000"
 827 0504 0B       		.byte	0xb
 828 0505 3102     		.2byte	0x231
 829 0507 52030000 		.4byte	0x352
 830 050b 08       		.byte	0x8
 831 050c 14       		.uleb128 0x14
 832 050d 26040000 		.4byte	.LASF69
 833 0511 0B       		.byte	0xb
 834 0512 3202     		.2byte	0x232
 835 0514 52030000 		.4byte	0x352
 836 0518 0C       		.byte	0xc
 837 0519 14       		.uleb128 0x14
 838 051a 2C040000 		.4byte	.LASF70
 839 051e 0B       		.byte	0xb
 840 051f 3302     		.2byte	0x233
 841 0521 52030000 		.4byte	0x352
 842 0525 10       		.byte	0x10
 843 0526 14       		.uleb128 0x14
 844 0527 D8030000 		.4byte	.LASF71
 845 052b 0B       		.byte	0xb
ARM GAS  /tmp/ccPBXtzN.s 			page 16


 846 052c 3402     		.2byte	0x234
 847 052e 52030000 		.4byte	0x352
 848 0532 14       		.byte	0x14
 849 0533 14       		.uleb128 0x14
 850 0534 DE030000 		.4byte	.LASF72
 851 0538 0B       		.byte	0xb
 852 0539 3502     		.2byte	0x235
 853 053b 52030000 		.4byte	0x352
 854 053f 18       		.byte	0x18
 855 0540 14       		.uleb128 0x14
 856 0541 E4030000 		.4byte	.LASF73
 857 0545 0B       		.byte	0xb
 858 0546 3602     		.2byte	0x236
 859 0548 52030000 		.4byte	0x352
 860 054c 1C       		.byte	0x1c
 861 054d 14       		.uleb128 0x14
 862 054e 25050000 		.4byte	.LASF74
 863 0552 0B       		.byte	0xb
 864 0553 3702     		.2byte	0x237
 865 0555 52030000 		.4byte	0x352
 866 0559 20       		.byte	0x20
 867 055a 0C       		.uleb128 0xc
 868 055b 48545200 		.ascii	"HTR\000"
 869 055f 0B       		.byte	0xb
 870 0560 3802     		.2byte	0x238
 871 0562 52030000 		.4byte	0x352
 872 0566 24       		.byte	0x24
 873 0567 0C       		.uleb128 0xc
 874 0568 4C545200 		.ascii	"LTR\000"
 875 056c 0B       		.byte	0xb
 876 056d 3902     		.2byte	0x239
 877 056f 52030000 		.4byte	0x352
 878 0573 28       		.byte	0x28
 879 0574 14       		.uleb128 0x14
 880 0575 39040000 		.4byte	.LASF75
 881 0579 0B       		.byte	0xb
 882 057a 3A02     		.2byte	0x23a
 883 057c 52030000 		.4byte	0x352
 884 0580 2C       		.byte	0x2c
 885 0581 14       		.uleb128 0x14
 886 0582 3E040000 		.4byte	.LASF76
 887 0586 0B       		.byte	0xb
 888 0587 3B02     		.2byte	0x23b
 889 0589 52030000 		.4byte	0x352
 890 058d 30       		.byte	0x30
 891 058e 14       		.uleb128 0x14
 892 058f 43040000 		.4byte	.LASF77
 893 0593 0B       		.byte	0xb
 894 0594 3C02     		.2byte	0x23c
 895 0596 52030000 		.4byte	0x352
 896 059a 34       		.byte	0x34
 897 059b 14       		.uleb128 0x14
 898 059c B0000000 		.4byte	.LASF78
 899 05a0 0B       		.byte	0xb
 900 05a1 3D02     		.2byte	0x23d
 901 05a3 52030000 		.4byte	0x352
 902 05a7 38       		.byte	0x38
ARM GAS  /tmp/ccPBXtzN.s 			page 17


 903 05a8 14       		.uleb128 0x14
 904 05a9 33070000 		.4byte	.LASF79
 905 05ad 0B       		.byte	0xb
 906 05ae 3E02     		.2byte	0x23e
 907 05b0 52030000 		.4byte	0x352
 908 05b4 3C       		.byte	0x3c
 909 05b5 14       		.uleb128 0x14
 910 05b6 38070000 		.4byte	.LASF80
 911 05ba 0B       		.byte	0xb
 912 05bb 3F02     		.2byte	0x23f
 913 05bd 52030000 		.4byte	0x352
 914 05c1 40       		.byte	0x40
 915 05c2 14       		.uleb128 0x14
 916 05c3 3D070000 		.4byte	.LASF81
 917 05c7 0B       		.byte	0xb
 918 05c8 4002     		.2byte	0x240
 919 05ca 52030000 		.4byte	0x352
 920 05ce 44       		.byte	0x44
 921 05cf 14       		.uleb128 0x14
 922 05d0 42070000 		.4byte	.LASF82
 923 05d4 0B       		.byte	0xb
 924 05d5 4102     		.2byte	0x241
 925 05d7 52030000 		.4byte	0x352
 926 05db 48       		.byte	0x48
 927 05dc 0C       		.uleb128 0xc
 928 05dd 445200   		.ascii	"DR\000"
 929 05e0 0B       		.byte	0xb
 930 05e1 4202     		.2byte	0x242
 931 05e3 52030000 		.4byte	0x352
 932 05e7 4C       		.byte	0x4c
 933 05e8 00       		.byte	0
 934 05e9 15       		.uleb128 0x15
 935 05ea 6F010000 		.4byte	.LASF83
 936 05ee 0B       		.byte	0xb
 937 05ef 4302     		.2byte	0x243
 938 05f1 DD040000 		.4byte	0x4dd
 939 05f5 13       		.uleb128 0x13
 940 05f6 10       		.byte	0x10
 941 05f7 0B       		.byte	0xb
 942 05f8 2D03     		.2byte	0x32d
 943 05fa 33060000 		.4byte	0x633
 944 05fe 0C       		.uleb128 0xc
 945 05ff 43435200 		.ascii	"CCR\000"
 946 0603 0B       		.byte	0xb
 947 0604 2F03     		.2byte	0x32f
 948 0606 52030000 		.4byte	0x352
 949 060a 00       		.byte	0
 950 060b 14       		.uleb128 0x14
 951 060c 95060000 		.4byte	.LASF84
 952 0610 0B       		.byte	0xb
 953 0611 3003     		.2byte	0x330
 954 0613 52030000 		.4byte	0x352
 955 0617 04       		.byte	0x4
 956 0618 14       		.uleb128 0x14
 957 0619 1B020000 		.4byte	.LASF85
 958 061d 0B       		.byte	0xb
 959 061e 3103     		.2byte	0x331
ARM GAS  /tmp/ccPBXtzN.s 			page 18


 960 0620 52030000 		.4byte	0x352
 961 0624 08       		.byte	0x8
 962 0625 14       		.uleb128 0x14
 963 0626 C8030000 		.4byte	.LASF86
 964 062a 0B       		.byte	0xb
 965 062b 3203     		.2byte	0x332
 966 062d 52030000 		.4byte	0x352
 967 0631 0C       		.byte	0xc
 968 0632 00       		.byte	0
 969 0633 15       		.uleb128 0x15
 970 0634 35020000 		.4byte	.LASF87
 971 0638 0B       		.byte	0xb
 972 0639 3303     		.2byte	0x333
 973 063b F5050000 		.4byte	0x5f5
 974 063f 08       		.uleb128 0x8
 975 0640 0C       		.byte	0xc
 976 0641 0C       		.byte	0xc
 977 0642 C1       		.byte	0xc1
 978 0643 84060000 		.4byte	0x684
 979 0647 06       		.uleb128 0x6
 980 0648 2B050000 		.4byte	.LASF88
 981 064c 0C       		.byte	0xc
 982 064d C2       		.byte	0xc2
 983 064e 84060000 		.4byte	0x684
 984 0652 00       		.byte	0
 985 0653 06       		.uleb128 0x6
 986 0654 3E050000 		.4byte	.LASF89
 987 0658 0C       		.byte	0xc
 988 0659 C3       		.byte	0xc3
 989 065a 8A060000 		.4byte	0x68a
 990 065e 04       		.byte	0x4
 991 065f 06       		.uleb128 0x6
 992 0660 49020000 		.4byte	.LASF90
 993 0664 0C       		.byte	0xc
 994 0665 C4       		.byte	0xc4
 995 0666 AD000000 		.4byte	0xad
 996 066a 08       		.byte	0x8
 997 066b 06       		.uleb128 0x6
 998 066c CE010000 		.4byte	.LASF91
 999 0670 0C       		.byte	0xc
 1000 0671 C6       		.byte	0xc6
 1001 0672 AD000000 		.4byte	0xad
 1002 0676 09       		.byte	0x9
 1003 0677 06       		.uleb128 0x6
 1004 0678 21000000 		.4byte	.LASF92
 1005 067c 0C       		.byte	0xc
 1006 067d C7       		.byte	0xc7
 1007 067e AD000000 		.4byte	0xad
 1008 0682 0A       		.byte	0xa
 1009 0683 00       		.byte	0
 1010 0684 09       		.uleb128 0x9
 1011 0685 04       		.byte	0x4
 1012 0686 33060000 		.4byte	0x633
 1013 068a 09       		.uleb128 0x9
 1014 068b 04       		.byte	0x4
 1015 068c 52030000 		.4byte	0x352
 1016 0690 03       		.uleb128 0x3
ARM GAS  /tmp/ccPBXtzN.s 			page 19


 1017 0691 6B040000 		.4byte	.LASF93
 1018 0695 0C       		.byte	0xc
 1019 0696 C8       		.byte	0xc8
 1020 0697 3F060000 		.4byte	0x63f
 1021 069b 16       		.uleb128 0x16
 1022 069c 01       		.byte	0x1
 1023 069d 0D       		.byte	0xd
 1024 069e 55       		.byte	0x55
 1025 069f C8060000 		.4byte	0x6c8
 1026 06a3 17       		.uleb128 0x17
 1027 06a4 91000000 		.4byte	.LASF94
 1028 06a8 00       		.sleb128 0
 1029 06a9 17       		.uleb128 0x17
 1030 06aa 01040000 		.4byte	.LASF95
 1031 06ae 01       		.sleb128 1
 1032 06af 17       		.uleb128 0x17
 1033 06b0 0A030000 		.4byte	.LASF96
 1034 06b4 02       		.sleb128 2
 1035 06b5 17       		.uleb128 0x17
 1036 06b6 1A050000 		.4byte	.LASF97
 1037 06ba 03       		.sleb128 3
 1038 06bb 17       		.uleb128 0x17
 1039 06bc 3E000000 		.4byte	.LASF98
 1040 06c0 04       		.sleb128 4
 1041 06c1 17       		.uleb128 0x17
 1042 06c2 74060000 		.4byte	.LASF99
 1043 06c6 05       		.sleb128 5
 1044 06c7 00       		.byte	0
 1045 06c8 03       		.uleb128 0x3
 1046 06c9 16000000 		.4byte	.LASF100
 1047 06cd 0D       		.byte	0xd
 1048 06ce 5C       		.byte	0x5c
 1049 06cf 9B060000 		.4byte	0x69b
 1050 06d3 03       		.uleb128 0x3
 1051 06d4 A1010000 		.4byte	.LASF101
 1052 06d8 0E       		.byte	0xe
 1053 06d9 87       		.byte	0x87
 1054 06da C3000000 		.4byte	0xc3
 1055 06de 03       		.uleb128 0x3
 1056 06df 63070000 		.4byte	.LASF102
 1057 06e3 0E       		.byte	0xe
 1058 06e4 8C       		.byte	0x8c
 1059 06e5 C3000000 		.4byte	0xc3
 1060 06e9 16       		.uleb128 0x16
 1061 06ea 01       		.byte	0x1
 1062 06eb 0E       		.byte	0xe
 1063 06ec 93       		.byte	0x93
 1064 06ed F8060000 		.4byte	0x6f8
 1065 06f1 17       		.uleb128 0x17
 1066 06f2 18010000 		.4byte	.LASF103
 1067 06f6 00       		.sleb128 0
 1068 06f7 00       		.byte	0
 1069 06f8 03       		.uleb128 0x3
 1070 06f9 EE000000 		.4byte	.LASF104
 1071 06fd 0E       		.byte	0xe
 1072 06fe 95       		.byte	0x95
 1073 06ff E9060000 		.4byte	0x6e9
ARM GAS  /tmp/ccPBXtzN.s 			page 20


 1074 0703 03       		.uleb128 0x3
 1075 0704 2B020000 		.4byte	.LASF105
 1076 0708 0E       		.byte	0xe
 1077 0709 9A       		.byte	0x9a
 1078 070a 0E070000 		.4byte	0x70e
 1079 070e 05       		.uleb128 0x5
 1080 070f 2B020000 		.4byte	.LASF105
 1081 0713 34       		.byte	0x34
 1082 0714 0E       		.byte	0xe
 1083 0715 FE       		.byte	0xfe
 1084 0716 9D070000 		.4byte	0x79d
 1085 071a 14       		.uleb128 0x14
 1086 071b 00010000 		.4byte	.LASF106
 1087 071f 0E       		.byte	0xe
 1088 0720 0201     		.2byte	0x102
 1089 0722 C8060000 		.4byte	0x6c8
 1090 0726 00       		.byte	0
 1091 0727 14       		.uleb128 0x14
 1092 0728 BE050000 		.4byte	.LASF107
 1093 072c 0E       		.byte	0xe
 1094 072d 0601     		.2byte	0x106
 1095 072f A8080000 		.4byte	0x8a8
 1096 0733 04       		.byte	0x4
 1097 0734 14       		.uleb128 0x14
 1098 0735 EA030000 		.4byte	.LASF108
 1099 0739 0E       		.byte	0xe
 1100 073a 0A01     		.2byte	0x10a
 1101 073c C9070000 		.4byte	0x7c9
 1102 0740 08       		.byte	0x8
 1103 0741 14       		.uleb128 0x14
 1104 0742 14030000 		.4byte	.LASF109
 1105 0746 0E       		.byte	0xe
 1106 0747 0E01     		.2byte	0x10e
 1107 0749 2C000000 		.4byte	0x2c
 1108 074d 0C       		.byte	0xc
 1109 074e 14       		.uleb128 0x14
 1110 074f D3030000 		.4byte	.LASF110
 1111 0753 0E       		.byte	0xe
 1112 0754 1201     		.2byte	0x112
 1113 0756 B3080000 		.4byte	0x8b3
 1114 075a 10       		.byte	0x10
 1115 075b 14       		.uleb128 0x14
 1116 075c 58010000 		.4byte	.LASF111
 1117 0760 0E       		.byte	0xe
 1118 0761 1701     		.2byte	0x117
 1119 0763 77020000 		.4byte	0x277
 1120 0767 14       		.byte	0x14
 1121 0768 14       		.uleb128 0x14
 1122 0769 86040000 		.4byte	.LASF112
 1123 076d 0E       		.byte	0xe
 1124 076e 1E01     		.2byte	0x11e
 1125 0770 9A030000 		.4byte	0x39a
 1126 0774 18       		.byte	0x18
 1127 0775 0C       		.uleb128 0xc
 1128 0776 61646300 		.ascii	"adc\000"
 1129 077a 0E       		.byte	0xe
 1130 077b 2A01     		.2byte	0x12a
ARM GAS  /tmp/ccPBXtzN.s 			page 21


 1131 077d BE080000 		.4byte	0x8be
 1132 0781 28       		.byte	0x28
 1133 0782 14       		.uleb128 0x14
 1134 0783 F9000000 		.4byte	.LASF113
 1135 0787 0E       		.byte	0xe
 1136 0788 2E01     		.2byte	0x12e
 1137 078a C4080000 		.4byte	0x8c4
 1138 078e 2C       		.byte	0x2c
 1139 078f 14       		.uleb128 0x14
 1140 0790 0E000000 		.4byte	.LASF114
 1141 0794 0E       		.byte	0xe
 1142 0795 3201     		.2byte	0x132
 1143 0797 D9000000 		.4byte	0xd9
 1144 079b 30       		.byte	0x30
 1145 079c 00       		.byte	0
 1146 079d 03       		.uleb128 0x3
 1147 079e 8A010000 		.4byte	.LASF115
 1148 07a2 0E       		.byte	0xe
 1149 07a3 A4       		.byte	0xa4
 1150 07a4 A8070000 		.4byte	0x7a8
 1151 07a8 09       		.uleb128 0x9
 1152 07a9 04       		.byte	0x4
 1153 07aa AE070000 		.4byte	0x7ae
 1154 07ae 18       		.uleb128 0x18
 1155 07af C3070000 		.4byte	0x7c3
 1156 07b3 12       		.uleb128 0x12
 1157 07b4 C3070000 		.4byte	0x7c3
 1158 07b8 12       		.uleb128 0x12
 1159 07b9 C9070000 		.4byte	0x7c9
 1160 07bd 12       		.uleb128 0x12
 1161 07be 2C000000 		.4byte	0x2c
 1162 07c2 00       		.byte	0
 1163 07c3 09       		.uleb128 0x9
 1164 07c4 04       		.byte	0x4
 1165 07c5 03070000 		.4byte	0x703
 1166 07c9 09       		.uleb128 0x9
 1167 07ca 04       		.byte	0x4
 1168 07cb D3060000 		.4byte	0x6d3
 1169 07cf 03       		.uleb128 0x3
 1170 07d0 2B010000 		.4byte	.LASF116
 1171 07d4 0E       		.byte	0xe
 1172 07d5 AD       		.byte	0xad
 1173 07d6 DA070000 		.4byte	0x7da
 1174 07da 09       		.uleb128 0x9
 1175 07db 04       		.byte	0x4
 1176 07dc E0070000 		.4byte	0x7e0
 1177 07e0 18       		.uleb128 0x18
 1178 07e1 F0070000 		.4byte	0x7f0
 1179 07e5 12       		.uleb128 0x12
 1180 07e6 C3070000 		.4byte	0x7c3
 1181 07ea 12       		.uleb128 0x12
 1182 07eb F8060000 		.4byte	0x6f8
 1183 07ef 00       		.byte	0
 1184 07f0 08       		.uleb128 0x8
 1185 07f1 28       		.byte	0x28
 1186 07f2 0E       		.byte	0xe
 1187 07f3 B7       		.byte	0xb7
ARM GAS  /tmp/ccPBXtzN.s 			page 22


 1188 07f4 7D080000 		.4byte	0x87d
 1189 07f8 06       		.uleb128 0x6
 1190 07f9 06010000 		.4byte	.LASF117
 1191 07fd 0E       		.byte	0xe
 1192 07fe BB       		.byte	0xbb
 1193 07ff E4000000 		.4byte	0xe4
 1194 0803 00       		.byte	0
 1195 0804 06       		.uleb128 0x6
 1196 0805 4B000000 		.4byte	.LASF118
 1197 0809 0E       		.byte	0xe
 1198 080a BF       		.byte	0xbf
 1199 080b DE060000 		.4byte	0x6de
 1200 080f 02       		.byte	0x2
 1201 0810 06       		.uleb128 0x6
 1202 0811 83010000 		.4byte	.LASF119
 1203 0815 0E       		.byte	0xe
 1204 0816 C3       		.byte	0xc3
 1205 0817 9D070000 		.4byte	0x79d
 1206 081b 04       		.byte	0x4
 1207 081c 06       		.uleb128 0x6
 1208 081d E3040000 		.4byte	.LASF120
 1209 0821 0E       		.byte	0xe
 1210 0822 C7       		.byte	0xc7
 1211 0823 CF070000 		.4byte	0x7cf
 1212 0827 08       		.byte	0x8
 1213 0828 07       		.uleb128 0x7
 1214 0829 63723100 		.ascii	"cr1\000"
 1215 082d 0E       		.byte	0xe
 1216 082e CE       		.byte	0xce
 1217 082f D9000000 		.4byte	0xd9
 1218 0833 0C       		.byte	0xc
 1219 0834 07       		.uleb128 0x7
 1220 0835 63723200 		.ascii	"cr2\000"
 1221 0839 0E       		.byte	0xe
 1222 083a D5       		.byte	0xd5
 1223 083b D9000000 		.4byte	0xd9
 1224 083f 10       		.byte	0x10
 1225 0840 06       		.uleb128 0x6
 1226 0841 64050000 		.4byte	.LASF121
 1227 0845 0E       		.byte	0xe
 1228 0846 DB       		.byte	0xdb
 1229 0847 D9000000 		.4byte	0xd9
 1230 084b 14       		.byte	0x14
 1231 084c 06       		.uleb128 0x6
 1232 084d 9B060000 		.4byte	.LASF122
 1233 0851 0E       		.byte	0xe
 1234 0852 E1       		.byte	0xe1
 1235 0853 D9000000 		.4byte	0xd9
 1236 0857 18       		.byte	0x18
 1237 0858 06       		.uleb128 0x6
 1238 0859 19060000 		.4byte	.LASF123
 1239 085d 0E       		.byte	0xe
 1240 085e E6       		.byte	0xe6
 1241 085f D9000000 		.4byte	0xd9
 1242 0863 1C       		.byte	0x1c
 1243 0864 06       		.uleb128 0x6
 1244 0865 1E060000 		.4byte	.LASF124
ARM GAS  /tmp/ccPBXtzN.s 			page 23


 1245 0869 0E       		.byte	0xe
 1246 086a EB       		.byte	0xeb
 1247 086b D9000000 		.4byte	0xd9
 1248 086f 20       		.byte	0x20
 1249 0870 06       		.uleb128 0x6
 1250 0871 23060000 		.4byte	.LASF125
 1251 0875 0E       		.byte	0xe
 1252 0876 F0       		.byte	0xf0
 1253 0877 D9000000 		.4byte	0xd9
 1254 087b 24       		.byte	0x24
 1255 087c 00       		.byte	0
 1256 087d 03       		.uleb128 0x3
 1257 087e 20070000 		.4byte	.LASF126
 1258 0882 0E       		.byte	0xe
 1259 0883 F1       		.byte	0xf1
 1260 0884 F0070000 		.4byte	0x7f0
 1261 0888 08       		.uleb128 0x8
 1262 0889 04       		.byte	0x4
 1263 088a 0E       		.byte	0xe
 1264 088b F7       		.byte	0xf7
 1265 088c 9D080000 		.4byte	0x89d
 1266 0890 06       		.uleb128 0x6
 1267 0891 E2010000 		.4byte	.LASF127
 1268 0895 0E       		.byte	0xe
 1269 0896 F8       		.byte	0xf8
 1270 0897 D9000000 		.4byte	0xd9
 1271 089b 00       		.byte	0
 1272 089c 00       		.byte	0
 1273 089d 03       		.uleb128 0x3
 1274 089e 52050000 		.4byte	.LASF128
 1275 08a2 0E       		.byte	0xe
 1276 08a3 F9       		.byte	0xf9
 1277 08a4 88080000 		.4byte	0x888
 1278 08a8 09       		.uleb128 0x9
 1279 08a9 04       		.byte	0x4
 1280 08aa AE080000 		.4byte	0x8ae
 1281 08ae 10       		.uleb128 0x10
 1282 08af 9D080000 		.4byte	0x89d
 1283 08b3 09       		.uleb128 0x9
 1284 08b4 04       		.byte	0x4
 1285 08b5 B9080000 		.4byte	0x8b9
 1286 08b9 10       		.uleb128 0x10
 1287 08ba 7D080000 		.4byte	0x87d
 1288 08be 09       		.uleb128 0x9
 1289 08bf 04       		.byte	0x4
 1290 08c0 E9050000 		.4byte	0x5e9
 1291 08c4 09       		.uleb128 0x9
 1292 08c5 04       		.byte	0x4
 1293 08c6 CA080000 		.4byte	0x8ca
 1294 08ca 10       		.uleb128 0x10
 1295 08cb 90060000 		.4byte	0x690
 1296 08cf 03       		.uleb128 0x3
 1297 08d0 50060000 		.4byte	.LASF129
 1298 08d4 0F       		.byte	0xf
 1299 08d5 39       		.byte	0x39
 1300 08d6 CD040000 		.4byte	0x4cd
 1301 08da 16       		.uleb128 0x16
ARM GAS  /tmp/ccPBXtzN.s 			page 24


 1302 08db 01       		.byte	0x1
 1303 08dc 10       		.byte	0x10
 1304 08dd 8D       		.byte	0x8d
 1305 08de 37090000 		.4byte	0x937
 1306 08e2 17       		.uleb128 0x17
 1307 08e3 47010000 		.4byte	.LASF130
 1308 08e7 7F       		.sleb128 -1
 1309 08e8 17       		.uleb128 0x17
 1310 08e9 20030000 		.4byte	.LASF131
 1311 08ed 00       		.sleb128 0
 1312 08ee 17       		.uleb128 0x17
 1313 08ef 2E030000 		.4byte	.LASF132
 1314 08f3 01       		.sleb128 1
 1315 08f4 17       		.uleb128 0x17
 1316 08f5 3C030000 		.4byte	.LASF133
 1317 08f9 02       		.sleb128 2
 1318 08fa 17       		.uleb128 0x17
 1319 08fb 4A030000 		.4byte	.LASF134
 1320 08ff 03       		.sleb128 3
 1321 0900 17       		.uleb128 0x17
 1322 0901 58030000 		.4byte	.LASF135
 1323 0905 04       		.sleb128 4
 1324 0906 17       		.uleb128 0x17
 1325 0907 66030000 		.4byte	.LASF136
 1326 090b 05       		.sleb128 5
 1327 090c 17       		.uleb128 0x17
 1328 090d 74030000 		.4byte	.LASF137
 1329 0911 06       		.sleb128 6
 1330 0912 17       		.uleb128 0x17
 1331 0913 82030000 		.4byte	.LASF138
 1332 0917 07       		.sleb128 7
 1333 0918 17       		.uleb128 0x17
 1334 0919 90030000 		.4byte	.LASF139
 1335 091d 08       		.sleb128 8
 1336 091e 17       		.uleb128 0x17
 1337 091f EC050000 		.4byte	.LASF140
 1338 0923 09       		.sleb128 9
 1339 0924 17       		.uleb128 0x17
 1340 0925 FB050000 		.4byte	.LASF141
 1341 0929 0A       		.sleb128 10
 1342 092a 17       		.uleb128 0x17
 1343 092b 0A060000 		.4byte	.LASF142
 1344 092f 0B       		.sleb128 11
 1345 0930 17       		.uleb128 0x17
 1346 0931 81000000 		.4byte	.LASF143
 1347 0935 0C       		.sleb128 12
 1348 0936 00       		.byte	0
 1349 0937 16       		.uleb128 0x16
 1350 0938 01       		.byte	0x1
 1351 0939 10       		.byte	0x10
 1352 093a A2       		.byte	0xa2
 1353 093b 4C090000 		.4byte	0x94c
 1354 093f 17       		.uleb128 0x17
 1355 0940 A1070000 		.4byte	.LASF144
 1356 0944 00       		.sleb128 0
 1357 0945 17       		.uleb128 0x17
 1358 0946 58000000 		.4byte	.LASF145
ARM GAS  /tmp/ccPBXtzN.s 			page 25


 1359 094a 01       		.sleb128 1
 1360 094b 00       		.byte	0
 1361 094c 16       		.uleb128 0x16
 1362 094d 01       		.byte	0x1
 1363 094e 11       		.byte	0x11
 1364 094f 46       		.byte	0x46
 1365 0950 92090000 		.4byte	0x992
 1366 0954 17       		.uleb128 0x17
 1367 0955 48040000 		.4byte	.LASF146
 1368 0959 00       		.sleb128 0
 1369 095a 17       		.uleb128 0x17
 1370 095b 86050000 		.4byte	.LASF147
 1371 095f 01       		.sleb128 1
 1372 0960 17       		.uleb128 0x17
 1373 0961 94050000 		.4byte	.LASF148
 1374 0965 02       		.sleb128 2
 1375 0966 17       		.uleb128 0x17
 1376 0967 A2050000 		.4byte	.LASF149
 1377 096b 03       		.sleb128 3
 1378 096c 17       		.uleb128 0x17
 1379 096d B0050000 		.4byte	.LASF150
 1380 0971 04       		.sleb128 4
 1381 0972 17       		.uleb128 0x17
 1382 0973 56040000 		.4byte	.LASF151
 1383 0977 05       		.sleb128 5
 1384 0978 17       		.uleb128 0x17
 1385 0979 C5050000 		.4byte	.LASF152
 1386 097d 06       		.sleb128 6
 1387 097e 17       		.uleb128 0x17
 1388 097f D3050000 		.4byte	.LASF153
 1389 0983 07       		.sleb128 7
 1390 0984 17       		.uleb128 0x17
 1391 0985 D8010000 		.4byte	.LASF154
 1392 0989 08       		.sleb128 8
 1393 098a 17       		.uleb128 0x17
 1394 098b 08070000 		.4byte	.LASF155
 1395 098f E300     		.sleb128 99
 1396 0991 00       		.byte	0
 1397 0992 09       		.uleb128 0x9
 1398 0993 04       		.byte	0x4
 1399 0994 CF080000 		.4byte	0x8cf
 1400 0998 09       		.uleb128 0x9
 1401 0999 04       		.byte	0x4
 1402 099a 9E090000 		.4byte	0x99e
 1403 099e 09       		.uleb128 0x9
 1404 099f 04       		.byte	0x4
 1405 09a0 E5030000 		.4byte	0x3e5
 1406 09a4 19       		.uleb128 0x19
 1407 09a5 50020000 		.4byte	.LASF171
 1408 09a9 01       		.byte	0x1
 1409 09aa 78       		.byte	0x78
 1410 09ab B8000000 		.4byte	0xb8
 1411 09af 01       		.byte	0x1
 1412 09b0 C0090000 		.4byte	0x9c0
 1413 09b4 1A       		.uleb128 0x1a
 1414 09b5 58070000 		.4byte	.LASF172
 1415 09b9 01       		.byte	0x1
ARM GAS  /tmp/ccPBXtzN.s 			page 26


 1416 09ba 78       		.byte	0x78
 1417 09bb B8000000 		.4byte	0xb8
 1418 09bf 00       		.byte	0
 1419 09c0 1B       		.uleb128 0x1b
 1420 09c1 3D060000 		.4byte	.LASF156
 1421 09c5 01       		.byte	0x1
 1422 09c6 67       		.byte	0x67
 1423 09c7 00000000 		.4byte	.LFB63
 1424 09cb 38000000 		.4byte	.LFE63-.LFB63
 1425 09cf 01       		.uleb128 0x1
 1426 09d0 9C       		.byte	0x9c
 1427 09d1 1D0A0000 		.4byte	0xa1d
 1428 09d5 1C       		.uleb128 0x1c
 1429 09d6 0A000000 		.4byte	.LVL0
 1430 09da 040B0000 		.4byte	0xb04
 1431 09de 1D       		.uleb128 0x1d
 1432 09df 1C000000 		.4byte	.LVL1
 1433 09e3 0C0B0000 		.4byte	0xb0c
 1434 09e7 FB090000 		.4byte	0x9fb
 1435 09eb 1E       		.uleb128 0x1e
 1436 09ec 01       		.uleb128 0x1
 1437 09ed 51       		.byte	0x51
 1438 09ee 05       		.uleb128 0x5
 1439 09ef 03       		.byte	0x3
 1440 09f0 00000000 		.4byte	.LANCHOR0
 1441 09f4 1E       		.uleb128 0x1e
 1442 09f5 01       		.uleb128 0x1
 1443 09f6 50       		.byte	0x50
 1444 09f7 02       		.uleb128 0x2
 1445 09f8 74       		.byte	0x74
 1446 09f9 00       		.sleb128 0
 1447 09fa 00       		.byte	0
 1448 09fb 1F       		.uleb128 0x1f
 1449 09fc 38000000 		.4byte	.LVL2
 1450 0a00 230B0000 		.4byte	0xb23
 1451 0a04 1E       		.uleb128 0x1e
 1452 0a05 01       		.uleb128 0x1
 1453 0a06 53       		.byte	0x53
 1454 0a07 01       		.uleb128 0x1
 1455 0a08 31       		.byte	0x31
 1456 0a09 1E       		.uleb128 0x1e
 1457 0a0a 01       		.uleb128 0x1
 1458 0a0b 52       		.byte	0x52
 1459 0a0c 05       		.uleb128 0x5
 1460 0a0d 03       		.byte	0x3
 1461 0a0e 00000000 		.4byte	.LANCHOR2
 1462 0a12 1E       		.uleb128 0x1e
 1463 0a13 01       		.uleb128 0x1
 1464 0a14 51       		.byte	0x51
 1465 0a15 05       		.uleb128 0x5
 1466 0a16 03       		.byte	0x3
 1467 0a17 00000000 		.4byte	.LANCHOR1
 1468 0a1b 00       		.byte	0
 1469 0a1c 00       		.byte	0
 1470 0a1d 20       		.uleb128 0x20
 1471 0a1e A4090000 		.4byte	0x9a4
 1472 0a22 00000000 		.4byte	.LFB64
ARM GAS  /tmp/ccPBXtzN.s 			page 27


 1473 0a26 1A000000 		.4byte	.LFE64-.LFB64
 1474 0a2a 01       		.uleb128 0x1
 1475 0a2b 9C       		.byte	0x9c
 1476 0a2c 3A0A0000 		.4byte	0xa3a
 1477 0a30 21       		.uleb128 0x21
 1478 0a31 B4090000 		.4byte	0x9b4
 1479 0a35 00000000 		.4byte	.LLST0
 1480 0a39 00       		.byte	0
 1481 0a3a 1B       		.uleb128 0x1b
 1482 0a3b A1060000 		.4byte	.LASF157
 1483 0a3f 01       		.byte	0x1
 1484 0a40 88       		.byte	0x88
 1485 0a41 00000000 		.4byte	.LFB65
 1486 0a45 28000000 		.4byte	.LFE65-.LFB65
 1487 0a49 01       		.uleb128 0x1
 1488 0a4a 9C       		.byte	0x9c
 1489 0a4b A90A0000 		.4byte	0xaa9
 1490 0a4f 22       		.uleb128 0x22
 1491 0a50 63687000 		.ascii	"chp\000"
 1492 0a54 01       		.byte	0x1
 1493 0a55 88       		.byte	0x88
 1494 0a56 92090000 		.4byte	0x992
 1495 0a5a 21000000 		.4byte	.LLST1
 1496 0a5e 23       		.uleb128 0x23
 1497 0a5f 5E070000 		.4byte	.LASF158
 1498 0a63 01       		.byte	0x1
 1499 0a64 88       		.byte	0x88
 1500 0a65 25000000 		.4byte	0x25
 1501 0a69 4D000000 		.4byte	.LLST2
 1502 0a6d 23       		.uleb128 0x23
 1503 0a6e 84070000 		.4byte	.LASF159
 1504 0a72 01       		.byte	0x1
 1505 0a73 88       		.byte	0x88
 1506 0a74 98090000 		.4byte	0x998
 1507 0a78 6E000000 		.4byte	.LLST3
 1508 0a7c 24       		.uleb128 0x24
 1509 0a7d 6900     		.ascii	"i\000"
 1510 0a7f 01       		.byte	0x1
 1511 0a80 8A       		.byte	0x8a
 1512 0a81 25000000 		.4byte	0x25
 1513 0a85 8F000000 		.4byte	.LLST4
 1514 0a89 25       		.uleb128 0x25
 1515 0a8a 1E000000 		.4byte	.LVL8
 1516 0a8e 440B0000 		.4byte	0xb44
 1517 0a92 1E       		.uleb128 0x1e
 1518 0a93 01       		.uleb128 0x1
 1519 0a94 52       		.byte	0x52
 1520 0a95 02       		.uleb128 0x2
 1521 0a96 74       		.byte	0x74
 1522 0a97 7F       		.sleb128 -1
 1523 0a98 1E       		.uleb128 0x1e
 1524 0a99 01       		.uleb128 0x1
 1525 0a9a 51       		.byte	0x51
 1526 0a9b 05       		.uleb128 0x5
 1527 0a9c 03       		.byte	0x3
 1528 0a9d 00000000 		.4byte	.LC0
 1529 0aa1 1E       		.uleb128 0x1e
ARM GAS  /tmp/ccPBXtzN.s 			page 28


 1530 0aa2 01       		.uleb128 0x1
 1531 0aa3 50       		.byte	0x50
 1532 0aa4 02       		.uleb128 0x2
 1533 0aa5 76       		.byte	0x76
 1534 0aa6 00       		.sleb128 0
 1535 0aa7 00       		.byte	0
 1536 0aa8 00       		.byte	0
 1537 0aa9 26       		.uleb128 0x26
 1538 0aaa 0A040000 		.4byte	.LASF160
 1539 0aae 01       		.byte	0x1
 1540 0aaf 38       		.byte	0x38
 1541 0ab0 9D080000 		.4byte	0x89d
 1542 0ab4 05       		.uleb128 0x5
 1543 0ab5 03       		.byte	0x3
 1544 0ab6 00000000 		.4byte	adccfg
 1545 0aba 27       		.uleb128 0x27
 1546 0abb D3060000 		.4byte	0x6d3
 1547 0abf CA0A0000 		.4byte	0xaca
 1548 0ac3 28       		.uleb128 0x28
 1549 0ac4 57030000 		.4byte	0x357
 1550 0ac8 07       		.byte	0x7
 1551 0ac9 00       		.byte	0
 1552 0aca 26       		.uleb128 0x26
 1553 0acb 28000000 		.4byte	.LASF161
 1554 0acf 01       		.byte	0x1
 1555 0ad0 3C       		.byte	0x3c
 1556 0ad1 BA0A0000 		.4byte	0xaba
 1557 0ad5 05       		.uleb128 0x5
 1558 0ad6 03       		.byte	0x3
 1559 0ad7 00000000 		.4byte	samples_buf
 1560 0adb 26       		.uleb128 0x26
 1561 0adc 4C050000 		.4byte	.LASF162
 1562 0ae0 01       		.byte	0x1
 1563 0ae1 3F       		.byte	0x3f
 1564 0ae2 7D080000 		.4byte	0x87d
 1565 0ae6 05       		.uleb128 0x5
 1566 0ae7 03       		.byte	0x3
 1567 0ae8 00000000 		.4byte	adccg
 1568 0aec 29       		.uleb128 0x29
 1569 0aed 9C000000 		.4byte	.LASF163
 1570 0af1 12       		.byte	0x12
 1571 0af2 0706     		.2byte	0x607
 1572 0af4 D8040000 		.4byte	0x4d8
 1573 0af8 29       		.uleb128 0x29
 1574 0af9 AD060000 		.4byte	.LASF164
 1575 0afd 0E       		.byte	0xe
 1576 0afe 7601     		.2byte	0x176
 1577 0b00 03070000 		.4byte	0x703
 1578 0b04 2A       		.uleb128 0x2a
 1579 0b05 C0030000 		.4byte	.LASF173
 1580 0b09 0D       		.byte	0xd
 1581 0b0a 1C01     		.2byte	0x11c
 1582 0b0c 2B       		.uleb128 0x2b
 1583 0b0d 7E060000 		.4byte	.LASF165
 1584 0b11 0D       		.byte	0xd
 1585 0b12 1E01     		.2byte	0x11e
 1586 0b14 230B0000 		.4byte	0xb23
ARM GAS  /tmp/ccPBXtzN.s 			page 29


 1587 0b18 12       		.uleb128 0x12
 1588 0b19 C3070000 		.4byte	0x7c3
 1589 0b1d 12       		.uleb128 0x12
 1590 0b1e A8080000 		.4byte	0x8a8
 1591 0b22 00       		.byte	0
 1592 0b23 2B       		.uleb128 0x2b
 1593 0b24 5A060000 		.4byte	.LASF166
 1594 0b28 0D       		.byte	0xd
 1595 0b29 2001     		.2byte	0x120
 1596 0b2b 440B0000 		.4byte	0xb44
 1597 0b2f 12       		.uleb128 0x12
 1598 0b30 C3070000 		.4byte	0x7c3
 1599 0b34 12       		.uleb128 0x12
 1600 0b35 B3080000 		.4byte	0x8b3
 1601 0b39 12       		.uleb128 0x12
 1602 0b3a C9070000 		.4byte	0x7c9
 1603 0b3e 12       		.uleb128 0x12
 1604 0b3f 2C000000 		.4byte	0x2c
 1605 0b43 00       		.byte	0
 1606 0b44 2C       		.uleb128 0x2c
 1607 0b45 AD010000 		.4byte	.LASF167
 1608 0b49 13       		.byte	0x13
 1609 0b4a 3B       		.byte	0x3b
 1610 0b4b 25000000 		.4byte	0x25
 1611 0b4f 12       		.uleb128 0x12
 1612 0b50 92090000 		.4byte	0x992
 1613 0b54 12       		.uleb128 0x12
 1614 0b55 DA030000 		.4byte	0x3da
 1615 0b59 2D       		.uleb128 0x2d
 1616 0b5a 00       		.byte	0
 1617 0b5b 00       		.byte	0
 1618              		.section	.debug_abbrev,"",%progbits
 1619              	.Ldebug_abbrev0:
 1620 0000 01       		.uleb128 0x1
 1621 0001 11       		.uleb128 0x11
 1622 0002 01       		.byte	0x1
 1623 0003 25       		.uleb128 0x25
 1624 0004 0E       		.uleb128 0xe
 1625 0005 13       		.uleb128 0x13
 1626 0006 0B       		.uleb128 0xb
 1627 0007 03       		.uleb128 0x3
 1628 0008 0E       		.uleb128 0xe
 1629 0009 1B       		.uleb128 0x1b
 1630 000a 0E       		.uleb128 0xe
 1631 000b 55       		.uleb128 0x55
 1632 000c 17       		.uleb128 0x17
 1633 000d 11       		.uleb128 0x11
 1634 000e 01       		.uleb128 0x1
 1635 000f 10       		.uleb128 0x10
 1636 0010 17       		.uleb128 0x17
 1637 0011 00       		.byte	0
 1638 0012 00       		.byte	0
 1639 0013 02       		.uleb128 0x2
 1640 0014 24       		.uleb128 0x24
 1641 0015 00       		.byte	0
 1642 0016 0B       		.uleb128 0xb
 1643 0017 0B       		.uleb128 0xb
ARM GAS  /tmp/ccPBXtzN.s 			page 30


 1644 0018 3E       		.uleb128 0x3e
 1645 0019 0B       		.uleb128 0xb
 1646 001a 03       		.uleb128 0x3
 1647 001b 08       		.uleb128 0x8
 1648 001c 00       		.byte	0
 1649 001d 00       		.byte	0
 1650 001e 03       		.uleb128 0x3
 1651 001f 16       		.uleb128 0x16
 1652 0020 00       		.byte	0
 1653 0021 03       		.uleb128 0x3
 1654 0022 0E       		.uleb128 0xe
 1655 0023 3A       		.uleb128 0x3a
 1656 0024 0B       		.uleb128 0xb
 1657 0025 3B       		.uleb128 0x3b
 1658 0026 0B       		.uleb128 0xb
 1659 0027 49       		.uleb128 0x49
 1660 0028 13       		.uleb128 0x13
 1661 0029 00       		.byte	0
 1662 002a 00       		.byte	0
 1663 002b 04       		.uleb128 0x4
 1664 002c 24       		.uleb128 0x24
 1665 002d 00       		.byte	0
 1666 002e 0B       		.uleb128 0xb
 1667 002f 0B       		.uleb128 0xb
 1668 0030 3E       		.uleb128 0x3e
 1669 0031 0B       		.uleb128 0xb
 1670 0032 03       		.uleb128 0x3
 1671 0033 0E       		.uleb128 0xe
 1672 0034 00       		.byte	0
 1673 0035 00       		.byte	0
 1674 0036 05       		.uleb128 0x5
 1675 0037 13       		.uleb128 0x13
 1676 0038 01       		.byte	0x1
 1677 0039 03       		.uleb128 0x3
 1678 003a 0E       		.uleb128 0xe
 1679 003b 0B       		.uleb128 0xb
 1680 003c 0B       		.uleb128 0xb
 1681 003d 3A       		.uleb128 0x3a
 1682 003e 0B       		.uleb128 0xb
 1683 003f 3B       		.uleb128 0x3b
 1684 0040 0B       		.uleb128 0xb
 1685 0041 01       		.uleb128 0x1
 1686 0042 13       		.uleb128 0x13
 1687 0043 00       		.byte	0
 1688 0044 00       		.byte	0
 1689 0045 06       		.uleb128 0x6
 1690 0046 0D       		.uleb128 0xd
 1691 0047 00       		.byte	0
 1692 0048 03       		.uleb128 0x3
 1693 0049 0E       		.uleb128 0xe
 1694 004a 3A       		.uleb128 0x3a
 1695 004b 0B       		.uleb128 0xb
 1696 004c 3B       		.uleb128 0x3b
 1697 004d 0B       		.uleb128 0xb
 1698 004e 49       		.uleb128 0x49
 1699 004f 13       		.uleb128 0x13
 1700 0050 38       		.uleb128 0x38
ARM GAS  /tmp/ccPBXtzN.s 			page 31


 1701 0051 0B       		.uleb128 0xb
 1702 0052 00       		.byte	0
 1703 0053 00       		.byte	0
 1704 0054 07       		.uleb128 0x7
 1705 0055 0D       		.uleb128 0xd
 1706 0056 00       		.byte	0
 1707 0057 03       		.uleb128 0x3
 1708 0058 08       		.uleb128 0x8
 1709 0059 3A       		.uleb128 0x3a
 1710 005a 0B       		.uleb128 0xb
 1711 005b 3B       		.uleb128 0x3b
 1712 005c 0B       		.uleb128 0xb
 1713 005d 49       		.uleb128 0x49
 1714 005e 13       		.uleb128 0x13
 1715 005f 38       		.uleb128 0x38
 1716 0060 0B       		.uleb128 0xb
 1717 0061 00       		.byte	0
 1718 0062 00       		.byte	0
 1719 0063 08       		.uleb128 0x8
 1720 0064 13       		.uleb128 0x13
 1721 0065 01       		.byte	0x1
 1722 0066 0B       		.uleb128 0xb
 1723 0067 0B       		.uleb128 0xb
 1724 0068 3A       		.uleb128 0x3a
 1725 0069 0B       		.uleb128 0xb
 1726 006a 3B       		.uleb128 0x3b
 1727 006b 0B       		.uleb128 0xb
 1728 006c 01       		.uleb128 0x1
 1729 006d 13       		.uleb128 0x13
 1730 006e 00       		.byte	0
 1731 006f 00       		.byte	0
 1732 0070 09       		.uleb128 0x9
 1733 0071 0F       		.uleb128 0xf
 1734 0072 00       		.byte	0
 1735 0073 0B       		.uleb128 0xb
 1736 0074 0B       		.uleb128 0xb
 1737 0075 49       		.uleb128 0x49
 1738 0076 13       		.uleb128 0x13
 1739 0077 00       		.byte	0
 1740 0078 00       		.byte	0
 1741 0079 0A       		.uleb128 0xa
 1742 007a 0F       		.uleb128 0xf
 1743 007b 00       		.byte	0
 1744 007c 0B       		.uleb128 0xb
 1745 007d 0B       		.uleb128 0xb
 1746 007e 00       		.byte	0
 1747 007f 00       		.byte	0
 1748 0080 0B       		.uleb128 0xb
 1749 0081 13       		.uleb128 0x13
 1750 0082 01       		.byte	0x1
 1751 0083 03       		.uleb128 0x3
 1752 0084 0E       		.uleb128 0xe
 1753 0085 0B       		.uleb128 0xb
 1754 0086 0B       		.uleb128 0xb
 1755 0087 3A       		.uleb128 0x3a
 1756 0088 0B       		.uleb128 0xb
 1757 0089 3B       		.uleb128 0x3b
ARM GAS  /tmp/ccPBXtzN.s 			page 32


 1758 008a 05       		.uleb128 0x5
 1759 008b 01       		.uleb128 0x1
 1760 008c 13       		.uleb128 0x13
 1761 008d 00       		.byte	0
 1762 008e 00       		.byte	0
 1763 008f 0C       		.uleb128 0xc
 1764 0090 0D       		.uleb128 0xd
 1765 0091 00       		.byte	0
 1766 0092 03       		.uleb128 0x3
 1767 0093 08       		.uleb128 0x8
 1768 0094 3A       		.uleb128 0x3a
 1769 0095 0B       		.uleb128 0xb
 1770 0096 3B       		.uleb128 0x3b
 1771 0097 05       		.uleb128 0x5
 1772 0098 49       		.uleb128 0x49
 1773 0099 13       		.uleb128 0x13
 1774 009a 38       		.uleb128 0x38
 1775 009b 0B       		.uleb128 0xb
 1776 009c 00       		.byte	0
 1777 009d 00       		.byte	0
 1778 009e 0D       		.uleb128 0xd
 1779 009f 35       		.uleb128 0x35
 1780 00a0 00       		.byte	0
 1781 00a1 49       		.uleb128 0x49
 1782 00a2 13       		.uleb128 0x13
 1783 00a3 00       		.byte	0
 1784 00a4 00       		.byte	0
 1785 00a5 0E       		.uleb128 0xe
 1786 00a6 17       		.uleb128 0x17
 1787 00a7 01       		.byte	0x1
 1788 00a8 0B       		.uleb128 0xb
 1789 00a9 0B       		.uleb128 0xb
 1790 00aa 3A       		.uleb128 0x3a
 1791 00ab 0B       		.uleb128 0xb
 1792 00ac 3B       		.uleb128 0x3b
 1793 00ad 0B       		.uleb128 0xb
 1794 00ae 01       		.uleb128 0x1
 1795 00af 13       		.uleb128 0x13
 1796 00b0 00       		.byte	0
 1797 00b1 00       		.byte	0
 1798 00b2 0F       		.uleb128 0xf
 1799 00b3 0D       		.uleb128 0xd
 1800 00b4 00       		.byte	0
 1801 00b5 03       		.uleb128 0x3
 1802 00b6 0E       		.uleb128 0xe
 1803 00b7 3A       		.uleb128 0x3a
 1804 00b8 0B       		.uleb128 0xb
 1805 00b9 3B       		.uleb128 0x3b
 1806 00ba 0B       		.uleb128 0xb
 1807 00bb 49       		.uleb128 0x49
 1808 00bc 13       		.uleb128 0x13
 1809 00bd 00       		.byte	0
 1810 00be 00       		.byte	0
 1811 00bf 10       		.uleb128 0x10
 1812 00c0 26       		.uleb128 0x26
 1813 00c1 00       		.byte	0
 1814 00c2 49       		.uleb128 0x49
ARM GAS  /tmp/ccPBXtzN.s 			page 33


 1815 00c3 13       		.uleb128 0x13
 1816 00c4 00       		.byte	0
 1817 00c5 00       		.byte	0
 1818 00c6 11       		.uleb128 0x11
 1819 00c7 15       		.uleb128 0x15
 1820 00c8 01       		.byte	0x1
 1821 00c9 27       		.uleb128 0x27
 1822 00ca 19       		.uleb128 0x19
 1823 00cb 49       		.uleb128 0x49
 1824 00cc 13       		.uleb128 0x13
 1825 00cd 01       		.uleb128 0x1
 1826 00ce 13       		.uleb128 0x13
 1827 00cf 00       		.byte	0
 1828 00d0 00       		.byte	0
 1829 00d1 12       		.uleb128 0x12
 1830 00d2 05       		.uleb128 0x5
 1831 00d3 00       		.byte	0
 1832 00d4 49       		.uleb128 0x49
 1833 00d5 13       		.uleb128 0x13
 1834 00d6 00       		.byte	0
 1835 00d7 00       		.byte	0
 1836 00d8 13       		.uleb128 0x13
 1837 00d9 13       		.uleb128 0x13
 1838 00da 01       		.byte	0x1
 1839 00db 0B       		.uleb128 0xb
 1840 00dc 0B       		.uleb128 0xb
 1841 00dd 3A       		.uleb128 0x3a
 1842 00de 0B       		.uleb128 0xb
 1843 00df 3B       		.uleb128 0x3b
 1844 00e0 05       		.uleb128 0x5
 1845 00e1 01       		.uleb128 0x1
 1846 00e2 13       		.uleb128 0x13
 1847 00e3 00       		.byte	0
 1848 00e4 00       		.byte	0
 1849 00e5 14       		.uleb128 0x14
 1850 00e6 0D       		.uleb128 0xd
 1851 00e7 00       		.byte	0
 1852 00e8 03       		.uleb128 0x3
 1853 00e9 0E       		.uleb128 0xe
 1854 00ea 3A       		.uleb128 0x3a
 1855 00eb 0B       		.uleb128 0xb
 1856 00ec 3B       		.uleb128 0x3b
 1857 00ed 05       		.uleb128 0x5
 1858 00ee 49       		.uleb128 0x49
 1859 00ef 13       		.uleb128 0x13
 1860 00f0 38       		.uleb128 0x38
 1861 00f1 0B       		.uleb128 0xb
 1862 00f2 00       		.byte	0
 1863 00f3 00       		.byte	0
 1864 00f4 15       		.uleb128 0x15
 1865 00f5 16       		.uleb128 0x16
 1866 00f6 00       		.byte	0
 1867 00f7 03       		.uleb128 0x3
 1868 00f8 0E       		.uleb128 0xe
 1869 00f9 3A       		.uleb128 0x3a
 1870 00fa 0B       		.uleb128 0xb
 1871 00fb 3B       		.uleb128 0x3b
ARM GAS  /tmp/ccPBXtzN.s 			page 34


 1872 00fc 05       		.uleb128 0x5
 1873 00fd 49       		.uleb128 0x49
 1874 00fe 13       		.uleb128 0x13
 1875 00ff 00       		.byte	0
 1876 0100 00       		.byte	0
 1877 0101 16       		.uleb128 0x16
 1878 0102 04       		.uleb128 0x4
 1879 0103 01       		.byte	0x1
 1880 0104 0B       		.uleb128 0xb
 1881 0105 0B       		.uleb128 0xb
 1882 0106 3A       		.uleb128 0x3a
 1883 0107 0B       		.uleb128 0xb
 1884 0108 3B       		.uleb128 0x3b
 1885 0109 0B       		.uleb128 0xb
 1886 010a 01       		.uleb128 0x1
 1887 010b 13       		.uleb128 0x13
 1888 010c 00       		.byte	0
 1889 010d 00       		.byte	0
 1890 010e 17       		.uleb128 0x17
 1891 010f 28       		.uleb128 0x28
 1892 0110 00       		.byte	0
 1893 0111 03       		.uleb128 0x3
 1894 0112 0E       		.uleb128 0xe
 1895 0113 1C       		.uleb128 0x1c
 1896 0114 0D       		.uleb128 0xd
 1897 0115 00       		.byte	0
 1898 0116 00       		.byte	0
 1899 0117 18       		.uleb128 0x18
 1900 0118 15       		.uleb128 0x15
 1901 0119 01       		.byte	0x1
 1902 011a 27       		.uleb128 0x27
 1903 011b 19       		.uleb128 0x19
 1904 011c 01       		.uleb128 0x1
 1905 011d 13       		.uleb128 0x13
 1906 011e 00       		.byte	0
 1907 011f 00       		.byte	0
 1908 0120 19       		.uleb128 0x19
 1909 0121 2E       		.uleb128 0x2e
 1910 0122 01       		.byte	0x1
 1911 0123 3F       		.uleb128 0x3f
 1912 0124 19       		.uleb128 0x19
 1913 0125 03       		.uleb128 0x3
 1914 0126 0E       		.uleb128 0xe
 1915 0127 3A       		.uleb128 0x3a
 1916 0128 0B       		.uleb128 0xb
 1917 0129 3B       		.uleb128 0x3b
 1918 012a 0B       		.uleb128 0xb
 1919 012b 27       		.uleb128 0x27
 1920 012c 19       		.uleb128 0x19
 1921 012d 49       		.uleb128 0x49
 1922 012e 13       		.uleb128 0x13
 1923 012f 20       		.uleb128 0x20
 1924 0130 0B       		.uleb128 0xb
 1925 0131 01       		.uleb128 0x1
 1926 0132 13       		.uleb128 0x13
 1927 0133 00       		.byte	0
 1928 0134 00       		.byte	0
ARM GAS  /tmp/ccPBXtzN.s 			page 35


 1929 0135 1A       		.uleb128 0x1a
 1930 0136 05       		.uleb128 0x5
 1931 0137 00       		.byte	0
 1932 0138 03       		.uleb128 0x3
 1933 0139 0E       		.uleb128 0xe
 1934 013a 3A       		.uleb128 0x3a
 1935 013b 0B       		.uleb128 0xb
 1936 013c 3B       		.uleb128 0x3b
 1937 013d 0B       		.uleb128 0xb
 1938 013e 49       		.uleb128 0x49
 1939 013f 13       		.uleb128 0x13
 1940 0140 00       		.byte	0
 1941 0141 00       		.byte	0
 1942 0142 1B       		.uleb128 0x1b
 1943 0143 2E       		.uleb128 0x2e
 1944 0144 01       		.byte	0x1
 1945 0145 3F       		.uleb128 0x3f
 1946 0146 19       		.uleb128 0x19
 1947 0147 03       		.uleb128 0x3
 1948 0148 0E       		.uleb128 0xe
 1949 0149 3A       		.uleb128 0x3a
 1950 014a 0B       		.uleb128 0xb
 1951 014b 3B       		.uleb128 0x3b
 1952 014c 0B       		.uleb128 0xb
 1953 014d 27       		.uleb128 0x27
 1954 014e 19       		.uleb128 0x19
 1955 014f 11       		.uleb128 0x11
 1956 0150 01       		.uleb128 0x1
 1957 0151 12       		.uleb128 0x12
 1958 0152 06       		.uleb128 0x6
 1959 0153 40       		.uleb128 0x40
 1960 0154 18       		.uleb128 0x18
 1961 0155 9742     		.uleb128 0x2117
 1962 0157 19       		.uleb128 0x19
 1963 0158 01       		.uleb128 0x1
 1964 0159 13       		.uleb128 0x13
 1965 015a 00       		.byte	0
 1966 015b 00       		.byte	0
 1967 015c 1C       		.uleb128 0x1c
 1968 015d 898201   		.uleb128 0x4109
 1969 0160 00       		.byte	0
 1970 0161 11       		.uleb128 0x11
 1971 0162 01       		.uleb128 0x1
 1972 0163 31       		.uleb128 0x31
 1973 0164 13       		.uleb128 0x13
 1974 0165 00       		.byte	0
 1975 0166 00       		.byte	0
 1976 0167 1D       		.uleb128 0x1d
 1977 0168 898201   		.uleb128 0x4109
 1978 016b 01       		.byte	0x1
 1979 016c 11       		.uleb128 0x11
 1980 016d 01       		.uleb128 0x1
 1981 016e 31       		.uleb128 0x31
 1982 016f 13       		.uleb128 0x13
 1983 0170 01       		.uleb128 0x1
 1984 0171 13       		.uleb128 0x13
 1985 0172 00       		.byte	0
ARM GAS  /tmp/ccPBXtzN.s 			page 36


 1986 0173 00       		.byte	0
 1987 0174 1E       		.uleb128 0x1e
 1988 0175 8A8201   		.uleb128 0x410a
 1989 0178 00       		.byte	0
 1990 0179 02       		.uleb128 0x2
 1991 017a 18       		.uleb128 0x18
 1992 017b 9142     		.uleb128 0x2111
 1993 017d 18       		.uleb128 0x18
 1994 017e 00       		.byte	0
 1995 017f 00       		.byte	0
 1996 0180 1F       		.uleb128 0x1f
 1997 0181 898201   		.uleb128 0x4109
 1998 0184 01       		.byte	0x1
 1999 0185 11       		.uleb128 0x11
 2000 0186 01       		.uleb128 0x1
 2001 0187 9542     		.uleb128 0x2115
 2002 0189 19       		.uleb128 0x19
 2003 018a 31       		.uleb128 0x31
 2004 018b 13       		.uleb128 0x13
 2005 018c 00       		.byte	0
 2006 018d 00       		.byte	0
 2007 018e 20       		.uleb128 0x20
 2008 018f 2E       		.uleb128 0x2e
 2009 0190 01       		.byte	0x1
 2010 0191 31       		.uleb128 0x31
 2011 0192 13       		.uleb128 0x13
 2012 0193 11       		.uleb128 0x11
 2013 0194 01       		.uleb128 0x1
 2014 0195 12       		.uleb128 0x12
 2015 0196 06       		.uleb128 0x6
 2016 0197 40       		.uleb128 0x40
 2017 0198 18       		.uleb128 0x18
 2018 0199 9742     		.uleb128 0x2117
 2019 019b 19       		.uleb128 0x19
 2020 019c 01       		.uleb128 0x1
 2021 019d 13       		.uleb128 0x13
 2022 019e 00       		.byte	0
 2023 019f 00       		.byte	0
 2024 01a0 21       		.uleb128 0x21
 2025 01a1 05       		.uleb128 0x5
 2026 01a2 00       		.byte	0
 2027 01a3 31       		.uleb128 0x31
 2028 01a4 13       		.uleb128 0x13
 2029 01a5 02       		.uleb128 0x2
 2030 01a6 17       		.uleb128 0x17
 2031 01a7 00       		.byte	0
 2032 01a8 00       		.byte	0
 2033 01a9 22       		.uleb128 0x22
 2034 01aa 05       		.uleb128 0x5
 2035 01ab 00       		.byte	0
 2036 01ac 03       		.uleb128 0x3
 2037 01ad 08       		.uleb128 0x8
 2038 01ae 3A       		.uleb128 0x3a
 2039 01af 0B       		.uleb128 0xb
 2040 01b0 3B       		.uleb128 0x3b
 2041 01b1 0B       		.uleb128 0xb
 2042 01b2 49       		.uleb128 0x49
ARM GAS  /tmp/ccPBXtzN.s 			page 37


 2043 01b3 13       		.uleb128 0x13
 2044 01b4 02       		.uleb128 0x2
 2045 01b5 17       		.uleb128 0x17
 2046 01b6 00       		.byte	0
 2047 01b7 00       		.byte	0
 2048 01b8 23       		.uleb128 0x23
 2049 01b9 05       		.uleb128 0x5
 2050 01ba 00       		.byte	0
 2051 01bb 03       		.uleb128 0x3
 2052 01bc 0E       		.uleb128 0xe
 2053 01bd 3A       		.uleb128 0x3a
 2054 01be 0B       		.uleb128 0xb
 2055 01bf 3B       		.uleb128 0x3b
 2056 01c0 0B       		.uleb128 0xb
 2057 01c1 49       		.uleb128 0x49
 2058 01c2 13       		.uleb128 0x13
 2059 01c3 02       		.uleb128 0x2
 2060 01c4 17       		.uleb128 0x17
 2061 01c5 00       		.byte	0
 2062 01c6 00       		.byte	0
 2063 01c7 24       		.uleb128 0x24
 2064 01c8 34       		.uleb128 0x34
 2065 01c9 00       		.byte	0
 2066 01ca 03       		.uleb128 0x3
 2067 01cb 08       		.uleb128 0x8
 2068 01cc 3A       		.uleb128 0x3a
 2069 01cd 0B       		.uleb128 0xb
 2070 01ce 3B       		.uleb128 0x3b
 2071 01cf 0B       		.uleb128 0xb
 2072 01d0 49       		.uleb128 0x49
 2073 01d1 13       		.uleb128 0x13
 2074 01d2 02       		.uleb128 0x2
 2075 01d3 17       		.uleb128 0x17
 2076 01d4 00       		.byte	0
 2077 01d5 00       		.byte	0
 2078 01d6 25       		.uleb128 0x25
 2079 01d7 898201   		.uleb128 0x4109
 2080 01da 01       		.byte	0x1
 2081 01db 11       		.uleb128 0x11
 2082 01dc 01       		.uleb128 0x1
 2083 01dd 31       		.uleb128 0x31
 2084 01de 13       		.uleb128 0x13
 2085 01df 00       		.byte	0
 2086 01e0 00       		.byte	0
 2087 01e1 26       		.uleb128 0x26
 2088 01e2 34       		.uleb128 0x34
 2089 01e3 00       		.byte	0
 2090 01e4 03       		.uleb128 0x3
 2091 01e5 0E       		.uleb128 0xe
 2092 01e6 3A       		.uleb128 0x3a
 2093 01e7 0B       		.uleb128 0xb
 2094 01e8 3B       		.uleb128 0x3b
 2095 01e9 0B       		.uleb128 0xb
 2096 01ea 49       		.uleb128 0x49
 2097 01eb 13       		.uleb128 0x13
 2098 01ec 02       		.uleb128 0x2
 2099 01ed 18       		.uleb128 0x18
ARM GAS  /tmp/ccPBXtzN.s 			page 38


 2100 01ee 00       		.byte	0
 2101 01ef 00       		.byte	0
 2102 01f0 27       		.uleb128 0x27
 2103 01f1 01       		.uleb128 0x1
 2104 01f2 01       		.byte	0x1
 2105 01f3 49       		.uleb128 0x49
 2106 01f4 13       		.uleb128 0x13
 2107 01f5 01       		.uleb128 0x1
 2108 01f6 13       		.uleb128 0x13
 2109 01f7 00       		.byte	0
 2110 01f8 00       		.byte	0
 2111 01f9 28       		.uleb128 0x28
 2112 01fa 21       		.uleb128 0x21
 2113 01fb 00       		.byte	0
 2114 01fc 49       		.uleb128 0x49
 2115 01fd 13       		.uleb128 0x13
 2116 01fe 2F       		.uleb128 0x2f
 2117 01ff 0B       		.uleb128 0xb
 2118 0200 00       		.byte	0
 2119 0201 00       		.byte	0
 2120 0202 29       		.uleb128 0x29
 2121 0203 34       		.uleb128 0x34
 2122 0204 00       		.byte	0
 2123 0205 03       		.uleb128 0x3
 2124 0206 0E       		.uleb128 0xe
 2125 0207 3A       		.uleb128 0x3a
 2126 0208 0B       		.uleb128 0xb
 2127 0209 3B       		.uleb128 0x3b
 2128 020a 05       		.uleb128 0x5
 2129 020b 49       		.uleb128 0x49
 2130 020c 13       		.uleb128 0x13
 2131 020d 3F       		.uleb128 0x3f
 2132 020e 19       		.uleb128 0x19
 2133 020f 3C       		.uleb128 0x3c
 2134 0210 19       		.uleb128 0x19
 2135 0211 00       		.byte	0
 2136 0212 00       		.byte	0
 2137 0213 2A       		.uleb128 0x2a
 2138 0214 2E       		.uleb128 0x2e
 2139 0215 00       		.byte	0
 2140 0216 3F       		.uleb128 0x3f
 2141 0217 19       		.uleb128 0x19
 2142 0218 03       		.uleb128 0x3
 2143 0219 0E       		.uleb128 0xe
 2144 021a 3A       		.uleb128 0x3a
 2145 021b 0B       		.uleb128 0xb
 2146 021c 3B       		.uleb128 0x3b
 2147 021d 05       		.uleb128 0x5
 2148 021e 27       		.uleb128 0x27
 2149 021f 19       		.uleb128 0x19
 2150 0220 3C       		.uleb128 0x3c
 2151 0221 19       		.uleb128 0x19
 2152 0222 00       		.byte	0
 2153 0223 00       		.byte	0
 2154 0224 2B       		.uleb128 0x2b
 2155 0225 2E       		.uleb128 0x2e
 2156 0226 01       		.byte	0x1
ARM GAS  /tmp/ccPBXtzN.s 			page 39


 2157 0227 3F       		.uleb128 0x3f
 2158 0228 19       		.uleb128 0x19
 2159 0229 03       		.uleb128 0x3
 2160 022a 0E       		.uleb128 0xe
 2161 022b 3A       		.uleb128 0x3a
 2162 022c 0B       		.uleb128 0xb
 2163 022d 3B       		.uleb128 0x3b
 2164 022e 05       		.uleb128 0x5
 2165 022f 27       		.uleb128 0x27
 2166 0230 19       		.uleb128 0x19
 2167 0231 3C       		.uleb128 0x3c
 2168 0232 19       		.uleb128 0x19
 2169 0233 01       		.uleb128 0x1
 2170 0234 13       		.uleb128 0x13
 2171 0235 00       		.byte	0
 2172 0236 00       		.byte	0
 2173 0237 2C       		.uleb128 0x2c
 2174 0238 2E       		.uleb128 0x2e
 2175 0239 01       		.byte	0x1
 2176 023a 3F       		.uleb128 0x3f
 2177 023b 19       		.uleb128 0x19
 2178 023c 03       		.uleb128 0x3
 2179 023d 0E       		.uleb128 0xe
 2180 023e 3A       		.uleb128 0x3a
 2181 023f 0B       		.uleb128 0xb
 2182 0240 3B       		.uleb128 0x3b
 2183 0241 0B       		.uleb128 0xb
 2184 0242 27       		.uleb128 0x27
 2185 0243 19       		.uleb128 0x19
 2186 0244 49       		.uleb128 0x49
 2187 0245 13       		.uleb128 0x13
 2188 0246 3C       		.uleb128 0x3c
 2189 0247 19       		.uleb128 0x19
 2190 0248 00       		.byte	0
 2191 0249 00       		.byte	0
 2192 024a 2D       		.uleb128 0x2d
 2193 024b 18       		.uleb128 0x18
 2194 024c 00       		.byte	0
 2195 024d 00       		.byte	0
 2196 024e 00       		.byte	0
 2197 024f 00       		.byte	0
 2198              		.section	.debug_loc,"",%progbits
 2199              	.Ldebug_loc0:
 2200              	.LLST0:
 2201 0000 00000000 		.4byte	.LVL3
 2202 0004 12000000 		.4byte	.LVL4
 2203 0008 0100     		.2byte	0x1
 2204 000a 50       		.byte	0x50
 2205 000b 12000000 		.4byte	.LVL4
 2206 000f 1A000000 		.4byte	.LFE64
 2207 0013 0400     		.2byte	0x4
 2208 0015 F3       		.byte	0xf3
 2209 0016 01       		.uleb128 0x1
 2210 0017 50       		.byte	0x50
 2211 0018 9F       		.byte	0x9f
 2212 0019 00000000 		.4byte	0
 2213 001d 00000000 		.4byte	0
ARM GAS  /tmp/ccPBXtzN.s 			page 40


 2214              	.LLST1:
 2215 0021 00000000 		.4byte	.LVL5
 2216 0025 08000000 		.4byte	.LVL6
 2217 0029 0100     		.2byte	0x1
 2218 002b 50       		.byte	0x50
 2219 002c 08000000 		.4byte	.LVL6
 2220 0030 24000000 		.4byte	.LVL9
 2221 0034 0100     		.2byte	0x1
 2222 0036 56       		.byte	0x56
 2223 0037 24000000 		.4byte	.LVL9
 2224 003b 28000000 		.4byte	.LFE65
 2225 003f 0400     		.2byte	0x4
 2226 0041 F3       		.byte	0xf3
 2227 0042 01       		.uleb128 0x1
 2228 0043 50       		.byte	0x50
 2229 0044 9F       		.byte	0x9f
 2230 0045 00000000 		.4byte	0
 2231 0049 00000000 		.4byte	0
 2232              	.LLST2:
 2233 004d 00000000 		.4byte	.LVL5
 2234 0051 08000000 		.4byte	.LVL6
 2235 0055 0100     		.2byte	0x1
 2236 0057 51       		.byte	0x51
 2237 0058 08000000 		.4byte	.LVL6
 2238 005c 28000000 		.4byte	.LFE65
 2239 0060 0400     		.2byte	0x4
 2240 0062 F3       		.byte	0xf3
 2241 0063 01       		.uleb128 0x1
 2242 0064 51       		.byte	0x51
 2243 0065 9F       		.byte	0x9f
 2244 0066 00000000 		.4byte	0
 2245 006a 00000000 		.4byte	0
 2246              	.LLST3:
 2247 006e 00000000 		.4byte	.LVL5
 2248 0072 08000000 		.4byte	.LVL6
 2249 0076 0100     		.2byte	0x1
 2250 0078 52       		.byte	0x52
 2251 0079 08000000 		.4byte	.LVL6
 2252 007d 28000000 		.4byte	.LFE65
 2253 0081 0400     		.2byte	0x4
 2254 0083 F3       		.byte	0xf3
 2255 0084 01       		.uleb128 0x1
 2256 0085 52       		.byte	0x52
 2257 0086 9F       		.byte	0x9f
 2258 0087 00000000 		.4byte	0
 2259 008b 00000000 		.4byte	0
 2260              	.LLST4:
 2261 008f 00000000 		.4byte	.LVL5
 2262 0093 08000000 		.4byte	.LVL6
 2263 0097 0200     		.2byte	0x2
 2264 0099 30       		.byte	0x30
 2265 009a 9F       		.byte	0x9f
 2266 009b 08000000 		.4byte	.LVL6
 2267 009f 1A000000 		.4byte	.LVL7
 2268 00a3 0100     		.2byte	0x1
 2269 00a5 54       		.byte	0x54
 2270 00a6 1A000000 		.4byte	.LVL7
ARM GAS  /tmp/ccPBXtzN.s 			page 41


 2271 00aa 1D000000 		.4byte	.LVL8-1
 2272 00ae 0100     		.2byte	0x1
 2273 00b0 52       		.byte	0x52
 2274 00b1 1D000000 		.4byte	.LVL8-1
 2275 00b5 1E000000 		.4byte	.LVL8
 2276 00b9 0300     		.2byte	0x3
 2277 00bb 74       		.byte	0x74
 2278 00bc 7F       		.sleb128 -1
 2279 00bd 9F       		.byte	0x9f
 2280 00be 1E000000 		.4byte	.LVL8
 2281 00c2 24000000 		.4byte	.LVL9
 2282 00c6 0100     		.2byte	0x1
 2283 00c8 54       		.byte	0x54
 2284 00c9 00000000 		.4byte	0
 2285 00cd 00000000 		.4byte	0
 2286              		.section	.debug_aranges,"",%progbits
 2287 0000 2C000000 		.4byte	0x2c
 2288 0004 0200     		.2byte	0x2
 2289 0006 00000000 		.4byte	.Ldebug_info0
 2290 000a 04       		.byte	0x4
 2291 000b 00       		.byte	0
 2292 000c 0000     		.2byte	0
 2293 000e 0000     		.2byte	0
 2294 0010 00000000 		.4byte	.LFB63
 2295 0014 38000000 		.4byte	.LFE63-.LFB63
 2296 0018 00000000 		.4byte	.LFB64
 2297 001c 1A000000 		.4byte	.LFE64-.LFB64
 2298 0020 00000000 		.4byte	.LFB65
 2299 0024 28000000 		.4byte	.LFE65-.LFB65
 2300 0028 00000000 		.4byte	0
 2301 002c 00000000 		.4byte	0
 2302              		.section	.debug_ranges,"",%progbits
 2303              	.Ldebug_ranges0:
 2304 0000 00000000 		.4byte	.LFB63
 2305 0004 38000000 		.4byte	.LFE63
 2306 0008 00000000 		.4byte	.LFB64
 2307 000c 1A000000 		.4byte	.LFE64
 2308 0010 00000000 		.4byte	.LFB65
 2309 0014 28000000 		.4byte	.LFE65
 2310 0018 00000000 		.4byte	0
 2311 001c 00000000 		.4byte	0
 2312              		.section	.debug_line,"",%progbits
 2313              	.Ldebug_line0:
 2314 0000 CD020000 		.section	.debug_str,"MS",%progbits,1
 2314      02007602 
 2314      00000201 
 2314      FB0E0D00 
 2314      01010101 
 2315              	.LASF2:
 2316 0000 73697A65 		.ascii	"size_t\000"
 2316      5F7400
 2317              	.LASF60:
 2318 0007 7264796D 		.ascii	"rdymsg\000"
 2318      736700
 2319              	.LASF114:
 2320 000e 646D616D 		.ascii	"dmamode\000"
 2320      6F646500 
ARM GAS  /tmp/ccPBXtzN.s 			page 42


 2321              	.LASF100:
 2322 0016 61646373 		.ascii	"adcstate_t\000"
 2322      74617465 
 2322      5F7400
 2323              	.LASF92:
 2324 0021 76656374 		.ascii	"vector\000"
 2324      6F7200
 2325              	.LASF161:
 2326 0028 73616D70 		.ascii	"samples_buf\000"
 2326      6C65735F 
 2326      62756600 
 2327              	.LASF3:
 2328 0034 5F5F7569 		.ascii	"__uint8_t\000"
 2328      6E74385F 
 2328      7400
 2329              	.LASF98:
 2330 003e 4144435F 		.ascii	"ADC_COMPLETE\000"
 2330      434F4D50 
 2330      4C455445 
 2330      00
 2331              	.LASF118:
 2332 004b 6E756D5F 		.ascii	"num_channels\000"
 2332      6368616E 
 2332      6E656C73 
 2332      00
 2333              	.LASF145:
 2334 0058 6B566578 		.ascii	"kVexDigitalOutput\000"
 2334      44696769 
 2334      74616C4F 
 2334      75747075 
 2334      7400
 2335              	.LASF14:
 2336 006a 6C6F6E67 		.ascii	"long long unsigned int\000"
 2336      206C6F6E 
 2336      6720756E 
 2336      7369676E 
 2336      65642069 
 2337              	.LASF143:
 2338 0081 6B566578 		.ascii	"kVexDigital_Num\000"
 2338      44696769 
 2338      74616C5F 
 2338      4E756D00 
 2339              	.LASF94:
 2340 0091 4144435F 		.ascii	"ADC_UNINIT\000"
 2340      554E494E 
 2340      495400
 2341              	.LASF163:
 2342 009c 49544D5F 		.ascii	"ITM_RxBuffer\000"
 2342      52784275 
 2342      66666572 
 2342      00
 2343              	.LASF33:
 2344 00a9 705F7072 		.ascii	"p_prio\000"
 2344      696F00
 2345              	.LASF78:
 2346 00b0 4A535152 		.ascii	"JSQR\000"
 2346      00
ARM GAS  /tmp/ccPBXtzN.s 			page 43


 2347              	.LASF16:
 2348 00b5 696E7431 		.ascii	"int16_t\000"
 2348      365F7400 
 2349              	.LASF13:
 2350 00bd 6C6F6E67 		.ascii	"long long int\000"
 2350      206C6F6E 
 2350      6720696E 
 2350      7400
 2351              	.LASF1:
 2352 00cb 7369676E 		.ascii	"signed char\000"
 2352      65642063 
 2352      68617200 
 2353              	.LASF49:
 2354 00d7 705F6D70 		.ascii	"p_mpool\000"
 2354      6F6F6C00 
 2355              	.LASF20:
 2356 00df 626F6F6C 		.ascii	"bool_t\000"
 2356      5F7400
 2357              	.LASF57:
 2358 00e6 6D5F7175 		.ascii	"m_queue\000"
 2358      65756500 
 2359              	.LASF104:
 2360 00ee 61646365 		.ascii	"adcerror_t\000"
 2360      72726F72 
 2360      5F7400
 2361              	.LASF113:
 2362 00f9 646D6173 		.ascii	"dmastp\000"
 2362      747000
 2363              	.LASF106:
 2364 0100 73746174 		.ascii	"state\000"
 2364      6500
 2365              	.LASF117:
 2366 0106 63697263 		.ascii	"circular\000"
 2366      756C6172 
 2366      00
 2367              	.LASF10:
 2368 010f 6C6F6E67 		.ascii	"long int\000"
 2368      20696E74 
 2368      00
 2369              	.LASF103:
 2370 0118 4144435F 		.ascii	"ADC_ERR_DMAFAILURE\000"
 2370      4552525F 
 2370      444D4146 
 2370      41494C55 
 2370      524500
 2371              	.LASF116:
 2372 012b 61646365 		.ascii	"adcerrorcallback_t\000"
 2372      72726F72 
 2372      63616C6C 
 2372      6261636B 
 2372      5F7400
 2373              	.LASF23:
 2374 013e 74737461 		.ascii	"tstate_t\000"
 2374      74655F74 
 2374      00
 2375              	.LASF130:
 2376 0147 6B566578 		.ascii	"kVexDigital_None\000"
ARM GAS  /tmp/ccPBXtzN.s 			page 44


 2376      44696769 
 2376      74616C5F 
 2376      4E6F6E65 
 2376      00
 2377              	.LASF111:
 2378 0158 74687265 		.ascii	"thread\000"
 2378      616400
 2379              	.LASF17:
 2380 015f 75696E74 		.ascii	"uint16_t\000"
 2380      31365F74 
 2380      00
 2381              	.LASF42:
 2382 0168 705F7469 		.ascii	"p_time\000"
 2382      6D6500
 2383              	.LASF83:
 2384 016f 4144435F 		.ascii	"ADC_TypeDef\000"
 2384      54797065 
 2384      44656600 
 2385              	.LASF35:
 2386 017b 705F6E65 		.ascii	"p_newer\000"
 2386      77657200 
 2387              	.LASF119:
 2388 0183 656E645F 		.ascii	"end_cb\000"
 2388      636200
 2389              	.LASF115:
 2390 018a 61646363 		.ascii	"adccallback_t\000"
 2390      616C6C62 
 2390      61636B5F 
 2390      7400
 2391              	.LASF61:
 2392 0198 65786974 		.ascii	"exitcode\000"
 2392      636F6465 
 2392      00
 2393              	.LASF101:
 2394 01a1 61646373 		.ascii	"adcsample_t\000"
 2394      616D706C 
 2394      655F7400 
 2395              	.LASF167:
 2396 01ad 7665785F 		.ascii	"vex_chprintf\000"
 2396      63687072 
 2396      696E7466 
 2396      00
 2397              	.LASF11:
 2398 01ba 5F5F7569 		.ascii	"__uint32_t\000"
 2398      6E743332 
 2398      5F7400
 2399              	.LASF52:
 2400 01c5 72656761 		.ascii	"regarm_t\000"
 2400      726D5F74 
 2400      00
 2401              	.LASF91:
 2402 01ce 73656C66 		.ascii	"selfindex\000"
 2402      696E6465 
 2402      7800
 2403              	.LASF154:
 2404 01d8 6B496D65 		.ascii	"kImeTotal\000"
 2404      546F7461 
ARM GAS  /tmp/ccPBXtzN.s 			page 45


 2404      6C00
 2405              	.LASF127:
 2406 01e2 64756D6D 		.ascii	"dummy\000"
 2406      7900
 2407              	.LASF30:
 2408 01e8 54687265 		.ascii	"Thread\000"
 2408      616400
 2409              	.LASF68:
 2410 01ef 42617365 		.ascii	"BaseSequentialStream\000"
 2410      53657175 
 2410      656E7469 
 2410      616C5374 
 2410      7265616D 
 2411              	.LASF25:
 2412 0204 74736C69 		.ascii	"tslices_t\000"
 2412      6365735F 
 2412      7400
 2413              	.LASF0:
 2414 020e 756E7369 		.ascii	"unsigned int\000"
 2414      676E6564 
 2414      20696E74 
 2414      00
 2415              	.LASF85:
 2416 021b 43504152 		.ascii	"CPAR\000"
 2416      00
 2417              	.LASF44:
 2418 0220 705F6D73 		.ascii	"p_msgqueue\000"
 2418      67717565 
 2418      756500
 2419              	.LASF105:
 2420 022b 41444344 		.ascii	"ADCDriver\000"
 2420      72697665 
 2420      7200
 2421              	.LASF87:
 2422 0235 444D415F 		.ascii	"DMA_Channel_TypeDef\000"
 2422      4368616E 
 2422      6E656C5F 
 2422      54797065 
 2422      44656600 
 2423              	.LASF90:
 2424 0249 69736869 		.ascii	"ishift\000"
 2424      667400
 2425              	.LASF171:
 2426 0250 76657841 		.ascii	"vexAdcGet\000"
 2426      64634765 
 2426      7400
 2427              	.LASF168:
 2428 025a 474E5520 		.ascii	"GNU C 4.8.2 -mcpu=cortex-m3 -mno-thumb-interwork -m"
 2428      4320342E 
 2428      382E3220 
 2428      2D6D6370 
 2428      753D636F 
 2429 028d 7468756D 		.ascii	"thumb -ggdb -O2 -fomit-frame-pointer -falign-functi"
 2429      62202D67 
 2429      67646220 
 2429      2D4F3220 
 2429      2D666F6D 
ARM GAS  /tmp/ccPBXtzN.s 			page 46


 2430 02c0 6F6E733D 		.ascii	"ons=16 -ffunction-sections -fdata-sections -fno-com"
 2430      3136202D 
 2430      6666756E 
 2430      6374696F 
 2430      6E2D7365 
 2431 02f3 6D6F6E00 		.ascii	"mon\000"
 2432              	.LASF8:
 2433 02f7 73686F72 		.ascii	"short unsigned int\000"
 2433      7420756E 
 2433      7369676E 
 2433      65642069 
 2433      6E7400
 2434              	.LASF96:
 2435 030a 4144435F 		.ascii	"ADC_READY\000"
 2435      52454144 
 2435      5900
 2436              	.LASF109:
 2437 0314 64657074 		.ascii	"depth\000"
 2437      6800
 2438              	.LASF27:
 2439 031a 6D73675F 		.ascii	"msg_t\000"
 2439      7400
 2440              	.LASF131:
 2441 0320 6B566578 		.ascii	"kVexDigital_1\000"
 2441      44696769 
 2441      74616C5F 
 2441      3100
 2442              	.LASF132:
 2443 032e 6B566578 		.ascii	"kVexDigital_2\000"
 2443      44696769 
 2443      74616C5F 
 2443      3200
 2444              	.LASF133:
 2445 033c 6B566578 		.ascii	"kVexDigital_3\000"
 2445      44696769 
 2445      74616C5F 
 2445      3300
 2446              	.LASF134:
 2447 034a 6B566578 		.ascii	"kVexDigital_4\000"
 2447      44696769 
 2447      74616C5F 
 2447      3400
 2448              	.LASF135:
 2449 0358 6B566578 		.ascii	"kVexDigital_5\000"
 2449      44696769 
 2449      74616C5F 
 2449      3500
 2450              	.LASF136:
 2451 0366 6B566578 		.ascii	"kVexDigital_6\000"
 2451      44696769 
 2451      74616C5F 
 2451      3600
 2452              	.LASF137:
 2453 0374 6B566578 		.ascii	"kVexDigital_7\000"
 2453      44696769 
 2453      74616C5F 
 2453      3700
ARM GAS  /tmp/ccPBXtzN.s 			page 47


 2454              	.LASF138:
 2455 0382 6B566578 		.ascii	"kVexDigital_8\000"
 2455      44696769 
 2455      74616C5F 
 2455      3800
 2456              	.LASF139:
 2457 0390 6B566578 		.ascii	"kVexDigital_9\000"
 2457      44696769 
 2457      74616C5F 
 2457      3900
 2458              	.LASF51:
 2459 039e 54687265 		.ascii	"ThreadsList\000"
 2459      6164734C 
 2459      69737400 
 2460              	.LASF28:
 2461 03aa 6576656E 		.ascii	"eventmask_t\000"
 2461      746D6173 
 2461      6B5F7400 
 2462              	.LASF9:
 2463 03b6 5F5F696E 		.ascii	"__int32_t\000"
 2463      7433325F 
 2463      7400
 2464              	.LASF173:
 2465 03c0 61646349 		.ascii	"adcInit\000"
 2465      6E697400 
 2466              	.LASF86:
 2467 03c8 434D4152 		.ascii	"CMAR\000"
 2467      00
 2468              	.LASF66:
 2469 03cd 77726974 		.ascii	"write\000"
 2469      6500
 2470              	.LASF110:
 2471 03d3 67727070 		.ascii	"grpp\000"
 2471      00
 2472              	.LASF71:
 2473 03d8 4A4F4652 		.ascii	"JOFR1\000"
 2473      3100
 2474              	.LASF72:
 2475 03de 4A4F4652 		.ascii	"JOFR2\000"
 2475      3200
 2476              	.LASF73:
 2477 03e4 4A4F4652 		.ascii	"JOFR3\000"
 2477      3300
 2478              	.LASF108:
 2479 03ea 73616D70 		.ascii	"samples\000"
 2479      6C657300 
 2480              	.LASF55:
 2481 03f2 73697A65 		.ascii	"sizetype\000"
 2481      74797065 
 2481      00
 2482              	.LASF56:
 2483 03fb 4D757465 		.ascii	"Mutex\000"
 2483      7800
 2484              	.LASF95:
 2485 0401 4144435F 		.ascii	"ADC_STOP\000"
 2485      53544F50 
 2485      00
ARM GAS  /tmp/ccPBXtzN.s 			page 48


 2486              	.LASF160:
 2487 040a 61646363 		.ascii	"adccfg\000"
 2487      666700
 2488              	.LASF36:
 2489 0411 705F6F6C 		.ascii	"p_older\000"
 2489      64657200 
 2490              	.LASF50:
 2491 0419 54687265 		.ascii	"ThreadsQueue\000"
 2491      61647351 
 2491      75657565 
 2491      00
 2492              	.LASF69:
 2493 0426 534D5052 		.ascii	"SMPR1\000"
 2493      3100
 2494              	.LASF70:
 2495 042c 534D5052 		.ascii	"SMPR2\000"
 2495      3200
 2496              	.LASF59:
 2497 0432 6D5F6E65 		.ascii	"m_next\000"
 2497      787400
 2498              	.LASF75:
 2499 0439 53515231 		.ascii	"SQR1\000"
 2499      00
 2500              	.LASF76:
 2501 043e 53515232 		.ascii	"SQR2\000"
 2501      00
 2502              	.LASF77:
 2503 0443 53515233 		.ascii	"SQR3\000"
 2503      00
 2504              	.LASF146:
 2505 0448 6B496D65 		.ascii	"kImeChannel_1\000"
 2505      4368616E 
 2505      6E656C5F 
 2505      3100
 2506              	.LASF151:
 2507 0456 6B496D65 		.ascii	"kImeChannel_6\000"
 2507      4368616E 
 2507      6E656C5F 
 2507      3600
 2508              	.LASF32:
 2509 0464 705F7072 		.ascii	"p_prev\000"
 2509      657600
 2510              	.LASF93:
 2511 046b 73746D33 		.ascii	"stm32_dma_stream_t\000"
 2511      325F646D 
 2511      615F7374 
 2511      7265616D 
 2511      5F7400
 2512              	.LASF26:
 2513 047e 74707269 		.ascii	"tprio_t\000"
 2513      6F5F7400 
 2514              	.LASF112:
 2515 0486 6D757465 		.ascii	"mutex\000"
 2515      7800
 2516              	.LASF21:
 2517 048c 5F426F6F 		.ascii	"_Bool\000"
 2517      6C00
ARM GAS  /tmp/ccPBXtzN.s 			page 49


 2518              	.LASF18:
 2519 0492 696E7433 		.ascii	"int32_t\000"
 2519      325F7400 
 2520              	.LASF4:
 2521 049a 756E7369 		.ascii	"unsigned char\000"
 2521      676E6564 
 2521      20636861 
 2521      7200
 2522              	.LASF169:
 2523 04a8 2E2E2F2E 		.ascii	"../../fw/vexanalog.c\000"
 2523      2E2F6677 
 2523      2F766578 
 2523      616E616C 
 2523      6F672E63 
 2524              	.LASF47:
 2525 04bd 705F6D74 		.ascii	"p_mtxlist\000"
 2525      786C6973 
 2525      7400
 2526              	.LASF6:
 2527 04c7 73686F72 		.ascii	"short int\000"
 2527      7420696E 
 2527      7400
 2528              	.LASF38:
 2529 04d1 705F7374 		.ascii	"p_state\000"
 2529      61746500 
 2530              	.LASF41:
 2531 04d9 705F7072 		.ascii	"p_preempt\000"
 2531      65656D70 
 2531      7400
 2532              	.LASF120:
 2533 04e3 6572726F 		.ascii	"error_cb\000"
 2533      725F6362 
 2533      00
 2534              	.LASF63:
 2535 04ec 65776D61 		.ascii	"ewmask\000"
 2535      736B00
 2536              	.LASF31:
 2537 04f3 705F6E65 		.ascii	"p_next\000"
 2537      787400
 2538              	.LASF65:
 2539 04fa 42617365 		.ascii	"BaseSequentialStreamVMT\000"
 2539      53657175 
 2539      656E7469 
 2539      616C5374 
 2539      7265616D 
 2540              	.LASF39:
 2541 0512 705F666C 		.ascii	"p_flags\000"
 2541      61677300 
 2542              	.LASF97:
 2543 051a 4144435F 		.ascii	"ADC_ACTIVE\000"
 2543      41435449 
 2543      564500
 2544              	.LASF74:
 2545 0525 4A4F4652 		.ascii	"JOFR4\000"
 2545      3400
 2546              	.LASF88:
 2547 052b 6368616E 		.ascii	"channel\000"
ARM GAS  /tmp/ccPBXtzN.s 			page 50


 2547      6E656C00 
 2548              	.LASF46:
 2549 0533 705F6570 		.ascii	"p_epending\000"
 2549      656E6469 
 2549      6E6700
 2550              	.LASF89:
 2551 053e 69666372 		.ascii	"ifcr\000"
 2551      00
 2552              	.LASF19:
 2553 0543 75696E74 		.ascii	"uint32_t\000"
 2553      33325F74 
 2553      00
 2554              	.LASF162:
 2555 054c 61646363 		.ascii	"adccg\000"
 2555      6700
 2556              	.LASF128:
 2557 0552 41444343 		.ascii	"ADCConfig\000"
 2557      6F6E6669 
 2557      6700
 2558              	.LASF24:
 2559 055c 74726566 		.ascii	"trefs_t\000"
 2559      735F7400 
 2560              	.LASF121:
 2561 0564 736D7072 		.ascii	"smpr1\000"
 2561      3100
 2562              	.LASF12:
 2563 056a 6C6F6E67 		.ascii	"long unsigned int\000"
 2563      20756E73 
 2563      69676E65 
 2563      6420696E 
 2563      7400
 2564              	.LASF67:
 2565 057c 72656164 		.ascii	"read\000"
 2565      00
 2566              	.LASF64:
 2567 0581 63686172 		.ascii	"char\000"
 2567      00
 2568              	.LASF147:
 2569 0586 6B496D65 		.ascii	"kImeChannel_2\000"
 2569      4368616E 
 2569      6E656C5F 
 2569      3200
 2570              	.LASF148:
 2571 0594 6B496D65 		.ascii	"kImeChannel_3\000"
 2571      4368616E 
 2571      6E656C5F 
 2571      3300
 2572              	.LASF149:
 2573 05a2 6B496D65 		.ascii	"kImeChannel_4\000"
 2573      4368616E 
 2573      6E656C5F 
 2573      3400
 2574              	.LASF150:
 2575 05b0 6B496D65 		.ascii	"kImeChannel_5\000"
 2575      4368616E 
 2575      6E656C5F 
 2575      3500
ARM GAS  /tmp/ccPBXtzN.s 			page 51


 2576              	.LASF107:
 2577 05be 636F6E66 		.ascii	"config\000"
 2577      696700
 2578              	.LASF152:
 2579 05c5 6B496D65 		.ascii	"kImeChannel_7\000"
 2579      4368616E 
 2579      6E656C5F 
 2579      3700
 2580              	.LASF153:
 2581 05d3 6B496D65 		.ascii	"kImeChannel_8\000"
 2581      4368616E 
 2581      6E656C5F 
 2581      3800
 2582              	.LASF7:
 2583 05e1 5F5F7569 		.ascii	"__uint16_t\000"
 2583      6E743136 
 2583      5F7400
 2584              	.LASF140:
 2585 05ec 6B566578 		.ascii	"kVexDigital_10\000"
 2585      44696769 
 2585      74616C5F 
 2585      313000
 2586              	.LASF141:
 2587 05fb 6B566578 		.ascii	"kVexDigital_11\000"
 2587      44696769 
 2587      74616C5F 
 2587      313100
 2588              	.LASF142:
 2589 060a 6B566578 		.ascii	"kVexDigital_12\000"
 2589      44696769 
 2589      74616C5F 
 2589      313200
 2590              	.LASF123:
 2591 0619 73717231 		.ascii	"sqr1\000"
 2591      00
 2592              	.LASF124:
 2593 061e 73717232 		.ascii	"sqr2\000"
 2593      00
 2594              	.LASF125:
 2595 0623 73717233 		.ascii	"sqr3\000"
 2595      00
 2596              	.LASF29:
 2597 0628 73797374 		.ascii	"systime_t\000"
 2597      696D655F 
 2597      7400
 2598              	.LASF48:
 2599 0632 705F7265 		.ascii	"p_realprio\000"
 2599      616C7072 
 2599      696F00
 2600              	.LASF156:
 2601 063d 76657841 		.ascii	"vexAdcInit\000"
 2601      6463496E 
 2601      697400
 2602              	.LASF54:
 2603 0648 636F6E74 		.ascii	"context\000"
 2603      65787400 
 2604              	.LASF129:
ARM GAS  /tmp/ccPBXtzN.s 			page 52


 2605 0650 76657853 		.ascii	"vexStream\000"
 2605      74726561 
 2605      6D00
 2606              	.LASF166:
 2607 065a 61646353 		.ascii	"adcStartConversion\000"
 2607      74617274 
 2607      436F6E76 
 2607      65727369 
 2607      6F6E00
 2608              	.LASF53:
 2609 066d 696E7463 		.ascii	"intctx\000"
 2609      747800
 2610              	.LASF99:
 2611 0674 4144435F 		.ascii	"ADC_ERROR\000"
 2611      4552524F 
 2611      5200
 2612              	.LASF165:
 2613 067e 61646353 		.ascii	"adcStart\000"
 2613      74617274 
 2613      00
 2614              	.LASF37:
 2615 0687 705F6E61 		.ascii	"p_name\000"
 2615      6D6500
 2616              	.LASF40:
 2617 068e 705F7265 		.ascii	"p_refs\000"
 2617      667300
 2618              	.LASF84:
 2619 0695 434E4454 		.ascii	"CNDTR\000"
 2619      5200
 2620              	.LASF122:
 2621 069b 736D7072 		.ascii	"smpr2\000"
 2621      3200
 2622              	.LASF157:
 2623 06a1 76657841 		.ascii	"vexAdcDebug\000"
 2623      64634465 
 2623      62756700 
 2624              	.LASF164:
 2625 06ad 41444344 		.ascii	"ADCD1\000"
 2625      3100
 2626              	.LASF170:
 2627 06b3 2F6D6E74 		.ascii	"/mnt/c/Users/DQ Sullivan/Downloads/Convex/convex/co"
 2627      2F632F55 
 2627      73657273 
 2627      2F445120 
 2627      53756C6C 
 2628 06e6 72746578 		.ascii	"rtex/projects/Vex2016 CyberBrains\000"
 2628      2F70726F 
 2628      6A656374 
 2628      732F5665 
 2628      78323031 
 2629              	.LASF155:
 2630 0708 6B496D65 		.ascii	"kImeChannelNone\000"
 2630      4368616E 
 2630      6E656C4E 
 2630      6F6E6500 
 2631              	.LASF15:
 2632 0718 75696E74 		.ascii	"uint8_t\000"
ARM GAS  /tmp/ccPBXtzN.s 			page 53


 2632      385F7400 
 2633              	.LASF126:
 2634 0720 41444343 		.ascii	"ADCConversionGroup\000"
 2634      6F6E7665 
 2634      7273696F 
 2634      6E47726F 
 2634      757000
 2635              	.LASF79:
 2636 0733 4A445231 		.ascii	"JDR1\000"
 2636      00
 2637              	.LASF80:
 2638 0738 4A445232 		.ascii	"JDR2\000"
 2638      00
 2639              	.LASF81:
 2640 073d 4A445233 		.ascii	"JDR3\000"
 2640      00
 2641              	.LASF82:
 2642 0742 4A445234 		.ascii	"JDR4\000"
 2642      00
 2643              	.LASF5:
 2644 0747 5F5F696E 		.ascii	"__int16_t\000"
 2644      7431365F 
 2644      7400
 2645              	.LASF62:
 2646 0751 77746F62 		.ascii	"wtobjp\000"
 2646      6A7000
 2647              	.LASF172:
 2648 0758 696E6465 		.ascii	"index\000"
 2648      7800
 2649              	.LASF158:
 2650 075e 61726763 		.ascii	"argc\000"
 2650      00
 2651              	.LASF102:
 2652 0763 6164635F 		.ascii	"adc_channels_num_t\000"
 2652      6368616E 
 2652      6E656C73 
 2652      5F6E756D 
 2652      5F7400
 2653              	.LASF22:
 2654 0776 746D6F64 		.ascii	"tmode_t\000"
 2654      655F7400 
 2655              	.LASF45:
 2656 077e 705F6D73 		.ascii	"p_msg\000"
 2656      6700
 2657              	.LASF159:
 2658 0784 61726776 		.ascii	"argv\000"
 2658      00
 2659              	.LASF58:
 2660 0789 6D5F6F77 		.ascii	"m_owner\000"
 2660      6E657200 
 2661              	.LASF34:
 2662 0791 705F6374 		.ascii	"p_ctx\000"
 2662      7800
 2663              	.LASF43:
 2664 0797 705F7761 		.ascii	"p_waiting\000"
 2664      6974696E 
 2664      6700
ARM GAS  /tmp/ccPBXtzN.s 			page 54


 2665              	.LASF144:
 2666 07a1 6B566578 		.ascii	"kVexDigitalInput\000"
 2666      44696769 
 2666      74616C49 
 2666      6E707574 
 2666      00
 2667              		.ident	"GCC: (4.8.2-14ubuntu1+6) 4.8.2"
ARM GAS  /tmp/ccPBXtzN.s 			page 55


DEFINED SYMBOLS
                            *ABS*:0000000000000000 vexanalog.c
     /tmp/ccPBXtzN.s:19     .text.vexAdcInit:0000000000000000 $t
     /tmp/ccPBXtzN.s:25     .text.vexAdcInit:0000000000000000 vexAdcInit
     /tmp/ccPBXtzN.s:149    .bss.adccfg:0000000000000000 .LANCHOR0
     /tmp/ccPBXtzN.s:160    .data.adccg:0000000000000000 .LANCHOR1
     /tmp/ccPBXtzN.s:178    .bss.samples_buf:0000000000000000 .LANCHOR2
     /tmp/ccPBXtzN.s:64     .text.vexAdcGet:0000000000000000 $t
     /tmp/ccPBXtzN.s:70     .text.vexAdcGet:0000000000000000 vexAdcGet
     /tmp/ccPBXtzN.s:96     .text.vexAdcDebug:0000000000000000 $t
     /tmp/ccPBXtzN.s:102    .text.vexAdcDebug:0000000000000000 vexAdcDebug
     /tmp/ccPBXtzN.s:156    .rodata.str1.4:0000000000000000 .LC0
     /tmp/ccPBXtzN.s:143    .text.vexAdcDebug:0000000000000024 $d
     /tmp/ccPBXtzN.s:148    .bss.adccfg:0000000000000000 $d
     /tmp/ccPBXtzN.s:152    .bss.adccfg:0000000000000000 adccfg
     /tmp/ccPBXtzN.s:155    .rodata.str1.4:0000000000000000 $d
     /tmp/ccPBXtzN.s:159    .data.adccg:0000000000000000 $d
     /tmp/ccPBXtzN.s:163    .data.adccg:0000000000000000 adccg
     /tmp/ccPBXtzN.s:177    .bss.samples_buf:0000000000000000 $d
     /tmp/ccPBXtzN.s:181    .bss.samples_buf:0000000000000000 samples_buf
                     .debug_frame:0000000000000010 $d
     /tmp/ccPBXtzN.s:147    .text.vexAdcDebug:0000000000000028 $t

UNDEFINED SYMBOLS
ADCD1
adcInit
adcStart
adcStartConversion
vex_chprintf
