ARM GAS  /tmp/ccPBXtzN.s 			page 1


   1              		.syntax unified
   2              		.cpu cortex-m3
   3              		.fpu softvfp
   4              		.eabi_attribute 20, 1
   5              		.eabi_attribute 21, 1
   6              		.eabi_attribute 23, 3
   7              		.eabi_attribute 24, 1
   8              		.eabi_attribute 25, 1
   9              		.eabi_attribute 26, 1
  10              		.eabi_attribute 30, 2
  11              		.eabi_attribute 34, 1
  12              		.eabi_attribute 18, 4
  13              		.thumb
  14              		.file	"vexanalog.c"
  15              		.text
  16              	.Ltext0:
  17              		.cfi_sections	.debug_frame
  18              		.section	.text.vexAdcInit,"ax",%progbits
  19              		.align	2
  20              		.p2align 4,,15
  21              		.global	vexAdcInit
  22              		.thumb
  23              		.thumb_func
  24              		.type	vexAdcInit, %function
  25              	vexAdcInit:
  26              	.LFB63:
  27              		.file 1 "../../fw/vexanalog.c"
  28              		.loc 1 104 0
  29              		.cfi_startproc
  30              		@ args = 0, pretend = 0, frame = 0
  31              		@ frame_needed = 0, uses_anonymous_args = 0
  32 0000 10B5     		push	{r4, lr}
  33              		.cfi_def_cfa_offset 8
  34              		.cfi_offset 4, -8
  35              		.cfi_offset 14, -4
  36              		.loc 1 107 0
  37 0002 40F20004 		movw	r4, #:lower16:ADCD1
  38              		.loc 1 106 0
  39 0006 FFF7FEFF 		bl	adcInit
  40              	.LVL0:
  41              		.loc 1 107 0
  42 000a C0F20004 		movt	r4, #:upper16:ADCD1
  43 000e 40F20001 		movw	r1, #:lower16:.LANCHOR0
  44 0012 2046     		mov	r0, r4
  45 0014 C0F20001 		movt	r1, #:upper16:.LANCHOR0
  46 0018 FFF7FEFF 		bl	adcStart
  47              	.LVL1:
  48              		.loc 1 110 0
  49 001c 40F20001 		movw	r1, #:lower16:.LANCHOR1
  50 0020 40F20002 		movw	r2, #:lower16:.LANCHOR2
  51 0024 2046     		mov	r0, r4
  52 0026 C0F20001 		movt	r1, #:upper16:.LANCHOR1
  53 002a C0F20002 		movt	r2, #:upper16:.LANCHOR2
  54 002e 0123     		movs	r3, #1
  55              		.loc 1 111 0
  56 0030 BDE81040 		pop	{r4, lr}
  57              		.loc 1 110 0
ARM GAS  /tmp/ccPBXtzN.s 			page 2


  58 0034 FFF7FEBF 		b	adcStartConversion
  59              	.LVL2:
  60              		.cfi_endproc
  61              	.LFE63:
  62              		.size	vexAdcInit, .-vexAdcInit
  63 0038 AFF30080 		.section	.text.vexAdcGet,"ax",%progbits
  63      AFF30080 
  64              		.align	2
  65              		.p2align 4,,15
  66              		.global	vexAdcGet
  67              		.thumb
  68              		.thumb_func
  69              		.type	vexAdcGet, %function
  70              	vexAdcGet:
  71              	.LFB64:
  72              		.loc 1 121 0
  73              		.cfi_startproc
  74              		@ args = 0, pretend = 0, frame = 0
  75              		@ frame_needed = 0, uses_anonymous_args = 0
  76              		@ link register save eliminated.
  77              	.LVL3:
  78              		.loc 1 122 0
  79 0000 83B2     		uxth	r3, r0
  80 0002 072B     		cmp	r3, #7
  81              		.loc 1 125 0
  82 0004 9DBF     		ittte	ls
  83 0006 40F20003 		movwls	r3, #:lower16:.LANCHOR2
  84 000a C0F20003 		movtls	r3, #:upper16:.LANCHOR2
  85 000e 33F81000 		ldrhls	r0, [r3, r0, lsl #1]
  86              	.LVL4:
  87              		.loc 1 123 0
  88 0012 4FF6FF70 		movwhi	r0, #65535
  89              		.loc 1 126 0
  90 0016 00B2     		sxth	r0, r0
  91 0018 7047     		bx	lr
  92              		.cfi_endproc
  93              	.LFE64:
  94              		.size	vexAdcGet, .-vexAdcGet
  95 001a 00BFAFF3 		.section	.text.vexAdcDebug,"ax",%progbits
  95      0080
  96              		.align	2
  97              		.p2align 4,,15
  98              		.global	vexAdcDebug
  99              		.thumb
 100              		.thumb_func
 101              		.type	vexAdcDebug, %function
 102              	vexAdcDebug:
 103              	.LFB65:
 104              		.loc 1 137 0
 105              		.cfi_startproc
 106              		@ args = 0, pretend = 0, frame = 0
 107              		@ frame_needed = 0, uses_anonymous_args = 0
 108              	.LVL5:
 109 0000 70B5     		push	{r4, r5, r6, lr}
 110              		.cfi_def_cfa_offset 16
 111              		.cfi_offset 4, -16
 112              		.cfi_offset 5, -12
ARM GAS  /tmp/ccPBXtzN.s 			page 3


 113              		.cfi_offset 6, -8
 114              		.cfi_offset 14, -4
 115 0002 084D     		ldr	r5, .L9
 116              		.loc 1 137 0
 117 0004 0646     		mov	r6, r0
 118              		.loc 1 143 0
 119 0006 0024     		movs	r4, #0
 120              	.LVL6:
 121              	.L7:
 122              		.loc 1 144 0 discriminator 2
 123 0008 40F20001 		movw	r1, #:lower16:.LC0
 124 000c 2246     		mov	r2, r4
 125 000e C0F20001 		movt	r1, #:upper16:.LC0
 126 0012 3046     		mov	r0, r6
 127 0014 35F9023F 		ldrsh	r3, [r5, #2]!
 128              		.loc 1 143 0 discriminator 2
 129 0018 0134     		adds	r4, r4, #1
 130              	.LVL7:
 131              		.loc 1 144 0 discriminator 2
 132 001a FFF7FEFF 		bl	vex_chprintf
 133              	.LVL8:
 134              		.loc 1 143 0 discriminator 2
 135 001e 082C     		cmp	r4, #8
 136 0020 F2D1     		bne	.L7
 137              		.loc 1 145 0
 138 0022 70BD     		pop	{r4, r5, r6, pc}
 139              	.LVL9:
 140              	.L10:
 141              		.align	2
 142              	.L9:
 143 0024 FEFFFFFF 		.word	.LANCHOR2-2
 144              		.cfi_endproc
 145              	.LFE65:
 146              		.size	vexAdcDebug, .-vexAdcDebug
 147 0028 AFF30080 		.section	.bss.adccfg,"aw",%nobits
 147      AFF30080 
 148              		.align	2
 149              		.set	.LANCHOR0,. + 0
 150              		.type	adccfg, %object
 151              		.size	adccfg, 4
 152              	adccfg:
 153 0000 00000000 		.space	4
 154              		.section	.rodata.str1.4,"aMS",%progbits,1
 155              		.align	2
 156              	.LC0:
 157 0000 6368616E 		.ascii	"channel %d = %4d\015\012\000"
 157      6E656C20 
 157      2564203D 
 157      20253464 
 157      0D0A00
 158 0013 00       		.section	.data.adccg,"aw",%progbits
 159              		.align	2
 160              		.set	.LANCHOR1,. + 0
 161              		.type	adccg, %object
 162              		.size	adccg, 40
 163              	adccg:
 164 0000 01       		.byte	1
ARM GAS  /tmp/ccPBXtzN.s 			page 4


 165 0001 00       		.space	1
 166 0002 0800     		.short	8
 167 0004 00000000 		.word	0
 168 0008 00000000 		.word	0
 169 000c 00000000 		.word	0
 170 0010 00000000 		.word	0
 171 0014 6D0B0000 		.word	2925
 172 0018 6D0B0000 		.word	2925
 173 001c 00007000 		.word	7340032
 174 0020 6A010000 		.word	362
 175 0024 2088C11A 		.word	448890912
 176              		.section	.bss.samples_buf,"aw",%nobits
 177              		.align	2
 178              		.set	.LANCHOR2,. + 0
 179              		.type	samples_buf, %object
 180              		.size	samples_buf, 16
 181              	samples_buf:
 182 0000 00000000 		.space	16
 182      00000000 
 182      00000000 
 182      00000000 
 183              		.text
 184              	.Letext0:
 185              		.file 2 "/usr/lib/gcc/arm-none-eabi/4.8.2/include/stddef.h"
 186              		.file 3 "/usr/include/newlib/machine/_default_types.h"
 187              		.file 4 "/usr/include/newlib/stdint.h"
 188              		.file 5 "../../../../ChibiOS_2.6.2/os/ports/GCC/ARMCMx/chtypes.h"
 189              		.file 6 "../../../../ChibiOS_2.6.2/os/kernel/include/chlists.h"
 190              		.file 7 "../../../../ChibiOS_2.6.2/os/kernel/include/chthreads.h"
 191              		.file 8 "../../../../ChibiOS_2.6.2/os/ports/GCC/ARMCMx/chcore_v7m.h"
 192              		.file 9 "../../../../ChibiOS_2.6.2/os/kernel/include/chmtx.h"
 193              		.file 10 "../../../../ChibiOS_2.6.2/os/kernel/include/chstreams.h"
 194              		.file 11 "../../../../ChibiOS_2.6.2/os/hal/platforms/STM32F1xx/stm32f10x.h"
 195              		.file 12 "../../../../ChibiOS_2.6.2/os/hal/platforms/STM32F1xx/stm32_dma.h"
 196              		.file 13 "../../../../ChibiOS_2.6.2/os/hal/include/adc.h"
 197              		.file 14 "../../../../ChibiOS_2.6.2/os/hal/platforms/STM32F1xx/adc_lld.h"
 198              		.file 15 "../../fw/vexcompat.h"
 199              		.file 16 "../../fw/vexdigital.h"
 200              		.file 17 "../../fw/vexime.h"
 201              		.file 18 "../../../../ChibiOS_2.6.2/os/ports/common/ARMCMx/CMSIS/include/core_cm3.h"
 202              		.file 19 "../../fw/vexprintf.h"