ARM GAS  /tmp/ccGUuh4o.s 			page 1


   1              		.syntax unified
   2              		.cpu cortex-m3
   3              		.fpu softvfp
   4              		.eabi_attribute 20, 1
   5              		.eabi_attribute 21, 1
   6              		.eabi_attribute 23, 3
   7              		.eabi_attribute 24, 1
   8              		.eabi_attribute 25, 1
   9              		.eabi_attribute 26, 1
  10              		.eabi_attribute 30, 2
  11              		.eabi_attribute 34, 1
  12              		.eabi_attribute 18, 4
  13              		.thumb
  14              		.file	"vexbkup.c"
  15              		.text
  16              	.Ltext0:
  17              		.cfi_sections	.debug_frame
  18              		.section	.text.vexBkupInit,"ax",%progbits
  19              		.align	2
  20              		.p2align 4,,15
  21              		.global	vexBkupInit
  22              		.thumb
  23              		.thumb_func
  24              		.type	vexBkupInit, %function
  25              	vexBkupInit:
  26              	.LFB63:
  27              		.file 1 "../../fw/vexbkup.c"
  28              		.loc 1 62 0
  29              		.cfi_startproc
  30              		@ args = 0, pretend = 0, frame = 0
  31              		@ frame_needed = 0, uses_anonymous_args = 0
  32              		@ link register save eliminated.
  33              	.LVL0:
  34              		.loc 1 67 0
  35 0000 4FF48052 		mov	r2, #4096
  36 0004 C4F20202 		movt	r2, 16386
  37 0008 D169     		ldr	r1, [r2, #28]
  38              		.loc 1 69 0
  39 000a 4FF4E043 		mov	r3, #28672
  40              		.loc 1 67 0
  41 000e 41F0C051 		orr	r1, r1, #402653184
  42 0012 D161     		str	r1, [r2, #28]
  43              		.loc 1 69 0
  44 0014 C4F20003 		movt	r3, 16384
  45 0018 1A68     		ldr	r2, [r3]
  46 001a 42F48072 		orr	r2, r2, #256
  47 001e 1A60     		str	r2, [r3]
  48 0020 7047     		bx	lr
  49              		.cfi_endproc
  50              	.LFE63:
  51              		.size	vexBkupInit, .-vexBkupInit
  52 0022 00BFAFF3 		.section	.text.vexBkupRegisterWrite,"ax",%progbits
  52      0080AFF3 
  52      0080AFF3 
  52      0080
  53              		.align	2
  54              		.p2align 4,,15
ARM GAS  /tmp/ccGUuh4o.s 			page 2


  55              		.global	vexBkupRegisterWrite
  56              		.thumb
  57              		.thumb_func
  58              		.type	vexBkupRegisterWrite, %function
  59              	vexBkupRegisterWrite:
  60              	.LFB64:
  61              		.loc 1 80 0
  62              		.cfi_startproc
  63              		@ args = 0, pretend = 0, frame = 0
  64              		@ frame_needed = 0, uses_anonymous_args = 0
  65              		@ link register save eliminated.
  66              	.LVL1:
  67              		.loc 1 85 0
  68 0000 83B2     		uxth	r3, r0
  69 0002 092B     		cmp	r3, #9
  70 0004 0BD9     		bls	.L6
  71              		.loc 1 93 0
  72 0006 0A3B     		subs	r3, r3, #10
  73 0008 9BB2     		uxth	r3, r3
  74 000a 1F2B     		cmp	r3, #31
  75              		.loc 1 95 0
  76 000c 9FBF     		itttt	ls
  77 000e 46F64043 		movwls	r3, #27712
  78              		.loc 1 96 0
  79 0012 0A38     		subls	r0, r0, #10
  80              	.LVL2:
  81              		.loc 1 95 0
  82 0014 C4F20003 		movtls	r3, 16384
  83              	.LVL3:
  84              		.loc 1 98 0
  85 0018 23F82010 		strhls	r1, [r3, r0, lsl #2]	@ movhi
  86 001c 7047     		bx	lr
  87              	.LVL4:
  88              	.L6:
  89              		.loc 1 87 0
  90 001e 46F60443 		movw	r3, #27652
  91 0022 C4F20003 		movt	r3, 16384
  92              	.LVL5:
  93              		.loc 1 90 0
  94 0026 23F82010 		strh	r1, [r3, r0, lsl #2]	@ movhi
  95 002a 7047     		bx	lr
  96              		.cfi_endproc
  97              	.LFE64:
  98              		.size	vexBkupRegisterWrite, .-vexBkupRegisterWrite
  99 002c AFF30080 		.section	.text.vexBkupRegisterRead,"ax",%progbits
 100              		.align	2
 101              		.p2align 4,,15
 102              		.global	vexBkupRegisterRead
 103              		.thumb
 104              		.thumb_func
 105              		.type	vexBkupRegisterRead, %function
 106              	vexBkupRegisterRead:
 107              	.LFB65:
 108              		.loc 1 110 0
 109              		.cfi_startproc
 110              		@ args = 0, pretend = 0, frame = 0
 111              		@ frame_needed = 0, uses_anonymous_args = 0
ARM GAS  /tmp/ccGUuh4o.s 			page 3


 112              		@ link register save eliminated.
 113              	.LVL6:
 114              		.loc 1 115 0
 115 0000 83B2     		uxth	r3, r0
 116 0002 092B     		cmp	r3, #9
 117 0004 0ED9     		bls	.L11
 118              		.loc 1 122 0
 119 0006 0A3B     		subs	r3, r3, #10
 120 0008 9BB2     		uxth	r3, r3
 121 000a 1F2B     		cmp	r3, #31
 122              	.LVL7:
 123              	.LBB4:
 124              	.LBB5:
 125              		.loc 1 124 0
 126 000c 9FBF     		itttt	ls
 127 000e 46F64043 		movwls	r3, #27712
 128              		.loc 1 125 0
 129 0012 0A38     		subls	r0, r0, #10
 130              	.LVL8:
 131              		.loc 1 124 0
 132 0014 C4F20003 		movtls	r3, 16384
 133              	.LVL9:
 134              		.loc 1 126 0
 135 0018 33F82000 		ldrhls	r0, [r3, r0, lsl #2]
 136              	.LVL10:
 137 001c 94BF     		ite	ls
 138 001e 80B2     		uxthls	r0, r0
 139              	.LBE5:
 140              	.LBE4:
 141              		.loc 1 129 0
 142 0020 0020     		movhi	r0, #0
 143              		.loc 1 130 0
 144 0022 7047     		bx	lr
 145              	.LVL11:
 146              	.L11:
 147              		.loc 1 117 0
 148 0024 46F60443 		movw	r3, #27652
 149 0028 C4F20003 		movt	r3, 16384
 150              	.LVL12:
 151              		.loc 1 119 0
 152 002c 33F82000 		ldrh	r0, [r3, r0, lsl #2]
 153              	.LVL13:
 154 0030 80B2     		uxth	r0, r0
 155 0032 7047     		bx	lr
 156              		.cfi_endproc
 157              	.LFE65:
 158              		.size	vexBkupRegisterRead, .-vexBkupRegisterRead
 159 0034 AFF30080 		.section	.text.vexBkupDebug,"ax",%progbits
 159      AFF30080 
 159      AFF30080 
 160              		.align	2
 161              		.p2align 4,,15
 162              		.global	vexBkupDebug
 163              		.thumb
 164              		.thumb_func
 165              		.type	vexBkupDebug, %function
 166              	vexBkupDebug:
ARM GAS  /tmp/ccGUuh4o.s 			page 4


 167              	.LFB66:
 168              		.loc 1 141 0
 169              		.cfi_startproc
 170              		@ args = 0, pretend = 0, frame = 0
 171              		@ frame_needed = 0, uses_anonymous_args = 0
 172              	.LVL14:
 173              		.loc 1 147 0
 174 0000 40F20001 		movw	r1, #:lower16:.LC0
 175              	.LVL15:
 176              		.loc 1 141 0
 177 0004 38B5     		push	{r3, r4, r5, lr}
 178              		.cfi_def_cfa_offset 16
 179              		.cfi_offset 3, -16
 180              		.cfi_offset 4, -12
 181              		.cfi_offset 5, -8
 182              		.cfi_offset 14, -4
 183              		.loc 1 147 0
 184 0006 C0F20001 		movt	r1, #:upper16:.LC0
 185              		.loc 1 141 0
 186 000a 0546     		mov	r5, r0
 187              		.loc 1 147 0
 188 000c FFF7FEFF 		bl	vex_chprintf
 189              	.LVL16:
 190              		.loc 1 148 0
 191 0010 40F20001 		movw	r1, #:lower16:.LC1
 192 0014 2846     		mov	r0, r5
 193 0016 C0F20001 		movt	r1, #:upper16:.LC1
 194 001a FFF7FEFF 		bl	vex_chprintf
 195              	.LVL17:
 196              		.loc 1 149 0
 197 001e 0024     		movs	r4, #0
 198              	.LVL18:
 199              	.L14:
 200              		.loc 1 150 0 discriminator 2
 201 0020 20B2     		sxth	r0, r4
 202 0022 FFF7FEFF 		bl	vexBkupRegisterRead
 203              	.LVL19:
 204 0026 40F20001 		movw	r1, #:lower16:.LC2
 205 002a 0246     		mov	r2, r0
 206              		.loc 1 149 0 discriminator 2
 207 002c 0134     		adds	r4, r4, #1
 208              	.LVL20:
 209              		.loc 1 150 0 discriminator 2
 210 002e 2846     		mov	r0, r5
 211 0030 C0F20001 		movt	r1, #:upper16:.LC2
 212 0034 FFF7FEFF 		bl	vex_chprintf
 213              	.LVL21:
 214              		.loc 1 149 0 discriminator 2
 215 0038 102C     		cmp	r4, #16
 216 003a F1D1     		bne	.L14
 217              		.loc 1 151 0
 218 003c 40F20001 		movw	r1, #:lower16:.LC3
 219 0040 C0F20001 		movt	r1, #:upper16:.LC3
 220 0044 2846     		mov	r0, r5
 221 0046 FFF7FEFF 		bl	vex_chprintf
 222              	.LVL22:
 223              		.loc 1 152 0
ARM GAS  /tmp/ccGUuh4o.s 			page 5


 224 004a 40F20001 		movw	r1, #:lower16:.LC4
 225 004e 2846     		mov	r0, r5
 226 0050 C0F20001 		movt	r1, #:upper16:.LC4
 227 0054 FFF7FEFF 		bl	vex_chprintf
 228              	.LVL23:
 229              	.L16:
 230              		.loc 1 154 0 discriminator 2
 231 0058 20B2     		sxth	r0, r4
 232 005a FFF7FEFF 		bl	vexBkupRegisterRead
 233              	.LVL24:
 234 005e 40F20001 		movw	r1, #:lower16:.LC2
 235 0062 0246     		mov	r2, r0
 236              		.loc 1 153 0 discriminator 2
 237 0064 0134     		adds	r4, r4, #1
 238              	.LVL25:
 239              		.loc 1 154 0 discriminator 2
 240 0066 2846     		mov	r0, r5
 241 0068 C0F20001 		movt	r1, #:upper16:.LC2
 242 006c FFF7FEFF 		bl	vex_chprintf
 243              	.LVL26:
 244              		.loc 1 153 0 discriminator 2
 245 0070 202C     		cmp	r4, #32
 246 0072 F1D1     		bne	.L16
 247              		.loc 1 155 0
 248 0074 40F20001 		movw	r1, #:lower16:.LC3
 249 0078 C0F20001 		movt	r1, #:upper16:.LC3
 250 007c 2846     		mov	r0, r5
 251 007e FFF7FEFF 		bl	vex_chprintf
 252              	.LVL27:
 253              		.loc 1 156 0
 254 0082 40F20001 		movw	r1, #:lower16:.LC5
 255 0086 2846     		mov	r0, r5
 256 0088 C0F20001 		movt	r1, #:upper16:.LC5
 257 008c FFF7FEFF 		bl	vex_chprintf
 258              	.LVL28:
 259              	.L18:
 260              		.loc 1 158 0 discriminator 2
 261 0090 20B2     		sxth	r0, r4
 262 0092 FFF7FEFF 		bl	vexBkupRegisterRead
 263              	.LVL29:
 264 0096 40F20001 		movw	r1, #:lower16:.LC2
 265 009a 0246     		mov	r2, r0
 266              		.loc 1 157 0 discriminator 2
 267 009c 0134     		adds	r4, r4, #1
 268              	.LVL30:
 269              		.loc 1 158 0 discriminator 2
 270 009e 2846     		mov	r0, r5
 271 00a0 C0F20001 		movt	r1, #:upper16:.LC2
 272 00a4 FFF7FEFF 		bl	vex_chprintf
 273              	.LVL31:
 274              		.loc 1 157 0 discriminator 2
 275 00a8 2A2C     		cmp	r4, #42
 276 00aa F1D1     		bne	.L18
 277              		.loc 1 159 0
 278 00ac 40F20001 		movw	r1, #:lower16:.LC3
 279 00b0 2846     		mov	r0, r5
 280 00b2 C0F20001 		movt	r1, #:upper16:.LC3
ARM GAS  /tmp/ccGUuh4o.s 			page 6


 281              		.loc 1 160 0
 282 00b6 BDE83840 		pop	{r3, r4, r5, lr}
 283              	.LVL32:
 284              		.loc 1 159 0
 285 00ba FFF7FEBF 		b	vex_chprintf
 286              	.LVL33:
 287              		.cfi_endproc
 288              	.LFE66:
 289              		.size	vexBkupDebug, .-vexBkupDebug
 290 00be 00BF     		.section	.rodata.str1.4,"aMS",%progbits,1
 291              		.align	2
 292              	.LC0:
 293 0000 4261636B 		.ascii	"Backup Registers\015\012\000"
 293      75702052 
 293      65676973 
 293      74657273 
 293      0D0A00
 294 0013 00       		.space	1
 295              	.LC1:
 296 0014 30302D31 		.ascii	"00-15: \000"
 296      353A2000 
 297              	.LC2:
 298 001c 25303258 		.ascii	"%02X \000"
 298      2000
 299 0022 0000     		.space	2
 300              	.LC3:
 301 0024 0D0A00   		.ascii	"\015\012\000"
 302 0027 00       		.space	1
 303              	.LC4:
 304 0028 31362D33 		.ascii	"16-32: \000"
 304      323A2000 
 305              	.LC5:
 306 0030 33322D34 		.ascii	"32-41: \000"
 306      313A2000 
 307              		.text
 308              	.Letext0:
 309              		.file 2 "/usr/lib/gcc/arm-none-eabi/4.8.2/include/stddef.h"
 310              		.file 3 "/usr/include/newlib/machine/_default_types.h"
 311              		.file 4 "/usr/include/newlib/stdint.h"
 312              		.file 5 "../../../../ChibiOS_2.6.2/os/ports/GCC/ARMCMx/chtypes.h"
 313              		.file 6 "../../../../ChibiOS_2.6.2/os/kernel/include/chstreams.h"
 314              		.file 7 "../../../../ChibiOS_2.6.2/os/hal/platforms/STM32F1xx/stm32f10x.h"
 315              		.file 8 "../../fw/vexcompat.h"
 316              		.file 9 "../../../../ChibiOS_2.6.2/os/ports/common/ARMCMx/CMSIS/include/core_cm3.h"
 317              		.file 10 "../../fw/vexprintf.h"