ARM GAS  /tmp/ccGUuh4o.s 			page 1


   1              		.syntax unified
   2              		.cpu cortex-m3
   3              		.fpu softvfp
   4              		.eabi_attribute 20, 1
   5              		.eabi_attribute 21, 1
   6              		.eabi_attribute 23, 3
   7              		.eabi_attribute 24, 1
   8              		.eabi_attribute 25, 1
   9              		.eabi_attribute 26, 1
  10              		.eabi_attribute 30, 2
  11              		.eabi_attribute 34, 1
  12              		.eabi_attribute 18, 4
  13              		.thumb
  14              		.file	"vexbkup.c"
  15              		.text
  16              	.Ltext0:
  17              		.cfi_sections	.debug_frame
  18              		.section	.text.vexBkupInit,"ax",%progbits
  19              		.align	2
  20              		.p2align 4,,15
  21              		.global	vexBkupInit
  22              		.thumb
  23              		.thumb_func
  24              		.type	vexBkupInit, %function
  25              	vexBkupInit:
  26              	.LFB63:
  27              		.file 1 "../../fw/vexbkup.c"
  28              		.loc 1 62 0
  29              		.cfi_startproc
  30              		@ args = 0, pretend = 0, frame = 0
  31              		@ frame_needed = 0, uses_anonymous_args = 0
  32              		@ link register save eliminated.
  33              	.LVL0:
  34              		.loc 1 67 0
  35 0000 4FF48052 		mov	r2, #4096
  36 0004 C4F20202 		movt	r2, 16386
  37 0008 D169     		ldr	r1, [r2, #28]
  38              		.loc 1 69 0
  39 000a 4FF4E043 		mov	r3, #28672
  40              		.loc 1 67 0
  41 000e 41F0C051 		orr	r1, r1, #402653184
  42 0012 D161     		str	r1, [r2, #28]
  43              		.loc 1 69 0
  44 0014 C4F20003 		movt	r3, 16384
  45 0018 1A68     		ldr	r2, [r3]
  46 001a 42F48072 		orr	r2, r2, #256
  47 001e 1A60     		str	r2, [r3]
  48 0020 7047     		bx	lr
  49              		.cfi_endproc
  50              	.LFE63:
  51              		.size	vexBkupInit, .-vexBkupInit
  52 0022 00BFAFF3 		.section	.text.vexBkupRegisterWrite,"ax",%progbits
  52      0080AFF3 
  52      0080AFF3 
  52      0080
  53              		.align	2
  54              		.p2align 4,,15
ARM GAS  /tmp/ccGUuh4o.s 			page 2


  55              		.global	vexBkupRegisterWrite
  56              		.thumb
  57              		.thumb_func
  58              		.type	vexBkupRegisterWrite, %function
  59              	vexBkupRegisterWrite:
  60              	.LFB64:
  61              		.loc 1 80 0
  62              		.cfi_startproc
  63              		@ args = 0, pretend = 0, frame = 0
  64              		@ frame_needed = 0, uses_anonymous_args = 0
  65              		@ link register save eliminated.
  66              	.LVL1:
  67              		.loc 1 85 0
  68 0000 83B2     		uxth	r3, r0
  69 0002 092B     		cmp	r3, #9
  70 0004 0BD9     		bls	.L6
  71              		.loc 1 93 0
  72 0006 0A3B     		subs	r3, r3, #10
  73 0008 9BB2     		uxth	r3, r3
  74 000a 1F2B     		cmp	r3, #31
  75              		.loc 1 95 0
  76 000c 9FBF     		itttt	ls
  77 000e 46F64043 		movwls	r3, #27712
  78              		.loc 1 96 0
  79 0012 0A38     		subls	r0, r0, #10
  80              	.LVL2:
  81              		.loc 1 95 0
  82 0014 C4F20003 		movtls	r3, 16384
  83              	.LVL3:
  84              		.loc 1 98 0
  85 0018 23F82010 		strhls	r1, [r3, r0, lsl #2]	@ movhi
  86 001c 7047     		bx	lr
  87              	.LVL4:
  88              	.L6:
  89              		.loc 1 87 0
  90 001e 46F60443 		movw	r3, #27652
  91 0022 C4F20003 		movt	r3, 16384
  92              	.LVL5:
  93              		.loc 1 90 0
  94 0026 23F82010 		strh	r1, [r3, r0, lsl #2]	@ movhi
  95 002a 7047     		bx	lr
  96              		.cfi_endproc
  97              	.LFE64:
  98              		.size	vexBkupRegisterWrite, .-vexBkupRegisterWrite
  99 002c AFF30080 		.section	.text.vexBkupRegisterRead,"ax",%progbits
 100              		.align	2
 101              		.p2align 4,,15
 102              		.global	vexBkupRegisterRead
 103              		.thumb
 104              		.thumb_func
 105              		.type	vexBkupRegisterRead, %function
 106              	vexBkupRegisterRead:
 107              	.LFB65:
 108              		.loc 1 110 0
 109              		.cfi_startproc
 110              		@ args = 0, pretend = 0, frame = 0
 111              		@ frame_needed = 0, uses_anonymous_args = 0
ARM GAS  /tmp/ccGUuh4o.s 			page 3


 112              		@ link register save eliminated.
 113              	.LVL6:
 114              		.loc 1 115 0
 115 0000 83B2     		uxth	r3, r0
 116 0002 092B     		cmp	r3, #9
 117 0004 0ED9     		bls	.L11
 118              		.loc 1 122 0
 119 0006 0A3B     		subs	r3, r3, #10
 120 0008 9BB2     		uxth	r3, r3
 121 000a 1F2B     		cmp	r3, #31
 122              	.LVL7:
 123              	.LBB4:
 124              	.LBB5:
 125              		.loc 1 124 0
 126 000c 9FBF     		itttt	ls
 127 000e 46F64043 		movwls	r3, #27712
 128              		.loc 1 125 0
 129 0012 0A38     		subls	r0, r0, #10
 130              	.LVL8:
 131              		.loc 1 124 0
 132 0014 C4F20003 		movtls	r3, 16384
 133              	.LVL9:
 134              		.loc 1 126 0
 135 0018 33F82000 		ldrhls	r0, [r3, r0, lsl #2]
 136              	.LVL10:
 137 001c 94BF     		ite	ls
 138 001e 80B2     		uxthls	r0, r0
 139              	.LBE5:
 140              	.LBE4:
 141              		.loc 1 129 0
 142 0020 0020     		movhi	r0, #0
 143              		.loc 1 130 0
 144 0022 7047     		bx	lr
 145              	.LVL11:
 146              	.L11:
 147              		.loc 1 117 0
 148 0024 46F60443 		movw	r3, #27652
 149 0028 C4F20003 		movt	r3, 16384
 150              	.LVL12:
 151              		.loc 1 119 0
 152 002c 33F82000 		ldrh	r0, [r3, r0, lsl #2]
 153              	.LVL13:
 154 0030 80B2     		uxth	r0, r0
 155 0032 7047     		bx	lr
 156              		.cfi_endproc
 157              	.LFE65:
 158              		.size	vexBkupRegisterRead, .-vexBkupRegisterRead
 159 0034 AFF30080 		.section	.text.vexBkupDebug,"ax",%progbits
 159      AFF30080 
 159      AFF30080 
 160              		.align	2
 161              		.p2align 4,,15
 162              		.global	vexBkupDebug
 163              		.thumb
 164              		.thumb_func
 165              		.type	vexBkupDebug, %function
 166              	vexBkupDebug:
ARM GAS  /tmp/ccGUuh4o.s 			page 4


 167              	.LFB66:
 168              		.loc 1 141 0
 169              		.cfi_startproc
 170              		@ args = 0, pretend = 0, frame = 0
 171              		@ frame_needed = 0, uses_anonymous_args = 0
 172              	.LVL14:
 173              		.loc 1 147 0
 174 0000 40F20001 		movw	r1, #:lower16:.LC0
 175              	.LVL15:
 176              		.loc 1 141 0
 177 0004 38B5     		push	{r3, r4, r5, lr}
 178              		.cfi_def_cfa_offset 16
 179              		.cfi_offset 3, -16
 180              		.cfi_offset 4, -12
 181              		.cfi_offset 5, -8
 182              		.cfi_offset 14, -4
 183              		.loc 1 147 0
 184 0006 C0F20001 		movt	r1, #:upper16:.LC0
 185              		.loc 1 141 0
 186 000a 0546     		mov	r5, r0
 187              		.loc 1 147 0
 188 000c FFF7FEFF 		bl	vex_chprintf
 189              	.LVL16:
 190              		.loc 1 148 0
 191 0010 40F20001 		movw	r1, #:lower16:.LC1
 192 0014 2846     		mov	r0, r5
 193 0016 C0F20001 		movt	r1, #:upper16:.LC1
 194 001a FFF7FEFF 		bl	vex_chprintf
 195              	.LVL17:
 196              		.loc 1 149 0
 197 001e 0024     		movs	r4, #0
 198              	.LVL18:
 199              	.L14:
 200              		.loc 1 150 0 discriminator 2
 201 0020 20B2     		sxth	r0, r4
 202 0022 FFF7FEFF 		bl	vexBkupRegisterRead
 203              	.LVL19:
 204 0026 40F20001 		movw	r1, #:lower16:.LC2
 205 002a 0246     		mov	r2, r0
 206              		.loc 1 149 0 discriminator 2
 207 002c 0134     		adds	r4, r4, #1
 208              	.LVL20:
 209              		.loc 1 150 0 discriminator 2
 210 002e 2846     		mov	r0, r5
 211 0030 C0F20001 		movt	r1, #:upper16:.LC2
 212 0034 FFF7FEFF 		bl	vex_chprintf
 213              	.LVL21:
 214              		.loc 1 149 0 discriminator 2
 215 0038 102C     		cmp	r4, #16
 216 003a F1D1     		bne	.L14
 217              		.loc 1 151 0
 218 003c 40F20001 		movw	r1, #:lower16:.LC3
 219 0040 C0F20001 		movt	r1, #:upper16:.LC3
 220 0044 2846     		mov	r0, r5
 221 0046 FFF7FEFF 		bl	vex_chprintf
 222              	.LVL22:
 223              		.loc 1 152 0
ARM GAS  /tmp/ccGUuh4o.s 			page 5


 224 004a 40F20001 		movw	r1, #:lower16:.LC4
 225 004e 2846     		mov	r0, r5
 226 0050 C0F20001 		movt	r1, #:upper16:.LC4
 227 0054 FFF7FEFF 		bl	vex_chprintf
 228              	.LVL23:
 229              	.L16:
 230              		.loc 1 154 0 discriminator 2
 231 0058 20B2     		sxth	r0, r4
 232 005a FFF7FEFF 		bl	vexBkupRegisterRead
 233              	.LVL24:
 234 005e 40F20001 		movw	r1, #:lower16:.LC2
 235 0062 0246     		mov	r2, r0
 236              		.loc 1 153 0 discriminator 2
 237 0064 0134     		adds	r4, r4, #1
 238              	.LVL25:
 239              		.loc 1 154 0 discriminator 2
 240 0066 2846     		mov	r0, r5
 241 0068 C0F20001 		movt	r1, #:upper16:.LC2
 242 006c FFF7FEFF 		bl	vex_chprintf
 243              	.LVL26:
 244              		.loc 1 153 0 discriminator 2
 245 0070 202C     		cmp	r4, #32
 246 0072 F1D1     		bne	.L16
 247              		.loc 1 155 0
 248 0074 40F20001 		movw	r1, #:lower16:.LC3
 249 0078 C0F20001 		movt	r1, #:upper16:.LC3
 250 007c 2846     		mov	r0, r5
 251 007e FFF7FEFF 		bl	vex_chprintf
 252              	.LVL27:
 253              		.loc 1 156 0
 254 0082 40F20001 		movw	r1, #:lower16:.LC5
 255 0086 2846     		mov	r0, r5
 256 0088 C0F20001 		movt	r1, #:upper16:.LC5
 257 008c FFF7FEFF 		bl	vex_chprintf
 258              	.LVL28:
 259              	.L18:
 260              		.loc 1 158 0 discriminator 2
 261 0090 20B2     		sxth	r0, r4
 262 0092 FFF7FEFF 		bl	vexBkupRegisterRead
 263              	.LVL29:
 264 0096 40F20001 		movw	r1, #:lower16:.LC2
 265 009a 0246     		mov	r2, r0
 266              		.loc 1 157 0 discriminator 2
 267 009c 0134     		adds	r4, r4, #1
 268              	.LVL30:
 269              		.loc 1 158 0 discriminator 2
 270 009e 2846     		mov	r0, r5
 271 00a0 C0F20001 		movt	r1, #:upper16:.LC2
 272 00a4 FFF7FEFF 		bl	vex_chprintf
 273              	.LVL31:
 274              		.loc 1 157 0 discriminator 2
 275 00a8 2A2C     		cmp	r4, #42
 276 00aa F1D1     		bne	.L18
 277              		.loc 1 159 0
 278 00ac 40F20001 		movw	r1, #:lower16:.LC3
 279 00b0 2846     		mov	r0, r5
 280 00b2 C0F20001 		movt	r1, #:upper16:.LC3
ARM GAS  /tmp/ccGUuh4o.s 			page 6


 281              		.loc 1 160 0
 282 00b6 BDE83840 		pop	{r3, r4, r5, lr}
 283              	.LVL32:
 284              		.loc 1 159 0
 285 00ba FFF7FEBF 		b	vex_chprintf
 286              	.LVL33:
 287              		.cfi_endproc
 288              	.LFE66:
 289              		.size	vexBkupDebug, .-vexBkupDebug
 290 00be 00BF     		.section	.rodata.str1.4,"aMS",%progbits,1
 291              		.align	2
 292              	.LC0:
 293 0000 4261636B 		.ascii	"Backup Registers\015\012\000"
 293      75702052 
 293      65676973 
 293      74657273 
 293      0D0A00
 294 0013 00       		.space	1
 295              	.LC1:
 296 0014 30302D31 		.ascii	"00-15: \000"
 296      353A2000 
 297              	.LC2:
 298 001c 25303258 		.ascii	"%02X \000"
 298      2000
 299 0022 0000     		.space	2
 300              	.LC3:
 301 0024 0D0A00   		.ascii	"\015\012\000"
 302 0027 00       		.space	1
 303              	.LC4:
 304 0028 31362D33 		.ascii	"16-32: \000"
 304      323A2000 
 305              	.LC5:
 306 0030 33322D34 		.ascii	"32-41: \000"
 306      313A2000 
 307              		.text
 308              	.Letext0:
 309              		.file 2 "/usr/lib/gcc/arm-none-eabi/4.8.2/include/stddef.h"
 310              		.file 3 "/usr/include/newlib/machine/_default_types.h"
 311              		.file 4 "/usr/include/newlib/stdint.h"
 312              		.file 5 "../../../../ChibiOS_2.6.2/os/ports/GCC/ARMCMx/chtypes.h"
 313              		.file 6 "../../../../ChibiOS_2.6.2/os/kernel/include/chstreams.h"
 314              		.file 7 "../../../../ChibiOS_2.6.2/os/hal/platforms/STM32F1xx/stm32f10x.h"
 315              		.file 8 "../../fw/vexcompat.h"
 316              		.file 9 "../../../../ChibiOS_2.6.2/os/ports/common/ARMCMx/CMSIS/include/core_cm3.h"
 317              		.file 10 "../../fw/vexprintf.h"
 318              		.section	.debug_info,"",%progbits
 319              	.Ldebug_info0:
 320 0000 940A0000 		.4byte	0xa94
 321 0004 0400     		.2byte	0x4
 322 0006 00000000 		.4byte	.Ldebug_abbrev0
 323 000a 04       		.byte	0x4
 324 000b 01       		.uleb128 0x1
 325 000c 47020000 		.4byte	.LASF125
 326 0010 01       		.byte	0x1
 327 0011 02030000 		.4byte	.LASF126
 328 0015 F2010000 		.4byte	.LASF127
 329 0019 00000000 		.4byte	.Ldebug_ranges0+0
ARM GAS  /tmp/ccGUuh4o.s 			page 7


 330 001d 00000000 		.4byte	0
 331 0021 00000000 		.4byte	.Ldebug_line0
 332 0025 02       		.uleb128 0x2
 333 0026 04       		.byte	0x4
 334 0027 05       		.byte	0x5
 335 0028 696E7400 		.ascii	"int\000"
 336 002c 03       		.uleb128 0x3
 337 002d 00000000 		.4byte	.LASF2
 338 0031 02       		.byte	0x2
 339 0032 D4       		.byte	0xd4
 340 0033 37000000 		.4byte	0x37
 341 0037 04       		.uleb128 0x4
 342 0038 04       		.byte	0x4
 343 0039 07       		.byte	0x7
 344 003a BA010000 		.4byte	.LASF0
 345 003e 04       		.uleb128 0x4
 346 003f 01       		.byte	0x1
 347 0040 06       		.byte	0x6
 348 0041 5F000000 		.4byte	.LASF1
 349 0045 03       		.uleb128 0x3
 350 0046 07000000 		.4byte	.LASF3
 351 004a 03       		.byte	0x3
 352 004b 1C       		.byte	0x1c
 353 004c 50000000 		.4byte	0x50
 354 0050 04       		.uleb128 0x4
 355 0051 01       		.byte	0x1
 356 0052 08       		.byte	0x8
 357 0053 5A040000 		.4byte	.LASF4
 358 0057 03       		.uleb128 0x3
 359 0058 38010000 		.4byte	.LASF5
 360 005c 03       		.byte	0x3
 361 005d 25       		.byte	0x25
 362 005e 62000000 		.4byte	0x62
 363 0062 04       		.uleb128 0x4
 364 0063 02       		.byte	0x2
 365 0064 05       		.byte	0x5
 366 0065 73040000 		.4byte	.LASF6
 367 0069 03       		.uleb128 0x3
 368 006a E2040000 		.4byte	.LASF7
 369 006e 03       		.byte	0x3
 370 006f 26       		.byte	0x26
 371 0070 74000000 		.4byte	0x74
 372 0074 04       		.uleb128 0x4
 373 0075 02       		.byte	0x2
 374 0076 07       		.byte	0x7
 375 0077 E9020000 		.4byte	.LASF8
 376 007b 03       		.uleb128 0x3
 377 007c F3040000 		.4byte	.LASF9
 378 0080 03       		.byte	0x3
 379 0081 37       		.byte	0x37
 380 0082 86000000 		.4byte	0x86
 381 0086 04       		.uleb128 0x4
 382 0087 04       		.byte	0x4
 383 0088 05       		.byte	0x5
 384 0089 F9000000 		.4byte	.LASF10
 385 008d 03       		.uleb128 0x3
 386 008e 2D010000 		.4byte	.LASF11
ARM GAS  /tmp/ccGUuh4o.s 			page 8


 387 0092 03       		.byte	0x3
 388 0093 38       		.byte	0x38
 389 0094 98000000 		.4byte	0x98
 390 0098 04       		.uleb128 0x4
 391 0099 04       		.byte	0x4
 392 009a 07       		.byte	0x7
 393 009b D4010000 		.4byte	.LASF12
 394 009f 04       		.uleb128 0x4
 395 00a0 08       		.byte	0x8
 396 00a1 05       		.byte	0x5
 397 00a2 51000000 		.4byte	.LASF13
 398 00a6 04       		.uleb128 0x4
 399 00a7 08       		.byte	0x8
 400 00a8 07       		.byte	0x7
 401 00a9 11000000 		.4byte	.LASF14
 402 00ad 03       		.uleb128 0x3
 403 00ae 52050000 		.4byte	.LASF15
 404 00b2 04       		.byte	0x4
 405 00b3 2A       		.byte	0x2a
 406 00b4 45000000 		.4byte	0x45
 407 00b8 03       		.uleb128 0x3
 408 00b9 49000000 		.4byte	.LASF16
 409 00bd 04       		.byte	0x4
 410 00be 35       		.byte	0x35
 411 00bf 57000000 		.4byte	0x57
 412 00c3 03       		.uleb128 0x3
 413 00c4 17010000 		.4byte	.LASF17
 414 00c8 04       		.byte	0x4
 415 00c9 36       		.byte	0x36
 416 00ca 69000000 		.4byte	0x69
 417 00ce 03       		.uleb128 0x3
 418 00cf 52040000 		.4byte	.LASF18
 419 00d3 04       		.byte	0x4
 420 00d4 41       		.byte	0x41
 421 00d5 7B000000 		.4byte	0x7b
 422 00d9 03       		.uleb128 0x3
 423 00da CA040000 		.4byte	.LASF19
 424 00de 04       		.byte	0x4
 425 00df 42       		.byte	0x42
 426 00e0 8D000000 		.4byte	0x8d
 427 00e4 04       		.uleb128 0x4
 428 00e5 01       		.byte	0x1
 429 00e6 02       		.byte	0x2
 430 00e7 4C040000 		.4byte	.LASF20
 431 00eb 03       		.uleb128 0x3
 432 00ec FC020000 		.4byte	.LASF21
 433 00f0 05       		.byte	0x5
 434 00f1 31       		.byte	0x31
 435 00f2 CE000000 		.4byte	0xce
 436 00f6 05       		.uleb128 0x5
 437 00f7 04       		.byte	0x4
 438 00f8 06       		.uleb128 0x6
 439 00f9 D9000000 		.4byte	0xd9
 440 00fd 04       		.uleb128 0x4
 441 00fe 04       		.byte	0x4
 442 00ff 07       		.byte	0x7
 443 0100 8E030000 		.4byte	.LASF22
ARM GAS  /tmp/ccGUuh4o.s 			page 9


 444 0104 07       		.uleb128 0x7
 445 0105 04       		.byte	0x4
 446 0106 0A010000 		.4byte	0x10a
 447 010a 08       		.uleb128 0x8
 448 010b 0F010000 		.4byte	0x10f
 449 010f 04       		.uleb128 0x4
 450 0110 01       		.byte	0x1
 451 0111 08       		.byte	0x8
 452 0112 DD040000 		.4byte	.LASF23
 453 0116 07       		.uleb128 0x7
 454 0117 04       		.byte	0x4
 455 0118 1C010000 		.4byte	0x11c
 456 011c 09       		.uleb128 0x9
 457 011d EB000000 		.4byte	0xeb
 458 0121 2B010000 		.4byte	0x12b
 459 0125 0A       		.uleb128 0xa
 460 0126 F6000000 		.4byte	0xf6
 461 012a 00       		.byte	0
 462 012b 07       		.uleb128 0x7
 463 012c 04       		.byte	0x4
 464 012d AD000000 		.4byte	0xad
 465 0131 0B       		.uleb128 0xb
 466 0132 7D040000 		.4byte	.LASF128
 467 0136 10       		.byte	0x10
 468 0137 06       		.byte	0x6
 469 0138 48       		.byte	0x48
 470 0139 6E010000 		.4byte	0x16e
 471 013d 0C       		.uleb128 0xc
 472 013e 83030000 		.4byte	.LASF24
 473 0142 06       		.byte	0x6
 474 0143 49       		.byte	0x49
 475 0144 92010000 		.4byte	0x192
 476 0148 00       		.byte	0
 477 0149 0C       		.uleb128 0xc
 478 014a 5A050000 		.4byte	.LASF25
 479 014e 06       		.byte	0x6
 480 014f 49       		.byte	0x49
 481 0150 B1010000 		.4byte	0x1b1
 482 0154 04       		.byte	0x4
 483 0155 0D       		.uleb128 0xd
 484 0156 70757400 		.ascii	"put\000"
 485 015a 06       		.byte	0x6
 486 015b 49       		.byte	0x49
 487 015c CB010000 		.4byte	0x1cb
 488 0160 08       		.byte	0x8
 489 0161 0D       		.uleb128 0xd
 490 0162 67657400 		.ascii	"get\000"
 491 0166 06       		.byte	0x6
 492 0167 49       		.byte	0x49
 493 0168 16010000 		.4byte	0x116
 494 016c 0C       		.byte	0xc
 495 016d 00       		.byte	0
 496 016e 09       		.uleb128 0x9
 497 016f 2C000000 		.4byte	0x2c
 498 0173 87010000 		.4byte	0x187
 499 0177 0A       		.uleb128 0xa
 500 0178 F6000000 		.4byte	0xf6
ARM GAS  /tmp/ccGUuh4o.s 			page 10


 501 017c 0A       		.uleb128 0xa
 502 017d 87010000 		.4byte	0x187
 503 0181 0A       		.uleb128 0xa
 504 0182 2C000000 		.4byte	0x2c
 505 0186 00       		.byte	0
 506 0187 07       		.uleb128 0x7
 507 0188 04       		.byte	0x4
 508 0189 8D010000 		.4byte	0x18d
 509 018d 08       		.uleb128 0x8
 510 018e AD000000 		.4byte	0xad
 511 0192 07       		.uleb128 0x7
 512 0193 04       		.byte	0x4
 513 0194 6E010000 		.4byte	0x16e
 514 0198 09       		.uleb128 0x9
 515 0199 2C000000 		.4byte	0x2c
 516 019d B1010000 		.4byte	0x1b1
 517 01a1 0A       		.uleb128 0xa
 518 01a2 F6000000 		.4byte	0xf6
 519 01a6 0A       		.uleb128 0xa
 520 01a7 2B010000 		.4byte	0x12b
 521 01ab 0A       		.uleb128 0xa
 522 01ac 2C000000 		.4byte	0x2c
 523 01b0 00       		.byte	0
 524 01b1 07       		.uleb128 0x7
 525 01b2 04       		.byte	0x4
 526 01b3 98010000 		.4byte	0x198
 527 01b7 09       		.uleb128 0x9
 528 01b8 EB000000 		.4byte	0xeb
 529 01bc CB010000 		.4byte	0x1cb
 530 01c0 0A       		.uleb128 0xa
 531 01c1 F6000000 		.4byte	0xf6
 532 01c5 0A       		.uleb128 0xa
 533 01c6 AD000000 		.4byte	0xad
 534 01ca 00       		.byte	0
 535 01cb 07       		.uleb128 0x7
 536 01cc 04       		.byte	0x4
 537 01cd B7010000 		.4byte	0x1b7
 538 01d1 0E       		.uleb128 0xe
 539 01d2 04       		.byte	0x4
 540 01d3 06       		.byte	0x6
 541 01d4 51       		.byte	0x51
 542 01d5 E6010000 		.4byte	0x1e6
 543 01d9 0D       		.uleb128 0xd
 544 01da 766D7400 		.ascii	"vmt\000"
 545 01de 06       		.byte	0x6
 546 01df 53       		.byte	0x53
 547 01e0 E6010000 		.4byte	0x1e6
 548 01e4 00       		.byte	0
 549 01e5 00       		.byte	0
 550 01e6 07       		.uleb128 0x7
 551 01e7 04       		.byte	0x4
 552 01e8 EC010000 		.4byte	0x1ec
 553 01ec 08       		.uleb128 0x8
 554 01ed 31010000 		.4byte	0x131
 555 01f1 03       		.uleb128 0x3
 556 01f2 6E010000 		.4byte	.LASF26
 557 01f6 06       		.byte	0x6
ARM GAS  /tmp/ccGUuh4o.s 			page 11


 558 01f7 55       		.byte	0x55
 559 01f8 D1010000 		.4byte	0x1d1
 560 01fc 06       		.uleb128 0x6
 561 01fd C3000000 		.4byte	0xc3
 562 0201 06       		.uleb128 0x6
 563 0202 CE000000 		.4byte	0xce
 564 0206 0F       		.uleb128 0xf
 565 0207 C0       		.byte	0xc0
 566 0208 07       		.byte	0x7
 567 0209 4902     		.2byte	0x249
 568 020b AE060000 		.4byte	0x6ae
 569 020f 10       		.uleb128 0x10
 570 0210 DD030000 		.4byte	.LASF27
 571 0214 07       		.byte	0x7
 572 0215 4B02     		.2byte	0x24b
 573 0217 D9000000 		.4byte	0xd9
 574 021b 00       		.byte	0
 575 021c 11       		.uleb128 0x11
 576 021d 44523100 		.ascii	"DR1\000"
 577 0221 07       		.byte	0x7
 578 0222 4C02     		.2byte	0x24c
 579 0224 FC010000 		.4byte	0x1fc
 580 0228 04       		.byte	0x4
 581 0229 10       		.uleb128 0x10
 582 022a E7030000 		.4byte	.LASF28
 583 022e 07       		.byte	0x7
 584 022f 4D02     		.2byte	0x24d
 585 0231 C3000000 		.4byte	0xc3
 586 0235 06       		.byte	0x6
 587 0236 11       		.uleb128 0x11
 588 0237 44523200 		.ascii	"DR2\000"
 589 023b 07       		.byte	0x7
 590 023c 4E02     		.2byte	0x24e
 591 023e FC010000 		.4byte	0x1fc
 592 0242 08       		.byte	0x8
 593 0243 10       		.uleb128 0x10
 594 0244 F1030000 		.4byte	.LASF29
 595 0248 07       		.byte	0x7
 596 0249 4F02     		.2byte	0x24f
 597 024b C3000000 		.4byte	0xc3
 598 024f 0A       		.byte	0xa
 599 0250 11       		.uleb128 0x11
 600 0251 44523300 		.ascii	"DR3\000"
 601 0255 07       		.byte	0x7
 602 0256 5002     		.2byte	0x250
 603 0258 FC010000 		.4byte	0x1fc
 604 025c 0C       		.byte	0xc
 605 025d 10       		.uleb128 0x10
 606 025e FB030000 		.4byte	.LASF30
 607 0262 07       		.byte	0x7
 608 0263 5102     		.2byte	0x251
 609 0265 C3000000 		.4byte	0xc3
 610 0269 0E       		.byte	0xe
 611 026a 11       		.uleb128 0x11
 612 026b 44523400 		.ascii	"DR4\000"
 613 026f 07       		.byte	0x7
 614 0270 5202     		.2byte	0x252
ARM GAS  /tmp/ccGUuh4o.s 			page 12


 615 0272 FC010000 		.4byte	0x1fc
 616 0276 10       		.byte	0x10
 617 0277 10       		.uleb128 0x10
 618 0278 05040000 		.4byte	.LASF31
 619 027c 07       		.byte	0x7
 620 027d 5302     		.2byte	0x253
 621 027f C3000000 		.4byte	0xc3
 622 0283 12       		.byte	0x12
 623 0284 11       		.uleb128 0x11
 624 0285 44523500 		.ascii	"DR5\000"
 625 0289 07       		.byte	0x7
 626 028a 5402     		.2byte	0x254
 627 028c FC010000 		.4byte	0x1fc
 628 0290 14       		.byte	0x14
 629 0291 10       		.uleb128 0x10
 630 0292 0F040000 		.4byte	.LASF32
 631 0296 07       		.byte	0x7
 632 0297 5502     		.2byte	0x255
 633 0299 C3000000 		.4byte	0xc3
 634 029d 16       		.byte	0x16
 635 029e 11       		.uleb128 0x11
 636 029f 44523600 		.ascii	"DR6\000"
 637 02a3 07       		.byte	0x7
 638 02a4 5602     		.2byte	0x256
 639 02a6 FC010000 		.4byte	0x1fc
 640 02aa 18       		.byte	0x18
 641 02ab 10       		.uleb128 0x10
 642 02ac 19040000 		.4byte	.LASF33
 643 02b0 07       		.byte	0x7
 644 02b1 5702     		.2byte	0x257
 645 02b3 C3000000 		.4byte	0xc3
 646 02b7 1A       		.byte	0x1a
 647 02b8 11       		.uleb128 0x11
 648 02b9 44523700 		.ascii	"DR7\000"
 649 02bd 07       		.byte	0x7
 650 02be 5802     		.2byte	0x258
 651 02c0 FC010000 		.4byte	0x1fc
 652 02c4 1C       		.byte	0x1c
 653 02c5 10       		.uleb128 0x10
 654 02c6 23040000 		.4byte	.LASF34
 655 02ca 07       		.byte	0x7
 656 02cb 5902     		.2byte	0x259
 657 02cd C3000000 		.4byte	0xc3
 658 02d1 1E       		.byte	0x1e
 659 02d2 11       		.uleb128 0x11
 660 02d3 44523800 		.ascii	"DR8\000"
 661 02d7 07       		.byte	0x7
 662 02d8 5A02     		.2byte	0x25a
 663 02da FC010000 		.4byte	0x1fc
 664 02de 20       		.byte	0x20
 665 02df 10       		.uleb128 0x10
 666 02e0 2D040000 		.4byte	.LASF35
 667 02e4 07       		.byte	0x7
 668 02e5 5B02     		.2byte	0x25b
 669 02e7 C3000000 		.4byte	0xc3
 670 02eb 22       		.byte	0x22
 671 02ec 11       		.uleb128 0x11
ARM GAS  /tmp/ccGUuh4o.s 			page 13


 672 02ed 44523900 		.ascii	"DR9\000"
 673 02f1 07       		.byte	0x7
 674 02f2 5C02     		.2byte	0x25c
 675 02f4 FC010000 		.4byte	0x1fc
 676 02f8 24       		.byte	0x24
 677 02f9 10       		.uleb128 0x10
 678 02fa D3040000 		.4byte	.LASF36
 679 02fe 07       		.byte	0x7
 680 02ff 5D02     		.2byte	0x25d
 681 0301 C3000000 		.4byte	0xc3
 682 0305 26       		.byte	0x26
 683 0306 10       		.uleb128 0x10
 684 0307 95040000 		.4byte	.LASF37
 685 030b 07       		.byte	0x7
 686 030c 5E02     		.2byte	0x25e
 687 030e FC010000 		.4byte	0x1fc
 688 0312 28       		.byte	0x28
 689 0313 10       		.uleb128 0x10
 690 0314 8B000000 		.4byte	.LASF38
 691 0318 07       		.byte	0x7
 692 0319 5F02     		.2byte	0x25f
 693 031b C3000000 		.4byte	0xc3
 694 031f 2A       		.byte	0x2a
 695 0320 10       		.uleb128 0x10
 696 0321 D7030000 		.4byte	.LASF39
 697 0325 07       		.byte	0x7
 698 0326 6002     		.2byte	0x260
 699 0328 FC010000 		.4byte	0x1fc
 700 032c 2C       		.byte	0x2c
 701 032d 10       		.uleb128 0x10
 702 032e 96000000 		.4byte	.LASF40
 703 0332 07       		.byte	0x7
 704 0333 6102     		.2byte	0x261
 705 0335 C3000000 		.4byte	0xc3
 706 0339 2E       		.byte	0x2e
 707 033a 11       		.uleb128 0x11
 708 033b 435200   		.ascii	"CR\000"
 709 033e 07       		.byte	0x7
 710 033f 6202     		.2byte	0x262
 711 0341 FC010000 		.4byte	0x1fc
 712 0345 30       		.byte	0x30
 713 0346 10       		.uleb128 0x10
 714 0347 A1000000 		.4byte	.LASF41
 715 034b 07       		.byte	0x7
 716 034c 6302     		.2byte	0x263
 717 034e C3000000 		.4byte	0xc3
 718 0352 32       		.byte	0x32
 719 0353 11       		.uleb128 0x11
 720 0354 43535200 		.ascii	"CSR\000"
 721 0358 07       		.byte	0x7
 722 0359 6402     		.2byte	0x264
 723 035b FC010000 		.4byte	0x1fc
 724 035f 34       		.byte	0x34
 725 0360 10       		.uleb128 0x10
 726 0361 AC000000 		.4byte	.LASF42
 727 0365 07       		.byte	0x7
 728 0366 6502     		.2byte	0x265
ARM GAS  /tmp/ccGUuh4o.s 			page 14


 729 0368 AE060000 		.4byte	0x6ae
 730 036c 36       		.byte	0x36
 731 036d 10       		.uleb128 0x10
 732 036e 9A040000 		.4byte	.LASF43
 733 0372 07       		.byte	0x7
 734 0373 6602     		.2byte	0x266
 735 0375 FC010000 		.4byte	0x1fc
 736 0379 40       		.byte	0x40
 737 037a 10       		.uleb128 0x10
 738 037b B7000000 		.4byte	.LASF44
 739 037f 07       		.byte	0x7
 740 0380 6702     		.2byte	0x267
 741 0382 C3000000 		.4byte	0xc3
 742 0386 42       		.byte	0x42
 743 0387 10       		.uleb128 0x10
 744 0388 9F040000 		.4byte	.LASF45
 745 038c 07       		.byte	0x7
 746 038d 6802     		.2byte	0x268
 747 038f FC010000 		.4byte	0x1fc
 748 0393 44       		.byte	0x44
 749 0394 10       		.uleb128 0x10
 750 0395 C2000000 		.4byte	.LASF46
 751 0399 07       		.byte	0x7
 752 039a 6902     		.2byte	0x269
 753 039c C3000000 		.4byte	0xc3
 754 03a0 46       		.byte	0x46
 755 03a1 10       		.uleb128 0x10
 756 03a2 89030000 		.4byte	.LASF47
 757 03a6 07       		.byte	0x7
 758 03a7 6A02     		.2byte	0x26a
 759 03a9 FC010000 		.4byte	0x1fc
 760 03ad 48       		.byte	0x48
 761 03ae 10       		.uleb128 0x10
 762 03af CD000000 		.4byte	.LASF48
 763 03b3 07       		.byte	0x7
 764 03b4 6B02     		.2byte	0x26b
 765 03b6 C3000000 		.4byte	0xc3
 766 03ba 4A       		.byte	0x4a
 767 03bb 10       		.uleb128 0x10
 768 03bc AC040000 		.4byte	.LASF49
 769 03c0 07       		.byte	0x7
 770 03c1 6C02     		.2byte	0x26c
 771 03c3 FC010000 		.4byte	0x1fc
 772 03c7 4C       		.byte	0x4c
 773 03c8 10       		.uleb128 0x10
 774 03c9 D8000000 		.4byte	.LASF50
 775 03cd 07       		.byte	0x7
 776 03ce 6D02     		.2byte	0x26d
 777 03d0 C3000000 		.4byte	0xc3
 778 03d4 4E       		.byte	0x4e
 779 03d5 10       		.uleb128 0x10
 780 03d6 B1040000 		.4byte	.LASF51
 781 03da 07       		.byte	0x7
 782 03db 6E02     		.2byte	0x26e
 783 03dd FC010000 		.4byte	0x1fc
 784 03e1 50       		.byte	0x50
 785 03e2 10       		.uleb128 0x10
ARM GAS  /tmp/ccGUuh4o.s 			page 15


 786 03e3 E3000000 		.4byte	.LASF52
 787 03e7 07       		.byte	0x7
 788 03e8 6F02     		.2byte	0x26f
 789 03ea C3000000 		.4byte	0xc3
 790 03ee 52       		.byte	0x52
 791 03ef 10       		.uleb128 0x10
 792 03f0 B6040000 		.4byte	.LASF53
 793 03f4 07       		.byte	0x7
 794 03f5 7002     		.2byte	0x270
 795 03f7 FC010000 		.4byte	0x1fc
 796 03fb 54       		.byte	0x54
 797 03fc 10       		.uleb128 0x10
 798 03fd EE000000 		.4byte	.LASF54
 799 0401 07       		.byte	0x7
 800 0402 7102     		.2byte	0x271
 801 0404 C3000000 		.4byte	0xc3
 802 0408 56       		.byte	0x56
 803 0409 10       		.uleb128 0x10
 804 040a BB040000 		.4byte	.LASF55
 805 040e 07       		.byte	0x7
 806 040f 7202     		.2byte	0x272
 807 0411 FC010000 		.4byte	0x1fc
 808 0415 58       		.byte	0x58
 809 0416 10       		.uleb128 0x10
 810 0417 42010000 		.4byte	.LASF56
 811 041b 07       		.byte	0x7
 812 041c 7302     		.2byte	0x273
 813 041e C3000000 		.4byte	0xc3
 814 0422 5A       		.byte	0x5a
 815 0423 10       		.uleb128 0x10
 816 0424 C0040000 		.4byte	.LASF57
 817 0428 07       		.byte	0x7
 818 0429 7402     		.2byte	0x274
 819 042b FC010000 		.4byte	0x1fc
 820 042f 5C       		.byte	0x5c
 821 0430 10       		.uleb128 0x10
 822 0431 4D010000 		.4byte	.LASF58
 823 0435 07       		.byte	0x7
 824 0436 7502     		.2byte	0x275
 825 0438 C3000000 		.4byte	0xc3
 826 043c 5E       		.byte	0x5e
 827 043d 10       		.uleb128 0x10
 828 043e C5040000 		.4byte	.LASF59
 829 0442 07       		.byte	0x7
 830 0443 7602     		.2byte	0x276
 831 0445 FC010000 		.4byte	0x1fc
 832 0449 60       		.byte	0x60
 833 044a 10       		.uleb128 0x10
 834 044b 58010000 		.4byte	.LASF60
 835 044f 07       		.byte	0x7
 836 0450 7702     		.2byte	0x277
 837 0452 C3000000 		.4byte	0xc3
 838 0456 62       		.byte	0x62
 839 0457 10       		.uleb128 0x10
 840 0458 1B050000 		.4byte	.LASF61
 841 045c 07       		.byte	0x7
 842 045d 7802     		.2byte	0x278
ARM GAS  /tmp/ccGUuh4o.s 			page 16


 843 045f FC010000 		.4byte	0x1fc
 844 0463 64       		.byte	0x64
 845 0464 10       		.uleb128 0x10
 846 0465 63010000 		.4byte	.LASF62
 847 0469 07       		.byte	0x7
 848 046a 7902     		.2byte	0x279
 849 046c C3000000 		.4byte	0xc3
 850 0470 66       		.byte	0x66
 851 0471 10       		.uleb128 0x10
 852 0472 20050000 		.4byte	.LASF63
 853 0476 07       		.byte	0x7
 854 0477 7A02     		.2byte	0x27a
 855 0479 FC010000 		.4byte	0x1fc
 856 047d 68       		.byte	0x68
 857 047e 10       		.uleb128 0x10
 858 047f 69050000 		.4byte	.LASF64
 859 0483 07       		.byte	0x7
 860 0484 7B02     		.2byte	0x27b
 861 0486 C3000000 		.4byte	0xc3
 862 048a 6A       		.byte	0x6a
 863 048b 10       		.uleb128 0x10
 864 048c 25050000 		.4byte	.LASF65
 865 0490 07       		.byte	0x7
 866 0491 7C02     		.2byte	0x27c
 867 0493 FC010000 		.4byte	0x1fc
 868 0497 6C       		.byte	0x6c
 869 0498 10       		.uleb128 0x10
 870 0499 83010000 		.4byte	.LASF66
 871 049d 07       		.byte	0x7
 872 049e 7D02     		.2byte	0x27d
 873 04a0 C3000000 		.4byte	0xc3
 874 04a4 6E       		.byte	0x6e
 875 04a5 10       		.uleb128 0x10
 876 04a6 2A050000 		.4byte	.LASF67
 877 04aa 07       		.byte	0x7
 878 04ab 7E02     		.2byte	0x27e
 879 04ad FC010000 		.4byte	0x1fc
 880 04b1 70       		.byte	0x70
 881 04b2 10       		.uleb128 0x10
 882 04b3 8E010000 		.4byte	.LASF68
 883 04b7 07       		.byte	0x7
 884 04b8 7F02     		.2byte	0x27f
 885 04ba C3000000 		.4byte	0xc3
 886 04be 72       		.byte	0x72
 887 04bf 10       		.uleb128 0x10
 888 04c0 2F050000 		.4byte	.LASF69
 889 04c4 07       		.byte	0x7
 890 04c5 8002     		.2byte	0x280
 891 04c7 FC010000 		.4byte	0x1fc
 892 04cb 74       		.byte	0x74
 893 04cc 10       		.uleb128 0x10
 894 04cd 99010000 		.4byte	.LASF70
 895 04d1 07       		.byte	0x7
 896 04d2 8102     		.2byte	0x281
 897 04d4 C3000000 		.4byte	0xc3
 898 04d8 76       		.byte	0x76
 899 04d9 10       		.uleb128 0x10
ARM GAS  /tmp/ccGUuh4o.s 			page 17


 900 04da 34050000 		.4byte	.LASF71
 901 04de 07       		.byte	0x7
 902 04df 8202     		.2byte	0x282
 903 04e1 FC010000 		.4byte	0x1fc
 904 04e5 78       		.byte	0x78
 905 04e6 10       		.uleb128 0x10
 906 04e7 A4010000 		.4byte	.LASF72
 907 04eb 07       		.byte	0x7
 908 04ec 8302     		.2byte	0x283
 909 04ee C3000000 		.4byte	0xc3
 910 04f2 7A       		.byte	0x7a
 911 04f3 10       		.uleb128 0x10
 912 04f4 39050000 		.4byte	.LASF73
 913 04f8 07       		.byte	0x7
 914 04f9 8402     		.2byte	0x284
 915 04fb FC010000 		.4byte	0x1fc
 916 04ff 7C       		.byte	0x7c
 917 0500 10       		.uleb128 0x10
 918 0501 AF010000 		.4byte	.LASF74
 919 0505 07       		.byte	0x7
 920 0506 8502     		.2byte	0x285
 921 0508 C3000000 		.4byte	0xc3
 922 050c 7E       		.byte	0x7e
 923 050d 10       		.uleb128 0x10
 924 050e 3E050000 		.4byte	.LASF75
 925 0512 07       		.byte	0x7
 926 0513 8602     		.2byte	0x286
 927 0515 FC010000 		.4byte	0x1fc
 928 0519 80       		.byte	0x80
 929 051a 10       		.uleb128 0x10
 930 051b 15030000 		.4byte	.LASF76
 931 051f 07       		.byte	0x7
 932 0520 8702     		.2byte	0x287
 933 0522 C3000000 		.4byte	0xc3
 934 0526 82       		.byte	0x82
 935 0527 10       		.uleb128 0x10
 936 0528 43050000 		.4byte	.LASF77
 937 052c 07       		.byte	0x7
 938 052d 8802     		.2byte	0x288
 939 052f FC010000 		.4byte	0x1fc
 940 0533 84       		.byte	0x84
 941 0534 10       		.uleb128 0x10
 942 0535 20030000 		.4byte	.LASF78
 943 0539 07       		.byte	0x7
 944 053a 8902     		.2byte	0x289
 945 053c C3000000 		.4byte	0xc3
 946 0540 86       		.byte	0x86
 947 0541 10       		.uleb128 0x10
 948 0542 48050000 		.4byte	.LASF79
 949 0546 07       		.byte	0x7
 950 0547 8A02     		.2byte	0x28a
 951 0549 FC010000 		.4byte	0x1fc
 952 054d 88       		.byte	0x88
 953 054e 10       		.uleb128 0x10
 954 054f 2B030000 		.4byte	.LASF80
 955 0553 07       		.byte	0x7
 956 0554 8B02     		.2byte	0x28b
ARM GAS  /tmp/ccGUuh4o.s 			page 18


 957 0556 C3000000 		.4byte	0xc3
 958 055a 8A       		.byte	0x8a
 959 055b 10       		.uleb128 0x10
 960 055c 74050000 		.4byte	.LASF81
 961 0560 07       		.byte	0x7
 962 0561 8C02     		.2byte	0x28c
 963 0563 FC010000 		.4byte	0x1fc
 964 0567 8C       		.byte	0x8c
 965 0568 10       		.uleb128 0x10
 966 0569 36030000 		.4byte	.LASF82
 967 056d 07       		.byte	0x7
 968 056e 8D02     		.2byte	0x28d
 969 0570 C3000000 		.4byte	0xc3
 970 0574 8E       		.byte	0x8e
 971 0575 10       		.uleb128 0x10
 972 0576 79050000 		.4byte	.LASF83
 973 057a 07       		.byte	0x7
 974 057b 8E02     		.2byte	0x28e
 975 057d FC010000 		.4byte	0x1fc
 976 0581 90       		.byte	0x90
 977 0582 10       		.uleb128 0x10
 978 0583 41030000 		.4byte	.LASF84
 979 0587 07       		.byte	0x7
 980 0588 8F02     		.2byte	0x28f
 981 058a C3000000 		.4byte	0xc3
 982 058e 92       		.byte	0x92
 983 058f 10       		.uleb128 0x10
 984 0590 7E050000 		.4byte	.LASF85
 985 0594 07       		.byte	0x7
 986 0595 9002     		.2byte	0x290
 987 0597 FC010000 		.4byte	0x1fc
 988 059b 94       		.byte	0x94
 989 059c 10       		.uleb128 0x10
 990 059d 4C030000 		.4byte	.LASF86
 991 05a1 07       		.byte	0x7
 992 05a2 9102     		.2byte	0x291
 993 05a4 C3000000 		.4byte	0xc3
 994 05a8 96       		.byte	0x96
 995 05a9 10       		.uleb128 0x10
 996 05aa 83050000 		.4byte	.LASF87
 997 05ae 07       		.byte	0x7
 998 05af 9202     		.2byte	0x292
 999 05b1 FC010000 		.4byte	0x1fc
 1000 05b5 98       		.byte	0x98
 1001 05b6 10       		.uleb128 0x10
 1002 05b7 57030000 		.4byte	.LASF88
 1003 05bb 07       		.byte	0x7
 1004 05bc 9302     		.2byte	0x293
 1005 05be C3000000 		.4byte	0xc3
 1006 05c2 9A       		.byte	0x9a
 1007 05c3 10       		.uleb128 0x10
 1008 05c4 44000000 		.4byte	.LASF89
 1009 05c8 07       		.byte	0x7
 1010 05c9 9402     		.2byte	0x294
 1011 05cb FC010000 		.4byte	0x1fc
 1012 05cf 9C       		.byte	0x9c
 1013 05d0 10       		.uleb128 0x10
ARM GAS  /tmp/ccGUuh4o.s 			page 19


 1014 05d1 62030000 		.4byte	.LASF90
 1015 05d5 07       		.byte	0x7
 1016 05d6 9502     		.2byte	0x295
 1017 05d8 C3000000 		.4byte	0xc3
 1018 05dc 9E       		.byte	0x9e
 1019 05dd 10       		.uleb128 0x10
 1020 05de 8D050000 		.4byte	.LASF91
 1021 05e2 07       		.byte	0x7
 1022 05e3 9602     		.2byte	0x296
 1023 05e5 FC010000 		.4byte	0x1fc
 1024 05e9 A0       		.byte	0xa0
 1025 05ea 10       		.uleb128 0x10
 1026 05eb 6D030000 		.4byte	.LASF92
 1027 05ef 07       		.byte	0x7
 1028 05f0 9702     		.2byte	0x297
 1029 05f2 C3000000 		.4byte	0xc3
 1030 05f6 A2       		.byte	0xa2
 1031 05f7 10       		.uleb128 0x10
 1032 05f8 92050000 		.4byte	.LASF93
 1033 05fc 07       		.byte	0x7
 1034 05fd 9802     		.2byte	0x298
 1035 05ff FC010000 		.4byte	0x1fc
 1036 0603 A4       		.byte	0xa4
 1037 0604 10       		.uleb128 0x10
 1038 0605 78030000 		.4byte	.LASF94
 1039 0609 07       		.byte	0x7
 1040 060a 9902     		.2byte	0x299
 1041 060c C3000000 		.4byte	0xc3
 1042 0610 A6       		.byte	0xa6
 1043 0611 10       		.uleb128 0x10
 1044 0612 97050000 		.4byte	.LASF95
 1045 0616 07       		.byte	0x7
 1046 0617 9A02     		.2byte	0x29a
 1047 0619 FC010000 		.4byte	0x1fc
 1048 061d A8       		.byte	0xa8
 1049 061e 10       		.uleb128 0x10
 1050 061f 97030000 		.4byte	.LASF96
 1051 0623 07       		.byte	0x7
 1052 0624 9B02     		.2byte	0x29b
 1053 0626 C3000000 		.4byte	0xc3
 1054 062a AA       		.byte	0xaa
 1055 062b 10       		.uleb128 0x10
 1056 062c 9C050000 		.4byte	.LASF97
 1057 0630 07       		.byte	0x7
 1058 0631 9C02     		.2byte	0x29c
 1059 0633 FC010000 		.4byte	0x1fc
 1060 0637 AC       		.byte	0xac
 1061 0638 10       		.uleb128 0x10
 1062 0639 A2030000 		.4byte	.LASF98
 1063 063d 07       		.byte	0x7
 1064 063e 9D02     		.2byte	0x29d
 1065 0640 C3000000 		.4byte	0xc3
 1066 0644 AE       		.byte	0xae
 1067 0645 10       		.uleb128 0x10
 1068 0646 A1050000 		.4byte	.LASF99
 1069 064a 07       		.byte	0x7
 1070 064b 9E02     		.2byte	0x29e
ARM GAS  /tmp/ccGUuh4o.s 			page 20


 1071 064d FC010000 		.4byte	0x1fc
 1072 0651 B0       		.byte	0xb0
 1073 0652 10       		.uleb128 0x10
 1074 0653 68040000 		.4byte	.LASF100
 1075 0657 07       		.byte	0x7
 1076 0658 9F02     		.2byte	0x29f
 1077 065a C3000000 		.4byte	0xc3
 1078 065e B2       		.byte	0xb2
 1079 065f 10       		.uleb128 0x10
 1080 0660 28000000 		.4byte	.LASF101
 1081 0664 07       		.byte	0x7
 1082 0665 A002     		.2byte	0x2a0
 1083 0667 FC010000 		.4byte	0x1fc
 1084 066b B4       		.byte	0xb4
 1085 066c 10       		.uleb128 0x10
 1086 066d B6030000 		.4byte	.LASF102
 1087 0671 07       		.byte	0x7
 1088 0672 A102     		.2byte	0x2a1
 1089 0674 C3000000 		.4byte	0xc3
 1090 0678 B6       		.byte	0xb6
 1091 0679 10       		.uleb128 0x10
 1092 067a 2D000000 		.4byte	.LASF103
 1093 067e 07       		.byte	0x7
 1094 067f A202     		.2byte	0x2a2
 1095 0681 FC010000 		.4byte	0x1fc
 1096 0685 B8       		.byte	0xb8
 1097 0686 10       		.uleb128 0x10
 1098 0687 C1030000 		.4byte	.LASF104
 1099 068b 07       		.byte	0x7
 1100 068c A302     		.2byte	0x2a3
 1101 068e C3000000 		.4byte	0xc3
 1102 0692 BA       		.byte	0xba
 1103 0693 10       		.uleb128 0x10
 1104 0694 32000000 		.4byte	.LASF105
 1105 0698 07       		.byte	0x7
 1106 0699 A402     		.2byte	0x2a4
 1107 069b FC010000 		.4byte	0x1fc
 1108 069f BC       		.byte	0xbc
 1109 06a0 10       		.uleb128 0x10
 1110 06a1 CC030000 		.4byte	.LASF106
 1111 06a5 07       		.byte	0x7
 1112 06a6 A502     		.2byte	0x2a5
 1113 06a8 C3000000 		.4byte	0xc3
 1114 06ac BE       		.byte	0xbe
 1115 06ad 00       		.byte	0
 1116 06ae 12       		.uleb128 0x12
 1117 06af C3000000 		.4byte	0xc3
 1118 06b3 BE060000 		.4byte	0x6be
 1119 06b7 13       		.uleb128 0x13
 1120 06b8 FD000000 		.4byte	0xfd
 1121 06bc 04       		.byte	0x4
 1122 06bd 00       		.byte	0
 1123 06be 14       		.uleb128 0x14
 1124 06bf 7F000000 		.4byte	.LASF107
 1125 06c3 07       		.byte	0x7
 1126 06c4 A602     		.2byte	0x2a6
 1127 06c6 06020000 		.4byte	0x206
ARM GAS  /tmp/ccGUuh4o.s 			page 21


 1128 06ca 0F       		.uleb128 0xf
 1129 06cb 08       		.byte	0x8
 1130 06cc 07       		.byte	0x7
 1131 06cd 3904     		.2byte	0x439
 1132 06cf ED060000 		.4byte	0x6ed
 1133 06d3 11       		.uleb128 0x11
 1134 06d4 435200   		.ascii	"CR\000"
 1135 06d7 07       		.byte	0x7
 1136 06d8 3B04     		.2byte	0x43b
 1137 06da F8000000 		.4byte	0xf8
 1138 06de 00       		.byte	0
 1139 06df 11       		.uleb128 0x11
 1140 06e0 43535200 		.ascii	"CSR\000"
 1141 06e4 07       		.byte	0x7
 1142 06e5 3C04     		.2byte	0x43c
 1143 06e7 F8000000 		.4byte	0xf8
 1144 06eb 04       		.byte	0x4
 1145 06ec 00       		.byte	0
 1146 06ed 14       		.uleb128 0x14
 1147 06ee 05050000 		.4byte	.LASF108
 1148 06f2 07       		.byte	0x7
 1149 06f3 3D04     		.2byte	0x43d
 1150 06f5 CA060000 		.4byte	0x6ca
 1151 06f9 0F       		.uleb128 0xf
 1152 06fa 28       		.byte	0x28
 1153 06fb 07       		.byte	0x7
 1154 06fc 4304     		.2byte	0x443
 1155 06fe 84070000 		.4byte	0x784
 1156 0702 11       		.uleb128 0x11
 1157 0703 435200   		.ascii	"CR\000"
 1158 0706 07       		.byte	0x7
 1159 0707 4504     		.2byte	0x445
 1160 0709 F8000000 		.4byte	0xf8
 1161 070d 00       		.byte	0
 1162 070e 10       		.uleb128 0x10
 1163 070f 64050000 		.4byte	.LASF109
 1164 0713 07       		.byte	0x7
 1165 0714 4604     		.2byte	0x446
 1166 0716 F8000000 		.4byte	0xf8
 1167 071a 04       		.byte	0x4
 1168 071b 11       		.uleb128 0x11
 1169 071c 43495200 		.ascii	"CIR\000"
 1170 0720 07       		.byte	0x7
 1171 0721 4704     		.2byte	0x447
 1172 0723 F8000000 		.4byte	0xf8
 1173 0727 08       		.byte	0x8
 1174 0728 10       		.uleb128 0x10
 1175 0729 02010000 		.4byte	.LASF110
 1176 072d 07       		.byte	0x7
 1177 072e 4804     		.2byte	0x448
 1178 0730 F8000000 		.4byte	0xf8
 1179 0734 0C       		.byte	0xc
 1180 0735 10       		.uleb128 0x10
 1181 0736 AD030000 		.4byte	.LASF111
 1182 073a 07       		.byte	0x7
 1183 073b 4904     		.2byte	0x449
 1184 073d F8000000 		.4byte	0xf8
ARM GAS  /tmp/ccGUuh4o.s 			page 22


 1185 0741 10       		.byte	0x10
 1186 0742 10       		.uleb128 0x10
 1187 0743 A6050000 		.4byte	.LASF112
 1188 0747 07       		.byte	0x7
 1189 0748 4A04     		.2byte	0x44a
 1190 074a F8000000 		.4byte	0xf8
 1191 074e 14       		.byte	0x14
 1192 074f 10       		.uleb128 0x10
 1193 0750 A4040000 		.4byte	.LASF113
 1194 0754 07       		.byte	0x7
 1195 0755 4B04     		.2byte	0x44b
 1196 0757 F8000000 		.4byte	0xf8
 1197 075b 18       		.byte	0x18
 1198 075c 10       		.uleb128 0x10
 1199 075d FD040000 		.4byte	.LASF114
 1200 0761 07       		.byte	0x7
 1201 0762 4C04     		.2byte	0x44c
 1202 0764 F8000000 		.4byte	0xf8
 1203 0768 1C       		.byte	0x1c
 1204 0769 10       		.uleb128 0x10
 1205 076a 4D050000 		.4byte	.LASF115
 1206 076e 07       		.byte	0x7
 1207 076f 4D04     		.2byte	0x44d
 1208 0771 F8000000 		.4byte	0xf8
 1209 0775 20       		.byte	0x20
 1210 0776 11       		.uleb128 0x11
 1211 0777 43535200 		.ascii	"CSR\000"
 1212 077b 07       		.byte	0x7
 1213 077c 4E04     		.2byte	0x44e
 1214 077e F8000000 		.4byte	0xf8
 1215 0782 24       		.byte	0x24
 1216 0783 00       		.byte	0
 1217 0784 14       		.uleb128 0x14
 1218 0785 E6010000 		.4byte	.LASF116
 1219 0789 07       		.byte	0x7
 1220 078a 5904     		.2byte	0x459
 1221 078c F9060000 		.4byte	0x6f9
 1222 0790 03       		.uleb128 0x3
 1223 0791 11050000 		.4byte	.LASF117
 1224 0795 08       		.byte	0x8
 1225 0796 39       		.byte	0x39
 1226 0797 F1010000 		.4byte	0x1f1
 1227 079b 07       		.uleb128 0x7
 1228 079c 04       		.byte	0x4
 1229 079d 90070000 		.4byte	0x790
 1230 07a1 07       		.uleb128 0x7
 1231 07a2 04       		.byte	0x4
 1232 07a3 A7070000 		.4byte	0x7a7
 1233 07a7 07       		.uleb128 0x7
 1234 07a8 04       		.byte	0x4
 1235 07a9 0F010000 		.4byte	0x10f
 1236 07ad 15       		.uleb128 0x15
 1237 07ae 6B000000 		.4byte	.LASF129
 1238 07b2 01       		.byte	0x1
 1239 07b3 6D       		.byte	0x6d
 1240 07b4 C3000000 		.4byte	0xc3
 1241 07b8 01       		.byte	0x1
ARM GAS  /tmp/ccGUuh4o.s 			page 23


 1242 07b9 DB070000 		.4byte	0x7db
 1243 07bd 16       		.uleb128 0x16
 1244 07be ED040000 		.4byte	.LASF120
 1245 07c2 01       		.byte	0x1
 1246 07c3 6D       		.byte	0x6d
 1247 07c4 B8000000 		.4byte	0xb8
 1248 07c8 17       		.uleb128 0x17
 1249 07c9 7000     		.ascii	"p\000"
 1250 07cb 01       		.byte	0x1
 1251 07cc 6F       		.byte	0x6f
 1252 07cd DB070000 		.4byte	0x7db
 1253 07d1 17       		.uleb128 0x17
 1254 07d2 7100     		.ascii	"q\000"
 1255 07d4 01       		.byte	0x1
 1256 07d5 70       		.byte	0x70
 1257 07d6 E1070000 		.4byte	0x7e1
 1258 07da 00       		.byte	0
 1259 07db 07       		.uleb128 0x7
 1260 07dc 04       		.byte	0x4
 1261 07dd BE060000 		.4byte	0x6be
 1262 07e1 07       		.uleb128 0x7
 1263 07e2 04       		.byte	0x4
 1264 07e3 FC010000 		.4byte	0x1fc
 1265 07e7 18       		.uleb128 0x18
 1266 07e8 0B010000 		.4byte	.LASF118
 1267 07ec 01       		.byte	0x1
 1268 07ed 3D       		.byte	0x3d
 1269 07ee 00000000 		.4byte	.LFB63
 1270 07f2 22000000 		.4byte	.LFE63-.LFB63
 1271 07f6 01       		.uleb128 0x1
 1272 07f7 9C       		.byte	0x9c
 1273 07f8 17080000 		.4byte	0x817
 1274 07fc 19       		.uleb128 0x19
 1275 07fd 7000     		.ascii	"p\000"
 1276 07ff 01       		.byte	0x1
 1277 0800 3F       		.byte	0x3f
 1278 0801 17080000 		.4byte	0x817
 1279 0805 00100240 		.4byte	0x40021000
 1280 0809 19       		.uleb128 0x19
 1281 080a 7100     		.ascii	"q\000"
 1282 080c 01       		.byte	0x1
 1283 080d 40       		.byte	0x40
 1284 080e 1D080000 		.4byte	0x81d
 1285 0812 00700040 		.4byte	0x40007000
 1286 0816 00       		.byte	0
 1287 0817 07       		.uleb128 0x7
 1288 0818 04       		.byte	0x4
 1289 0819 84070000 		.4byte	0x784
 1290 081d 07       		.uleb128 0x7
 1291 081e 04       		.byte	0x4
 1292 081f ED060000 		.4byte	0x6ed
 1293 0823 18       		.uleb128 0x18
 1294 0824 37040000 		.4byte	.LASF119
 1295 0828 01       		.byte	0x1
 1296 0829 4F       		.byte	0x4f
 1297 082a 00000000 		.4byte	.LFB64
 1298 082e 2C000000 		.4byte	.LFE64-.LFB64
ARM GAS  /tmp/ccGUuh4o.s 			page 24


 1299 0832 01       		.uleb128 0x1
 1300 0833 9C       		.byte	0x9c
 1301 0834 6F080000 		.4byte	0x86f
 1302 0838 1A       		.uleb128 0x1a
 1303 0839 ED040000 		.4byte	.LASF120
 1304 083d 01       		.byte	0x1
 1305 083e 4F       		.byte	0x4f
 1306 083f B8000000 		.4byte	0xb8
 1307 0843 00000000 		.4byte	.LLST0
 1308 0847 1B       		.uleb128 0x1b
 1309 0848 E4020000 		.4byte	.LASF121
 1310 084c 01       		.byte	0x1
 1311 084d 4F       		.byte	0x4f
 1312 084e C3000000 		.4byte	0xc3
 1313 0852 01       		.uleb128 0x1
 1314 0853 51       		.byte	0x51
 1315 0854 19       		.uleb128 0x19
 1316 0855 7000     		.ascii	"p\000"
 1317 0857 01       		.byte	0x1
 1318 0858 51       		.byte	0x51
 1319 0859 DB070000 		.4byte	0x7db
 1320 085d 006C0040 		.4byte	0x40006c00
 1321 0861 1C       		.uleb128 0x1c
 1322 0862 7100     		.ascii	"q\000"
 1323 0864 01       		.byte	0x1
 1324 0865 52       		.byte	0x52
 1325 0866 E1070000 		.4byte	0x7e1
 1326 086a 2C000000 		.4byte	.LLST1
 1327 086e 00       		.byte	0
 1328 086f 1D       		.uleb128 0x1d
 1329 0870 AD070000 		.4byte	0x7ad
 1330 0874 00000000 		.4byte	.LFB65
 1331 0878 34000000 		.4byte	.LFE65-.LFB65
 1332 087c 01       		.uleb128 0x1
 1333 087d 9C       		.byte	0x9c
 1334 087e C9080000 		.4byte	0x8c9
 1335 0882 1E       		.uleb128 0x1e
 1336 0883 BD070000 		.4byte	0x7bd
 1337 0887 58000000 		.4byte	.LLST2
 1338 088b 1F       		.uleb128 0x1f
 1339 088c C8070000 		.4byte	0x7c8
 1340 0890 006C0040 		.4byte	0x40006c00
 1341 0894 20       		.uleb128 0x20
 1342 0895 D1070000 		.4byte	0x7d1
 1343 0899 92000000 		.4byte	.LLST3
 1344 089d 21       		.uleb128 0x21
 1345 089e 0C000000 		.4byte	.LBB4
 1346 08a2 14000000 		.4byte	.LBE4-.LBB4
 1347 08a6 1E       		.uleb128 0x1e
 1348 08a7 BD070000 		.4byte	0x7bd
 1349 08ab AC000000 		.4byte	.LLST4
 1350 08af 21       		.uleb128 0x21
 1351 08b0 0C000000 		.4byte	.LBB5
 1352 08b4 14000000 		.4byte	.LBE5-.LBB5
 1353 08b8 22       		.uleb128 0x22
 1354 08b9 C8070000 		.4byte	0x7c8
 1355 08bd 20       		.uleb128 0x20
ARM GAS  /tmp/ccGUuh4o.s 			page 25


 1356 08be D1070000 		.4byte	0x7d1
 1357 08c2 BF000000 		.4byte	.LLST5
 1358 08c6 00       		.byte	0
 1359 08c7 00       		.byte	0
 1360 08c8 00       		.byte	0
 1361 08c9 18       		.uleb128 0x18
 1362 08ca C7010000 		.4byte	.LASF122
 1363 08ce 01       		.byte	0x1
 1364 08cf 8C       		.byte	0x8c
 1365 08d0 00000000 		.4byte	.LFB66
 1366 08d4 BE000000 		.4byte	.LFE66-.LFB66
 1367 08d8 01       		.uleb128 0x1
 1368 08d9 9C       		.byte	0x9c
 1369 08da 740A0000 		.4byte	0xa74
 1370 08de 23       		.uleb128 0x23
 1371 08df 63687000 		.ascii	"chp\000"
 1372 08e3 01       		.byte	0x1
 1373 08e4 8C       		.byte	0x8c
 1374 08e5 9B070000 		.4byte	0x79b
 1375 08e9 D9000000 		.4byte	.LLST6
 1376 08ed 1A       		.uleb128 0x1a
 1377 08ee 5F050000 		.4byte	.LASF123
 1378 08f2 01       		.byte	0x1
 1379 08f3 8C       		.byte	0x8c
 1380 08f4 25000000 		.4byte	0x25
 1381 08f8 10010000 		.4byte	.LLST7
 1382 08fc 1A       		.uleb128 0x1a
 1383 08fd 88050000 		.4byte	.LASF124
 1384 0901 01       		.byte	0x1
 1385 0902 8C       		.byte	0x8c
 1386 0903 A1070000 		.4byte	0x7a1
 1387 0907 31010000 		.4byte	.LLST8
 1388 090b 1C       		.uleb128 0x1c
 1389 090c 6900     		.ascii	"i\000"
 1390 090e 01       		.byte	0x1
 1391 090f 8E       		.byte	0x8e
 1392 0910 25000000 		.4byte	0x25
 1393 0914 52010000 		.4byte	.LLST9
 1394 0918 24       		.uleb128 0x24
 1395 0919 10000000 		.4byte	.LVL16
 1396 091d 800A0000 		.4byte	0xa80
 1397 0921 35090000 		.4byte	0x935
 1398 0925 25       		.uleb128 0x25
 1399 0926 01       		.uleb128 0x1
 1400 0927 51       		.byte	0x51
 1401 0928 05       		.uleb128 0x5
 1402 0929 03       		.byte	0x3
 1403 092a 00000000 		.4byte	.LC0
 1404 092e 25       		.uleb128 0x25
 1405 092f 01       		.uleb128 0x1
 1406 0930 50       		.byte	0x50
 1407 0931 02       		.uleb128 0x2
 1408 0932 75       		.byte	0x75
 1409 0933 00       		.sleb128 0
 1410 0934 00       		.byte	0
 1411 0935 24       		.uleb128 0x24
 1412 0936 1E000000 		.4byte	.LVL17
ARM GAS  /tmp/ccGUuh4o.s 			page 26


 1413 093a 800A0000 		.4byte	0xa80
 1414 093e 52090000 		.4byte	0x952
 1415 0942 25       		.uleb128 0x25
 1416 0943 01       		.uleb128 0x1
 1417 0944 51       		.byte	0x51
 1418 0945 05       		.uleb128 0x5
 1419 0946 03       		.byte	0x3
 1420 0947 14000000 		.4byte	.LC1
 1421 094b 25       		.uleb128 0x25
 1422 094c 01       		.uleb128 0x1
 1423 094d 50       		.byte	0x50
 1424 094e 02       		.uleb128 0x2
 1425 094f 75       		.byte	0x75
 1426 0950 00       		.sleb128 0
 1427 0951 00       		.byte	0
 1428 0952 24       		.uleb128 0x24
 1429 0953 26000000 		.4byte	.LVL19
 1430 0957 AD070000 		.4byte	0x7ad
 1431 095b 66090000 		.4byte	0x966
 1432 095f 25       		.uleb128 0x25
 1433 0960 01       		.uleb128 0x1
 1434 0961 50       		.byte	0x50
 1435 0962 02       		.uleb128 0x2
 1436 0963 74       		.byte	0x74
 1437 0964 00       		.sleb128 0
 1438 0965 00       		.byte	0
 1439 0966 24       		.uleb128 0x24
 1440 0967 38000000 		.4byte	.LVL21
 1441 096b 800A0000 		.4byte	0xa80
 1442 096f 83090000 		.4byte	0x983
 1443 0973 25       		.uleb128 0x25
 1444 0974 01       		.uleb128 0x1
 1445 0975 51       		.byte	0x51
 1446 0976 05       		.uleb128 0x5
 1447 0977 03       		.byte	0x3
 1448 0978 1C000000 		.4byte	.LC2
 1449 097c 25       		.uleb128 0x25
 1450 097d 01       		.uleb128 0x1
 1451 097e 50       		.byte	0x50
 1452 097f 02       		.uleb128 0x2
 1453 0980 75       		.byte	0x75
 1454 0981 00       		.sleb128 0
 1455 0982 00       		.byte	0
 1456 0983 24       		.uleb128 0x24
 1457 0984 4A000000 		.4byte	.LVL22
 1458 0988 800A0000 		.4byte	0xa80
 1459 098c A0090000 		.4byte	0x9a0
 1460 0990 25       		.uleb128 0x25
 1461 0991 01       		.uleb128 0x1
 1462 0992 51       		.byte	0x51
 1463 0993 05       		.uleb128 0x5
 1464 0994 03       		.byte	0x3
 1465 0995 24000000 		.4byte	.LC3
 1466 0999 25       		.uleb128 0x25
 1467 099a 01       		.uleb128 0x1
 1468 099b 50       		.byte	0x50
 1469 099c 02       		.uleb128 0x2
ARM GAS  /tmp/ccGUuh4o.s 			page 27


 1470 099d 75       		.byte	0x75
 1471 099e 00       		.sleb128 0
 1472 099f 00       		.byte	0
 1473 09a0 24       		.uleb128 0x24
 1474 09a1 58000000 		.4byte	.LVL23
 1475 09a5 800A0000 		.4byte	0xa80
 1476 09a9 BD090000 		.4byte	0x9bd
 1477 09ad 25       		.uleb128 0x25
 1478 09ae 01       		.uleb128 0x1
 1479 09af 51       		.byte	0x51
 1480 09b0 05       		.uleb128 0x5
 1481 09b1 03       		.byte	0x3
 1482 09b2 28000000 		.4byte	.LC4
 1483 09b6 25       		.uleb128 0x25
 1484 09b7 01       		.uleb128 0x1
 1485 09b8 50       		.byte	0x50
 1486 09b9 02       		.uleb128 0x2
 1487 09ba 75       		.byte	0x75
 1488 09bb 00       		.sleb128 0
 1489 09bc 00       		.byte	0
 1490 09bd 24       		.uleb128 0x24
 1491 09be 5E000000 		.4byte	.LVL24
 1492 09c2 AD070000 		.4byte	0x7ad
 1493 09c6 D1090000 		.4byte	0x9d1
 1494 09ca 25       		.uleb128 0x25
 1495 09cb 01       		.uleb128 0x1
 1496 09cc 50       		.byte	0x50
 1497 09cd 02       		.uleb128 0x2
 1498 09ce 74       		.byte	0x74
 1499 09cf 00       		.sleb128 0
 1500 09d0 00       		.byte	0
 1501 09d1 24       		.uleb128 0x24
 1502 09d2 70000000 		.4byte	.LVL26
 1503 09d6 800A0000 		.4byte	0xa80
 1504 09da EE090000 		.4byte	0x9ee
 1505 09de 25       		.uleb128 0x25
 1506 09df 01       		.uleb128 0x1
 1507 09e0 51       		.byte	0x51
 1508 09e1 05       		.uleb128 0x5
 1509 09e2 03       		.byte	0x3
 1510 09e3 1C000000 		.4byte	.LC2
 1511 09e7 25       		.uleb128 0x25
 1512 09e8 01       		.uleb128 0x1
 1513 09e9 50       		.byte	0x50
 1514 09ea 02       		.uleb128 0x2
 1515 09eb 75       		.byte	0x75
 1516 09ec 00       		.sleb128 0
 1517 09ed 00       		.byte	0
 1518 09ee 24       		.uleb128 0x24
 1519 09ef 82000000 		.4byte	.LVL27
 1520 09f3 800A0000 		.4byte	0xa80
 1521 09f7 0B0A0000 		.4byte	0xa0b
 1522 09fb 25       		.uleb128 0x25
 1523 09fc 01       		.uleb128 0x1
 1524 09fd 51       		.byte	0x51
 1525 09fe 05       		.uleb128 0x5
 1526 09ff 03       		.byte	0x3
ARM GAS  /tmp/ccGUuh4o.s 			page 28


 1527 0a00 24000000 		.4byte	.LC3
 1528 0a04 25       		.uleb128 0x25
 1529 0a05 01       		.uleb128 0x1
 1530 0a06 50       		.byte	0x50
 1531 0a07 02       		.uleb128 0x2
 1532 0a08 75       		.byte	0x75
 1533 0a09 00       		.sleb128 0
 1534 0a0a 00       		.byte	0
 1535 0a0b 24       		.uleb128 0x24
 1536 0a0c 90000000 		.4byte	.LVL28
 1537 0a10 800A0000 		.4byte	0xa80
 1538 0a14 280A0000 		.4byte	0xa28
 1539 0a18 25       		.uleb128 0x25
 1540 0a19 01       		.uleb128 0x1
 1541 0a1a 51       		.byte	0x51
 1542 0a1b 05       		.uleb128 0x5
 1543 0a1c 03       		.byte	0x3
 1544 0a1d 30000000 		.4byte	.LC5
 1545 0a21 25       		.uleb128 0x25
 1546 0a22 01       		.uleb128 0x1
 1547 0a23 50       		.byte	0x50
 1548 0a24 02       		.uleb128 0x2
 1549 0a25 75       		.byte	0x75
 1550 0a26 00       		.sleb128 0
 1551 0a27 00       		.byte	0
 1552 0a28 24       		.uleb128 0x24
 1553 0a29 96000000 		.4byte	.LVL29
 1554 0a2d AD070000 		.4byte	0x7ad
 1555 0a31 3C0A0000 		.4byte	0xa3c
 1556 0a35 25       		.uleb128 0x25
 1557 0a36 01       		.uleb128 0x1
 1558 0a37 50       		.byte	0x50
 1559 0a38 02       		.uleb128 0x2
 1560 0a39 74       		.byte	0x74
 1561 0a3a 00       		.sleb128 0
 1562 0a3b 00       		.byte	0
 1563 0a3c 24       		.uleb128 0x24
 1564 0a3d A8000000 		.4byte	.LVL31
 1565 0a41 800A0000 		.4byte	0xa80
 1566 0a45 590A0000 		.4byte	0xa59
 1567 0a49 25       		.uleb128 0x25
 1568 0a4a 01       		.uleb128 0x1
 1569 0a4b 51       		.byte	0x51
 1570 0a4c 05       		.uleb128 0x5
 1571 0a4d 03       		.byte	0x3
 1572 0a4e 1C000000 		.4byte	.LC2
 1573 0a52 25       		.uleb128 0x25
 1574 0a53 01       		.uleb128 0x1
 1575 0a54 50       		.byte	0x50
 1576 0a55 02       		.uleb128 0x2
 1577 0a56 75       		.byte	0x75
 1578 0a57 00       		.sleb128 0
 1579 0a58 00       		.byte	0
 1580 0a59 26       		.uleb128 0x26
 1581 0a5a BE000000 		.4byte	.LVL33
 1582 0a5e 800A0000 		.4byte	0xa80
 1583 0a62 25       		.uleb128 0x25
ARM GAS  /tmp/ccGUuh4o.s 			page 29


 1584 0a63 01       		.uleb128 0x1
 1585 0a64 51       		.byte	0x51
 1586 0a65 05       		.uleb128 0x5
 1587 0a66 03       		.byte	0x3
 1588 0a67 24000000 		.4byte	.LC3
 1589 0a6b 25       		.uleb128 0x25
 1590 0a6c 01       		.uleb128 0x1
 1591 0a6d 50       		.byte	0x50
 1592 0a6e 03       		.uleb128 0x3
 1593 0a6f F3       		.byte	0xf3
 1594 0a70 01       		.uleb128 0x1
 1595 0a71 50       		.byte	0x50
 1596 0a72 00       		.byte	0
 1597 0a73 00       		.byte	0
 1598 0a74 27       		.uleb128 0x27
 1599 0a75 37000000 		.4byte	.LASF130
 1600 0a79 09       		.byte	0x9
 1601 0a7a 0706     		.2byte	0x607
 1602 0a7c 01020000 		.4byte	0x201
 1603 0a80 28       		.uleb128 0x28
 1604 0a81 20010000 		.4byte	.LASF131
 1605 0a85 0A       		.byte	0xa
 1606 0a86 3B       		.byte	0x3b
 1607 0a87 25000000 		.4byte	0x25
 1608 0a8b 0A       		.uleb128 0xa
 1609 0a8c 9B070000 		.4byte	0x79b
 1610 0a90 0A       		.uleb128 0xa
 1611 0a91 04010000 		.4byte	0x104
 1612 0a95 29       		.uleb128 0x29
 1613 0a96 00       		.byte	0
 1614 0a97 00       		.byte	0
 1615              		.section	.debug_abbrev,"",%progbits
 1616              	.Ldebug_abbrev0:
 1617 0000 01       		.uleb128 0x1
 1618 0001 11       		.uleb128 0x11
 1619 0002 01       		.byte	0x1
 1620 0003 25       		.uleb128 0x25
 1621 0004 0E       		.uleb128 0xe
 1622 0005 13       		.uleb128 0x13
 1623 0006 0B       		.uleb128 0xb
 1624 0007 03       		.uleb128 0x3
 1625 0008 0E       		.uleb128 0xe
 1626 0009 1B       		.uleb128 0x1b
 1627 000a 0E       		.uleb128 0xe
 1628 000b 55       		.uleb128 0x55
 1629 000c 17       		.uleb128 0x17
 1630 000d 11       		.uleb128 0x11
 1631 000e 01       		.uleb128 0x1
 1632 000f 10       		.uleb128 0x10
 1633 0010 17       		.uleb128 0x17
 1634 0011 00       		.byte	0
 1635 0012 00       		.byte	0
 1636 0013 02       		.uleb128 0x2
 1637 0014 24       		.uleb128 0x24
 1638 0015 00       		.byte	0
 1639 0016 0B       		.uleb128 0xb
 1640 0017 0B       		.uleb128 0xb
ARM GAS  /tmp/ccGUuh4o.s 			page 30


 1641 0018 3E       		.uleb128 0x3e
 1642 0019 0B       		.uleb128 0xb
 1643 001a 03       		.uleb128 0x3
 1644 001b 08       		.uleb128 0x8
 1645 001c 00       		.byte	0
 1646 001d 00       		.byte	0
 1647 001e 03       		.uleb128 0x3
 1648 001f 16       		.uleb128 0x16
 1649 0020 00       		.byte	0
 1650 0021 03       		.uleb128 0x3
 1651 0022 0E       		.uleb128 0xe
 1652 0023 3A       		.uleb128 0x3a
 1653 0024 0B       		.uleb128 0xb
 1654 0025 3B       		.uleb128 0x3b
 1655 0026 0B       		.uleb128 0xb
 1656 0027 49       		.uleb128 0x49
 1657 0028 13       		.uleb128 0x13
 1658 0029 00       		.byte	0
 1659 002a 00       		.byte	0
 1660 002b 04       		.uleb128 0x4
 1661 002c 24       		.uleb128 0x24
 1662 002d 00       		.byte	0
 1663 002e 0B       		.uleb128 0xb
 1664 002f 0B       		.uleb128 0xb
 1665 0030 3E       		.uleb128 0x3e
 1666 0031 0B       		.uleb128 0xb
 1667 0032 03       		.uleb128 0x3
 1668 0033 0E       		.uleb128 0xe
 1669 0034 00       		.byte	0
 1670 0035 00       		.byte	0
 1671 0036 05       		.uleb128 0x5
 1672 0037 0F       		.uleb128 0xf
 1673 0038 00       		.byte	0
 1674 0039 0B       		.uleb128 0xb
 1675 003a 0B       		.uleb128 0xb
 1676 003b 00       		.byte	0
 1677 003c 00       		.byte	0
 1678 003d 06       		.uleb128 0x6
 1679 003e 35       		.uleb128 0x35
 1680 003f 00       		.byte	0
 1681 0040 49       		.uleb128 0x49
 1682 0041 13       		.uleb128 0x13
 1683 0042 00       		.byte	0
 1684 0043 00       		.byte	0
 1685 0044 07       		.uleb128 0x7
 1686 0045 0F       		.uleb128 0xf
 1687 0046 00       		.byte	0
 1688 0047 0B       		.uleb128 0xb
 1689 0048 0B       		.uleb128 0xb
 1690 0049 49       		.uleb128 0x49
 1691 004a 13       		.uleb128 0x13
 1692 004b 00       		.byte	0
 1693 004c 00       		.byte	0
 1694 004d 08       		.uleb128 0x8
 1695 004e 26       		.uleb128 0x26
 1696 004f 00       		.byte	0
 1697 0050 49       		.uleb128 0x49
ARM GAS  /tmp/ccGUuh4o.s 			page 31


 1698 0051 13       		.uleb128 0x13
 1699 0052 00       		.byte	0
 1700 0053 00       		.byte	0
 1701 0054 09       		.uleb128 0x9
 1702 0055 15       		.uleb128 0x15
 1703 0056 01       		.byte	0x1
 1704 0057 27       		.uleb128 0x27
 1705 0058 19       		.uleb128 0x19
 1706 0059 49       		.uleb128 0x49
 1707 005a 13       		.uleb128 0x13
 1708 005b 01       		.uleb128 0x1
 1709 005c 13       		.uleb128 0x13
 1710 005d 00       		.byte	0
 1711 005e 00       		.byte	0
 1712 005f 0A       		.uleb128 0xa
 1713 0060 05       		.uleb128 0x5
 1714 0061 00       		.byte	0
 1715 0062 49       		.uleb128 0x49
 1716 0063 13       		.uleb128 0x13
 1717 0064 00       		.byte	0
 1718 0065 00       		.byte	0
 1719 0066 0B       		.uleb128 0xb
 1720 0067 13       		.uleb128 0x13
 1721 0068 01       		.byte	0x1
 1722 0069 03       		.uleb128 0x3
 1723 006a 0E       		.uleb128 0xe
 1724 006b 0B       		.uleb128 0xb
 1725 006c 0B       		.uleb128 0xb
 1726 006d 3A       		.uleb128 0x3a
 1727 006e 0B       		.uleb128 0xb
 1728 006f 3B       		.uleb128 0x3b
 1729 0070 0B       		.uleb128 0xb
 1730 0071 01       		.uleb128 0x1
 1731 0072 13       		.uleb128 0x13
 1732 0073 00       		.byte	0
 1733 0074 00       		.byte	0
 1734 0075 0C       		.uleb128 0xc
 1735 0076 0D       		.uleb128 0xd
 1736 0077 00       		.byte	0
 1737 0078 03       		.uleb128 0x3
 1738 0079 0E       		.uleb128 0xe
 1739 007a 3A       		.uleb128 0x3a
 1740 007b 0B       		.uleb128 0xb
 1741 007c 3B       		.uleb128 0x3b
 1742 007d 0B       		.uleb128 0xb
 1743 007e 49       		.uleb128 0x49
 1744 007f 13       		.uleb128 0x13
 1745 0080 38       		.uleb128 0x38
 1746 0081 0B       		.uleb128 0xb
 1747 0082 00       		.byte	0
 1748 0083 00       		.byte	0
 1749 0084 0D       		.uleb128 0xd
 1750 0085 0D       		.uleb128 0xd
 1751 0086 00       		.byte	0
 1752 0087 03       		.uleb128 0x3
 1753 0088 08       		.uleb128 0x8
 1754 0089 3A       		.uleb128 0x3a
ARM GAS  /tmp/ccGUuh4o.s 			page 32


 1755 008a 0B       		.uleb128 0xb
 1756 008b 3B       		.uleb128 0x3b
 1757 008c 0B       		.uleb128 0xb
 1758 008d 49       		.uleb128 0x49
 1759 008e 13       		.uleb128 0x13
 1760 008f 38       		.uleb128 0x38
 1761 0090 0B       		.uleb128 0xb
 1762 0091 00       		.byte	0
 1763 0092 00       		.byte	0
 1764 0093 0E       		.uleb128 0xe
 1765 0094 13       		.uleb128 0x13
 1766 0095 01       		.byte	0x1
 1767 0096 0B       		.uleb128 0xb
 1768 0097 0B       		.uleb128 0xb
 1769 0098 3A       		.uleb128 0x3a
 1770 0099 0B       		.uleb128 0xb
 1771 009a 3B       		.uleb128 0x3b
 1772 009b 0B       		.uleb128 0xb
 1773 009c 01       		.uleb128 0x1
 1774 009d 13       		.uleb128 0x13
 1775 009e 00       		.byte	0
 1776 009f 00       		.byte	0
 1777 00a0 0F       		.uleb128 0xf
 1778 00a1 13       		.uleb128 0x13
 1779 00a2 01       		.byte	0x1
 1780 00a3 0B       		.uleb128 0xb
 1781 00a4 0B       		.uleb128 0xb
 1782 00a5 3A       		.uleb128 0x3a
 1783 00a6 0B       		.uleb128 0xb
 1784 00a7 3B       		.uleb128 0x3b
 1785 00a8 05       		.uleb128 0x5
 1786 00a9 01       		.uleb128 0x1
 1787 00aa 13       		.uleb128 0x13
 1788 00ab 00       		.byte	0
 1789 00ac 00       		.byte	0
 1790 00ad 10       		.uleb128 0x10
 1791 00ae 0D       		.uleb128 0xd
 1792 00af 00       		.byte	0
 1793 00b0 03       		.uleb128 0x3
 1794 00b1 0E       		.uleb128 0xe
 1795 00b2 3A       		.uleb128 0x3a
 1796 00b3 0B       		.uleb128 0xb
 1797 00b4 3B       		.uleb128 0x3b
 1798 00b5 05       		.uleb128 0x5
 1799 00b6 49       		.uleb128 0x49
 1800 00b7 13       		.uleb128 0x13
 1801 00b8 38       		.uleb128 0x38
 1802 00b9 0B       		.uleb128 0xb
 1803 00ba 00       		.byte	0
 1804 00bb 00       		.byte	0
 1805 00bc 11       		.uleb128 0x11
 1806 00bd 0D       		.uleb128 0xd
 1807 00be 00       		.byte	0
 1808 00bf 03       		.uleb128 0x3
 1809 00c0 08       		.uleb128 0x8
 1810 00c1 3A       		.uleb128 0x3a
 1811 00c2 0B       		.uleb128 0xb
ARM GAS  /tmp/ccGUuh4o.s 			page 33


 1812 00c3 3B       		.uleb128 0x3b
 1813 00c4 05       		.uleb128 0x5
 1814 00c5 49       		.uleb128 0x49
 1815 00c6 13       		.uleb128 0x13
 1816 00c7 38       		.uleb128 0x38
 1817 00c8 0B       		.uleb128 0xb
 1818 00c9 00       		.byte	0
 1819 00ca 00       		.byte	0
 1820 00cb 12       		.uleb128 0x12
 1821 00cc 01       		.uleb128 0x1
 1822 00cd 01       		.byte	0x1
 1823 00ce 49       		.uleb128 0x49
 1824 00cf 13       		.uleb128 0x13
 1825 00d0 01       		.uleb128 0x1
 1826 00d1 13       		.uleb128 0x13
 1827 00d2 00       		.byte	0
 1828 00d3 00       		.byte	0
 1829 00d4 13       		.uleb128 0x13
 1830 00d5 21       		.uleb128 0x21
 1831 00d6 00       		.byte	0
 1832 00d7 49       		.uleb128 0x49
 1833 00d8 13       		.uleb128 0x13
 1834 00d9 2F       		.uleb128 0x2f
 1835 00da 0B       		.uleb128 0xb
 1836 00db 00       		.byte	0
 1837 00dc 00       		.byte	0
 1838 00dd 14       		.uleb128 0x14
 1839 00de 16       		.uleb128 0x16
 1840 00df 00       		.byte	0
 1841 00e0 03       		.uleb128 0x3
 1842 00e1 0E       		.uleb128 0xe
 1843 00e2 3A       		.uleb128 0x3a
 1844 00e3 0B       		.uleb128 0xb
 1845 00e4 3B       		.uleb128 0x3b
 1846 00e5 05       		.uleb128 0x5
 1847 00e6 49       		.uleb128 0x49
 1848 00e7 13       		.uleb128 0x13
 1849 00e8 00       		.byte	0
 1850 00e9 00       		.byte	0
 1851 00ea 15       		.uleb128 0x15
 1852 00eb 2E       		.uleb128 0x2e
 1853 00ec 01       		.byte	0x1
 1854 00ed 3F       		.uleb128 0x3f
 1855 00ee 19       		.uleb128 0x19
 1856 00ef 03       		.uleb128 0x3
 1857 00f0 0E       		.uleb128 0xe
 1858 00f1 3A       		.uleb128 0x3a
 1859 00f2 0B       		.uleb128 0xb
 1860 00f3 3B       		.uleb128 0x3b
 1861 00f4 0B       		.uleb128 0xb
 1862 00f5 27       		.uleb128 0x27
 1863 00f6 19       		.uleb128 0x19
 1864 00f7 49       		.uleb128 0x49
 1865 00f8 13       		.uleb128 0x13
 1866 00f9 20       		.uleb128 0x20
 1867 00fa 0B       		.uleb128 0xb
 1868 00fb 01       		.uleb128 0x1
ARM GAS  /tmp/ccGUuh4o.s 			page 34


 1869 00fc 13       		.uleb128 0x13
 1870 00fd 00       		.byte	0
 1871 00fe 00       		.byte	0
 1872 00ff 16       		.uleb128 0x16
 1873 0100 05       		.uleb128 0x5
 1874 0101 00       		.byte	0
 1875 0102 03       		.uleb128 0x3
 1876 0103 0E       		.uleb128 0xe
 1877 0104 3A       		.uleb128 0x3a
 1878 0105 0B       		.uleb128 0xb
 1879 0106 3B       		.uleb128 0x3b
 1880 0107 0B       		.uleb128 0xb
 1881 0108 49       		.uleb128 0x49
 1882 0109 13       		.uleb128 0x13
 1883 010a 00       		.byte	0
 1884 010b 00       		.byte	0
 1885 010c 17       		.uleb128 0x17
 1886 010d 34       		.uleb128 0x34
 1887 010e 00       		.byte	0
 1888 010f 03       		.uleb128 0x3
 1889 0110 08       		.uleb128 0x8
 1890 0111 3A       		.uleb128 0x3a
 1891 0112 0B       		.uleb128 0xb
 1892 0113 3B       		.uleb128 0x3b
 1893 0114 0B       		.uleb128 0xb
 1894 0115 49       		.uleb128 0x49
 1895 0116 13       		.uleb128 0x13
 1896 0117 00       		.byte	0
 1897 0118 00       		.byte	0
 1898 0119 18       		.uleb128 0x18
 1899 011a 2E       		.uleb128 0x2e
 1900 011b 01       		.byte	0x1
 1901 011c 3F       		.uleb128 0x3f
 1902 011d 19       		.uleb128 0x19
 1903 011e 03       		.uleb128 0x3
 1904 011f 0E       		.uleb128 0xe
 1905 0120 3A       		.uleb128 0x3a
 1906 0121 0B       		.uleb128 0xb
 1907 0122 3B       		.uleb128 0x3b
 1908 0123 0B       		.uleb128 0xb
 1909 0124 27       		.uleb128 0x27
 1910 0125 19       		.uleb128 0x19
 1911 0126 11       		.uleb128 0x11
 1912 0127 01       		.uleb128 0x1
 1913 0128 12       		.uleb128 0x12
 1914 0129 06       		.uleb128 0x6
 1915 012a 40       		.uleb128 0x40
 1916 012b 18       		.uleb128 0x18
 1917 012c 9742     		.uleb128 0x2117
 1918 012e 19       		.uleb128 0x19
 1919 012f 01       		.uleb128 0x1
 1920 0130 13       		.uleb128 0x13
 1921 0131 00       		.byte	0
 1922 0132 00       		.byte	0
 1923 0133 19       		.uleb128 0x19
 1924 0134 34       		.uleb128 0x34
 1925 0135 00       		.byte	0
ARM GAS  /tmp/ccGUuh4o.s 			page 35


 1926 0136 03       		.uleb128 0x3
 1927 0137 08       		.uleb128 0x8
 1928 0138 3A       		.uleb128 0x3a
 1929 0139 0B       		.uleb128 0xb
 1930 013a 3B       		.uleb128 0x3b
 1931 013b 0B       		.uleb128 0xb
 1932 013c 49       		.uleb128 0x49
 1933 013d 13       		.uleb128 0x13
 1934 013e 1C       		.uleb128 0x1c
 1935 013f 06       		.uleb128 0x6
 1936 0140 00       		.byte	0
 1937 0141 00       		.byte	0
 1938 0142 1A       		.uleb128 0x1a
 1939 0143 05       		.uleb128 0x5
 1940 0144 00       		.byte	0
 1941 0145 03       		.uleb128 0x3
 1942 0146 0E       		.uleb128 0xe
 1943 0147 3A       		.uleb128 0x3a
 1944 0148 0B       		.uleb128 0xb
 1945 0149 3B       		.uleb128 0x3b
 1946 014a 0B       		.uleb128 0xb
 1947 014b 49       		.uleb128 0x49
 1948 014c 13       		.uleb128 0x13
 1949 014d 02       		.uleb128 0x2
 1950 014e 17       		.uleb128 0x17
 1951 014f 00       		.byte	0
 1952 0150 00       		.byte	0
 1953 0151 1B       		.uleb128 0x1b
 1954 0152 05       		.uleb128 0x5
 1955 0153 00       		.byte	0
 1956 0154 03       		.uleb128 0x3
 1957 0155 0E       		.uleb128 0xe
 1958 0156 3A       		.uleb128 0x3a
 1959 0157 0B       		.uleb128 0xb
 1960 0158 3B       		.uleb128 0x3b
 1961 0159 0B       		.uleb128 0xb
 1962 015a 49       		.uleb128 0x49
 1963 015b 13       		.uleb128 0x13
 1964 015c 02       		.uleb128 0x2
 1965 015d 18       		.uleb128 0x18
 1966 015e 00       		.byte	0
 1967 015f 00       		.byte	0
 1968 0160 1C       		.uleb128 0x1c
 1969 0161 34       		.uleb128 0x34
 1970 0162 00       		.byte	0
 1971 0163 03       		.uleb128 0x3
 1972 0164 08       		.uleb128 0x8
 1973 0165 3A       		.uleb128 0x3a
 1974 0166 0B       		.uleb128 0xb
 1975 0167 3B       		.uleb128 0x3b
 1976 0168 0B       		.uleb128 0xb
 1977 0169 49       		.uleb128 0x49
 1978 016a 13       		.uleb128 0x13
 1979 016b 02       		.uleb128 0x2
 1980 016c 17       		.uleb128 0x17
 1981 016d 00       		.byte	0
 1982 016e 00       		.byte	0
ARM GAS  /tmp/ccGUuh4o.s 			page 36


 1983 016f 1D       		.uleb128 0x1d
 1984 0170 2E       		.uleb128 0x2e
 1985 0171 01       		.byte	0x1
 1986 0172 31       		.uleb128 0x31
 1987 0173 13       		.uleb128 0x13
 1988 0174 11       		.uleb128 0x11
 1989 0175 01       		.uleb128 0x1
 1990 0176 12       		.uleb128 0x12
 1991 0177 06       		.uleb128 0x6
 1992 0178 40       		.uleb128 0x40
 1993 0179 18       		.uleb128 0x18
 1994 017a 9742     		.uleb128 0x2117
 1995 017c 19       		.uleb128 0x19
 1996 017d 01       		.uleb128 0x1
 1997 017e 13       		.uleb128 0x13
 1998 017f 00       		.byte	0
 1999 0180 00       		.byte	0
 2000 0181 1E       		.uleb128 0x1e
 2001 0182 05       		.uleb128 0x5
 2002 0183 00       		.byte	0
 2003 0184 31       		.uleb128 0x31
 2004 0185 13       		.uleb128 0x13
 2005 0186 02       		.uleb128 0x2
 2006 0187 17       		.uleb128 0x17
 2007 0188 00       		.byte	0
 2008 0189 00       		.byte	0
 2009 018a 1F       		.uleb128 0x1f
 2010 018b 34       		.uleb128 0x34
 2011 018c 00       		.byte	0
 2012 018d 31       		.uleb128 0x31
 2013 018e 13       		.uleb128 0x13
 2014 018f 1C       		.uleb128 0x1c
 2015 0190 06       		.uleb128 0x6
 2016 0191 00       		.byte	0
 2017 0192 00       		.byte	0
 2018 0193 20       		.uleb128 0x20
 2019 0194 34       		.uleb128 0x34
 2020 0195 00       		.byte	0
 2021 0196 31       		.uleb128 0x31
 2022 0197 13       		.uleb128 0x13
 2023 0198 02       		.uleb128 0x2
 2024 0199 17       		.uleb128 0x17
 2025 019a 00       		.byte	0
 2026 019b 00       		.byte	0
 2027 019c 21       		.uleb128 0x21
 2028 019d 0B       		.uleb128 0xb
 2029 019e 01       		.byte	0x1
 2030 019f 11       		.uleb128 0x11
 2031 01a0 01       		.uleb128 0x1
 2032 01a1 12       		.uleb128 0x12
 2033 01a2 06       		.uleb128 0x6
 2034 01a3 00       		.byte	0
 2035 01a4 00       		.byte	0
 2036 01a5 22       		.uleb128 0x22
 2037 01a6 34       		.uleb128 0x34
 2038 01a7 00       		.byte	0
 2039 01a8 31       		.uleb128 0x31
ARM GAS  /tmp/ccGUuh4o.s 			page 37


 2040 01a9 13       		.uleb128 0x13
 2041 01aa 00       		.byte	0
 2042 01ab 00       		.byte	0
 2043 01ac 23       		.uleb128 0x23
 2044 01ad 05       		.uleb128 0x5
 2045 01ae 00       		.byte	0
 2046 01af 03       		.uleb128 0x3
 2047 01b0 08       		.uleb128 0x8
 2048 01b1 3A       		.uleb128 0x3a
 2049 01b2 0B       		.uleb128 0xb
 2050 01b3 3B       		.uleb128 0x3b
 2051 01b4 0B       		.uleb128 0xb
 2052 01b5 49       		.uleb128 0x49
 2053 01b6 13       		.uleb128 0x13
 2054 01b7 02       		.uleb128 0x2
 2055 01b8 17       		.uleb128 0x17
 2056 01b9 00       		.byte	0
 2057 01ba 00       		.byte	0
 2058 01bb 24       		.uleb128 0x24
 2059 01bc 898201   		.uleb128 0x4109
 2060 01bf 01       		.byte	0x1
 2061 01c0 11       		.uleb128 0x11
 2062 01c1 01       		.uleb128 0x1
 2063 01c2 31       		.uleb128 0x31
 2064 01c3 13       		.uleb128 0x13
 2065 01c4 01       		.uleb128 0x1
 2066 01c5 13       		.uleb128 0x13
 2067 01c6 00       		.byte	0
 2068 01c7 00       		.byte	0
 2069 01c8 25       		.uleb128 0x25
 2070 01c9 8A8201   		.uleb128 0x410a
 2071 01cc 00       		.byte	0
 2072 01cd 02       		.uleb128 0x2
 2073 01ce 18       		.uleb128 0x18
 2074 01cf 9142     		.uleb128 0x2111
 2075 01d1 18       		.uleb128 0x18
 2076 01d2 00       		.byte	0
 2077 01d3 00       		.byte	0
 2078 01d4 26       		.uleb128 0x26
 2079 01d5 898201   		.uleb128 0x4109
 2080 01d8 01       		.byte	0x1
 2081 01d9 11       		.uleb128 0x11
 2082 01da 01       		.uleb128 0x1
 2083 01db 9542     		.uleb128 0x2115
 2084 01dd 19       		.uleb128 0x19
 2085 01de 31       		.uleb128 0x31
 2086 01df 13       		.uleb128 0x13
 2087 01e0 00       		.byte	0
 2088 01e1 00       		.byte	0
 2089 01e2 27       		.uleb128 0x27
 2090 01e3 34       		.uleb128 0x34
 2091 01e4 00       		.byte	0
 2092 01e5 03       		.uleb128 0x3
 2093 01e6 0E       		.uleb128 0xe
 2094 01e7 3A       		.uleb128 0x3a
 2095 01e8 0B       		.uleb128 0xb
 2096 01e9 3B       		.uleb128 0x3b
ARM GAS  /tmp/ccGUuh4o.s 			page 38


 2097 01ea 05       		.uleb128 0x5
 2098 01eb 49       		.uleb128 0x49
 2099 01ec 13       		.uleb128 0x13
 2100 01ed 3F       		.uleb128 0x3f
 2101 01ee 19       		.uleb128 0x19
 2102 01ef 3C       		.uleb128 0x3c
 2103 01f0 19       		.uleb128 0x19
 2104 01f1 00       		.byte	0
 2105 01f2 00       		.byte	0
 2106 01f3 28       		.uleb128 0x28
 2107 01f4 2E       		.uleb128 0x2e
 2108 01f5 01       		.byte	0x1
 2109 01f6 3F       		.uleb128 0x3f
 2110 01f7 19       		.uleb128 0x19
 2111 01f8 03       		.uleb128 0x3
 2112 01f9 0E       		.uleb128 0xe
 2113 01fa 3A       		.uleb128 0x3a
 2114 01fb 0B       		.uleb128 0xb
 2115 01fc 3B       		.uleb128 0x3b
 2116 01fd 0B       		.uleb128 0xb
 2117 01fe 27       		.uleb128 0x27
 2118 01ff 19       		.uleb128 0x19
 2119 0200 49       		.uleb128 0x49
 2120 0201 13       		.uleb128 0x13
 2121 0202 3C       		.uleb128 0x3c
 2122 0203 19       		.uleb128 0x19
 2123 0204 00       		.byte	0
 2124 0205 00       		.byte	0
 2125 0206 29       		.uleb128 0x29
 2126 0207 18       		.uleb128 0x18
 2127 0208 00       		.byte	0
 2128 0209 00       		.byte	0
 2129 020a 00       		.byte	0
 2130 020b 00       		.byte	0
 2131              		.section	.debug_loc,"",%progbits
 2132              	.Ldebug_loc0:
 2133              	.LLST0:
 2134 0000 00000000 		.4byte	.LVL1
 2135 0004 14000000 		.4byte	.LVL2
 2136 0008 0100     		.2byte	0x1
 2137 000a 50       		.byte	0x50
 2138 000b 14000000 		.4byte	.LVL2
 2139 000f 1E000000 		.4byte	.LVL4
 2140 0013 0400     		.2byte	0x4
 2141 0015 F3       		.byte	0xf3
 2142 0016 01       		.uleb128 0x1
 2143 0017 50       		.byte	0x50
 2144 0018 9F       		.byte	0x9f
 2145 0019 1E000000 		.4byte	.LVL4
 2146 001d 2C000000 		.4byte	.LFE64
 2147 0021 0100     		.2byte	0x1
 2148 0023 50       		.byte	0x50
 2149 0024 00000000 		.4byte	0
 2150 0028 00000000 		.4byte	0
 2151              	.LLST1:
 2152 002c 18000000 		.4byte	.LVL3
 2153 0030 1E000000 		.4byte	.LVL4
ARM GAS  /tmp/ccGUuh4o.s 			page 39


 2154 0034 0800     		.2byte	0x8
 2155 0036 70       		.byte	0x70
 2156 0037 00       		.sleb128 0
 2157 0038 32       		.byte	0x32
 2158 0039 24       		.byte	0x24
 2159 003a 73       		.byte	0x73
 2160 003b 00       		.sleb128 0
 2161 003c 22       		.byte	0x22
 2162 003d 9F       		.byte	0x9f
 2163 003e 26000000 		.4byte	.LVL5
 2164 0042 2C000000 		.4byte	.LFE64
 2165 0046 0800     		.2byte	0x8
 2166 0048 70       		.byte	0x70
 2167 0049 00       		.sleb128 0
 2168 004a 32       		.byte	0x32
 2169 004b 24       		.byte	0x24
 2170 004c 73       		.byte	0x73
 2171 004d 00       		.sleb128 0
 2172 004e 22       		.byte	0x22
 2173 004f 9F       		.byte	0x9f
 2174 0050 00000000 		.4byte	0
 2175 0054 00000000 		.4byte	0
 2176              	.LLST2:
 2177 0058 00000000 		.4byte	.LVL6
 2178 005c 14000000 		.4byte	.LVL8
 2179 0060 0100     		.2byte	0x1
 2180 0062 50       		.byte	0x50
 2181 0063 14000000 		.4byte	.LVL8
 2182 0067 24000000 		.4byte	.LVL11
 2183 006b 0400     		.2byte	0x4
 2184 006d F3       		.byte	0xf3
 2185 006e 01       		.uleb128 0x1
 2186 006f 50       		.byte	0x50
 2187 0070 9F       		.byte	0x9f
 2188 0071 24000000 		.4byte	.LVL11
 2189 0075 30000000 		.4byte	.LVL13
 2190 0079 0100     		.2byte	0x1
 2191 007b 50       		.byte	0x50
 2192 007c 30000000 		.4byte	.LVL13
 2193 0080 34000000 		.4byte	.LFE65
 2194 0084 0400     		.2byte	0x4
 2195 0086 F3       		.byte	0xf3
 2196 0087 01       		.uleb128 0x1
 2197 0088 50       		.byte	0x50
 2198 0089 9F       		.byte	0x9f
 2199 008a 00000000 		.4byte	0
 2200 008e 00000000 		.4byte	0
 2201              	.LLST3:
 2202 0092 2C000000 		.4byte	.LVL12
 2203 0096 30000000 		.4byte	.LVL13
 2204 009a 0800     		.2byte	0x8
 2205 009c 70       		.byte	0x70
 2206 009d 00       		.sleb128 0
 2207 009e 32       		.byte	0x32
 2208 009f 24       		.byte	0x24
 2209 00a0 73       		.byte	0x73
 2210 00a1 00       		.sleb128 0
ARM GAS  /tmp/ccGUuh4o.s 			page 40


 2211 00a2 22       		.byte	0x22
 2212 00a3 9F       		.byte	0x9f
 2213 00a4 00000000 		.4byte	0
 2214 00a8 00000000 		.4byte	0
 2215              	.LLST4:
 2216 00ac 0C000000 		.4byte	.LVL7
 2217 00b0 14000000 		.4byte	.LVL8
 2218 00b4 0100     		.2byte	0x1
 2219 00b6 50       		.byte	0x50
 2220 00b7 00000000 		.4byte	0
 2221 00bb 00000000 		.4byte	0
 2222              	.LLST5:
 2223 00bf 18000000 		.4byte	.LVL9
 2224 00c3 1C000000 		.4byte	.LVL10
 2225 00c7 0800     		.2byte	0x8
 2226 00c9 70       		.byte	0x70
 2227 00ca 00       		.sleb128 0
 2228 00cb 32       		.byte	0x32
 2229 00cc 24       		.byte	0x24
 2230 00cd 73       		.byte	0x73
 2231 00ce 00       		.sleb128 0
 2232 00cf 22       		.byte	0x22
 2233 00d0 9F       		.byte	0x9f
 2234 00d1 00000000 		.4byte	0
 2235 00d5 00000000 		.4byte	0
 2236              	.LLST6:
 2237 00d9 00000000 		.4byte	.LVL14
 2238 00dd 0F000000 		.4byte	.LVL16-1
 2239 00e1 0100     		.2byte	0x1
 2240 00e3 50       		.byte	0x50
 2241 00e4 0F000000 		.4byte	.LVL16-1
 2242 00e8 BA000000 		.4byte	.LVL32
 2243 00ec 0100     		.2byte	0x1
 2244 00ee 55       		.byte	0x55
 2245 00ef BA000000 		.4byte	.LVL32
 2246 00f3 BD000000 		.4byte	.LVL33-1
 2247 00f7 0100     		.2byte	0x1
 2248 00f9 50       		.byte	0x50
 2249 00fa BD000000 		.4byte	.LVL33-1
 2250 00fe BE000000 		.4byte	.LFE66
 2251 0102 0400     		.2byte	0x4
 2252 0104 F3       		.byte	0xf3
 2253 0105 01       		.uleb128 0x1
 2254 0106 50       		.byte	0x50
 2255 0107 9F       		.byte	0x9f
 2256 0108 00000000 		.4byte	0
 2257 010c 00000000 		.4byte	0
 2258              	.LLST7:
 2259 0110 00000000 		.4byte	.LVL14
 2260 0114 04000000 		.4byte	.LVL15
 2261 0118 0100     		.2byte	0x1
 2262 011a 51       		.byte	0x51
 2263 011b 04000000 		.4byte	.LVL15
 2264 011f BE000000 		.4byte	.LFE66
 2265 0123 0400     		.2byte	0x4
 2266 0125 F3       		.byte	0xf3
 2267 0126 01       		.uleb128 0x1
ARM GAS  /tmp/ccGUuh4o.s 			page 41


 2268 0127 51       		.byte	0x51
 2269 0128 9F       		.byte	0x9f
 2270 0129 00000000 		.4byte	0
 2271 012d 00000000 		.4byte	0
 2272              	.LLST8:
 2273 0131 00000000 		.4byte	.LVL14
 2274 0135 0F000000 		.4byte	.LVL16-1
 2275 0139 0100     		.2byte	0x1
 2276 013b 52       		.byte	0x52
 2277 013c 0F000000 		.4byte	.LVL16-1
 2278 0140 BE000000 		.4byte	.LFE66
 2279 0144 0400     		.2byte	0x4
 2280 0146 F3       		.byte	0xf3
 2281 0147 01       		.uleb128 0x1
 2282 0148 52       		.byte	0x52
 2283 0149 9F       		.byte	0x9f
 2284 014a 00000000 		.4byte	0
 2285 014e 00000000 		.4byte	0
 2286              	.LLST9:
 2287 0152 1E000000 		.4byte	.LVL17
 2288 0156 20000000 		.4byte	.LVL18
 2289 015a 0200     		.2byte	0x2
 2290 015c 30       		.byte	0x30
 2291 015d 9F       		.byte	0x9f
 2292 015e 20000000 		.4byte	.LVL18
 2293 0162 2E000000 		.4byte	.LVL20
 2294 0166 0100     		.2byte	0x1
 2295 0168 54       		.byte	0x54
 2296 0169 2E000000 		.4byte	.LVL20
 2297 016d 38000000 		.4byte	.LVL21
 2298 0171 0300     		.2byte	0x3
 2299 0173 74       		.byte	0x74
 2300 0174 7F       		.sleb128 -1
 2301 0175 9F       		.byte	0x9f
 2302 0176 38000000 		.4byte	.LVL21
 2303 017a 66000000 		.4byte	.LVL25
 2304 017e 0100     		.2byte	0x1
 2305 0180 54       		.byte	0x54
 2306 0181 66000000 		.4byte	.LVL25
 2307 0185 70000000 		.4byte	.LVL26
 2308 0189 0300     		.2byte	0x3
 2309 018b 74       		.byte	0x74
 2310 018c 7F       		.sleb128 -1
 2311 018d 9F       		.byte	0x9f
 2312 018e 70000000 		.4byte	.LVL26
 2313 0192 9E000000 		.4byte	.LVL30
 2314 0196 0100     		.2byte	0x1
 2315 0198 54       		.byte	0x54
 2316 0199 9E000000 		.4byte	.LVL30
 2317 019d A8000000 		.4byte	.LVL31
 2318 01a1 0300     		.2byte	0x3
 2319 01a3 74       		.byte	0x74
 2320 01a4 7F       		.sleb128 -1
 2321 01a5 9F       		.byte	0x9f
 2322 01a6 A8000000 		.4byte	.LVL31
 2323 01aa BA000000 		.4byte	.LVL32
 2324 01ae 0100     		.2byte	0x1
ARM GAS  /tmp/ccGUuh4o.s 			page 42


 2325 01b0 54       		.byte	0x54
 2326 01b1 00000000 		.4byte	0
 2327 01b5 00000000 		.4byte	0
 2328              		.section	.debug_aranges,"",%progbits
 2329 0000 34000000 		.4byte	0x34
 2330 0004 0200     		.2byte	0x2
 2331 0006 00000000 		.4byte	.Ldebug_info0
 2332 000a 04       		.byte	0x4
 2333 000b 00       		.byte	0
 2334 000c 0000     		.2byte	0
 2335 000e 0000     		.2byte	0
 2336 0010 00000000 		.4byte	.LFB63
 2337 0014 22000000 		.4byte	.LFE63-.LFB63
 2338 0018 00000000 		.4byte	.LFB64
 2339 001c 2C000000 		.4byte	.LFE64-.LFB64
 2340 0020 00000000 		.4byte	.LFB65
 2341 0024 34000000 		.4byte	.LFE65-.LFB65
 2342 0028 00000000 		.4byte	.LFB66
 2343 002c BE000000 		.4byte	.LFE66-.LFB66
 2344 0030 00000000 		.4byte	0
 2345 0034 00000000 		.4byte	0
 2346              		.section	.debug_ranges,"",%progbits
 2347              	.Ldebug_ranges0:
 2348 0000 00000000 		.4byte	.LFB63
 2349 0004 22000000 		.4byte	.LFE63
 2350 0008 00000000 		.4byte	.LFB64
 2351 000c 2C000000 		.4byte	.LFE64
 2352 0010 00000000 		.4byte	.LFB65
 2353 0014 34000000 		.4byte	.LFE65
 2354 0018 00000000 		.4byte	.LFB66
 2355 001c BE000000 		.4byte	.LFE66
 2356 0020 00000000 		.4byte	0
 2357 0024 00000000 		.4byte	0
 2358              		.section	.debug_line,"",%progbits
 2359              	.Ldebug_line0:
 2360 0000 80020000 		.section	.debug_str,"MS",%progbits,1
 2360      0200D301 
 2360      00000201 
 2360      FB0E0D00 
 2360      01010101 
 2361              	.LASF2:
 2362 0000 73697A65 		.ascii	"size_t\000"
 2362      5F7400
 2363              	.LASF3:
 2364 0007 5F5F7569 		.ascii	"__uint8_t\000"
 2364      6E74385F 
 2364      7400
 2365              	.LASF14:
 2366 0011 6C6F6E67 		.ascii	"long long unsigned int\000"
 2366      206C6F6E 
 2366      6720756E 
 2366      7369676E 
 2366      65642069 
 2367              	.LASF101:
 2368 0028 44523430 		.ascii	"DR40\000"
 2368      00
 2369              	.LASF103:
ARM GAS  /tmp/ccGUuh4o.s 			page 43


 2370 002d 44523431 		.ascii	"DR41\000"
 2370      00
 2371              	.LASF105:
 2372 0032 44523432 		.ascii	"DR42\000"
 2372      00
 2373              	.LASF130:
 2374 0037 49544D5F 		.ascii	"ITM_RxBuffer\000"
 2374      52784275 
 2374      66666572 
 2374      00
 2375              	.LASF89:
 2376 0044 44523334 		.ascii	"DR34\000"
 2376      00
 2377              	.LASF16:
 2378 0049 696E7431 		.ascii	"int16_t\000"
 2378      365F7400 
 2379              	.LASF13:
 2380 0051 6C6F6E67 		.ascii	"long long int\000"
 2380      206C6F6E 
 2380      6720696E 
 2380      7400
 2381              	.LASF1:
 2382 005f 7369676E 		.ascii	"signed char\000"
 2382      65642063 
 2382      68617200 
 2383              	.LASF129:
 2384 006b 76657842 		.ascii	"vexBkupRegisterRead\000"
 2384      6B757052 
 2384      65676973 
 2384      74657252 
 2384      65616400 
 2385              	.LASF107:
 2386 007f 424B505F 		.ascii	"BKP_TypeDef\000"
 2386      54797065 
 2386      44656600 
 2387              	.LASF38:
 2388 008b 52455345 		.ascii	"RESERVED10\000"
 2388      52564544 
 2388      313000
 2389              	.LASF40:
 2390 0096 52455345 		.ascii	"RESERVED11\000"
 2390      52564544 
 2390      313100
 2391              	.LASF41:
 2392 00a1 52455345 		.ascii	"RESERVED12\000"
 2392      52564544 
 2392      313200
 2393              	.LASF42:
 2394 00ac 52455345 		.ascii	"RESERVED13\000"
 2394      52564544 
 2394      313300
 2395              	.LASF44:
 2396 00b7 52455345 		.ascii	"RESERVED14\000"
 2396      52564544 
 2396      313400
 2397              	.LASF46:
 2398 00c2 52455345 		.ascii	"RESERVED15\000"
ARM GAS  /tmp/ccGUuh4o.s 			page 44


 2398      52564544 
 2398      313500
 2399              	.LASF48:
 2400 00cd 52455345 		.ascii	"RESERVED16\000"
 2400      52564544 
 2400      313600
 2401              	.LASF50:
 2402 00d8 52455345 		.ascii	"RESERVED17\000"
 2402      52564544 
 2402      313700
 2403              	.LASF52:
 2404 00e3 52455345 		.ascii	"RESERVED18\000"
 2404      52564544 
 2404      313800
 2405              	.LASF54:
 2406 00ee 52455345 		.ascii	"RESERVED19\000"
 2406      52564544 
 2406      313900
 2407              	.LASF10:
 2408 00f9 6C6F6E67 		.ascii	"long int\000"
 2408      20696E74 
 2408      00
 2409              	.LASF110:
 2410 0102 41504232 		.ascii	"APB2RSTR\000"
 2410      52535452 
 2410      00
 2411              	.LASF118:
 2412 010b 76657842 		.ascii	"vexBkupInit\000"
 2412      6B757049 
 2412      6E697400 
 2413              	.LASF17:
 2414 0117 75696E74 		.ascii	"uint16_t\000"
 2414      31365F74 
 2414      00
 2415              	.LASF131:
 2416 0120 7665785F 		.ascii	"vex_chprintf\000"
 2416      63687072 
 2416      696E7466 
 2416      00
 2417              	.LASF11:
 2418 012d 5F5F7569 		.ascii	"__uint32_t\000"
 2418      6E743332 
 2418      5F7400
 2419              	.LASF5:
 2420 0138 5F5F696E 		.ascii	"__int16_t\000"
 2420      7431365F 
 2420      7400
 2421              	.LASF56:
 2422 0142 52455345 		.ascii	"RESERVED20\000"
 2422      52564544 
 2422      323000
 2423              	.LASF58:
 2424 014d 52455345 		.ascii	"RESERVED21\000"
 2424      52564544 
 2424      323100
 2425              	.LASF60:
 2426 0158 52455345 		.ascii	"RESERVED22\000"
ARM GAS  /tmp/ccGUuh4o.s 			page 45


 2426      52564544 
 2426      323200
 2427              	.LASF62:
 2428 0163 52455345 		.ascii	"RESERVED23\000"
 2428      52564544 
 2428      323300
 2429              	.LASF26:
 2430 016e 42617365 		.ascii	"BaseSequentialStream\000"
 2430      53657175 
 2430      656E7469 
 2430      616C5374 
 2430      7265616D 
 2431              	.LASF66:
 2432 0183 52455345 		.ascii	"RESERVED25\000"
 2432      52564544 
 2432      323500
 2433              	.LASF68:
 2434 018e 52455345 		.ascii	"RESERVED26\000"
 2434      52564544 
 2434      323600
 2435              	.LASF70:
 2436 0199 52455345 		.ascii	"RESERVED27\000"
 2436      52564544 
 2436      323700
 2437              	.LASF72:
 2438 01a4 52455345 		.ascii	"RESERVED28\000"
 2438      52564544 
 2438      323800
 2439              	.LASF74:
 2440 01af 52455345 		.ascii	"RESERVED29\000"
 2440      52564544 
 2440      323900
 2441              	.LASF0:
 2442 01ba 756E7369 		.ascii	"unsigned int\000"
 2442      676E6564 
 2442      20696E74 
 2442      00
 2443              	.LASF122:
 2444 01c7 76657842 		.ascii	"vexBkupDebug\000"
 2444      6B757044 
 2444      65627567 
 2444      00
 2445              	.LASF12:
 2446 01d4 6C6F6E67 		.ascii	"long unsigned int\000"
 2446      20756E73 
 2446      69676E65 
 2446      6420696E 
 2446      7400
 2447              	.LASF116:
 2448 01e6 5243435F 		.ascii	"RCC_TypeDef\000"
 2448      54797065 
 2448      44656600 
 2449              	.LASF127:
 2450 01f2 2F6D6E74 		.ascii	"/mnt/c/Users/DQ Sullivan/Downloads/Convex/convex/co"
 2450      2F632F55 
 2450      73657273 
 2450      2F445120 
ARM GAS  /tmp/ccGUuh4o.s 			page 46


 2450      53756C6C 
 2451 0225 72746578 		.ascii	"rtex/projects/Vex2016 CyberBrains\000"
 2451      2F70726F 
 2451      6A656374 
 2451      732F5665 
 2451      78323031 
 2452              	.LASF125:
 2453 0247 474E5520 		.ascii	"GNU C 4.8.2 -mcpu=cortex-m3 -mno-thumb-interwork -m"
 2453      4320342E 
 2453      382E3220 
 2453      2D6D6370 
 2453      753D636F 
 2454 027a 7468756D 		.ascii	"thumb -ggdb -O2 -fomit-frame-pointer -falign-functi"
 2454      62202D67 
 2454      67646220 
 2454      2D4F3220 
 2454      2D666F6D 
 2455 02ad 6F6E733D 		.ascii	"ons=16 -ffunction-sections -fdata-sections -fno-com"
 2455      3136202D 
 2455      6666756E 
 2455      6374696F 
 2455      6E2D7365 
 2456 02e0 6D6F6E00 		.ascii	"mon\000"
 2457              	.LASF121:
 2458 02e4 64617461 		.ascii	"data\000"
 2458      00
 2459              	.LASF8:
 2460 02e9 73686F72 		.ascii	"short unsigned int\000"
 2460      7420756E 
 2460      7369676E 
 2460      65642069 
 2460      6E7400
 2461              	.LASF21:
 2462 02fc 6D73675F 		.ascii	"msg_t\000"
 2462      7400
 2463              	.LASF126:
 2464 0302 2E2E2F2E 		.ascii	"../../fw/vexbkup.c\000"
 2464      2E2F6677 
 2464      2F766578 
 2464      626B7570 
 2464      2E6300
 2465              	.LASF76:
 2466 0315 52455345 		.ascii	"RESERVED30\000"
 2466      52564544 
 2466      333000
 2467              	.LASF78:
 2468 0320 52455345 		.ascii	"RESERVED31\000"
 2468      52564544 
 2468      333100
 2469              	.LASF80:
 2470 032b 52455345 		.ascii	"RESERVED32\000"
 2470      52564544 
 2470      333200
 2471              	.LASF82:
 2472 0336 52455345 		.ascii	"RESERVED33\000"
 2472      52564544 
 2472      333300
ARM GAS  /tmp/ccGUuh4o.s 			page 47


 2473              	.LASF84:
 2474 0341 52455345 		.ascii	"RESERVED34\000"
 2474      52564544 
 2474      333400
 2475              	.LASF86:
 2476 034c 52455345 		.ascii	"RESERVED35\000"
 2476      52564544 
 2476      333500
 2477              	.LASF88:
 2478 0357 52455345 		.ascii	"RESERVED36\000"
 2478      52564544 
 2478      333600
 2479              	.LASF90:
 2480 0362 52455345 		.ascii	"RESERVED37\000"
 2480      52564544 
 2480      333700
 2481              	.LASF92:
 2482 036d 52455345 		.ascii	"RESERVED38\000"
 2482      52564544 
 2482      333800
 2483              	.LASF94:
 2484 0378 52455345 		.ascii	"RESERVED39\000"
 2484      52564544 
 2484      333900
 2485              	.LASF24:
 2486 0383 77726974 		.ascii	"write\000"
 2486      6500
 2487              	.LASF47:
 2488 0389 44523133 		.ascii	"DR13\000"
 2488      00
 2489              	.LASF22:
 2490 038e 73697A65 		.ascii	"sizetype\000"
 2490      74797065 
 2490      00
 2491              	.LASF96:
 2492 0397 52455345 		.ascii	"RESERVED40\000"
 2492      52564544 
 2492      343000
 2493              	.LASF98:
 2494 03a2 52455345 		.ascii	"RESERVED41\000"
 2494      52564544 
 2494      343100
 2495              	.LASF111:
 2496 03ad 41504231 		.ascii	"APB1RSTR\000"
 2496      52535452 
 2496      00
 2497              	.LASF102:
 2498 03b6 52455345 		.ascii	"RESERVED43\000"
 2498      52564544 
 2498      343300
 2499              	.LASF104:
 2500 03c1 52455345 		.ascii	"RESERVED44\000"
 2500      52564544 
 2500      343400
 2501              	.LASF106:
 2502 03cc 52455345 		.ascii	"RESERVED45\000"
 2502      52564544 
ARM GAS  /tmp/ccGUuh4o.s 			page 48


 2502      343500
 2503              	.LASF39:
 2504 03d7 52544343 		.ascii	"RTCCR\000"
 2504      5200
 2505              	.LASF27:
 2506 03dd 52455345 		.ascii	"RESERVED0\000"
 2506      52564544 
 2506      3000
 2507              	.LASF28:
 2508 03e7 52455345 		.ascii	"RESERVED1\000"
 2508      52564544 
 2508      3100
 2509              	.LASF29:
 2510 03f1 52455345 		.ascii	"RESERVED2\000"
 2510      52564544 
 2510      3200
 2511              	.LASF30:
 2512 03fb 52455345 		.ascii	"RESERVED3\000"
 2512      52564544 
 2512      3300
 2513              	.LASF31:
 2514 0405 52455345 		.ascii	"RESERVED4\000"
 2514      52564544 
 2514      3400
 2515              	.LASF32:
 2516 040f 52455345 		.ascii	"RESERVED5\000"
 2516      52564544 
 2516      3500
 2517              	.LASF33:
 2518 0419 52455345 		.ascii	"RESERVED6\000"
 2518      52564544 
 2518      3600
 2519              	.LASF34:
 2520 0423 52455345 		.ascii	"RESERVED7\000"
 2520      52564544 
 2520      3700
 2521              	.LASF35:
 2522 042d 52455345 		.ascii	"RESERVED8\000"
 2522      52564544 
 2522      3800
 2523              	.LASF119:
 2524 0437 76657842 		.ascii	"vexBkupRegisterWrite\000"
 2524      6B757052 
 2524      65676973 
 2524      74657257 
 2524      72697465 
 2525              	.LASF20:
 2526 044c 5F426F6F 		.ascii	"_Bool\000"
 2526      6C00
 2527              	.LASF18:
 2528 0452 696E7433 		.ascii	"int32_t\000"
 2528      325F7400 
 2529              	.LASF4:
 2530 045a 756E7369 		.ascii	"unsigned char\000"
 2530      676E6564 
 2530      20636861 
 2530      7200
ARM GAS  /tmp/ccGUuh4o.s 			page 49


 2531              	.LASF100:
 2532 0468 52455345 		.ascii	"RESERVED42\000"
 2532      52564544 
 2532      343200
 2533              	.LASF6:
 2534 0473 73686F72 		.ascii	"short int\000"
 2534      7420696E 
 2534      7400
 2535              	.LASF128:
 2536 047d 42617365 		.ascii	"BaseSequentialStreamVMT\000"
 2536      53657175 
 2536      656E7469 
 2536      616C5374 
 2536      7265616D 
 2537              	.LASF37:
 2538 0495 44523130 		.ascii	"DR10\000"
 2538      00
 2539              	.LASF43:
 2540 049a 44523131 		.ascii	"DR11\000"
 2540      00
 2541              	.LASF45:
 2542 049f 44523132 		.ascii	"DR12\000"
 2542      00
 2543              	.LASF113:
 2544 04a4 41504232 		.ascii	"APB2ENR\000"
 2544      454E5200 
 2545              	.LASF49:
 2546 04ac 44523134 		.ascii	"DR14\000"
 2546      00
 2547              	.LASF51:
 2548 04b1 44523135 		.ascii	"DR15\000"
 2548      00
 2549              	.LASF53:
 2550 04b6 44523136 		.ascii	"DR16\000"
 2550      00
 2551              	.LASF55:
 2552 04bb 44523137 		.ascii	"DR17\000"
 2552      00
 2553              	.LASF57:
 2554 04c0 44523138 		.ascii	"DR18\000"
 2554      00
 2555              	.LASF59:
 2556 04c5 44523139 		.ascii	"DR19\000"
 2556      00
 2557              	.LASF19:
 2558 04ca 75696E74 		.ascii	"uint32_t\000"
 2558      33325F74 
 2558      00
 2559              	.LASF36:
 2560 04d3 52455345 		.ascii	"RESERVED9\000"
 2560      52564544 
 2560      3900
 2561              	.LASF23:
 2562 04dd 63686172 		.ascii	"char\000"
 2562      00
 2563              	.LASF7:
 2564 04e2 5F5F7569 		.ascii	"__uint16_t\000"
ARM GAS  /tmp/ccGUuh4o.s 			page 50


 2564      6E743136 
 2564      5F7400
 2565              	.LASF120:
 2566 04ed 696E6465 		.ascii	"index\000"
 2566      7800
 2567              	.LASF9:
 2568 04f3 5F5F696E 		.ascii	"__int32_t\000"
 2568      7433325F 
 2568      7400
 2569              	.LASF114:
 2570 04fd 41504231 		.ascii	"APB1ENR\000"
 2570      454E5200 
 2571              	.LASF108:
 2572 0505 5057525F 		.ascii	"PWR_TypeDef\000"
 2572      54797065 
 2572      44656600 
 2573              	.LASF117:
 2574 0511 76657853 		.ascii	"vexStream\000"
 2574      74726561 
 2574      6D00
 2575              	.LASF61:
 2576 051b 44523230 		.ascii	"DR20\000"
 2576      00
 2577              	.LASF63:
 2578 0520 44523231 		.ascii	"DR21\000"
 2578      00
 2579              	.LASF65:
 2580 0525 44523232 		.ascii	"DR22\000"
 2580      00
 2581              	.LASF67:
 2582 052a 44523233 		.ascii	"DR23\000"
 2582      00
 2583              	.LASF69:
 2584 052f 44523234 		.ascii	"DR24\000"
 2584      00
 2585              	.LASF71:
 2586 0534 44523235 		.ascii	"DR25\000"
 2586      00
 2587              	.LASF73:
 2588 0539 44523236 		.ascii	"DR26\000"
 2588      00
 2589              	.LASF75:
 2590 053e 44523237 		.ascii	"DR27\000"
 2590      00
 2591              	.LASF77:
 2592 0543 44523238 		.ascii	"DR28\000"
 2592      00
 2593              	.LASF79:
 2594 0548 44523239 		.ascii	"DR29\000"
 2594      00
 2595              	.LASF115:
 2596 054d 42444352 		.ascii	"BDCR\000"
 2596      00
 2597              	.LASF15:
 2598 0552 75696E74 		.ascii	"uint8_t\000"
 2598      385F7400 
 2599              	.LASF25:
ARM GAS  /tmp/ccGUuh4o.s 			page 51


 2600 055a 72656164 		.ascii	"read\000"
 2600      00
 2601              	.LASF123:
 2602 055f 61726763 		.ascii	"argc\000"
 2602      00
 2603              	.LASF109:
 2604 0564 43464752 		.ascii	"CFGR\000"
 2604      00
 2605              	.LASF64:
 2606 0569 52455345 		.ascii	"RESERVED24\000"
 2606      52564544 
 2606      323400
 2607              	.LASF81:
 2608 0574 44523330 		.ascii	"DR30\000"
 2608      00
 2609              	.LASF83:
 2610 0579 44523331 		.ascii	"DR31\000"
 2610      00
 2611              	.LASF85:
 2612 057e 44523332 		.ascii	"DR32\000"
 2612      00
 2613              	.LASF87:
 2614 0583 44523333 		.ascii	"DR33\000"
 2614      00
 2615              	.LASF124:
 2616 0588 61726776 		.ascii	"argv\000"
 2616      00
 2617              	.LASF91:
 2618 058d 44523335 		.ascii	"DR35\000"
 2618      00
 2619              	.LASF93:
 2620 0592 44523336 		.ascii	"DR36\000"
 2620      00
 2621              	.LASF95:
 2622 0597 44523337 		.ascii	"DR37\000"
 2622      00
 2623              	.LASF97:
 2624 059c 44523338 		.ascii	"DR38\000"
 2624      00
 2625              	.LASF99:
 2626 05a1 44523339 		.ascii	"DR39\000"
 2626      00
 2627              	.LASF112:
 2628 05a6 41484245 		.ascii	"AHBENR\000"
 2628      4E5200
 2629              		.ident	"GCC: (4.8.2-14ubuntu1+6) 4.8.2"
ARM GAS  /tmp/ccGUuh4o.s 			page 52


DEFINED SYMBOLS
                            *ABS*:0000000000000000 vexbkup.c
     /tmp/ccGUuh4o.s:19     .text.vexBkupInit:0000000000000000 $t
     /tmp/ccGUuh4o.s:25     .text.vexBkupInit:0000000000000000 vexBkupInit
     /tmp/ccGUuh4o.s:53     .text.vexBkupRegisterWrite:0000000000000000 $t
     /tmp/ccGUuh4o.s:59     .text.vexBkupRegisterWrite:0000000000000000 vexBkupRegisterWrite
     /tmp/ccGUuh4o.s:100    .text.vexBkupRegisterRead:0000000000000000 $t
     /tmp/ccGUuh4o.s:106    .text.vexBkupRegisterRead:0000000000000000 vexBkupRegisterRead
     /tmp/ccGUuh4o.s:160    .text.vexBkupDebug:0000000000000000 $t
     /tmp/ccGUuh4o.s:166    .text.vexBkupDebug:0000000000000000 vexBkupDebug
     /tmp/ccGUuh4o.s:292    .rodata.str1.4:0000000000000000 .LC0
     /tmp/ccGUuh4o.s:295    .rodata.str1.4:0000000000000014 .LC1
     /tmp/ccGUuh4o.s:297    .rodata.str1.4:000000000000001c .LC2
     /tmp/ccGUuh4o.s:300    .rodata.str1.4:0000000000000024 .LC3
     /tmp/ccGUuh4o.s:303    .rodata.str1.4:0000000000000028 .LC4
     /tmp/ccGUuh4o.s:305    .rodata.str1.4:0000000000000030 .LC5
     /tmp/ccGUuh4o.s:291    .rodata.str1.4:0000000000000000 $d
                     .debug_frame:0000000000000010 $d

UNDEFINED SYMBOLS
vex_chprintf
