ARM GAS  /tmp/ccTzRrrl.s 			page 1


   1              		.syntax unified
   2              		.cpu cortex-m3
   3              		.fpu softvfp
   4              		.eabi_attribute 20, 1
   5              		.eabi_attribute 21, 1
   6              		.eabi_attribute 23, 3
   7              		.eabi_attribute 24, 1
   8              		.eabi_attribute 25, 1
   9              		.eabi_attribute 26, 1
  10              		.eabi_attribute 30, 2
  11              		.eabi_attribute 34, 1
  12              		.eabi_attribute 18, 4
  13              		.thumb
  14              		.file	"vexencoder.c"
  15              		.text
  16              	.Ltext0:
  17              		.cfi_sections	.debug_frame
  18              		.section	.text._vqe_4_cb_b,"ax",%progbits
  19              		.align	2
  20              		.p2align 4,,15
  21              		.thumb
  22              		.thumb_func
  23              		.type	_vqe_4_cb_b, %function
  24              	_vqe_4_cb_b:
  25              	.LFB72:
  26              		.file 1 "../../fw/vexencoder.c"
  27              		.loc 1 224 0
  28              		.cfi_startproc
  29              		@ args = 0, pretend = 0, frame = 0
  30              		@ frame_needed = 0, uses_anonymous_args = 0
  31              		@ link register save eliminated.
  32              	.LVL0:
  33 0000 10B4     		push	{r4}
  34              		.cfi_def_cfa_offset 4
  35              		.cfi_offset 4, -4
  36              	.LBB6:
  37              		.loc 1 228 0
  38 0002 2023     		movs	r3, #32
  39              	@ 228 "../../fw/vexencoder.c" 1
  40 0004 83F31188 		msr     BASEPRI, r3
  41              	@ 0 "" 2
  42              	.LVL1:
  43              		.thumb
  44              	.LBE6:
  45              	.LBB7:
  46              	.LBB8:
  47              		.loc 1 96 0
  48 0008 40F20003 		movw	r3, #:lower16:.LANCHOR0
  49 000c C0F20003 		movt	r3, #:upper16:.LANCHOR0
  50 0010 196E     		ldr	r1, [r3, #96]
  51              	.LVL2:
  52              		.loc 1 97 0
  53 0012 9A6E     		ldr	r2, [r3, #104]
  54              		.loc 1 96 0
  55 0014 8C68     		ldr	r4, [r1, #8]
  56              	.LVL3:
  57              		.loc 1 97 0
ARM GAS  /tmp/ccTzRrrl.s 			page 2


  58 0016 9068     		ldr	r0, [r2, #8]
  59              	.LVL4:
  60              		.loc 1 96 0
  61 0018 B3F96410 		ldrsh	r1, [r3, #100]
  62              		.loc 1 97 0
  63 001c B3F96C20 		ldrsh	r2, [r3, #108]
  64              		.loc 1 96 0
  65 0020 24FA01F1 		lsr	r1, r4, r1
  66              		.loc 1 97 0
  67 0024 20FA02F2 		lsr	r2, r0, r2
  68              		.loc 1 100 0
  69 0028 01F00101 		and	r1, r1, #1
  70 002c 02F00102 		and	r2, r2, #1
  71 0030 9142     		cmp	r1, r2
  72 0032 5A6D     		ldr	r2, [r3, #84]
  73 0034 14BF     		ite	ne
  74 0036 0132     		addne	r2, r2, #1
  75 0038 02F1FF32 		addeq	r2, r2, #-1
  76 003c 5A65     		str	r2, [r3, #84]
  77              	.LBE8:
  78              	.LBE7:
  79              	.LBB9:
  80              		.loc 1 233 0
  81 003e 0023     		movs	r3, #0
  82              	@ 233 "../../fw/vexencoder.c" 1
  83 0040 83F31188 		msr     BASEPRI, r3
  84              	@ 0 "" 2
  85              		.thumb
  86              	.LBE9:
  87              		.loc 1 234 0
  88 0044 5DF8044B 		ldr	r4, [sp], #4
  89              	.LVL5:
  90 0048 7047     		bx	lr
  91              		.cfi_endproc
  92              	.LFE72:
  93              		.size	_vqe_4_cb_b, .-_vqe_4_cb_b
  94 004a 00BFAFF3 		.section	.text._vqe_5_cb_a,"ax",%progbits
  94      0080
  95              		.align	2
  96              		.p2align 4,,15
  97              		.thumb
  98              		.thumb_func
  99              		.type	_vqe_5_cb_a, %function
 100              	_vqe_5_cb_a:
 101              	.LFB73:
 102              		.loc 1 238 0
 103              		.cfi_startproc
 104              		@ args = 0, pretend = 0, frame = 0
 105              		@ frame_needed = 0, uses_anonymous_args = 0
 106              		@ link register save eliminated.
 107              	.LVL6:
 108 0000 10B4     		push	{r4}
 109              		.cfi_def_cfa_offset 4
 110              		.cfi_offset 4, -4
 111              	.LBB14:
 112              		.loc 1 242 0
 113 0002 2023     		movs	r3, #32
ARM GAS  /tmp/ccTzRrrl.s 			page 3


 114              	@ 242 "../../fw/vexencoder.c" 1
 115 0004 83F31188 		msr     BASEPRI, r3
 116              	@ 0 "" 2
 117              	.LVL7:
 118              		.thumb
 119              	.LBE14:
 120              	.LBB15:
 121              	.LBB16:
 122              		.loc 1 79 0
 123 0008 40F20003 		movw	r3, #:lower16:.LANCHOR0
 124 000c C0F20003 		movt	r3, #:upper16:.LANCHOR0
 125 0010 D96F     		ldr	r1, [r3, #124]
 126              	.LVL8:
 127              		.loc 1 80 0
 128 0012 D3F88420 		ldr	r2, [r3, #132]
 129              		.loc 1 79 0
 130 0016 8C68     		ldr	r4, [r1, #8]
 131              	.LVL9:
 132              		.loc 1 80 0
 133 0018 9068     		ldr	r0, [r2, #8]
 134              	.LVL10:
 135              		.loc 1 79 0
 136 001a B3F98010 		ldrsh	r1, [r3, #128]
 137              		.loc 1 80 0
 138 001e B3F98820 		ldrsh	r2, [r3, #136]
 139              		.loc 1 79 0
 140 0022 24FA01F1 		lsr	r1, r4, r1
 141              		.loc 1 80 0
 142 0026 20FA02F2 		lsr	r2, r0, r2
 143              		.loc 1 83 0
 144 002a 01F00101 		and	r1, r1, #1
 145 002e 02F00102 		and	r2, r2, #1
 146 0032 9142     		cmp	r1, r2
 147 0034 1A6F     		ldr	r2, [r3, #112]
 148 0036 14BF     		ite	ne
 149 0038 02F1FF32 		addne	r2, r2, #-1
 150 003c 0132     		addeq	r2, r2, #1
 151 003e 1A67     		str	r2, [r3, #112]
 152              	.LBE16:
 153              	.LBE15:
 154              	.LBB17:
 155              		.loc 1 247 0
 156 0040 0023     		movs	r3, #0
 157              	@ 247 "../../fw/vexencoder.c" 1
 158 0042 83F31188 		msr     BASEPRI, r3
 159              	@ 0 "" 2
 160              		.thumb
 161              	.LBE17:
 162              		.loc 1 248 0
 163 0046 5DF8044B 		ldr	r4, [sp], #4
 164              	.LVL11:
 165 004a 7047     		bx	lr
 166              		.cfi_endproc
 167              	.LFE73:
 168              		.size	_vqe_5_cb_a, .-_vqe_5_cb_a
 169 004c AFF30080 		.section	.text._vqe_5_cb_b,"ax",%progbits
 170              		.align	2
ARM GAS  /tmp/ccTzRrrl.s 			page 4


 171              		.p2align 4,,15
 172              		.thumb
 173              		.thumb_func
 174              		.type	_vqe_5_cb_b, %function
 175              	_vqe_5_cb_b:
 176              	.LFB74:
 177              		.loc 1 255 0
 178              		.cfi_startproc
 179              		@ args = 0, pretend = 0, frame = 0
 180              		@ frame_needed = 0, uses_anonymous_args = 0
 181              		@ link register save eliminated.
 182              	.LVL12:
 183 0000 10B4     		push	{r4}
 184              		.cfi_def_cfa_offset 4
 185              		.cfi_offset 4, -4
 186              	.LBB22:
 187              		.loc 1 259 0
 188 0002 2023     		movs	r3, #32
 189              	@ 259 "../../fw/vexencoder.c" 1
 190 0004 83F31188 		msr     BASEPRI, r3
 191              	@ 0 "" 2
 192              	.LVL13:
 193              		.thumb
 194              	.LBE22:
 195              	.LBB23:
 196              	.LBB24:
 197              		.loc 1 96 0
 198 0008 40F20003 		movw	r3, #:lower16:.LANCHOR0
 199 000c C0F20003 		movt	r3, #:upper16:.LANCHOR0
 200 0010 D96F     		ldr	r1, [r3, #124]
 201              	.LVL14:
 202              		.loc 1 97 0
 203 0012 D3F88420 		ldr	r2, [r3, #132]
 204              		.loc 1 96 0
 205 0016 8C68     		ldr	r4, [r1, #8]
 206              	.LVL15:
 207              		.loc 1 97 0
 208 0018 9068     		ldr	r0, [r2, #8]
 209              	.LVL16:
 210              		.loc 1 96 0
 211 001a B3F98010 		ldrsh	r1, [r3, #128]
 212              		.loc 1 97 0
 213 001e B3F98820 		ldrsh	r2, [r3, #136]
 214              		.loc 1 96 0
 215 0022 24FA01F1 		lsr	r1, r4, r1
 216              		.loc 1 97 0
 217 0026 20FA02F2 		lsr	r2, r0, r2
 218              		.loc 1 100 0
 219 002a 01F00101 		and	r1, r1, #1
 220 002e 02F00102 		and	r2, r2, #1
 221 0032 9142     		cmp	r1, r2
 222 0034 1A6F     		ldr	r2, [r3, #112]
 223 0036 14BF     		ite	ne
 224 0038 0132     		addne	r2, r2, #1
 225 003a 02F1FF32 		addeq	r2, r2, #-1
 226 003e 1A67     		str	r2, [r3, #112]
 227              	.LBE24:
ARM GAS  /tmp/ccTzRrrl.s 			page 5


 228              	.LBE23:
 229              	.LBB25:
 230              		.loc 1 264 0
 231 0040 0023     		movs	r3, #0
 232              	@ 264 "../../fw/vexencoder.c" 1
 233 0042 83F31188 		msr     BASEPRI, r3
 234              	@ 0 "" 2
 235              		.thumb
 236              	.LBE25:
 237              		.loc 1 265 0
 238 0046 5DF8044B 		ldr	r4, [sp], #4
 239              	.LVL17:
 240 004a 7047     		bx	lr
 241              		.cfi_endproc
 242              	.LFE74:
 243              		.size	_vqe_5_cb_b, .-_vqe_5_cb_b
 244 004c AFF30080 		.section	.text._vqe_1_cb_a,"ax",%progbits
 245              		.align	2
 246              		.p2align 4,,15
 247              		.thumb
 248              		.thumb_func
 249              		.type	_vqe_1_cb_a, %function
 250              	_vqe_1_cb_a:
 251              	.LFB65:
 252              		.loc 1 108 0
 253              		.cfi_startproc
 254              		@ args = 0, pretend = 0, frame = 0
 255              		@ frame_needed = 0, uses_anonymous_args = 0
 256              		@ link register save eliminated.
 257              	.LVL18:
 258 0000 10B4     		push	{r4}
 259              		.cfi_def_cfa_offset 4
 260              		.cfi_offset 4, -4
 261              	.LBB30:
 262              		.loc 1 112 0
 263 0002 2023     		movs	r3, #32
 264              	@ 112 "../../fw/vexencoder.c" 1
 265 0004 83F31188 		msr     BASEPRI, r3
 266              	@ 0 "" 2
 267              	.LVL19:
 268              		.thumb
 269              	.LBE30:
 270              	.LBB31:
 271              	.LBB32:
 272              		.loc 1 79 0
 273 0008 40F20003 		movw	r3, #:lower16:.LANCHOR0
 274 000c C0F20003 		movt	r3, #:upper16:.LANCHOR0
 275 0010 D968     		ldr	r1, [r3, #12]
 276              	.LVL20:
 277              		.loc 1 80 0
 278 0012 5A69     		ldr	r2, [r3, #20]
 279              		.loc 1 79 0
 280 0014 8C68     		ldr	r4, [r1, #8]
 281              	.LVL21:
 282              		.loc 1 80 0
 283 0016 9068     		ldr	r0, [r2, #8]
 284              	.LVL22:
ARM GAS  /tmp/ccTzRrrl.s 			page 6


 285              		.loc 1 79 0
 286 0018 B3F91010 		ldrsh	r1, [r3, #16]
 287              		.loc 1 80 0
 288 001c B3F91820 		ldrsh	r2, [r3, #24]
 289              		.loc 1 79 0
 290 0020 24FA01F1 		lsr	r1, r4, r1
 291              		.loc 1 80 0
 292 0024 20FA02F2 		lsr	r2, r0, r2
 293              		.loc 1 83 0
 294 0028 01F00101 		and	r1, r1, #1
 295 002c 02F00102 		and	r2, r2, #1
 296 0030 9142     		cmp	r1, r2
 297 0032 1A68     		ldr	r2, [r3]
 298 0034 14BF     		ite	ne
 299 0036 02F1FF32 		addne	r2, r2, #-1
 300 003a 0132     		addeq	r2, r2, #1
 301 003c 1A60     		str	r2, [r3]
 302              	.LBE32:
 303              	.LBE31:
 304              	.LBB33:
 305              		.loc 1 117 0
 306 003e 0023     		movs	r3, #0
 307              	@ 117 "../../fw/vexencoder.c" 1
 308 0040 83F31188 		msr     BASEPRI, r3
 309              	@ 0 "" 2
 310              		.thumb
 311              	.LBE33:
 312              		.loc 1 118 0
 313 0044 5DF8044B 		ldr	r4, [sp], #4
 314              	.LVL23:
 315 0048 7047     		bx	lr
 316              		.cfi_endproc
 317              	.LFE65:
 318              		.size	_vqe_1_cb_a, .-_vqe_1_cb_a
 319 004a 00BFAFF3 		.section	.text._vqe_2_cb_a,"ax",%progbits
 319      0080
 320              		.align	2
 321              		.p2align 4,,15
 322              		.thumb
 323              		.thumb_func
 324              		.type	_vqe_2_cb_a, %function
 325              	_vqe_2_cb_a:
 326              	.LFB67:
 327              		.loc 1 142 0
 328              		.cfi_startproc
 329              		@ args = 0, pretend = 0, frame = 0
 330              		@ frame_needed = 0, uses_anonymous_args = 0
 331              		@ link register save eliminated.
 332              	.LVL24:
 333 0000 10B4     		push	{r4}
 334              		.cfi_def_cfa_offset 4
 335              		.cfi_offset 4, -4
 336              	.LBB38:
 337              		.loc 1 146 0
 338 0002 2023     		movs	r3, #32
 339              	@ 146 "../../fw/vexencoder.c" 1
 340 0004 83F31188 		msr     BASEPRI, r3
ARM GAS  /tmp/ccTzRrrl.s 			page 7


 341              	@ 0 "" 2
 342              	.LVL25:
 343              		.thumb
 344              	.LBE38:
 345              	.LBB39:
 346              	.LBB40:
 347              		.loc 1 79 0
 348 0008 40F20003 		movw	r3, #:lower16:.LANCHOR0
 349 000c C0F20003 		movt	r3, #:upper16:.LANCHOR0
 350 0010 996A     		ldr	r1, [r3, #40]
 351              	.LVL26:
 352              		.loc 1 80 0
 353 0012 1A6B     		ldr	r2, [r3, #48]
 354              		.loc 1 79 0
 355 0014 8C68     		ldr	r4, [r1, #8]
 356              	.LVL27:
 357              		.loc 1 80 0
 358 0016 9068     		ldr	r0, [r2, #8]
 359              	.LVL28:
 360              		.loc 1 79 0
 361 0018 B3F92C10 		ldrsh	r1, [r3, #44]
 362              		.loc 1 80 0
 363 001c B3F93420 		ldrsh	r2, [r3, #52]
 364              		.loc 1 79 0
 365 0020 24FA01F1 		lsr	r1, r4, r1
 366              		.loc 1 80 0
 367 0024 20FA02F2 		lsr	r2, r0, r2
 368              		.loc 1 83 0
 369 0028 01F00101 		and	r1, r1, #1
 370 002c 02F00102 		and	r2, r2, #1
 371 0030 9142     		cmp	r1, r2
 372 0032 DA69     		ldr	r2, [r3, #28]
 373 0034 14BF     		ite	ne
 374 0036 02F1FF32 		addne	r2, r2, #-1
 375 003a 0132     		addeq	r2, r2, #1
 376 003c DA61     		str	r2, [r3, #28]
 377              	.LBE40:
 378              	.LBE39:
 379              	.LBB41:
 380              		.loc 1 151 0
 381 003e 0023     		movs	r3, #0
 382              	@ 151 "../../fw/vexencoder.c" 1
 383 0040 83F31188 		msr     BASEPRI, r3
 384              	@ 0 "" 2
 385              		.thumb
 386              	.LBE41:
 387              		.loc 1 152 0
 388 0044 5DF8044B 		ldr	r4, [sp], #4
 389              	.LVL29:
 390 0048 7047     		bx	lr
 391              		.cfi_endproc
 392              	.LFE67:
 393              		.size	_vqe_2_cb_a, .-_vqe_2_cb_a
 394 004a 00BFAFF3 		.section	.text._vqe_3_cb_a,"ax",%progbits
 394      0080
 395              		.align	2
 396              		.p2align 4,,15
ARM GAS  /tmp/ccTzRrrl.s 			page 8


 397              		.thumb
 398              		.thumb_func
 399              		.type	_vqe_3_cb_a, %function
 400              	_vqe_3_cb_a:
 401              	.LFB69:
 402              		.loc 1 176 0
 403              		.cfi_startproc
 404              		@ args = 0, pretend = 0, frame = 0
 405              		@ frame_needed = 0, uses_anonymous_args = 0
 406              		@ link register save eliminated.
 407              	.LVL30:
 408 0000 10B4     		push	{r4}
 409              		.cfi_def_cfa_offset 4
 410              		.cfi_offset 4, -4
 411              	.LBB46:
 412              		.loc 1 180 0
 413 0002 2023     		movs	r3, #32
 414              	@ 180 "../../fw/vexencoder.c" 1
 415 0004 83F31188 		msr     BASEPRI, r3
 416              	@ 0 "" 2
 417              	.LVL31:
 418              		.thumb
 419              	.LBE46:
 420              	.LBB47:
 421              	.LBB48:
 422              		.loc 1 79 0
 423 0008 40F20003 		movw	r3, #:lower16:.LANCHOR0
 424 000c C0F20003 		movt	r3, #:upper16:.LANCHOR0
 425 0010 596C     		ldr	r1, [r3, #68]
 426              	.LVL32:
 427              		.loc 1 80 0
 428 0012 DA6C     		ldr	r2, [r3, #76]
 429              		.loc 1 79 0
 430 0014 8C68     		ldr	r4, [r1, #8]
 431              	.LVL33:
 432              		.loc 1 80 0
 433 0016 9068     		ldr	r0, [r2, #8]
 434              	.LVL34:
 435              		.loc 1 79 0
 436 0018 B3F94810 		ldrsh	r1, [r3, #72]
 437              		.loc 1 80 0
 438 001c B3F95020 		ldrsh	r2, [r3, #80]
 439              		.loc 1 79 0
 440 0020 24FA01F1 		lsr	r1, r4, r1
 441              		.loc 1 80 0
 442 0024 20FA02F2 		lsr	r2, r0, r2
 443              		.loc 1 83 0
 444 0028 01F00101 		and	r1, r1, #1
 445 002c 02F00102 		and	r2, r2, #1
 446 0030 9142     		cmp	r1, r2
 447 0032 9A6B     		ldr	r2, [r3, #56]
 448 0034 14BF     		ite	ne
 449 0036 02F1FF32 		addne	r2, r2, #-1
 450 003a 0132     		addeq	r2, r2, #1
 451 003c 9A63     		str	r2, [r3, #56]
 452              	.LBE48:
 453              	.LBE47:
ARM GAS  /tmp/ccTzRrrl.s 			page 9


 454              	.LBB49:
 455              		.loc 1 185 0
 456 003e 0023     		movs	r3, #0
 457              	@ 185 "../../fw/vexencoder.c" 1
 458 0040 83F31188 		msr     BASEPRI, r3
 459              	@ 0 "" 2
 460              		.thumb
 461              	.LBE49:
 462              		.loc 1 186 0
 463 0044 5DF8044B 		ldr	r4, [sp], #4
 464              	.LVL35:
 465 0048 7047     		bx	lr
 466              		.cfi_endproc
 467              	.LFE69:
 468              		.size	_vqe_3_cb_a, .-_vqe_3_cb_a
 469 004a 00BFAFF3 		.section	.text._vqe_4_cb_a,"ax",%progbits
 469      0080
 470              		.align	2
 471              		.p2align 4,,15
 472              		.thumb
 473              		.thumb_func
 474              		.type	_vqe_4_cb_a, %function
 475              	_vqe_4_cb_a:
 476              	.LFB71:
 477              		.loc 1 207 0
 478              		.cfi_startproc
 479              		@ args = 0, pretend = 0, frame = 0
 480              		@ frame_needed = 0, uses_anonymous_args = 0
 481              		@ link register save eliminated.
 482              	.LVL36:
 483 0000 10B4     		push	{r4}
 484              		.cfi_def_cfa_offset 4
 485              		.cfi_offset 4, -4
 486              	.LBB54:
 487              		.loc 1 211 0
 488 0002 2023     		movs	r3, #32
 489              	@ 211 "../../fw/vexencoder.c" 1
 490 0004 83F31188 		msr     BASEPRI, r3
 491              	@ 0 "" 2
 492              	.LVL37:
 493              		.thumb
 494              	.LBE54:
 495              	.LBB55:
 496              	.LBB56:
 497              		.loc 1 79 0
 498 0008 40F20003 		movw	r3, #:lower16:.LANCHOR0
 499 000c C0F20003 		movt	r3, #:upper16:.LANCHOR0
 500 0010 196E     		ldr	r1, [r3, #96]
 501              	.LVL38:
 502              		.loc 1 80 0
 503 0012 9A6E     		ldr	r2, [r3, #104]
 504              		.loc 1 79 0
 505 0014 8C68     		ldr	r4, [r1, #8]
 506              	.LVL39:
 507              		.loc 1 80 0
 508 0016 9068     		ldr	r0, [r2, #8]
 509              	.LVL40:
ARM GAS  /tmp/ccTzRrrl.s 			page 10


 510              		.loc 1 79 0
 511 0018 B3F96410 		ldrsh	r1, [r3, #100]
 512              		.loc 1 80 0
 513 001c B3F96C20 		ldrsh	r2, [r3, #108]
 514              		.loc 1 79 0
 515 0020 24FA01F1 		lsr	r1, r4, r1
 516              		.loc 1 80 0
 517 0024 20FA02F2 		lsr	r2, r0, r2
 518              		.loc 1 83 0
 519 0028 01F00101 		and	r1, r1, #1
 520 002c 02F00102 		and	r2, r2, #1
 521 0030 9142     		cmp	r1, r2
 522 0032 5A6D     		ldr	r2, [r3, #84]
 523 0034 14BF     		ite	ne
 524 0036 02F1FF32 		addne	r2, r2, #-1
 525 003a 0132     		addeq	r2, r2, #1
 526 003c 5A65     		str	r2, [r3, #84]
 527              	.LBE56:
 528              	.LBE55:
 529              	.LBB57:
 530              		.loc 1 216 0
 531 003e 0023     		movs	r3, #0
 532              	@ 216 "../../fw/vexencoder.c" 1
 533 0040 83F31188 		msr     BASEPRI, r3
 534              	@ 0 "" 2
 535              		.thumb
 536              	.LBE57:
 537              		.loc 1 217 0
 538 0044 5DF8044B 		ldr	r4, [sp], #4
 539              	.LVL41:
 540 0048 7047     		bx	lr
 541              		.cfi_endproc
 542              	.LFE71:
 543              		.size	_vqe_4_cb_a, .-_vqe_4_cb_a
 544 004a 00BFAFF3 		.section	.text._vqe_1_cb_b,"ax",%progbits
 544      0080
 545              		.align	2
 546              		.p2align 4,,15
 547              		.thumb
 548              		.thumb_func
 549              		.type	_vqe_1_cb_b, %function
 550              	_vqe_1_cb_b:
 551              	.LFB66:
 552              		.loc 1 125 0
 553              		.cfi_startproc
 554              		@ args = 0, pretend = 0, frame = 0
 555              		@ frame_needed = 0, uses_anonymous_args = 0
 556              		@ link register save eliminated.
 557              	.LVL42:
 558 0000 10B4     		push	{r4}
 559              		.cfi_def_cfa_offset 4
 560              		.cfi_offset 4, -4
 561              	.LBB62:
 562              		.loc 1 129 0
 563 0002 2023     		movs	r3, #32
 564              	@ 129 "../../fw/vexencoder.c" 1
 565 0004 83F31188 		msr     BASEPRI, r3
ARM GAS  /tmp/ccTzRrrl.s 			page 11


 566              	@ 0 "" 2
 567              	.LVL43:
 568              		.thumb
 569              	.LBE62:
 570              	.LBB63:
 571              	.LBB64:
 572              		.loc 1 96 0
 573 0008 40F20003 		movw	r3, #:lower16:.LANCHOR0
 574 000c C0F20003 		movt	r3, #:upper16:.LANCHOR0
 575 0010 D968     		ldr	r1, [r3, #12]
 576              	.LVL44:
 577              		.loc 1 97 0
 578 0012 5A69     		ldr	r2, [r3, #20]
 579              		.loc 1 96 0
 580 0014 8C68     		ldr	r4, [r1, #8]
 581              	.LVL45:
 582              		.loc 1 97 0
 583 0016 9068     		ldr	r0, [r2, #8]
 584              	.LVL46:
 585              		.loc 1 96 0
 586 0018 B3F91010 		ldrsh	r1, [r3, #16]
 587              		.loc 1 97 0
 588 001c B3F91820 		ldrsh	r2, [r3, #24]
 589              		.loc 1 96 0
 590 0020 24FA01F1 		lsr	r1, r4, r1
 591              		.loc 1 97 0
 592 0024 20FA02F2 		lsr	r2, r0, r2
 593              		.loc 1 100 0
 594 0028 01F00101 		and	r1, r1, #1
 595 002c 02F00102 		and	r2, r2, #1
 596 0030 9142     		cmp	r1, r2
 597 0032 1A68     		ldr	r2, [r3]
 598 0034 14BF     		ite	ne
 599 0036 0132     		addne	r2, r2, #1
 600 0038 02F1FF32 		addeq	r2, r2, #-1
 601 003c 1A60     		str	r2, [r3]
 602              	.LBE64:
 603              	.LBE63:
 604              	.LBB65:
 605              		.loc 1 134 0
 606 003e 0023     		movs	r3, #0
 607              	@ 134 "../../fw/vexencoder.c" 1
 608 0040 83F31188 		msr     BASEPRI, r3
 609              	@ 0 "" 2
 610              		.thumb
 611              	.LBE65:
 612              		.loc 1 135 0
 613 0044 5DF8044B 		ldr	r4, [sp], #4
 614              	.LVL47:
 615 0048 7047     		bx	lr
 616              		.cfi_endproc
 617              	.LFE66:
 618              		.size	_vqe_1_cb_b, .-_vqe_1_cb_b
 619 004a 00BFAFF3 		.section	.text._vqe_2_cb_b,"ax",%progbits
 619      0080
 620              		.align	2
 621              		.p2align 4,,15
ARM GAS  /tmp/ccTzRrrl.s 			page 12


 622              		.thumb
 623              		.thumb_func
 624              		.type	_vqe_2_cb_b, %function
 625              	_vqe_2_cb_b:
 626              	.LFB68:
 627              		.loc 1 159 0
 628              		.cfi_startproc
 629              		@ args = 0, pretend = 0, frame = 0
 630              		@ frame_needed = 0, uses_anonymous_args = 0
 631              		@ link register save eliminated.
 632              	.LVL48:
 633 0000 10B4     		push	{r4}
 634              		.cfi_def_cfa_offset 4
 635              		.cfi_offset 4, -4
 636              	.LBB70:
 637              		.loc 1 163 0
 638 0002 2023     		movs	r3, #32
 639              	@ 163 "../../fw/vexencoder.c" 1
 640 0004 83F31188 		msr     BASEPRI, r3
 641              	@ 0 "" 2
 642              	.LVL49:
 643              		.thumb
 644              	.LBE70:
 645              	.LBB71:
 646              	.LBB72:
 647              		.loc 1 96 0
 648 0008 40F20003 		movw	r3, #:lower16:.LANCHOR0
 649 000c C0F20003 		movt	r3, #:upper16:.LANCHOR0
 650 0010 996A     		ldr	r1, [r3, #40]
 651              	.LVL50:
 652              		.loc 1 97 0
 653 0012 1A6B     		ldr	r2, [r3, #48]
 654              		.loc 1 96 0
 655 0014 8C68     		ldr	r4, [r1, #8]
 656              	.LVL51:
 657              		.loc 1 97 0
 658 0016 9068     		ldr	r0, [r2, #8]
 659              	.LVL52:
 660              		.loc 1 96 0
 661 0018 B3F92C10 		ldrsh	r1, [r3, #44]
 662              		.loc 1 97 0
 663 001c B3F93420 		ldrsh	r2, [r3, #52]
 664              		.loc 1 96 0
 665 0020 24FA01F1 		lsr	r1, r4, r1
 666              		.loc 1 97 0
 667 0024 20FA02F2 		lsr	r2, r0, r2
 668              		.loc 1 100 0
 669 0028 01F00101 		and	r1, r1, #1
 670 002c 02F00102 		and	r2, r2, #1
 671 0030 9142     		cmp	r1, r2
 672 0032 DA69     		ldr	r2, [r3, #28]
 673 0034 14BF     		ite	ne
 674 0036 0132     		addne	r2, r2, #1
 675 0038 02F1FF32 		addeq	r2, r2, #-1
 676 003c DA61     		str	r2, [r3, #28]
 677              	.LBE72:
 678              	.LBE71:
ARM GAS  /tmp/ccTzRrrl.s 			page 13


 679              	.LBB73:
 680              		.loc 1 168 0
 681 003e 0023     		movs	r3, #0
 682              	@ 168 "../../fw/vexencoder.c" 1
 683 0040 83F31188 		msr     BASEPRI, r3
 684              	@ 0 "" 2
 685              		.thumb
 686              	.LBE73:
 687              		.loc 1 169 0
 688 0044 5DF8044B 		ldr	r4, [sp], #4
 689              	.LVL53:
 690 0048 7047     		bx	lr
 691              		.cfi_endproc
 692              	.LFE68:
 693              		.size	_vqe_2_cb_b, .-_vqe_2_cb_b
 694 004a 00BFAFF3 		.section	.text._vqe_3_cb_b,"ax",%progbits
 694      0080
 695              		.align	2
 696              		.p2align 4,,15
 697              		.thumb
 698              		.thumb_func
 699              		.type	_vqe_3_cb_b, %function
 700              	_vqe_3_cb_b:
 701              	.LFB70:
 702              		.loc 1 193 0
 703              		.cfi_startproc
 704              		@ args = 0, pretend = 0, frame = 0
 705              		@ frame_needed = 0, uses_anonymous_args = 0
 706              		@ link register save eliminated.
 707              	.LVL54:
 708 0000 10B4     		push	{r4}
 709              		.cfi_def_cfa_offset 4
 710              		.cfi_offset 4, -4
 711              	.LBB78:
 712              		.loc 1 197 0
 713 0002 2023     		movs	r3, #32
 714              	@ 197 "../../fw/vexencoder.c" 1
 715 0004 83F31188 		msr     BASEPRI, r3
 716              	@ 0 "" 2
 717              	.LVL55:
 718              		.thumb
 719              	.LBE78:
 720              	.LBB79:
 721              	.LBB80:
 722              		.loc 1 96 0
 723 0008 40F20003 		movw	r3, #:lower16:.LANCHOR0
 724 000c C0F20003 		movt	r3, #:upper16:.LANCHOR0
 725 0010 596C     		ldr	r1, [r3, #68]
 726              	.LVL56:
 727              		.loc 1 97 0
 728 0012 DA6C     		ldr	r2, [r3, #76]
 729              		.loc 1 96 0
 730 0014 8C68     		ldr	r4, [r1, #8]
 731              	.LVL57:
 732              		.loc 1 97 0
 733 0016 9068     		ldr	r0, [r2, #8]
 734              	.LVL58:
ARM GAS  /tmp/ccTzRrrl.s 			page 14


 735              		.loc 1 96 0
 736 0018 B3F94810 		ldrsh	r1, [r3, #72]
 737              		.loc 1 97 0
 738 001c B3F95020 		ldrsh	r2, [r3, #80]
 739              		.loc 1 96 0
 740 0020 24FA01F1 		lsr	r1, r4, r1
 741              		.loc 1 97 0
 742 0024 20FA02F2 		lsr	r2, r0, r2
 743              		.loc 1 100 0
 744 0028 01F00101 		and	r1, r1, #1
 745 002c 02F00102 		and	r2, r2, #1
 746 0030 9142     		cmp	r1, r2
 747 0032 9A6B     		ldr	r2, [r3, #56]
 748 0034 14BF     		ite	ne
 749 0036 0132     		addne	r2, r2, #1
 750 0038 02F1FF32 		addeq	r2, r2, #-1
 751 003c 9A63     		str	r2, [r3, #56]
 752              	.LBE80:
 753              	.LBE79:
 754              	.LBB81:
 755              		.loc 1 202 0
 756 003e 0023     		movs	r3, #0
 757              	@ 202 "../../fw/vexencoder.c" 1
 758 0040 83F31188 		msr     BASEPRI, r3
 759              	@ 0 "" 2
 760              		.thumb
 761              	.LBE81:
 762              		.loc 1 203 0
 763 0044 5DF8044B 		ldr	r4, [sp], #4
 764              	.LVL59:
 765 0048 7047     		bx	lr
 766              		.cfi_endproc
 767              	.LFE70:
 768              		.size	_vqe_3_cb_b, .-_vqe_3_cb_b
 769 004a 00BFAFF3 		.section	.text.vexEncoderInit,"ax",%progbits
 769      0080
 770              		.align	2
 771              		.p2align 4,,15
 772              		.global	vexEncoderInit
 773              		.thumb
 774              		.thumb_func
 775              		.type	vexEncoderInit, %function
 776              	vexEncoderInit:
 777              	.LFB75:
 778              		.loc 1 292 0
 779              		.cfi_startproc
 780              		@ args = 0, pretend = 0, frame = 0
 781              		@ frame_needed = 0, uses_anonymous_args = 0
 782              		@ link register save eliminated.
 783              	.LVL60:
 784 0000 0A4A     		ldr	r2, .L36
 785 0002 0023     		movs	r3, #0
 786 0004 10B4     		push	{r4}
 787              		.cfi_def_cfa_offset 4
 788              		.cfi_offset 4, -4
 789              		.loc 1 297 0
 790 0006 1946     		mov	r1, r3
ARM GAS  /tmp/ccTzRrrl.s 			page 15


 791 0008 A2F10804 		sub	r4, r2, #8
 792              	.LVL61:
 793              	.L33:
 794              		.loc 1 298 0 discriminator 2
 795 000c C3EBC300 		rsb	r0, r3, r3, lsl #3
 796 0010 0133     		adds	r3, r3, #1
 797              	.LVL62:
 798              		.loc 1 295 0 discriminator 2
 799 0012 052B     		cmp	r3, #5
 800              		.loc 1 297 0 discriminator 2
 801 0014 1180     		strh	r1, [r2]	@ movhi
 802              		.loc 1 298 0 discriminator 2
 803 0016 44F82010 		str	r1, [r4, r0, lsl #2]
 804 001a 02F11C02 		add	r2, r2, #28
 805              		.loc 1 299 0 discriminator 2
 806 001e 42F8201C 		str	r1, [r2, #-32]
 807              	.LVL63:
 808              		.loc 1 295 0 discriminator 2
 809 0022 F3D1     		bne	.L33
 810              		.loc 1 301 0
 811 0024 5DF8044B 		ldr	r4, [sp], #4
 812 0028 7047     		bx	lr
 813              	.L37:
 814 002a 00BF     		.align	2
 815              	.L36:
 816 002c 08000000 		.word	.LANCHOR0+8
 817              		.cfi_endproc
 818              	.LFE75:
 819              		.size	vexEncoderInit, .-vexEncoderInit
 820              		.section	.text.vexEncoderAdd,"ax",%progbits
 821              		.align	2
 822              		.p2align 4,,15
 823              		.global	vexEncoderAdd
 824              		.thumb
 825              		.thumb_func
 826              		.type	vexEncoderAdd, %function
 827              	vexEncoderAdd:
 828              	.LFB76:
 829              		.loc 1 315 0
 830              		.cfi_startproc
 831              		@ args = 0, pretend = 0, frame = 0
 832              		@ frame_needed = 0, uses_anonymous_args = 0
 833              	.LVL64:
 834              		.loc 1 316 0
 835 0000 0428     		cmp	r0, #4
 836              		.loc 1 315 0
 837 0002 2DE9F047 		push	{r4, r5, r6, r7, r8, r9, r10, lr}
 838              		.cfi_def_cfa_offset 32
 839              		.cfi_offset 4, -32
 840              		.cfi_offset 5, -28
 841              		.cfi_offset 6, -24
 842              		.cfi_offset 7, -20
 843              		.cfi_offset 8, -16
 844              		.cfi_offset 9, -12
 845              		.cfi_offset 10, -8
 846              		.cfi_offset 14, -4
 847              		.loc 1 315 0
ARM GAS  /tmp/ccTzRrrl.s 			page 16


 848 0006 0446     		mov	r4, r0
 849 0008 0D46     		mov	r5, r1
 850 000a 1646     		mov	r6, r2
 851              		.loc 1 316 0
 852 000c 03D8     		bhi	.L38
 853              		.loc 1 319 0
 854 000e 0B29     		cmp	r1, #11
 855 0010 01DC     		bgt	.L38
 856              		.loc 1 321 0
 857 0012 0B2A     		cmp	r2, #11
 858 0014 01DD     		ble	.L40
 859              	.L38:
 860 0016 BDE8F087 		pop	{r4, r5, r6, r7, r8, r9, r10, pc}
 861              	.L40:
 862              		.loc 1 325 0
 863 001a C0EBC002 		rsb	r2, r0, r0, lsl #3
 864              	.LVL65:
 865 001e 40F20003 		movw	r3, #:lower16:.LANCHOR0
 866 0022 C0F20003 		movt	r3, #:upper16:.LANCHOR0
 867 0026 9200     		lsls	r2, r2, #2
 868 0028 9F18     		adds	r7, r3, r2
 869 002a 4FF00009 		mov	r9, #0
 870 002e 43F80290 		str	r9, [r3, r2]
 871              		.loc 1 329 0
 872 0032 2846     		mov	r0, r5
 873              	.LVL66:
 874 0034 4946     		mov	r1, r9
 875              	.LVL67:
 876              		.loc 1 326 0
 877 0036 C7F80490 		str	r9, [r7, #4]
 878              		.loc 1 329 0
 879 003a FFF7FEFF 		bl	vexDigitalModeSet
 880              	.LVL68:
 881              		.loc 1 331 0
 882 003e 40F20008 		movw	r8, #:lower16:vexioDefinition
 883 0042 05EB4503 		add	r3, r5, r5, lsl #1
 884 0046 C0F20008 		movt	r8, #:upper16:vexioDefinition
 885 004a 9B00     		lsls	r3, r3, #2
 886              		.loc 1 332 0
 887 004c 08EB0302 		add	r2, r8, r3
 888 0050 B2F804C0 		ldrh	ip, [r2, #4]
 889              		.loc 1 331 0
 890 0054 58F803E0 		ldr	lr, [r8, r3]
 891              		.loc 1 333 0
 892 0058 40F20003 		movw	r3, #:lower16:.LANCHOR1
 893 005c C0F20003 		movt	r3, #:upper16:.LANCHOR1
 894 0060 6146     		mov	r1, ip
 895 0062 7046     		mov	r0, lr
 896 0064 53F82430 		ldr	r3, [r3, r4, lsl #2]
 897 0068 0322     		movs	r2, #3
 898              		.loc 1 332 0
 899 006a A7F810C0 		strh	ip, [r7, #16]	@ movhi
 900              		.loc 1 331 0
 901 006e C7F80CE0 		str	lr, [r7, #12]
 902              		.loc 1 330 0
 903 0072 BD72     		strb	r5, [r7, #10]
 904              		.loc 1 333 0
ARM GAS  /tmp/ccTzRrrl.s 			page 17


 905 0074 FFF7FEFF 		bl	vexExtSet
 906              	.LVL69:
 907              		.loc 1 336 0
 908 0078 3046     		mov	r0, r6
 909 007a 4946     		mov	r1, r9
 910 007c FFF7FEFF 		bl	vexDigitalModeSet
 911              	.LVL70:
 912              		.loc 1 338 0
 913 0080 06EB4603 		add	r3, r6, r6, lsl #1
 914 0084 9B00     		lsls	r3, r3, #2
 915              		.loc 1 339 0
 916 0086 08EB0302 		add	r2, r8, r3
 917 008a B2F804E0 		ldrh	lr, [r2, #4]
 918              		.loc 1 338 0
 919 008e 58F80350 		ldr	r5, [r8, r3]
 920              		.loc 1 340 0
 921 0092 40F20003 		movw	r3, #:lower16:.LANCHOR2
 922 0096 C0F20003 		movt	r3, #:upper16:.LANCHOR2
 923 009a 53F82430 		ldr	r3, [r3, r4, lsl #2]
 924 009e 7146     		mov	r1, lr
 925 00a0 2846     		mov	r0, r5
 926 00a2 0322     		movs	r2, #3
 927              		.loc 1 337 0
 928 00a4 FE72     		strb	r6, [r7, #11]
 929              		.loc 1 339 0
 930 00a6 A7F818E0 		strh	lr, [r7, #24]	@ movhi
 931              		.loc 1 338 0
 932 00aa 7D61     		str	r5, [r7, #20]
 933              		.loc 1 340 0
 934 00ac FFF7FEFF 		bl	vexExtSet
 935              	.LVL71:
 936              		.loc 1 342 0
 937 00b0 0123     		movs	r3, #1
 938 00b2 3B81     		strh	r3, [r7, #8]	@ movhi
 939 00b4 BDE8F087 		pop	{r4, r5, r6, r7, r8, r9, r10, pc}
 940              		.cfi_endproc
 941              	.LFE76:
 942              		.size	vexEncoderAdd, .-vexEncoderAdd
 943 00b8 AFF30080 		.section	.text.vexEncoderStart,"ax",%progbits
 943      AFF30080 
 944              		.align	2
 945              		.p2align 4,,15
 946              		.global	vexEncoderStart
 947              		.thumb
 948              		.thumb_func
 949              		.type	vexEncoderStart, %function
 950              	vexEncoderStart:
 951              	.LFB77:
 952              		.loc 1 352 0
 953              		.cfi_startproc
 954              		@ args = 0, pretend = 0, frame = 0
 955              		@ frame_needed = 0, uses_anonymous_args = 0
 956              	.LVL72:
 957              		.loc 1 353 0
 958 0000 40F20003 		movw	r3, #:lower16:.LANCHOR0
 959 0004 C0F20003 		movt	r3, #:upper16:.LANCHOR0
 960 0008 C0EBC000 		rsb	r0, r0, r0, lsl #3
ARM GAS  /tmp/ccTzRrrl.s 			page 18


 961              	.LVL73:
 962              		.loc 1 352 0
 963 000c 10B5     		push	{r4, lr}
 964              		.cfi_def_cfa_offset 8
 965              		.cfi_offset 4, -8
 966              		.cfi_offset 14, -4
 967              		.loc 1 353 0
 968 000e 03EB8004 		add	r4, r3, r0, lsl #2
 969 0012 B4F90830 		ldrsh	r3, [r4, #8]
 970 0016 012B     		cmp	r3, #1
 971 0018 00D0     		beq	.L43
 972 001a 10BD     		pop	{r4, pc}
 973              	.L43:
 974              		.loc 1 355 0
 975 001c 40F20000 		movw	r0, #:lower16:EXTD1
 976 0020 B4F91010 		ldrsh	r1, [r4, #16]
 977 0024 C0F20000 		movt	r0, #:upper16:EXTD1
 978 0028 FFF7FEFF 		bl	extChannelEnable
 979              	.LVL74:
 980              		.loc 1 356 0
 981 002c 40F20000 		movw	r0, #:lower16:EXTD1
 982 0030 B4F91810 		ldrsh	r1, [r4, #24]
 983 0034 C0F20000 		movt	r0, #:upper16:EXTD1
 984              		.loc 1 358 0
 985 0038 BDE81040 		pop	{r4, lr}
 986              		.loc 1 356 0
 987 003c FFF7FEBF 		b	extChannelEnable
 988              	.LVL75:
 989              		.cfi_endproc
 990              	.LFE77:
 991              		.size	vexEncoderStart, .-vexEncoderStart
 992              		.section	.text.vexEncoderStop,"ax",%progbits
 993              		.align	2
 994              		.p2align 4,,15
 995              		.global	vexEncoderStop
 996              		.thumb
 997              		.thumb_func
 998              		.type	vexEncoderStop, %function
 999              	vexEncoderStop:
 1000              	.LFB78:
 1001              		.loc 1 367 0
 1002              		.cfi_startproc
 1003              		@ args = 0, pretend = 0, frame = 0
 1004              		@ frame_needed = 0, uses_anonymous_args = 0
 1005              	.LVL76:
 1006              		.loc 1 368 0
 1007 0000 40F20003 		movw	r3, #:lower16:.LANCHOR0
 1008 0004 C0F20003 		movt	r3, #:upper16:.LANCHOR0
 1009 0008 C0EBC000 		rsb	r0, r0, r0, lsl #3
 1010              	.LVL77:
 1011              		.loc 1 367 0
 1012 000c 10B5     		push	{r4, lr}
 1013              		.cfi_def_cfa_offset 8
 1014              		.cfi_offset 4, -8
 1015              		.cfi_offset 14, -4
 1016              		.loc 1 368 0
 1017 000e 03EB8004 		add	r4, r3, r0, lsl #2
ARM GAS  /tmp/ccTzRrrl.s 			page 19


 1018 0012 B4F90830 		ldrsh	r3, [r4, #8]
 1019 0016 012B     		cmp	r3, #1
 1020 0018 00D0     		beq	.L46
 1021 001a 10BD     		pop	{r4, pc}
 1022              	.L46:
 1023              		.loc 1 370 0
 1024 001c 40F20000 		movw	r0, #:lower16:EXTD1
 1025 0020 B4F91010 		ldrsh	r1, [r4, #16]
 1026 0024 C0F20000 		movt	r0, #:upper16:EXTD1
 1027 0028 FFF7FEFF 		bl	extChannelDisable
 1028              	.LVL78:
 1029              		.loc 1 371 0
 1030 002c 40F20000 		movw	r0, #:lower16:EXTD1
 1031 0030 B4F91810 		ldrsh	r1, [r4, #24]
 1032 0034 C0F20000 		movt	r0, #:upper16:EXTD1
 1033              		.loc 1 373 0
 1034 0038 BDE81040 		pop	{r4, lr}
 1035              		.loc 1 371 0
 1036 003c FFF7FEBF 		b	extChannelDisable
 1037              	.LVL79:
 1038              		.cfi_endproc
 1039              	.LFE78:
 1040              		.size	vexEncoderStop, .-vexEncoderStop
 1041              		.section	.text.vexEncoderStartAll,"ax",%progbits
 1042              		.align	2
 1043              		.p2align 4,,15
 1044              		.global	vexEncoderStartAll
 1045              		.thumb
 1046              		.thumb_func
 1047              		.type	vexEncoderStartAll, %function
 1048              	vexEncoderStartAll:
 1049              	.LFB79:
 1050              		.loc 1 381 0
 1051              		.cfi_startproc
 1052              		@ args = 0, pretend = 0, frame = 0
 1053              		@ frame_needed = 0, uses_anonymous_args = 0
 1054              	.LVL80:
 1055 0000 10B5     		push	{r4, lr}
 1056              		.cfi_def_cfa_offset 8
 1057              		.cfi_offset 4, -8
 1058              		.cfi_offset 14, -4
 1059              		.loc 1 384 0
 1060 0002 0024     		movs	r4, #0
 1061              	.LVL81:
 1062              	.L49:
 1063              		.loc 1 385 0 discriminator 2
 1064 0004 2046     		mov	r0, r4
 1065              		.loc 1 384 0 discriminator 2
 1066 0006 0134     		adds	r4, r4, #1
 1067              	.LVL82:
 1068 0008 E4B2     		uxtb	r4, r4
 1069              		.loc 1 385 0 discriminator 2
 1070 000a FFF7FEFF 		bl	vexEncoderStart
 1071              	.LVL83:
 1072              		.loc 1 384 0 discriminator 2
 1073 000e 052C     		cmp	r4, #5
 1074 0010 F8D1     		bne	.L49
ARM GAS  /tmp/ccTzRrrl.s 			page 20


 1075              		.loc 1 386 0
 1076 0012 10BD     		pop	{r4, pc}
 1077              		.cfi_endproc
 1078              	.LFE79:
 1079              		.size	vexEncoderStartAll, .-vexEncoderStartAll
 1080 0014 AFF30080 		.section	.text.vexEncoderGet,"ax",%progbits
 1080      AFF30080 
 1080      AFF30080 
 1081              		.align	2
 1082              		.p2align 4,,15
 1083              		.global	vexEncoderGet
 1084              		.thumb
 1085              		.thumb_func
 1086              		.type	vexEncoderGet, %function
 1087              	vexEncoderGet:
 1088              	.LFB80:
 1089              		.loc 1 402 0
 1090              		.cfi_startproc
 1091              		@ args = 0, pretend = 0, frame = 0
 1092              		@ frame_needed = 0, uses_anonymous_args = 0
 1093              		@ link register save eliminated.
 1094              	.LVL84:
 1095              		.loc 1 403 0
 1096 0000 83B2     		uxth	r3, r0
 1097 0002 042B     		cmp	r3, #4
 1098 0004 0BD8     		bhi	.L52
 1099              		.loc 1 406 0
 1100 0006 C0EBC000 		rsb	r0, r0, r0, lsl #3
 1101              	.LVL85:
 1102 000a 40F20003 		movw	r3, #:lower16:.LANCHOR0
 1103              	.LVL86:
 1104 000e 8200     		lsls	r2, r0, #2
 1105 0010 C0F20003 		movt	r3, #:upper16:.LANCHOR0
 1106 0014 9918     		adds	r1, r3, r2
 1107 0016 4968     		ldr	r1, [r1, #4]
 1108 0018 9858     		ldr	r0, [r3, r2]
 1109 001a 401A     		subs	r0, r0, r1
 1110 001c 7047     		bx	lr
 1111              	.LVL87:
 1112              	.L52:
 1113              		.loc 1 404 0
 1114 001e 0020     		movs	r0, #0
 1115              	.LVL88:
 1116              		.loc 1 407 0
 1117 0020 7047     		bx	lr
 1118              		.cfi_endproc
 1119              	.LFE80:
 1120              		.size	vexEncoderGet, .-vexEncoderGet
 1121 0022 00BFAFF3 		.section	.text.vexEncoderSet,"ax",%progbits
 1121      0080AFF3 
 1121      0080AFF3 
 1121      0080
 1122              		.align	2
 1123              		.p2align 4,,15
 1124              		.global	vexEncoderSet
 1125              		.thumb
 1126              		.thumb_func
ARM GAS  /tmp/ccTzRrrl.s 			page 21


 1127              		.type	vexEncoderSet, %function
 1128              	vexEncoderSet:
 1129              	.LFB81:
 1130              		.loc 1 421 0
 1131              		.cfi_startproc
 1132              		@ args = 0, pretend = 0, frame = 0
 1133              		@ frame_needed = 0, uses_anonymous_args = 0
 1134              		@ link register save eliminated.
 1135              	.LVL89:
 1136              		.loc 1 422 0
 1137 0000 83B2     		uxth	r3, r0
 1138 0002 042B     		cmp	r3, #4
 1139 0004 0AD8     		bhi	.L53
 1140              		.loc 1 425 0
 1141 0006 C0EBC000 		rsb	r0, r0, r0, lsl #3
 1142              	.LVL90:
 1143 000a 40F20003 		movw	r3, #:lower16:.LANCHOR0
 1144              	.LVL91:
 1145 000e 8000     		lsls	r0, r0, #2
 1146 0010 C0F20003 		movt	r3, #:upper16:.LANCHOR0
 1147 0014 1A58     		ldr	r2, [r3, r0]
 1148 0016 0344     		add	r3, r3, r0
 1149 0018 511A     		subs	r1, r2, r1
 1150              	.LVL92:
 1151 001a 5960     		str	r1, [r3, #4]
 1152              	.L53:
 1153 001c 7047     		bx	lr
 1154              		.cfi_endproc
 1155              	.LFE81:
 1156              		.size	vexEncoderSet, .-vexEncoderSet
 1157 001e 00BF     		.section	.text.vexEncoderGetId,"ax",%progbits
 1158              		.align	2
 1159              		.p2align 4,,15
 1160              		.global	vexEncoderGetId
 1161              		.thumb
 1162              		.thumb_func
 1163              		.type	vexEncoderGetId, %function
 1164              	vexEncoderGetId:
 1165              	.LFB82:
 1166              		.loc 1 442 0
 1167              		.cfi_startproc
 1168              		@ args = 0, pretend = 0, frame = 0
 1169              		@ frame_needed = 0, uses_anonymous_args = 0
 1170              		@ link register save eliminated.
 1171              	.LVL93:
 1172              		.loc 1 443 0
 1173 0000 0428     		cmp	r0, #4
 1174              		.loc 1 447 0
 1175 0002 DFBF     		itttt	le
 1176 0004 40F20003 		movwle	r3, #:lower16:.LANCHOR0
 1177 0008 C0EBC000 		rsble	r0, r0, r0, lsl #3
 1178              	.LVL94:
 1179 000c C0F20003 		movtle	r3, #:upper16:.LANCHOR0
 1180 0010 03EB8003 		addle	r3, r3, r0, lsl #2
 1181 0014 D6BF     		itet	le
 1182 0016 93F90A00 		ldrsble	r0, [r3, #10]
 1183              		.loc 1 444 0
ARM GAS  /tmp/ccTzRrrl.s 			page 22


 1184 001a 4FF6FF70 		movwgt	r0, #65535
 1185              		.loc 1 447 0
 1186 001e 80B2     		uxthle	r0, r0
 1187              		.loc 1 448 0
 1188 0020 00B2     		sxth	r0, r0
 1189 0022 7047     		bx	lr
 1190              		.cfi_endproc
 1191              	.LFE82:
 1192              		.size	vexEncoderGetId, .-vexEncoderGetId
 1193 0024 AFF30080 		.section	.text.vexEncoderDebug,"ax",%progbits
 1193      AFF30080 
 1193      AFF30080 
 1194              		.align	2
 1195              		.p2align 4,,15
 1196              		.global	vexEncoderDebug
 1197              		.thumb
 1198              		.thumb_func
 1199              		.type	vexEncoderDebug, %function
 1200              	vexEncoderDebug:
 1201              	.LFB83:
 1202              		.loc 1 459 0
 1203              		.cfi_startproc
 1204              		@ args = 0, pretend = 0, frame = 0
 1205              		@ frame_needed = 0, uses_anonymous_args = 0
 1206              	.LVL95:
 1207 0000 F0B5     		push	{r4, r5, r6, r7, lr}
 1208              		.cfi_def_cfa_offset 20
 1209              		.cfi_offset 4, -20
 1210              		.cfi_offset 5, -16
 1211              		.cfi_offset 6, -12
 1212              		.cfi_offset 7, -8
 1213              		.cfi_offset 14, -4
 1214 0002 0025     		movs	r5, #0
 1215 0004 40F20006 		movw	r6, #:lower16:.LANCHOR0
 1216 0008 83B0     		sub	sp, sp, #12
 1217              		.cfi_def_cfa_offset 32
 1218              		.loc 1 459 0
 1219 000a 0746     		mov	r7, r0
 1220 000c 2C46     		mov	r4, r5
 1221 000e C0F20006 		movt	r6, #:upper16:.LANCHOR0
 1222              	.LVL96:
 1223              	.L60:
 1224 0012 7219     		adds	r2, r6, r5
 1225              		.loc 1 466 0 discriminator 2
 1226 0014 5268     		ldr	r2, [r2, #4]
 1227 0016 C4EBC403 		rsb	r3, r4, r4, lsl #3
 1228 001a 40F20001 		movw	r1, #:lower16:.LC0
 1229 001e 0092     		str	r2, [sp]
 1230 0020 56F82330 		ldr	r3, [r6, r3, lsl #2]
 1231 0024 2246     		mov	r2, r4
 1232 0026 C0F20001 		movt	r1, #:upper16:.LC0
 1233 002a 3846     		mov	r0, r7
 1234 002c 0134     		adds	r4, r4, #1
 1235              	.LVL97:
 1236 002e FFF7FEFF 		bl	vex_chprintf
 1237              	.LVL98:
 1238              		.loc 1 465 0 discriminator 2
ARM GAS  /tmp/ccTzRrrl.s 			page 23


 1239 0032 052C     		cmp	r4, #5
 1240 0034 05F11C05 		add	r5, r5, #28
 1241 0038 EBD1     		bne	.L60
 1242              		.loc 1 467 0
 1243 003a 03B0     		add	sp, sp, #12
 1244              		@ sp needed
 1245 003c F0BD     		pop	{r4, r5, r6, r7, pc}
 1246              		.cfi_endproc
 1247              	.LFE83:
 1248              		.size	vexEncoderDebug, .-vexEncoderDebug
 1249 003e 00BF     		.section	.rodata._vqe_cb_a,"a",%progbits
 1250              		.align	2
 1251              		.set	.LANCHOR1,. + 0
 1252              		.type	_vqe_cb_a, %object
 1253              		.size	_vqe_cb_a, 20
 1254              	_vqe_cb_a:
 1255 0000 00000000 		.word	_vqe_1_cb_a
 1256 0004 00000000 		.word	_vqe_2_cb_a
 1257 0008 00000000 		.word	_vqe_3_cb_a
 1258 000c 00000000 		.word	_vqe_4_cb_a
 1259 0010 00000000 		.word	_vqe_5_cb_a
 1260              		.section	.rodata._vqe_cb_b,"a",%progbits
 1261              		.align	2
 1262              		.set	.LANCHOR2,. + 0
 1263              		.type	_vqe_cb_b, %object
 1264              		.size	_vqe_cb_b, 20
 1265              	_vqe_cb_b:
 1266 0000 00000000 		.word	_vqe_1_cb_b
 1267 0004 00000000 		.word	_vqe_2_cb_b
 1268 0008 00000000 		.word	_vqe_3_cb_b
 1269 000c 00000000 		.word	_vqe_4_cb_b
 1270 0010 00000000 		.word	_vqe_5_cb_b
 1271              		.section	.rodata.str1.4,"aMS",%progbits,1
 1272              		.align	2
 1273              	.LC0:
 1274 0000 45256420 		.ascii	"E%d %8ld  %8ld\015\012\000"
 1274      25386C64 
 1274      20202538 
 1274      6C640D0A 
 1274      00
 1275 0011 000000   		.section	.bss.vexQuadEncoders,"aw",%nobits
 1276              		.align	2
 1277              		.set	.LANCHOR0,. + 0
 1278              		.type	vexQuadEncoders, %object
 1279              		.size	vexQuadEncoders, 140
 1280              	vexQuadEncoders:
 1281 0000 00000000 		.space	140
 1281      00000000 
 1281      00000000 
 1281      00000000 
 1281      00000000 
 1282              		.text
 1283              	.Letext0:
 1284              		.file 2 "/usr/lib/gcc/arm-none-eabi/4.8.2/include/stddef.h"
 1285              		.file 3 "/usr/include/newlib/machine/_default_types.h"
 1286              		.file 4 "/usr/include/newlib/stdint.h"
 1287              		.file 5 "../../../../ChibiOS_2.6.2/os/ports/GCC/ARMCMx/chtypes.h"
ARM GAS  /tmp/ccTzRrrl.s 			page 24


 1288              		.file 6 "../../../../ChibiOS_2.6.2/os/kernel/include/chstreams.h"
 1289              		.file 7 "../../../../ChibiOS_2.6.2/os/hal/platforms/STM32F1xx/stm32f10x.h"
 1290              		.file 8 "../../../../ChibiOS_2.6.2/os/hal/platforms/STM32/GPIOv1/pal_lld.h"
 1291              		.file 9 "../../../../ChibiOS_2.6.2/os/hal/include/ext.h"
 1292              		.file 10 "../../../../ChibiOS_2.6.2/os/hal/platforms/STM32/ext_lld.h"
 1293              		.file 11 "../../fw/vexcompat.h"
 1294              		.file 12 "../../fw/vexdigital.h"
 1295              		.file 13 "../../fw/vexencoder.h"
 1296              		.file 14 "../../fw/vexime.h"
 1297              		.file 15 "../../../../ChibiOS_2.6.2/os/ports/common/ARMCMx/CMSIS/include/core_cm3.h"
 1298              		.file 16 "../../fw/vexprintf.h"