ARM GAS  /tmp/ccTzRrrl.s 			page 1


   1              		.syntax unified
   2              		.cpu cortex-m3
   3              		.fpu softvfp
   4              		.eabi_attribute 20, 1
   5              		.eabi_attribute 21, 1
   6              		.eabi_attribute 23, 3
   7              		.eabi_attribute 24, 1
   8              		.eabi_attribute 25, 1
   9              		.eabi_attribute 26, 1
  10              		.eabi_attribute 30, 2
  11              		.eabi_attribute 34, 1
  12              		.eabi_attribute 18, 4
  13              		.thumb
  14              		.file	"vexencoder.c"
  15              		.text
  16              	.Ltext0:
  17              		.cfi_sections	.debug_frame
  18              		.section	.text._vqe_4_cb_b,"ax",%progbits
  19              		.align	2
  20              		.p2align 4,,15
  21              		.thumb
  22              		.thumb_func
  23              		.type	_vqe_4_cb_b, %function
  24              	_vqe_4_cb_b:
  25              	.LFB72:
  26              		.file 1 "../../fw/vexencoder.c"
  27              		.loc 1 224 0
  28              		.cfi_startproc
  29              		@ args = 0, pretend = 0, frame = 0
  30              		@ frame_needed = 0, uses_anonymous_args = 0
  31              		@ link register save eliminated.
  32              	.LVL0:
  33 0000 10B4     		push	{r4}
  34              		.cfi_def_cfa_offset 4
  35              		.cfi_offset 4, -4
  36              	.LBB6:
  37              		.loc 1 228 0
  38 0002 2023     		movs	r3, #32
  39              	@ 228 "../../fw/vexencoder.c" 1
  40 0004 83F31188 		msr     BASEPRI, r3
  41              	@ 0 "" 2
  42              	.LVL1:
  43              		.thumb
  44              	.LBE6:
  45              	.LBB7:
  46              	.LBB8:
  47              		.loc 1 96 0
  48 0008 40F20003 		movw	r3, #:lower16:.LANCHOR0
  49 000c C0F20003 		movt	r3, #:upper16:.LANCHOR0
  50 0010 196E     		ldr	r1, [r3, #96]
  51              	.LVL2:
  52              		.loc 1 97 0
  53 0012 9A6E     		ldr	r2, [r3, #104]
  54              		.loc 1 96 0
  55 0014 8C68     		ldr	r4, [r1, #8]
  56              	.LVL3:
  57              		.loc 1 97 0
ARM GAS  /tmp/ccTzRrrl.s 			page 2


  58 0016 9068     		ldr	r0, [r2, #8]
  59              	.LVL4:
  60              		.loc 1 96 0
  61 0018 B3F96410 		ldrsh	r1, [r3, #100]
  62              		.loc 1 97 0
  63 001c B3F96C20 		ldrsh	r2, [r3, #108]
  64              		.loc 1 96 0
  65 0020 24FA01F1 		lsr	r1, r4, r1
  66              		.loc 1 97 0
  67 0024 20FA02F2 		lsr	r2, r0, r2
  68              		.loc 1 100 0
  69 0028 01F00101 		and	r1, r1, #1
  70 002c 02F00102 		and	r2, r2, #1
  71 0030 9142     		cmp	r1, r2
  72 0032 5A6D     		ldr	r2, [r3, #84]
  73 0034 14BF     		ite	ne
  74 0036 0132     		addne	r2, r2, #1
  75 0038 02F1FF32 		addeq	r2, r2, #-1
  76 003c 5A65     		str	r2, [r3, #84]
  77              	.LBE8:
  78              	.LBE7:
  79              	.LBB9:
  80              		.loc 1 233 0
  81 003e 0023     		movs	r3, #0
  82              	@ 233 "../../fw/vexencoder.c" 1
  83 0040 83F31188 		msr     BASEPRI, r3
  84              	@ 0 "" 2
  85              		.thumb
  86              	.LBE9:
  87              		.loc 1 234 0
  88 0044 5DF8044B 		ldr	r4, [sp], #4
  89              	.LVL5:
  90 0048 7047     		bx	lr
  91              		.cfi_endproc
  92              	.LFE72:
  93              		.size	_vqe_4_cb_b, .-_vqe_4_cb_b
  94 004a 00BFAFF3 		.section	.text._vqe_5_cb_a,"ax",%progbits
  94      0080
  95              		.align	2
  96              		.p2align 4,,15
  97              		.thumb
  98              		.thumb_func
  99              		.type	_vqe_5_cb_a, %function
 100              	_vqe_5_cb_a:
 101              	.LFB73:
 102              		.loc 1 238 0
 103              		.cfi_startproc
 104              		@ args = 0, pretend = 0, frame = 0
 105              		@ frame_needed = 0, uses_anonymous_args = 0
 106              		@ link register save eliminated.
 107              	.LVL6:
 108 0000 10B4     		push	{r4}
 109              		.cfi_def_cfa_offset 4
 110              		.cfi_offset 4, -4
 111              	.LBB14:
 112              		.loc 1 242 0
 113 0002 2023     		movs	r3, #32
ARM GAS  /tmp/ccTzRrrl.s 			page 3


 114              	@ 242 "../../fw/vexencoder.c" 1
 115 0004 83F31188 		msr     BASEPRI, r3
 116              	@ 0 "" 2
 117              	.LVL7:
 118              		.thumb
 119              	.LBE14:
 120              	.LBB15:
 121              	.LBB16:
 122              		.loc 1 79 0
 123 0008 40F20003 		movw	r3, #:lower16:.LANCHOR0
 124 000c C0F20003 		movt	r3, #:upper16:.LANCHOR0
 125 0010 D96F     		ldr	r1, [r3, #124]
 126              	.LVL8:
 127              		.loc 1 80 0
 128 0012 D3F88420 		ldr	r2, [r3, #132]
 129              		.loc 1 79 0
 130 0016 8C68     		ldr	r4, [r1, #8]
 131              	.LVL9:
 132              		.loc 1 80 0
 133 0018 9068     		ldr	r0, [r2, #8]
 134              	.LVL10:
 135              		.loc 1 79 0
 136 001a B3F98010 		ldrsh	r1, [r3, #128]
 137              		.loc 1 80 0
 138 001e B3F98820 		ldrsh	r2, [r3, #136]
 139              		.loc 1 79 0
 140 0022 24FA01F1 		lsr	r1, r4, r1
 141              		.loc 1 80 0
 142 0026 20FA02F2 		lsr	r2, r0, r2
 143              		.loc 1 83 0
 144 002a 01F00101 		and	r1, r1, #1
 145 002e 02F00102 		and	r2, r2, #1
 146 0032 9142     		cmp	r1, r2
 147 0034 1A6F     		ldr	r2, [r3, #112]
 148 0036 14BF     		ite	ne
 149 0038 02F1FF32 		addne	r2, r2, #-1
 150 003c 0132     		addeq	r2, r2, #1
 151 003e 1A67     		str	r2, [r3, #112]
 152              	.LBE16:
 153              	.LBE15:
 154              	.LBB17:
 155              		.loc 1 247 0
 156 0040 0023     		movs	r3, #0
 157              	@ 247 "../../fw/vexencoder.c" 1
 158 0042 83F31188 		msr     BASEPRI, r3
 159              	@ 0 "" 2
 160              		.thumb
 161              	.LBE17:
 162              		.loc 1 248 0
 163 0046 5DF8044B 		ldr	r4, [sp], #4
 164              	.LVL11:
 165 004a 7047     		bx	lr
 166              		.cfi_endproc
 167              	.LFE73:
 168              		.size	_vqe_5_cb_a, .-_vqe_5_cb_a
 169 004c AFF30080 		.section	.text._vqe_5_cb_b,"ax",%progbits
 170              		.align	2
ARM GAS  /tmp/ccTzRrrl.s 			page 4


 171              		.p2align 4,,15
 172              		.thumb
 173              		.thumb_func
 174              		.type	_vqe_5_cb_b, %function
 175              	_vqe_5_cb_b:
 176              	.LFB74:
 177              		.loc 1 255 0
 178              		.cfi_startproc
 179              		@ args = 0, pretend = 0, frame = 0
 180              		@ frame_needed = 0, uses_anonymous_args = 0
 181              		@ link register save eliminated.
 182              	.LVL12:
 183 0000 10B4     		push	{r4}
 184              		.cfi_def_cfa_offset 4
 185              		.cfi_offset 4, -4
 186              	.LBB22:
 187              		.loc 1 259 0
 188 0002 2023     		movs	r3, #32
 189              	@ 259 "../../fw/vexencoder.c" 1
 190 0004 83F31188 		msr     BASEPRI, r3
 191              	@ 0 "" 2
 192              	.LVL13:
 193              		.thumb
 194              	.LBE22:
 195              	.LBB23:
 196              	.LBB24:
 197              		.loc 1 96 0
 198 0008 40F20003 		movw	r3, #:lower16:.LANCHOR0
 199 000c C0F20003 		movt	r3, #:upper16:.LANCHOR0
 200 0010 D96F     		ldr	r1, [r3, #124]
 201              	.LVL14:
 202              		.loc 1 97 0
 203 0012 D3F88420 		ldr	r2, [r3, #132]
 204              		.loc 1 96 0
 205 0016 8C68     		ldr	r4, [r1, #8]
 206              	.LVL15:
 207              		.loc 1 97 0
 208 0018 9068     		ldr	r0, [r2, #8]
 209              	.LVL16:
 210              		.loc 1 96 0
 211 001a B3F98010 		ldrsh	r1, [r3, #128]
 212              		.loc 1 97 0
 213 001e B3F98820 		ldrsh	r2, [r3, #136]
 214              		.loc 1 96 0
 215 0022 24FA01F1 		lsr	r1, r4, r1
 216              		.loc 1 97 0
 217 0026 20FA02F2 		lsr	r2, r0, r2
 218              		.loc 1 100 0
 219 002a 01F00101 		and	r1, r1, #1
 220 002e 02F00102 		and	r2, r2, #1
 221 0032 9142     		cmp	r1, r2
 222 0034 1A6F     		ldr	r2, [r3, #112]
 223 0036 14BF     		ite	ne
 224 0038 0132     		addne	r2, r2, #1
 225 003a 02F1FF32 		addeq	r2, r2, #-1
 226 003e 1A67     		str	r2, [r3, #112]
 227              	.LBE24:
ARM GAS  /tmp/ccTzRrrl.s 			page 5


 228              	.LBE23:
 229              	.LBB25:
 230              		.loc 1 264 0
 231 0040 0023     		movs	r3, #0
 232              	@ 264 "../../fw/vexencoder.c" 1
 233 0042 83F31188 		msr     BASEPRI, r3
 234              	@ 0 "" 2
 235              		.thumb
 236              	.LBE25:
 237              		.loc 1 265 0
 238 0046 5DF8044B 		ldr	r4, [sp], #4
 239              	.LVL17:
 240 004a 7047     		bx	lr
 241              		.cfi_endproc
 242              	.LFE74:
 243              		.size	_vqe_5_cb_b, .-_vqe_5_cb_b
 244 004c AFF30080 		.section	.text._vqe_1_cb_a,"ax",%progbits
 245              		.align	2
 246              		.p2align 4,,15
 247              		.thumb
 248              		.thumb_func
 249              		.type	_vqe_1_cb_a, %function
 250              	_vqe_1_cb_a:
 251              	.LFB65:
 252              		.loc 1 108 0
 253              		.cfi_startproc
 254              		@ args = 0, pretend = 0, frame = 0
 255              		@ frame_needed = 0, uses_anonymous_args = 0
 256              		@ link register save eliminated.
 257              	.LVL18:
 258 0000 10B4     		push	{r4}
 259              		.cfi_def_cfa_offset 4
 260              		.cfi_offset 4, -4
 261              	.LBB30:
 262              		.loc 1 112 0
 263 0002 2023     		movs	r3, #32
 264              	@ 112 "../../fw/vexencoder.c" 1
 265 0004 83F31188 		msr     BASEPRI, r3
 266              	@ 0 "" 2
 267              	.LVL19:
 268              		.thumb
 269              	.LBE30:
 270              	.LBB31:
 271              	.LBB32:
 272              		.loc 1 79 0
 273 0008 40F20003 		movw	r3, #:lower16:.LANCHOR0
 274 000c C0F20003 		movt	r3, #:upper16:.LANCHOR0
 275 0010 D968     		ldr	r1, [r3, #12]
 276              	.LVL20:
 277              		.loc 1 80 0
 278 0012 5A69     		ldr	r2, [r3, #20]
 279              		.loc 1 79 0
 280 0014 8C68     		ldr	r4, [r1, #8]
 281              	.LVL21:
 282              		.loc 1 80 0
 283 0016 9068     		ldr	r0, [r2, #8]
 284              	.LVL22:
ARM GAS  /tmp/ccTzRrrl.s 			page 6


 285              		.loc 1 79 0
 286 0018 B3F91010 		ldrsh	r1, [r3, #16]
 287              		.loc 1 80 0
 288 001c B3F91820 		ldrsh	r2, [r3, #24]
 289              		.loc 1 79 0
 290 0020 24FA01F1 		lsr	r1, r4, r1
 291              		.loc 1 80 0
 292 0024 20FA02F2 		lsr	r2, r0, r2
 293              		.loc 1 83 0
 294 0028 01F00101 		and	r1, r1, #1
 295 002c 02F00102 		and	r2, r2, #1
 296 0030 9142     		cmp	r1, r2
 297 0032 1A68     		ldr	r2, [r3]
 298 0034 14BF     		ite	ne
 299 0036 02F1FF32 		addne	r2, r2, #-1
 300 003a 0132     		addeq	r2, r2, #1
 301 003c 1A60     		str	r2, [r3]
 302              	.LBE32:
 303              	.LBE31:
 304              	.LBB33:
 305              		.loc 1 117 0
 306 003e 0023     		movs	r3, #0
 307              	@ 117 "../../fw/vexencoder.c" 1
 308 0040 83F31188 		msr     BASEPRI, r3
 309              	@ 0 "" 2
 310              		.thumb
 311              	.LBE33:
 312              		.loc 1 118 0
 313 0044 5DF8044B 		ldr	r4, [sp], #4
 314              	.LVL23:
 315 0048 7047     		bx	lr
 316              		.cfi_endproc
 317              	.LFE65:
 318              		.size	_vqe_1_cb_a, .-_vqe_1_cb_a
 319 004a 00BFAFF3 		.section	.text._vqe_2_cb_a,"ax",%progbits
 319      0080
 320              		.align	2
 321              		.p2align 4,,15
 322              		.thumb
 323              		.thumb_func
 324              		.type	_vqe_2_cb_a, %function
 325              	_vqe_2_cb_a:
 326              	.LFB67:
 327              		.loc 1 142 0
 328              		.cfi_startproc
 329              		@ args = 0, pretend = 0, frame = 0
 330              		@ frame_needed = 0, uses_anonymous_args = 0
 331              		@ link register save eliminated.
 332              	.LVL24:
 333 0000 10B4     		push	{r4}
 334              		.cfi_def_cfa_offset 4
 335              		.cfi_offset 4, -4
 336              	.LBB38:
 337              		.loc 1 146 0
 338 0002 2023     		movs	r3, #32
 339              	@ 146 "../../fw/vexencoder.c" 1
 340 0004 83F31188 		msr     BASEPRI, r3
ARM GAS  /tmp/ccTzRrrl.s 			page 7


 341              	@ 0 "" 2
 342              	.LVL25:
 343              		.thumb
 344              	.LBE38:
 345              	.LBB39:
 346              	.LBB40:
 347              		.loc 1 79 0
 348 0008 40F20003 		movw	r3, #:lower16:.LANCHOR0
 349 000c C0F20003 		movt	r3, #:upper16:.LANCHOR0
 350 0010 996A     		ldr	r1, [r3, #40]
 351              	.LVL26:
 352              		.loc 1 80 0
 353 0012 1A6B     		ldr	r2, [r3, #48]
 354              		.loc 1 79 0
 355 0014 8C68     		ldr	r4, [r1, #8]
 356              	.LVL27:
 357              		.loc 1 80 0
 358 0016 9068     		ldr	r0, [r2, #8]
 359              	.LVL28:
 360              		.loc 1 79 0
 361 0018 B3F92C10 		ldrsh	r1, [r3, #44]
 362              		.loc 1 80 0
 363 001c B3F93420 		ldrsh	r2, [r3, #52]
 364              		.loc 1 79 0
 365 0020 24FA01F1 		lsr	r1, r4, r1
 366              		.loc 1 80 0
 367 0024 20FA02F2 		lsr	r2, r0, r2
 368              		.loc 1 83 0
 369 0028 01F00101 		and	r1, r1, #1
 370 002c 02F00102 		and	r2, r2, #1
 371 0030 9142     		cmp	r1, r2
 372 0032 DA69     		ldr	r2, [r3, #28]
 373 0034 14BF     		ite	ne
 374 0036 02F1FF32 		addne	r2, r2, #-1
 375 003a 0132     		addeq	r2, r2, #1
 376 003c DA61     		str	r2, [r3, #28]
 377              	.LBE40:
 378              	.LBE39:
 379              	.LBB41:
 380              		.loc 1 151 0
 381 003e 0023     		movs	r3, #0
 382              	@ 151 "../../fw/vexencoder.c" 1
 383 0040 83F31188 		msr     BASEPRI, r3
 384              	@ 0 "" 2
 385              		.thumb
 386              	.LBE41:
 387              		.loc 1 152 0
 388 0044 5DF8044B 		ldr	r4, [sp], #4
 389              	.LVL29:
 390 0048 7047     		bx	lr
 391              		.cfi_endproc
 392              	.LFE67:
 393              		.size	_vqe_2_cb_a, .-_vqe_2_cb_a
 394 004a 00BFAFF3 		.section	.text._vqe_3_cb_a,"ax",%progbits
 394      0080
 395              		.align	2
 396              		.p2align 4,,15
ARM GAS  /tmp/ccTzRrrl.s 			page 8


 397              		.thumb
 398              		.thumb_func
 399              		.type	_vqe_3_cb_a, %function
 400              	_vqe_3_cb_a:
 401              	.LFB69:
 402              		.loc 1 176 0
 403              		.cfi_startproc
 404              		@ args = 0, pretend = 0, frame = 0
 405              		@ frame_needed = 0, uses_anonymous_args = 0
 406              		@ link register save eliminated.
 407              	.LVL30:
 408 0000 10B4     		push	{r4}
 409              		.cfi_def_cfa_offset 4
 410              		.cfi_offset 4, -4
 411              	.LBB46:
 412              		.loc 1 180 0
 413 0002 2023     		movs	r3, #32
 414              	@ 180 "../../fw/vexencoder.c" 1
 415 0004 83F31188 		msr     BASEPRI, r3
 416              	@ 0 "" 2
 417              	.LVL31:
 418              		.thumb
 419              	.LBE46:
 420              	.LBB47:
 421              	.LBB48:
 422              		.loc 1 79 0
 423 0008 40F20003 		movw	r3, #:lower16:.LANCHOR0
 424 000c C0F20003 		movt	r3, #:upper16:.LANCHOR0
 425 0010 596C     		ldr	r1, [r3, #68]
 426              	.LVL32:
 427              		.loc 1 80 0
 428 0012 DA6C     		ldr	r2, [r3, #76]
 429              		.loc 1 79 0
 430 0014 8C68     		ldr	r4, [r1, #8]
 431              	.LVL33:
 432              		.loc 1 80 0
 433 0016 9068     		ldr	r0, [r2, #8]
 434              	.LVL34:
 435              		.loc 1 79 0
 436 0018 B3F94810 		ldrsh	r1, [r3, #72]
 437              		.loc 1 80 0
 438 001c B3F95020 		ldrsh	r2, [r3, #80]
 439              		.loc 1 79 0
 440 0020 24FA01F1 		lsr	r1, r4, r1
 441              		.loc 1 80 0
 442 0024 20FA02F2 		lsr	r2, r0, r2
 443              		.loc 1 83 0
 444 0028 01F00101 		and	r1, r1, #1
 445 002c 02F00102 		and	r2, r2, #1
 446 0030 9142     		cmp	r1, r2
 447 0032 9A6B     		ldr	r2, [r3, #56]
 448 0034 14BF     		ite	ne
 449 0036 02F1FF32 		addne	r2, r2, #-1
 450 003a 0132     		addeq	r2, r2, #1
 451 003c 9A63     		str	r2, [r3, #56]
 452              	.LBE48:
 453              	.LBE47:
ARM GAS  /tmp/ccTzRrrl.s 			page 9


 454              	.LBB49:
 455              		.loc 1 185 0
 456 003e 0023     		movs	r3, #0
 457              	@ 185 "../../fw/vexencoder.c" 1
 458 0040 83F31188 		msr     BASEPRI, r3
 459              	@ 0 "" 2
 460              		.thumb
 461              	.LBE49:
 462              		.loc 1 186 0
 463 0044 5DF8044B 		ldr	r4, [sp], #4
 464              	.LVL35:
 465 0048 7047     		bx	lr
 466              		.cfi_endproc
 467              	.LFE69:
 468              		.size	_vqe_3_cb_a, .-_vqe_3_cb_a
 469 004a 00BFAFF3 		.section	.text._vqe_4_cb_a,"ax",%progbits
 469      0080
 470              		.align	2
 471              		.p2align 4,,15
 472              		.thumb
 473              		.thumb_func
 474              		.type	_vqe_4_cb_a, %function
 475              	_vqe_4_cb_a:
 476              	.LFB71:
 477              		.loc 1 207 0
 478              		.cfi_startproc
 479              		@ args = 0, pretend = 0, frame = 0
 480              		@ frame_needed = 0, uses_anonymous_args = 0
 481              		@ link register save eliminated.
 482              	.LVL36:
 483 0000 10B4     		push	{r4}
 484              		.cfi_def_cfa_offset 4
 485              		.cfi_offset 4, -4
 486              	.LBB54:
 487              		.loc 1 211 0
 488 0002 2023     		movs	r3, #32
 489              	@ 211 "../../fw/vexencoder.c" 1
 490 0004 83F31188 		msr     BASEPRI, r3
 491              	@ 0 "" 2
 492              	.LVL37:
 493              		.thumb
 494              	.LBE54:
 495              	.LBB55:
 496              	.LBB56:
 497              		.loc 1 79 0
 498 0008 40F20003 		movw	r3, #:lower16:.LANCHOR0
 499 000c C0F20003 		movt	r3, #:upper16:.LANCHOR0
 500 0010 196E     		ldr	r1, [r3, #96]
 501              	.LVL38:
 502              		.loc 1 80 0
 503 0012 9A6E     		ldr	r2, [r3, #104]
 504              		.loc 1 79 0
 505 0014 8C68     		ldr	r4, [r1, #8]
 506              	.LVL39:
 507              		.loc 1 80 0
 508 0016 9068     		ldr	r0, [r2, #8]
 509              	.LVL40:
ARM GAS  /tmp/ccTzRrrl.s 			page 10


 510              		.loc 1 79 0
 511 0018 B3F96410 		ldrsh	r1, [r3, #100]
 512              		.loc 1 80 0
 513 001c B3F96C20 		ldrsh	r2, [r3, #108]
 514              		.loc 1 79 0
 515 0020 24FA01F1 		lsr	r1, r4, r1
 516              		.loc 1 80 0
 517 0024 20FA02F2 		lsr	r2, r0, r2
 518              		.loc 1 83 0
 519 0028 01F00101 		and	r1, r1, #1
 520 002c 02F00102 		and	r2, r2, #1
 521 0030 9142     		cmp	r1, r2
 522 0032 5A6D     		ldr	r2, [r3, #84]
 523 0034 14BF     		ite	ne
 524 0036 02F1FF32 		addne	r2, r2, #-1
 525 003a 0132     		addeq	r2, r2, #1
 526 003c 5A65     		str	r2, [r3, #84]
 527              	.LBE56:
 528              	.LBE55:
 529              	.LBB57:
 530              		.loc 1 216 0
 531 003e 0023     		movs	r3, #0
 532              	@ 216 "../../fw/vexencoder.c" 1
 533 0040 83F31188 		msr     BASEPRI, r3
 534              	@ 0 "" 2
 535              		.thumb
 536              	.LBE57:
 537              		.loc 1 217 0
 538 0044 5DF8044B 		ldr	r4, [sp], #4
 539              	.LVL41:
 540 0048 7047     		bx	lr
 541              		.cfi_endproc
 542              	.LFE71:
 543              		.size	_vqe_4_cb_a, .-_vqe_4_cb_a
 544 004a 00BFAFF3 		.section	.text._vqe_1_cb_b,"ax",%progbits
 544      0080
 545              		.align	2
 546              		.p2align 4,,15
 547              		.thumb
 548              		.thumb_func
 549              		.type	_vqe_1_cb_b, %function
 550              	_vqe_1_cb_b:
 551              	.LFB66:
 552              		.loc 1 125 0
 553              		.cfi_startproc
 554              		@ args = 0, pretend = 0, frame = 0
 555              		@ frame_needed = 0, uses_anonymous_args = 0
 556              		@ link register save eliminated.
 557              	.LVL42:
 558 0000 10B4     		push	{r4}
 559              		.cfi_def_cfa_offset 4
 560              		.cfi_offset 4, -4
 561              	.LBB62:
 562              		.loc 1 129 0
 563 0002 2023     		movs	r3, #32
 564              	@ 129 "../../fw/vexencoder.c" 1
 565 0004 83F31188 		msr     BASEPRI, r3
ARM GAS  /tmp/ccTzRrrl.s 			page 11


 566              	@ 0 "" 2
 567              	.LVL43:
 568              		.thumb
 569              	.LBE62:
 570              	.LBB63:
 571              	.LBB64:
 572              		.loc 1 96 0
 573 0008 40F20003 		movw	r3, #:lower16:.LANCHOR0
 574 000c C0F20003 		movt	r3, #:upper16:.LANCHOR0
 575 0010 D968     		ldr	r1, [r3, #12]
 576              	.LVL44:
 577              		.loc 1 97 0
 578 0012 5A69     		ldr	r2, [r3, #20]
 579              		.loc 1 96 0
 580 0014 8C68     		ldr	r4, [r1, #8]
 581              	.LVL45:
 582              		.loc 1 97 0
 583 0016 9068     		ldr	r0, [r2, #8]
 584              	.LVL46:
 585              		.loc 1 96 0
 586 0018 B3F91010 		ldrsh	r1, [r3, #16]
 587              		.loc 1 97 0
 588 001c B3F91820 		ldrsh	r2, [r3, #24]
 589              		.loc 1 96 0
 590 0020 24FA01F1 		lsr	r1, r4, r1
 591              		.loc 1 97 0
 592 0024 20FA02F2 		lsr	r2, r0, r2
 593              		.loc 1 100 0
 594 0028 01F00101 		and	r1, r1, #1
 595 002c 02F00102 		and	r2, r2, #1
 596 0030 9142     		cmp	r1, r2
 597 0032 1A68     		ldr	r2, [r3]
 598 0034 14BF     		ite	ne
 599 0036 0132     		addne	r2, r2, #1
 600 0038 02F1FF32 		addeq	r2, r2, #-1
 601 003c 1A60     		str	r2, [r3]
 602              	.LBE64:
 603              	.LBE63:
 604              	.LBB65:
 605              		.loc 1 134 0
 606 003e 0023     		movs	r3, #0
 607              	@ 134 "../../fw/vexencoder.c" 1
 608 0040 83F31188 		msr     BASEPRI, r3
 609              	@ 0 "" 2
 610              		.thumb
 611              	.LBE65:
 612              		.loc 1 135 0
 613 0044 5DF8044B 		ldr	r4, [sp], #4
 614              	.LVL47:
 615 0048 7047     		bx	lr
 616              		.cfi_endproc
 617              	.LFE66:
 618              		.size	_vqe_1_cb_b, .-_vqe_1_cb_b
 619 004a 00BFAFF3 		.section	.text._vqe_2_cb_b,"ax",%progbits
 619      0080
 620              		.align	2
 621              		.p2align 4,,15
ARM GAS  /tmp/ccTzRrrl.s 			page 12


 622              		.thumb
 623              		.thumb_func
 624              		.type	_vqe_2_cb_b, %function
 625              	_vqe_2_cb_b:
 626              	.LFB68:
 627              		.loc 1 159 0
 628              		.cfi_startproc
 629              		@ args = 0, pretend = 0, frame = 0
 630              		@ frame_needed = 0, uses_anonymous_args = 0
 631              		@ link register save eliminated.
 632              	.LVL48:
 633 0000 10B4     		push	{r4}
 634              		.cfi_def_cfa_offset 4
 635              		.cfi_offset 4, -4
 636              	.LBB70:
 637              		.loc 1 163 0
 638 0002 2023     		movs	r3, #32
 639              	@ 163 "../../fw/vexencoder.c" 1
 640 0004 83F31188 		msr     BASEPRI, r3
 641              	@ 0 "" 2
 642              	.LVL49:
 643              		.thumb
 644              	.LBE70:
 645              	.LBB71:
 646              	.LBB72:
 647              		.loc 1 96 0
 648 0008 40F20003 		movw	r3, #:lower16:.LANCHOR0
 649 000c C0F20003 		movt	r3, #:upper16:.LANCHOR0
 650 0010 996A     		ldr	r1, [r3, #40]
 651              	.LVL50:
 652              		.loc 1 97 0
 653 0012 1A6B     		ldr	r2, [r3, #48]
 654              		.loc 1 96 0
 655 0014 8C68     		ldr	r4, [r1, #8]
 656              	.LVL51:
 657              		.loc 1 97 0
 658 0016 9068     		ldr	r0, [r2, #8]
 659              	.LVL52:
 660              		.loc 1 96 0
 661 0018 B3F92C10 		ldrsh	r1, [r3, #44]
 662              		.loc 1 97 0
 663 001c B3F93420 		ldrsh	r2, [r3, #52]
 664              		.loc 1 96 0
 665 0020 24FA01F1 		lsr	r1, r4, r1
 666              		.loc 1 97 0
 667 0024 20FA02F2 		lsr	r2, r0, r2
 668              		.loc 1 100 0
 669 0028 01F00101 		and	r1, r1, #1
 670 002c 02F00102 		and	r2, r2, #1
 671 0030 9142     		cmp	r1, r2
 672 0032 DA69     		ldr	r2, [r3, #28]
 673 0034 14BF     		ite	ne
 674 0036 0132     		addne	r2, r2, #1
 675 0038 02F1FF32 		addeq	r2, r2, #-1
 676 003c DA61     		str	r2, [r3, #28]
 677              	.LBE72:
 678              	.LBE71:
ARM GAS  /tmp/ccTzRrrl.s 			page 13


 679              	.LBB73:
 680              		.loc 1 168 0
 681 003e 0023     		movs	r3, #0
 682              	@ 168 "../../fw/vexencoder.c" 1
 683 0040 83F31188 		msr     BASEPRI, r3
 684              	@ 0 "" 2
 685              		.thumb
 686              	.LBE73:
 687              		.loc 1 169 0
 688 0044 5DF8044B 		ldr	r4, [sp], #4
 689              	.LVL53:
 690 0048 7047     		bx	lr
 691              		.cfi_endproc
 692              	.LFE68:
 693              		.size	_vqe_2_cb_b, .-_vqe_2_cb_b
 694 004a 00BFAFF3 		.section	.text._vqe_3_cb_b,"ax",%progbits
 694      0080
 695              		.align	2
 696              		.p2align 4,,15
 697              		.thumb
 698              		.thumb_func
 699              		.type	_vqe_3_cb_b, %function
 700              	_vqe_3_cb_b:
 701              	.LFB70:
 702              		.loc 1 193 0
 703              		.cfi_startproc
 704              		@ args = 0, pretend = 0, frame = 0
 705              		@ frame_needed = 0, uses_anonymous_args = 0
 706              		@ link register save eliminated.
 707              	.LVL54:
 708 0000 10B4     		push	{r4}
 709              		.cfi_def_cfa_offset 4
 710              		.cfi_offset 4, -4
 711              	.LBB78:
 712              		.loc 1 197 0
 713 0002 2023     		movs	r3, #32
 714              	@ 197 "../../fw/vexencoder.c" 1
 715 0004 83F31188 		msr     BASEPRI, r3
 716              	@ 0 "" 2
 717              	.LVL55:
 718              		.thumb
 719              	.LBE78:
 720              	.LBB79:
 721              	.LBB80:
 722              		.loc 1 96 0
 723 0008 40F20003 		movw	r3, #:lower16:.LANCHOR0
 724 000c C0F20003 		movt	r3, #:upper16:.LANCHOR0
 725 0010 596C     		ldr	r1, [r3, #68]
 726              	.LVL56:
 727              		.loc 1 97 0
 728 0012 DA6C     		ldr	r2, [r3, #76]
 729              		.loc 1 96 0
 730 0014 8C68     		ldr	r4, [r1, #8]
 731              	.LVL57:
 732              		.loc 1 97 0
 733 0016 9068     		ldr	r0, [r2, #8]
 734              	.LVL58:
ARM GAS  /tmp/ccTzRrrl.s 			page 14


 735              		.loc 1 96 0
 736 0018 B3F94810 		ldrsh	r1, [r3, #72]
 737              		.loc 1 97 0
 738 001c B3F95020 		ldrsh	r2, [r3, #80]
 739              		.loc 1 96 0
 740 0020 24FA01F1 		lsr	r1, r4, r1
 741              		.loc 1 97 0
 742 0024 20FA02F2 		lsr	r2, r0, r2
 743              		.loc 1 100 0
 744 0028 01F00101 		and	r1, r1, #1
 745 002c 02F00102 		and	r2, r2, #1
 746 0030 9142     		cmp	r1, r2
 747 0032 9A6B     		ldr	r2, [r3, #56]
 748 0034 14BF     		ite	ne
 749 0036 0132     		addne	r2, r2, #1
 750 0038 02F1FF32 		addeq	r2, r2, #-1
 751 003c 9A63     		str	r2, [r3, #56]
 752              	.LBE80:
 753              	.LBE79:
 754              	.LBB81:
 755              		.loc 1 202 0
 756 003e 0023     		movs	r3, #0
 757              	@ 202 "../../fw/vexencoder.c" 1
 758 0040 83F31188 		msr     BASEPRI, r3
 759              	@ 0 "" 2
 760              		.thumb
 761              	.LBE81:
 762              		.loc 1 203 0
 763 0044 5DF8044B 		ldr	r4, [sp], #4
 764              	.LVL59:
 765 0048 7047     		bx	lr
 766              		.cfi_endproc
 767              	.LFE70:
 768              		.size	_vqe_3_cb_b, .-_vqe_3_cb_b
 769 004a 00BFAFF3 		.section	.text.vexEncoderInit,"ax",%progbits
 769      0080
 770              		.align	2
 771              		.p2align 4,,15
 772              		.global	vexEncoderInit
 773              		.thumb
 774              		.thumb_func
 775              		.type	vexEncoderInit, %function
 776              	vexEncoderInit:
 777              	.LFB75:
 778              		.loc 1 292 0
 779              		.cfi_startproc
 780              		@ args = 0, pretend = 0, frame = 0
 781              		@ frame_needed = 0, uses_anonymous_args = 0
 782              		@ link register save eliminated.
 783              	.LVL60:
 784 0000 0A4A     		ldr	r2, .L36
 785 0002 0023     		movs	r3, #0
 786 0004 10B4     		push	{r4}
 787              		.cfi_def_cfa_offset 4
 788              		.cfi_offset 4, -4
 789              		.loc 1 297 0
 790 0006 1946     		mov	r1, r3
ARM GAS  /tmp/ccTzRrrl.s 			page 15


 791 0008 A2F10804 		sub	r4, r2, #8
 792              	.LVL61:
 793              	.L33:
 794              		.loc 1 298 0 discriminator 2
 795 000c C3EBC300 		rsb	r0, r3, r3, lsl #3
 796 0010 0133     		adds	r3, r3, #1
 797              	.LVL62:
 798              		.loc 1 295 0 discriminator 2
 799 0012 052B     		cmp	r3, #5
 800              		.loc 1 297 0 discriminator 2
 801 0014 1180     		strh	r1, [r2]	@ movhi
 802              		.loc 1 298 0 discriminator 2
 803 0016 44F82010 		str	r1, [r4, r0, lsl #2]
 804 001a 02F11C02 		add	r2, r2, #28
 805              		.loc 1 299 0 discriminator 2
 806 001e 42F8201C 		str	r1, [r2, #-32]
 807              	.LVL63:
 808              		.loc 1 295 0 discriminator 2
 809 0022 F3D1     		bne	.L33
 810              		.loc 1 301 0
 811 0024 5DF8044B 		ldr	r4, [sp], #4
 812 0028 7047     		bx	lr
 813              	.L37:
 814 002a 00BF     		.align	2
 815              	.L36:
 816 002c 08000000 		.word	.LANCHOR0+8
 817              		.cfi_endproc
 818              	.LFE75:
 819              		.size	vexEncoderInit, .-vexEncoderInit
 820              		.section	.text.vexEncoderAdd,"ax",%progbits
 821              		.align	2
 822              		.p2align 4,,15
 823              		.global	vexEncoderAdd
 824              		.thumb
 825              		.thumb_func
 826              		.type	vexEncoderAdd, %function
 827              	vexEncoderAdd:
 828              	.LFB76:
 829              		.loc 1 315 0
 830              		.cfi_startproc
 831              		@ args = 0, pretend = 0, frame = 0
 832              		@ frame_needed = 0, uses_anonymous_args = 0
 833              	.LVL64:
 834              		.loc 1 316 0
 835 0000 0428     		cmp	r0, #4
 836              		.loc 1 315 0
 837 0002 2DE9F047 		push	{r4, r5, r6, r7, r8, r9, r10, lr}
 838              		.cfi_def_cfa_offset 32
 839              		.cfi_offset 4, -32
 840              		.cfi_offset 5, -28
 841              		.cfi_offset 6, -24
 842              		.cfi_offset 7, -20
 843              		.cfi_offset 8, -16
 844              		.cfi_offset 9, -12
 845              		.cfi_offset 10, -8
 846              		.cfi_offset 14, -4
 847              		.loc 1 315 0
ARM GAS  /tmp/ccTzRrrl.s 			page 16


 848 0006 0446     		mov	r4, r0
 849 0008 0D46     		mov	r5, r1
 850 000a 1646     		mov	r6, r2
 851              		.loc 1 316 0
 852 000c 03D8     		bhi	.L38
 853              		.loc 1 319 0
 854 000e 0B29     		cmp	r1, #11
 855 0010 01DC     		bgt	.L38
 856              		.loc 1 321 0
 857 0012 0B2A     		cmp	r2, #11
 858 0014 01DD     		ble	.L40
 859              	.L38:
 860 0016 BDE8F087 		pop	{r4, r5, r6, r7, r8, r9, r10, pc}
 861              	.L40:
 862              		.loc 1 325 0
 863 001a C0EBC002 		rsb	r2, r0, r0, lsl #3
 864              	.LVL65:
 865 001e 40F20003 		movw	r3, #:lower16:.LANCHOR0
 866 0022 C0F20003 		movt	r3, #:upper16:.LANCHOR0
 867 0026 9200     		lsls	r2, r2, #2
 868 0028 9F18     		adds	r7, r3, r2
 869 002a 4FF00009 		mov	r9, #0
 870 002e 43F80290 		str	r9, [r3, r2]
 871              		.loc 1 329 0
 872 0032 2846     		mov	r0, r5
 873              	.LVL66:
 874 0034 4946     		mov	r1, r9
 875              	.LVL67:
 876              		.loc 1 326 0
 877 0036 C7F80490 		str	r9, [r7, #4]
 878              		.loc 1 329 0
 879 003a FFF7FEFF 		bl	vexDigitalModeSet
 880              	.LVL68:
 881              		.loc 1 331 0
 882 003e 40F20008 		movw	r8, #:lower16:vexioDefinition
 883 0042 05EB4503 		add	r3, r5, r5, lsl #1
 884 0046 C0F20008 		movt	r8, #:upper16:vexioDefinition
 885 004a 9B00     		lsls	r3, r3, #2
 886              		.loc 1 332 0
 887 004c 08EB0302 		add	r2, r8, r3
 888 0050 B2F804C0 		ldrh	ip, [r2, #4]
 889              		.loc 1 331 0
 890 0054 58F803E0 		ldr	lr, [r8, r3]
 891              		.loc 1 333 0
 892 0058 40F20003 		movw	r3, #:lower16:.LANCHOR1
 893 005c C0F20003 		movt	r3, #:upper16:.LANCHOR1
 894 0060 6146     		mov	r1, ip
 895 0062 7046     		mov	r0, lr
 896 0064 53F82430 		ldr	r3, [r3, r4, lsl #2]
 897 0068 0322     		movs	r2, #3
 898              		.loc 1 332 0
 899 006a A7F810C0 		strh	ip, [r7, #16]	@ movhi
 900              		.loc 1 331 0
 901 006e C7F80CE0 		str	lr, [r7, #12]
 902              		.loc 1 330 0
 903 0072 BD72     		strb	r5, [r7, #10]
 904              		.loc 1 333 0
ARM GAS  /tmp/ccTzRrrl.s 			page 17


 905 0074 FFF7FEFF 		bl	vexExtSet
 906              	.LVL69:
 907              		.loc 1 336 0
 908 0078 3046     		mov	r0, r6
 909 007a 4946     		mov	r1, r9
 910 007c FFF7FEFF 		bl	vexDigitalModeSet
 911              	.LVL70:
 912              		.loc 1 338 0
 913 0080 06EB4603 		add	r3, r6, r6, lsl #1
 914 0084 9B00     		lsls	r3, r3, #2
 915              		.loc 1 339 0
 916 0086 08EB0302 		add	r2, r8, r3
 917 008a B2F804E0 		ldrh	lr, [r2, #4]
 918              		.loc 1 338 0
 919 008e 58F80350 		ldr	r5, [r8, r3]
 920              		.loc 1 340 0
 921 0092 40F20003 		movw	r3, #:lower16:.LANCHOR2
 922 0096 C0F20003 		movt	r3, #:upper16:.LANCHOR2
 923 009a 53F82430 		ldr	r3, [r3, r4, lsl #2]
 924 009e 7146     		mov	r1, lr
 925 00a0 2846     		mov	r0, r5
 926 00a2 0322     		movs	r2, #3
 927              		.loc 1 337 0
 928 00a4 FE72     		strb	r6, [r7, #11]
 929              		.loc 1 339 0
 930 00a6 A7F818E0 		strh	lr, [r7, #24]	@ movhi
 931              		.loc 1 338 0
 932 00aa 7D61     		str	r5, [r7, #20]
 933              		.loc 1 340 0
 934 00ac FFF7FEFF 		bl	vexExtSet
 935              	.LVL71:
 936              		.loc 1 342 0
 937 00b0 0123     		movs	r3, #1
 938 00b2 3B81     		strh	r3, [r7, #8]	@ movhi
 939 00b4 BDE8F087 		pop	{r4, r5, r6, r7, r8, r9, r10, pc}
 940              		.cfi_endproc
 941              	.LFE76:
 942              		.size	vexEncoderAdd, .-vexEncoderAdd
 943 00b8 AFF30080 		.section	.text.vexEncoderStart,"ax",%progbits
 943      AFF30080 
 944              		.align	2
 945              		.p2align 4,,15
 946              		.global	vexEncoderStart
 947              		.thumb
 948              		.thumb_func
 949              		.type	vexEncoderStart, %function
 950              	vexEncoderStart:
 951              	.LFB77:
 952              		.loc 1 352 0
 953              		.cfi_startproc
 954              		@ args = 0, pretend = 0, frame = 0
 955              		@ frame_needed = 0, uses_anonymous_args = 0
 956              	.LVL72:
 957              		.loc 1 353 0
 958 0000 40F20003 		movw	r3, #:lower16:.LANCHOR0
 959 0004 C0F20003 		movt	r3, #:upper16:.LANCHOR0
 960 0008 C0EBC000 		rsb	r0, r0, r0, lsl #3
ARM GAS  /tmp/ccTzRrrl.s 			page 18


 961              	.LVL73:
 962              		.loc 1 352 0
 963 000c 10B5     		push	{r4, lr}
 964              		.cfi_def_cfa_offset 8
 965              		.cfi_offset 4, -8
 966              		.cfi_offset 14, -4
 967              		.loc 1 353 0
 968 000e 03EB8004 		add	r4, r3, r0, lsl #2
 969 0012 B4F90830 		ldrsh	r3, [r4, #8]
 970 0016 012B     		cmp	r3, #1
 971 0018 00D0     		beq	.L43
 972 001a 10BD     		pop	{r4, pc}
 973              	.L43:
 974              		.loc 1 355 0
 975 001c 40F20000 		movw	r0, #:lower16:EXTD1
 976 0020 B4F91010 		ldrsh	r1, [r4, #16]
 977 0024 C0F20000 		movt	r0, #:upper16:EXTD1
 978 0028 FFF7FEFF 		bl	extChannelEnable
 979              	.LVL74:
 980              		.loc 1 356 0
 981 002c 40F20000 		movw	r0, #:lower16:EXTD1
 982 0030 B4F91810 		ldrsh	r1, [r4, #24]
 983 0034 C0F20000 		movt	r0, #:upper16:EXTD1
 984              		.loc 1 358 0
 985 0038 BDE81040 		pop	{r4, lr}
 986              		.loc 1 356 0
 987 003c FFF7FEBF 		b	extChannelEnable
 988              	.LVL75:
 989              		.cfi_endproc
 990              	.LFE77:
 991              		.size	vexEncoderStart, .-vexEncoderStart
 992              		.section	.text.vexEncoderStop,"ax",%progbits
 993              		.align	2
 994              		.p2align 4,,15
 995              		.global	vexEncoderStop
 996              		.thumb
 997              		.thumb_func
 998              		.type	vexEncoderStop, %function
 999              	vexEncoderStop:
 1000              	.LFB78:
 1001              		.loc 1 367 0
 1002              		.cfi_startproc
 1003              		@ args = 0, pretend = 0, frame = 0
 1004              		@ frame_needed = 0, uses_anonymous_args = 0
 1005              	.LVL76:
 1006              		.loc 1 368 0
 1007 0000 40F20003 		movw	r3, #:lower16:.LANCHOR0
 1008 0004 C0F20003 		movt	r3, #:upper16:.LANCHOR0
 1009 0008 C0EBC000 		rsb	r0, r0, r0, lsl #3
 1010              	.LVL77:
 1011              		.loc 1 367 0
 1012 000c 10B5     		push	{r4, lr}
 1013              		.cfi_def_cfa_offset 8
 1014              		.cfi_offset 4, -8
 1015              		.cfi_offset 14, -4
 1016              		.loc 1 368 0
 1017 000e 03EB8004 		add	r4, r3, r0, lsl #2
ARM GAS  /tmp/ccTzRrrl.s 			page 19


 1018 0012 B4F90830 		ldrsh	r3, [r4, #8]
 1019 0016 012B     		cmp	r3, #1
 1020 0018 00D0     		beq	.L46
 1021 001a 10BD     		pop	{r4, pc}
 1022              	.L46:
 1023              		.loc 1 370 0
 1024 001c 40F20000 		movw	r0, #:lower16:EXTD1
 1025 0020 B4F91010 		ldrsh	r1, [r4, #16]
 1026 0024 C0F20000 		movt	r0, #:upper16:EXTD1
 1027 0028 FFF7FEFF 		bl	extChannelDisable
 1028              	.LVL78:
 1029              		.loc 1 371 0
 1030 002c 40F20000 		movw	r0, #:lower16:EXTD1
 1031 0030 B4F91810 		ldrsh	r1, [r4, #24]
 1032 0034 C0F20000 		movt	r0, #:upper16:EXTD1
 1033              		.loc 1 373 0
 1034 0038 BDE81040 		pop	{r4, lr}
 1035              		.loc 1 371 0
 1036 003c FFF7FEBF 		b	extChannelDisable
 1037              	.LVL79:
 1038              		.cfi_endproc
 1039              	.LFE78:
 1040              		.size	vexEncoderStop, .-vexEncoderStop
 1041              		.section	.text.vexEncoderStartAll,"ax",%progbits
 1042              		.align	2
 1043              		.p2align 4,,15
 1044              		.global	vexEncoderStartAll
 1045              		.thumb
 1046              		.thumb_func
 1047              		.type	vexEncoderStartAll, %function
 1048              	vexEncoderStartAll:
 1049              	.LFB79:
 1050              		.loc 1 381 0
 1051              		.cfi_startproc
 1052              		@ args = 0, pretend = 0, frame = 0
 1053              		@ frame_needed = 0, uses_anonymous_args = 0
 1054              	.LVL80:
 1055 0000 10B5     		push	{r4, lr}
 1056              		.cfi_def_cfa_offset 8
 1057              		.cfi_offset 4, -8
 1058              		.cfi_offset 14, -4
 1059              		.loc 1 384 0
 1060 0002 0024     		movs	r4, #0
 1061              	.LVL81:
 1062              	.L49:
 1063              		.loc 1 385 0 discriminator 2
 1064 0004 2046     		mov	r0, r4
 1065              		.loc 1 384 0 discriminator 2
 1066 0006 0134     		adds	r4, r4, #1
 1067              	.LVL82:
 1068 0008 E4B2     		uxtb	r4, r4
 1069              		.loc 1 385 0 discriminator 2
 1070 000a FFF7FEFF 		bl	vexEncoderStart
 1071              	.LVL83:
 1072              		.loc 1 384 0 discriminator 2
 1073 000e 052C     		cmp	r4, #5
 1074 0010 F8D1     		bne	.L49
ARM GAS  /tmp/ccTzRrrl.s 			page 20


 1075              		.loc 1 386 0
 1076 0012 10BD     		pop	{r4, pc}
 1077              		.cfi_endproc
 1078              	.LFE79:
 1079              		.size	vexEncoderStartAll, .-vexEncoderStartAll
 1080 0014 AFF30080 		.section	.text.vexEncoderGet,"ax",%progbits
 1080      AFF30080 
 1080      AFF30080 
 1081              		.align	2
 1082              		.p2align 4,,15
 1083              		.global	vexEncoderGet
 1084              		.thumb
 1085              		.thumb_func
 1086              		.type	vexEncoderGet, %function
 1087              	vexEncoderGet:
 1088              	.LFB80:
 1089              		.loc 1 402 0
 1090              		.cfi_startproc
 1091              		@ args = 0, pretend = 0, frame = 0
 1092              		@ frame_needed = 0, uses_anonymous_args = 0
 1093              		@ link register save eliminated.
 1094              	.LVL84:
 1095              		.loc 1 403 0
 1096 0000 83B2     		uxth	r3, r0
 1097 0002 042B     		cmp	r3, #4
 1098 0004 0BD8     		bhi	.L52
 1099              		.loc 1 406 0
 1100 0006 C0EBC000 		rsb	r0, r0, r0, lsl #3
 1101              	.LVL85:
 1102 000a 40F20003 		movw	r3, #:lower16:.LANCHOR0
 1103              	.LVL86:
 1104 000e 8200     		lsls	r2, r0, #2
 1105 0010 C0F20003 		movt	r3, #:upper16:.LANCHOR0
 1106 0014 9918     		adds	r1, r3, r2
 1107 0016 4968     		ldr	r1, [r1, #4]
 1108 0018 9858     		ldr	r0, [r3, r2]
 1109 001a 401A     		subs	r0, r0, r1
 1110 001c 7047     		bx	lr
 1111              	.LVL87:
 1112              	.L52:
 1113              		.loc 1 404 0
 1114 001e 0020     		movs	r0, #0
 1115              	.LVL88:
 1116              		.loc 1 407 0
 1117 0020 7047     		bx	lr
 1118              		.cfi_endproc
 1119              	.LFE80:
 1120              		.size	vexEncoderGet, .-vexEncoderGet
 1121 0022 00BFAFF3 		.section	.text.vexEncoderSet,"ax",%progbits
 1121      0080AFF3 
 1121      0080AFF3 
 1121      0080
 1122              		.align	2
 1123              		.p2align 4,,15
 1124              		.global	vexEncoderSet
 1125              		.thumb
 1126              		.thumb_func
ARM GAS  /tmp/ccTzRrrl.s 			page 21


 1127              		.type	vexEncoderSet, %function
 1128              	vexEncoderSet:
 1129              	.LFB81:
 1130              		.loc 1 421 0
 1131              		.cfi_startproc
 1132              		@ args = 0, pretend = 0, frame = 0
 1133              		@ frame_needed = 0, uses_anonymous_args = 0
 1134              		@ link register save eliminated.
 1135              	.LVL89:
 1136              		.loc 1 422 0
 1137 0000 83B2     		uxth	r3, r0
 1138 0002 042B     		cmp	r3, #4
 1139 0004 0AD8     		bhi	.L53
 1140              		.loc 1 425 0
 1141 0006 C0EBC000 		rsb	r0, r0, r0, lsl #3
 1142              	.LVL90:
 1143 000a 40F20003 		movw	r3, #:lower16:.LANCHOR0
 1144              	.LVL91:
 1145 000e 8000     		lsls	r0, r0, #2
 1146 0010 C0F20003 		movt	r3, #:upper16:.LANCHOR0
 1147 0014 1A58     		ldr	r2, [r3, r0]
 1148 0016 0344     		add	r3, r3, r0
 1149 0018 511A     		subs	r1, r2, r1
 1150              	.LVL92:
 1151 001a 5960     		str	r1, [r3, #4]
 1152              	.L53:
 1153 001c 7047     		bx	lr
 1154              		.cfi_endproc
 1155              	.LFE81:
 1156              		.size	vexEncoderSet, .-vexEncoderSet
 1157 001e 00BF     		.section	.text.vexEncoderGetId,"ax",%progbits
 1158              		.align	2
 1159              		.p2align 4,,15
 1160              		.global	vexEncoderGetId
 1161              		.thumb
 1162              		.thumb_func
 1163              		.type	vexEncoderGetId, %function
 1164              	vexEncoderGetId:
 1165              	.LFB82:
 1166              		.loc 1 442 0
 1167              		.cfi_startproc
 1168              		@ args = 0, pretend = 0, frame = 0
 1169              		@ frame_needed = 0, uses_anonymous_args = 0
 1170              		@ link register save eliminated.
 1171              	.LVL93:
 1172              		.loc 1 443 0
 1173 0000 0428     		cmp	r0, #4
 1174              		.loc 1 447 0
 1175 0002 DFBF     		itttt	le
 1176 0004 40F20003 		movwle	r3, #:lower16:.LANCHOR0
 1177 0008 C0EBC000 		rsble	r0, r0, r0, lsl #3
 1178              	.LVL94:
 1179 000c C0F20003 		movtle	r3, #:upper16:.LANCHOR0
 1180 0010 03EB8003 		addle	r3, r3, r0, lsl #2
 1181 0014 D6BF     		itet	le
 1182 0016 93F90A00 		ldrsble	r0, [r3, #10]
 1183              		.loc 1 444 0
ARM GAS  /tmp/ccTzRrrl.s 			page 22


 1184 001a 4FF6FF70 		movwgt	r0, #65535
 1185              		.loc 1 447 0
 1186 001e 80B2     		uxthle	r0, r0
 1187              		.loc 1 448 0
 1188 0020 00B2     		sxth	r0, r0
 1189 0022 7047     		bx	lr
 1190              		.cfi_endproc
 1191              	.LFE82:
 1192              		.size	vexEncoderGetId, .-vexEncoderGetId
 1193 0024 AFF30080 		.section	.text.vexEncoderDebug,"ax",%progbits
 1193      AFF30080 
 1193      AFF30080 
 1194              		.align	2
 1195              		.p2align 4,,15
 1196              		.global	vexEncoderDebug
 1197              		.thumb
 1198              		.thumb_func
 1199              		.type	vexEncoderDebug, %function
 1200              	vexEncoderDebug:
 1201              	.LFB83:
 1202              		.loc 1 459 0
 1203              		.cfi_startproc
 1204              		@ args = 0, pretend = 0, frame = 0
 1205              		@ frame_needed = 0, uses_anonymous_args = 0
 1206              	.LVL95:
 1207 0000 F0B5     		push	{r4, r5, r6, r7, lr}
 1208              		.cfi_def_cfa_offset 20
 1209              		.cfi_offset 4, -20
 1210              		.cfi_offset 5, -16
 1211              		.cfi_offset 6, -12
 1212              		.cfi_offset 7, -8
 1213              		.cfi_offset 14, -4
 1214 0002 0025     		movs	r5, #0
 1215 0004 40F20006 		movw	r6, #:lower16:.LANCHOR0
 1216 0008 83B0     		sub	sp, sp, #12
 1217              		.cfi_def_cfa_offset 32
 1218              		.loc 1 459 0
 1219 000a 0746     		mov	r7, r0
 1220 000c 2C46     		mov	r4, r5
 1221 000e C0F20006 		movt	r6, #:upper16:.LANCHOR0
 1222              	.LVL96:
 1223              	.L60:
 1224 0012 7219     		adds	r2, r6, r5
 1225              		.loc 1 466 0 discriminator 2
 1226 0014 5268     		ldr	r2, [r2, #4]
 1227 0016 C4EBC403 		rsb	r3, r4, r4, lsl #3
 1228 001a 40F20001 		movw	r1, #:lower16:.LC0
 1229 001e 0092     		str	r2, [sp]
 1230 0020 56F82330 		ldr	r3, [r6, r3, lsl #2]
 1231 0024 2246     		mov	r2, r4
 1232 0026 C0F20001 		movt	r1, #:upper16:.LC0
 1233 002a 3846     		mov	r0, r7
 1234 002c 0134     		adds	r4, r4, #1
 1235              	.LVL97:
 1236 002e FFF7FEFF 		bl	vex_chprintf
 1237              	.LVL98:
 1238              		.loc 1 465 0 discriminator 2
ARM GAS  /tmp/ccTzRrrl.s 			page 23


 1239 0032 052C     		cmp	r4, #5
 1240 0034 05F11C05 		add	r5, r5, #28
 1241 0038 EBD1     		bne	.L60
 1242              		.loc 1 467 0
 1243 003a 03B0     		add	sp, sp, #12
 1244              		@ sp needed
 1245 003c F0BD     		pop	{r4, r5, r6, r7, pc}
 1246              		.cfi_endproc
 1247              	.LFE83:
 1248              		.size	vexEncoderDebug, .-vexEncoderDebug
 1249 003e 00BF     		.section	.rodata._vqe_cb_a,"a",%progbits
 1250              		.align	2
 1251              		.set	.LANCHOR1,. + 0
 1252              		.type	_vqe_cb_a, %object
 1253              		.size	_vqe_cb_a, 20
 1254              	_vqe_cb_a:
 1255 0000 00000000 		.word	_vqe_1_cb_a
 1256 0004 00000000 		.word	_vqe_2_cb_a
 1257 0008 00000000 		.word	_vqe_3_cb_a
 1258 000c 00000000 		.word	_vqe_4_cb_a
 1259 0010 00000000 		.word	_vqe_5_cb_a
 1260              		.section	.rodata._vqe_cb_b,"a",%progbits
 1261              		.align	2
 1262              		.set	.LANCHOR2,. + 0
 1263              		.type	_vqe_cb_b, %object
 1264              		.size	_vqe_cb_b, 20
 1265              	_vqe_cb_b:
 1266 0000 00000000 		.word	_vqe_1_cb_b
 1267 0004 00000000 		.word	_vqe_2_cb_b
 1268 0008 00000000 		.word	_vqe_3_cb_b
 1269 000c 00000000 		.word	_vqe_4_cb_b
 1270 0010 00000000 		.word	_vqe_5_cb_b
 1271              		.section	.rodata.str1.4,"aMS",%progbits,1
 1272              		.align	2
 1273              	.LC0:
 1274 0000 45256420 		.ascii	"E%d %8ld  %8ld\015\012\000"
 1274      25386C64 
 1274      20202538 
 1274      6C640D0A 
 1274      00
 1275 0011 000000   		.section	.bss.vexQuadEncoders,"aw",%nobits
 1276              		.align	2
 1277              		.set	.LANCHOR0,. + 0
 1278              		.type	vexQuadEncoders, %object
 1279              		.size	vexQuadEncoders, 140
 1280              	vexQuadEncoders:
 1281 0000 00000000 		.space	140
 1281      00000000 
 1281      00000000 
 1281      00000000 
 1281      00000000 
 1282              		.text
 1283              	.Letext0:
 1284              		.file 2 "/usr/lib/gcc/arm-none-eabi/4.8.2/include/stddef.h"
 1285              		.file 3 "/usr/include/newlib/machine/_default_types.h"
 1286              		.file 4 "/usr/include/newlib/stdint.h"
 1287              		.file 5 "../../../../ChibiOS_2.6.2/os/ports/GCC/ARMCMx/chtypes.h"
ARM GAS  /tmp/ccTzRrrl.s 			page 24


 1288              		.file 6 "../../../../ChibiOS_2.6.2/os/kernel/include/chstreams.h"
 1289              		.file 7 "../../../../ChibiOS_2.6.2/os/hal/platforms/STM32F1xx/stm32f10x.h"
 1290              		.file 8 "../../../../ChibiOS_2.6.2/os/hal/platforms/STM32/GPIOv1/pal_lld.h"
 1291              		.file 9 "../../../../ChibiOS_2.6.2/os/hal/include/ext.h"
 1292              		.file 10 "../../../../ChibiOS_2.6.2/os/hal/platforms/STM32/ext_lld.h"
 1293              		.file 11 "../../fw/vexcompat.h"
 1294              		.file 12 "../../fw/vexdigital.h"
 1295              		.file 13 "../../fw/vexencoder.h"
 1296              		.file 14 "../../fw/vexime.h"
 1297              		.file 15 "../../../../ChibiOS_2.6.2/os/ports/common/ARMCMx/CMSIS/include/core_cm3.h"
 1298              		.file 16 "../../fw/vexprintf.h"
 1299              		.section	.debug_info,"",%progbits
 1300              	.Ldebug_info0:
 1301 0000 2B100000 		.4byte	0x102b
 1302 0004 0400     		.2byte	0x4
 1303 0006 00000000 		.4byte	.Ldebug_abbrev0
 1304 000a 04       		.byte	0x4
 1305 000b 01       		.uleb128 0x1
 1306 000c 47020000 		.4byte	.LASF130
 1307 0010 01       		.byte	0x1
 1308 0011 C6060000 		.4byte	.LASF131
 1309 0015 F2010000 		.4byte	.LASF132
 1310 0019 00000000 		.4byte	.Ldebug_ranges0+0
 1311 001d 00000000 		.4byte	0
 1312 0021 00000000 		.4byte	.Ldebug_line0
 1313 0025 02       		.uleb128 0x2
 1314 0026 3B000000 		.4byte	.LASF2
 1315 002a 02       		.byte	0x2
 1316 002b D4       		.byte	0xd4
 1317 002c 30000000 		.4byte	0x30
 1318 0030 03       		.uleb128 0x3
 1319 0031 04       		.byte	0x4
 1320 0032 07       		.byte	0x7
 1321 0033 C1010000 		.4byte	.LASF0
 1322 0037 04       		.uleb128 0x4
 1323 0038 04       		.byte	0x4
 1324 0039 05       		.byte	0x5
 1325 003a 696E7400 		.ascii	"int\000"
 1326 003e 03       		.uleb128 0x3
 1327 003f 01       		.byte	0x1
 1328 0040 06       		.byte	0x6
 1329 0041 17070000 		.4byte	.LASF1
 1330 0045 02       		.uleb128 0x2
 1331 0046 42000000 		.4byte	.LASF3
 1332 004a 03       		.byte	0x3
 1333 004b 1C       		.byte	0x1c
 1334 004c 50000000 		.4byte	0x50
 1335 0050 03       		.uleb128 0x3
 1336 0051 01       		.byte	0x1
 1337 0052 08       		.byte	0x8
 1338 0053 C6040000 		.4byte	.LASF4
 1339 0057 02       		.uleb128 0x2
 1340 0058 E8060000 		.4byte	.LASF5
 1341 005c 03       		.byte	0x3
 1342 005d 25       		.byte	0x25
 1343 005e 62000000 		.4byte	0x62
 1344 0062 03       		.uleb128 0x3
ARM GAS  /tmp/ccTzRrrl.s 			page 25


 1345 0063 02       		.byte	0x2
 1346 0064 05       		.byte	0x5
 1347 0065 FE040000 		.4byte	.LASF6
 1348 0069 02       		.uleb128 0x2
 1349 006a F7050000 		.4byte	.LASF7
 1350 006e 03       		.byte	0x3
 1351 006f 26       		.byte	0x26
 1352 0070 74000000 		.4byte	0x74
 1353 0074 03       		.uleb128 0x3
 1354 0075 02       		.byte	0x2
 1355 0076 07       		.byte	0x7
 1356 0077 E4020000 		.4byte	.LASF8
 1357 007b 02       		.uleb128 0x2
 1358 007c 2F060000 		.4byte	.LASF9
 1359 0080 03       		.byte	0x3
 1360 0081 37       		.byte	0x37
 1361 0082 86000000 		.4byte	0x86
 1362 0086 03       		.uleb128 0x3
 1363 0087 04       		.byte	0x4
 1364 0088 05       		.byte	0x5
 1365 0089 07010000 		.4byte	.LASF10
 1366 008d 02       		.uleb128 0x2
 1367 008e 6F010000 		.4byte	.LASF11
 1368 0092 03       		.byte	0x3
 1369 0093 38       		.byte	0x38
 1370 0094 98000000 		.4byte	0x98
 1371 0098 03       		.uleb128 0x3
 1372 0099 04       		.byte	0x4
 1373 009a 07       		.byte	0x7
 1374 009b CE010000 		.4byte	.LASF12
 1375 009f 03       		.uleb128 0x3
 1376 00a0 08       		.byte	0x8
 1377 00a1 05       		.byte	0x5
 1378 00a2 D9000000 		.4byte	.LASF13
 1379 00a6 03       		.uleb128 0x3
 1380 00a7 08       		.byte	0x8
 1381 00a8 07       		.byte	0x7
 1382 00a9 8D000000 		.4byte	.LASF14
 1383 00ad 03       		.uleb128 0x3
 1384 00ae 04       		.byte	0x4
 1385 00af 07       		.byte	0x7
 1386 00b0 E7030000 		.4byte	.LASF15
 1387 00b4 05       		.uleb128 0x5
 1388 00b5 04       		.byte	0x4
 1389 00b6 06       		.uleb128 0x6
 1390 00b7 04       		.byte	0x4
 1391 00b8 BC000000 		.4byte	0xbc
 1392 00bc 03       		.uleb128 0x3
 1393 00bd 01       		.byte	0x1
 1394 00be 08       		.byte	0x8
 1395 00bf 97050000 		.4byte	.LASF16
 1396 00c3 06       		.uleb128 0x6
 1397 00c4 04       		.byte	0x4
 1398 00c5 C9000000 		.4byte	0xc9
 1399 00c9 07       		.uleb128 0x7
 1400 00ca BC000000 		.4byte	0xbc
 1401 00ce 02       		.uleb128 0x2
ARM GAS  /tmp/ccTzRrrl.s 			page 26


 1402 00cf BE060000 		.4byte	.LASF17
 1403 00d3 04       		.byte	0x4
 1404 00d4 2A       		.byte	0x2a
 1405 00d5 45000000 		.4byte	0x45
 1406 00d9 02       		.uleb128 0x2
 1407 00da D1000000 		.4byte	.LASF18
 1408 00de 04       		.byte	0x4
 1409 00df 35       		.byte	0x35
 1410 00e0 57000000 		.4byte	0x57
 1411 00e4 02       		.uleb128 0x2
 1412 00e5 10010000 		.4byte	.LASF19
 1413 00e9 04       		.byte	0x4
 1414 00ea 36       		.byte	0x36
 1415 00eb 69000000 		.4byte	0x69
 1416 00ef 02       		.uleb128 0x2
 1417 00f0 DF030000 		.4byte	.LASF20
 1418 00f4 04       		.byte	0x4
 1419 00f5 41       		.byte	0x41
 1420 00f6 7B000000 		.4byte	0x7b
 1421 00fa 02       		.uleb128 0x2
 1422 00fb 61050000 		.4byte	.LASF21
 1423 00ff 04       		.byte	0x4
 1424 0100 42       		.byte	0x42
 1425 0101 8D000000 		.4byte	0x8d
 1426 0105 03       		.uleb128 0x3
 1427 0106 01       		.byte	0x1
 1428 0107 02       		.byte	0x2
 1429 0108 B0040000 		.4byte	.LASF22
 1430 010c 02       		.uleb128 0x2
 1431 010d 0F030000 		.4byte	.LASF23
 1432 0111 05       		.byte	0x5
 1433 0112 31       		.byte	0x31
 1434 0113 EF000000 		.4byte	0xef
 1435 0117 08       		.uleb128 0x8
 1436 0118 FA000000 		.4byte	0xfa
 1437 011c 06       		.uleb128 0x6
 1438 011d 04       		.byte	0x4
 1439 011e 22010000 		.4byte	0x122
 1440 0122 09       		.uleb128 0x9
 1441 0123 0C010000 		.4byte	0x10c
 1442 0127 31010000 		.4byte	0x131
 1443 012b 0A       		.uleb128 0xa
 1444 012c B4000000 		.4byte	0xb4
 1445 0130 00       		.byte	0
 1446 0131 06       		.uleb128 0x6
 1447 0132 04       		.byte	0x4
 1448 0133 CE000000 		.4byte	0xce
 1449 0137 0B       		.uleb128 0xb
 1450 0138 08050000 		.4byte	.LASF36
 1451 013c 10       		.byte	0x10
 1452 013d 06       		.byte	0x6
 1453 013e 48       		.byte	0x48
 1454 013f 74010000 		.4byte	0x174
 1455 0143 0C       		.uleb128 0xc
 1456 0144 CB030000 		.4byte	.LASF24
 1457 0148 06       		.byte	0x6
 1458 0149 49       		.byte	0x49
ARM GAS  /tmp/ccTzRrrl.s 			page 27


 1459 014a 98010000 		.4byte	0x198
 1460 014e 00       		.byte	0
 1461 014f 0C       		.uleb128 0xc
 1462 0150 F2060000 		.4byte	.LASF25
 1463 0154 06       		.byte	0x6
 1464 0155 49       		.byte	0x49
 1465 0156 B7010000 		.4byte	0x1b7
 1466 015a 04       		.byte	0x4
 1467 015b 0D       		.uleb128 0xd
 1468 015c 70757400 		.ascii	"put\000"
 1469 0160 06       		.byte	0x6
 1470 0161 49       		.byte	0x49
 1471 0162 D1010000 		.4byte	0x1d1
 1472 0166 08       		.byte	0x8
 1473 0167 0D       		.uleb128 0xd
 1474 0168 67657400 		.ascii	"get\000"
 1475 016c 06       		.byte	0x6
 1476 016d 49       		.byte	0x49
 1477 016e 1C010000 		.4byte	0x11c
 1478 0172 0C       		.byte	0xc
 1479 0173 00       		.byte	0
 1480 0174 09       		.uleb128 0x9
 1481 0175 25000000 		.4byte	0x25
 1482 0179 8D010000 		.4byte	0x18d
 1483 017d 0A       		.uleb128 0xa
 1484 017e B4000000 		.4byte	0xb4
 1485 0182 0A       		.uleb128 0xa
 1486 0183 8D010000 		.4byte	0x18d
 1487 0187 0A       		.uleb128 0xa
 1488 0188 25000000 		.4byte	0x25
 1489 018c 00       		.byte	0
 1490 018d 06       		.uleb128 0x6
 1491 018e 04       		.byte	0x4
 1492 018f 93010000 		.4byte	0x193
 1493 0193 07       		.uleb128 0x7
 1494 0194 CE000000 		.4byte	0xce
 1495 0198 06       		.uleb128 0x6
 1496 0199 04       		.byte	0x4
 1497 019a 74010000 		.4byte	0x174
 1498 019e 09       		.uleb128 0x9
 1499 019f 25000000 		.4byte	0x25
 1500 01a3 B7010000 		.4byte	0x1b7
 1501 01a7 0A       		.uleb128 0xa
 1502 01a8 B4000000 		.4byte	0xb4
 1503 01ac 0A       		.uleb128 0xa
 1504 01ad 31010000 		.4byte	0x131
 1505 01b1 0A       		.uleb128 0xa
 1506 01b2 25000000 		.4byte	0x25
 1507 01b6 00       		.byte	0
 1508 01b7 06       		.uleb128 0x6
 1509 01b8 04       		.byte	0x4
 1510 01b9 9E010000 		.4byte	0x19e
 1511 01bd 09       		.uleb128 0x9
 1512 01be 0C010000 		.4byte	0x10c
 1513 01c2 D1010000 		.4byte	0x1d1
 1514 01c6 0A       		.uleb128 0xa
 1515 01c7 B4000000 		.4byte	0xb4
ARM GAS  /tmp/ccTzRrrl.s 			page 28


 1516 01cb 0A       		.uleb128 0xa
 1517 01cc CE000000 		.4byte	0xce
 1518 01d0 00       		.byte	0
 1519 01d1 06       		.uleb128 0x6
 1520 01d2 04       		.byte	0x4
 1521 01d3 BD010000 		.4byte	0x1bd
 1522 01d7 0E       		.uleb128 0xe
 1523 01d8 04       		.byte	0x4
 1524 01d9 06       		.byte	0x6
 1525 01da 51       		.byte	0x51
 1526 01db EC010000 		.4byte	0x1ec
 1527 01df 0D       		.uleb128 0xd
 1528 01e0 766D7400 		.ascii	"vmt\000"
 1529 01e4 06       		.byte	0x6
 1530 01e5 53       		.byte	0x53
 1531 01e6 EC010000 		.4byte	0x1ec
 1532 01ea 00       		.byte	0
 1533 01eb 00       		.byte	0
 1534 01ec 06       		.uleb128 0x6
 1535 01ed 04       		.byte	0x4
 1536 01ee F2010000 		.4byte	0x1f2
 1537 01f2 07       		.uleb128 0x7
 1538 01f3 37010000 		.4byte	0x137
 1539 01f7 02       		.uleb128 0x2
 1540 01f8 A7010000 		.4byte	.LASF26
 1541 01fc 06       		.byte	0x6
 1542 01fd 55       		.byte	0x55
 1543 01fe D7010000 		.4byte	0x1d7
 1544 0202 08       		.uleb128 0x8
 1545 0203 EF000000 		.4byte	0xef
 1546 0207 0F       		.uleb128 0xf
 1547 0208 1C       		.byte	0x1c
 1548 0209 07       		.byte	0x7
 1549 020a F803     		.2byte	0x3f8
 1550 020c 6C020000 		.4byte	0x26c
 1551 0210 10       		.uleb128 0x10
 1552 0211 43524C00 		.ascii	"CRL\000"
 1553 0215 07       		.byte	0x7
 1554 0216 FA03     		.2byte	0x3fa
 1555 0218 17010000 		.4byte	0x117
 1556 021c 00       		.byte	0
 1557 021d 10       		.uleb128 0x10
 1558 021e 43524800 		.ascii	"CRH\000"
 1559 0222 07       		.byte	0x7
 1560 0223 FB03     		.2byte	0x3fb
 1561 0225 17010000 		.4byte	0x117
 1562 0229 04       		.byte	0x4
 1563 022a 10       		.uleb128 0x10
 1564 022b 49445200 		.ascii	"IDR\000"
 1565 022f 07       		.byte	0x7
 1566 0230 FC03     		.2byte	0x3fc
 1567 0232 17010000 		.4byte	0x117
 1568 0236 08       		.byte	0x8
 1569 0237 10       		.uleb128 0x10
 1570 0238 4F445200 		.ascii	"ODR\000"
 1571 023c 07       		.byte	0x7
 1572 023d FD03     		.2byte	0x3fd
ARM GAS  /tmp/ccTzRrrl.s 			page 29


 1573 023f 17010000 		.4byte	0x117
 1574 0243 0C       		.byte	0xc
 1575 0244 11       		.uleb128 0x11
 1576 0245 EC000000 		.4byte	.LASF27
 1577 0249 07       		.byte	0x7
 1578 024a FE03     		.2byte	0x3fe
 1579 024c 17010000 		.4byte	0x117
 1580 0250 10       		.byte	0x10
 1581 0251 10       		.uleb128 0x10
 1582 0252 42525200 		.ascii	"BRR\000"
 1583 0256 07       		.byte	0x7
 1584 0257 FF03     		.2byte	0x3ff
 1585 0259 17010000 		.4byte	0x117
 1586 025d 14       		.byte	0x14
 1587 025e 11       		.uleb128 0x11
 1588 025f ED010000 		.4byte	.LASF28
 1589 0263 07       		.byte	0x7
 1590 0264 0004     		.2byte	0x400
 1591 0266 17010000 		.4byte	0x117
 1592 026a 18       		.byte	0x18
 1593 026b 00       		.byte	0
 1594 026c 12       		.uleb128 0x12
 1595 026d E0010000 		.4byte	.LASF29
 1596 0271 07       		.byte	0x7
 1597 0272 0104     		.2byte	0x401
 1598 0274 07020000 		.4byte	0x207
 1599 0278 02       		.uleb128 0x2
 1600 0279 52060000 		.4byte	.LASF30
 1601 027d 08       		.byte	0x8
 1602 027e 7A       		.byte	0x7a
 1603 027f 83020000 		.4byte	0x283
 1604 0283 06       		.uleb128 0x6
 1605 0284 04       		.byte	0x4
 1606 0285 6C020000 		.4byte	0x26c
 1607 0289 13       		.uleb128 0x13
 1608 028a 01       		.byte	0x1
 1609 028b 09       		.byte	0x9
 1610 028c 4A       		.byte	0x4a
 1611 028d A4020000 		.4byte	0x2a4
 1612 0291 14       		.uleb128 0x14
 1613 0292 78040000 		.4byte	.LASF31
 1614 0296 00       		.sleb128 0
 1615 0297 14       		.uleb128 0x14
 1616 0298 8E050000 		.4byte	.LASF32
 1617 029c 01       		.sleb128 1
 1618 029d 14       		.uleb128 0x14
 1619 029e AF030000 		.4byte	.LASF33
 1620 02a2 02       		.sleb128 2
 1621 02a3 00       		.byte	0
 1622 02a4 02       		.uleb128 0x2
 1623 02a5 02040000 		.4byte	.LASF34
 1624 02a9 09       		.byte	0x9
 1625 02aa 4E       		.byte	0x4e
 1626 02ab 89020000 		.4byte	0x289
 1627 02af 02       		.uleb128 0x2
 1628 02b0 B4060000 		.4byte	.LASF35
 1629 02b4 09       		.byte	0x9
ARM GAS  /tmp/ccTzRrrl.s 			page 30


 1630 02b5 53       		.byte	0x53
 1631 02b6 BA020000 		.4byte	0x2ba
 1632 02ba 0B       		.uleb128 0xb
 1633 02bb B4060000 		.4byte	.LASF35
 1634 02bf 08       		.byte	0x8
 1635 02c0 0A       		.byte	0xa
 1636 02c1 71       		.byte	0x71
 1637 02c2 DF020000 		.4byte	0x2df
 1638 02c6 0C       		.uleb128 0xc
 1639 02c7 F8000000 		.4byte	.LASF37
 1640 02cb 0A       		.byte	0xa
 1641 02cc 75       		.byte	0x75
 1642 02cd A4020000 		.4byte	0x2a4
 1643 02d1 00       		.byte	0
 1644 02d2 0C       		.uleb128 0xc
 1645 02d3 D4050000 		.4byte	.LASF38
 1646 02d7 0A       		.byte	0xa
 1647 02d8 79       		.byte	0x79
 1648 02d9 6C030000 		.4byte	0x36c
 1649 02dd 04       		.byte	0x4
 1650 02de 00       		.byte	0
 1651 02df 02       		.uleb128 0x2
 1652 02e0 4C000000 		.4byte	.LASF39
 1653 02e4 0A       		.byte	0xa
 1654 02e5 47       		.byte	0x47
 1655 02e6 FA000000 		.4byte	0xfa
 1656 02ea 02       		.uleb128 0x2
 1657 02eb 2F050000 		.4byte	.LASF40
 1658 02ef 0A       		.byte	0xa
 1659 02f0 4F       		.byte	0x4f
 1660 02f1 F5020000 		.4byte	0x2f5
 1661 02f5 06       		.uleb128 0x6
 1662 02f6 04       		.byte	0x4
 1663 02f7 FB020000 		.4byte	0x2fb
 1664 02fb 15       		.uleb128 0x15
 1665 02fc 0B030000 		.4byte	0x30b
 1666 0300 0A       		.uleb128 0xa
 1667 0301 0B030000 		.4byte	0x30b
 1668 0305 0A       		.uleb128 0xa
 1669 0306 DF020000 		.4byte	0x2df
 1670 030a 00       		.byte	0
 1671 030b 06       		.uleb128 0x6
 1672 030c 04       		.byte	0x4
 1673 030d AF020000 		.4byte	0x2af
 1674 0311 0E       		.uleb128 0xe
 1675 0312 08       		.byte	0x8
 1676 0313 0A       		.byte	0xa
 1677 0314 54       		.byte	0x54
 1678 0315 31030000 		.4byte	0x331
 1679 0319 0C       		.uleb128 0xc
 1680 031a BC010000 		.4byte	.LASF41
 1681 031e 0A       		.byte	0xa
 1682 031f 58       		.byte	0x58
 1683 0320 FA000000 		.4byte	0xfa
 1684 0324 00       		.byte	0
 1685 0325 0D       		.uleb128 0xd
 1686 0326 636200   		.ascii	"cb\000"
ARM GAS  /tmp/ccTzRrrl.s 			page 31


 1687 0329 0A       		.byte	0xa
 1688 032a 5F       		.byte	0x5f
 1689 032b EA020000 		.4byte	0x2ea
 1690 032f 04       		.byte	0x4
 1691 0330 00       		.byte	0
 1692 0331 02       		.uleb128 0x2
 1693 0332 47010000 		.4byte	.LASF42
 1694 0336 0A       		.byte	0xa
 1695 0337 60       		.byte	0x60
 1696 0338 11030000 		.4byte	0x311
 1697 033c 0E       		.uleb128 0xe
 1698 033d 98       		.byte	0x98
 1699 033e 0A       		.byte	0xa
 1700 033f 66       		.byte	0x66
 1701 0340 51030000 		.4byte	0x351
 1702 0344 0C       		.uleb128 0xc
 1703 0345 FE000000 		.4byte	.LASF43
 1704 0349 0A       		.byte	0xa
 1705 034a 6A       		.byte	0x6a
 1706 034b 51030000 		.4byte	0x351
 1707 034f 00       		.byte	0
 1708 0350 00       		.byte	0
 1709 0351 16       		.uleb128 0x16
 1710 0352 31030000 		.4byte	0x331
 1711 0356 61030000 		.4byte	0x361
 1712 035a 17       		.uleb128 0x17
 1713 035b AD000000 		.4byte	0xad
 1714 035f 12       		.byte	0x12
 1715 0360 00       		.byte	0
 1716 0361 02       		.uleb128 0x2
 1717 0362 05030000 		.4byte	.LASF44
 1718 0366 0A       		.byte	0xa
 1719 0367 6C       		.byte	0x6c
 1720 0368 3C030000 		.4byte	0x33c
 1721 036c 06       		.uleb128 0x6
 1722 036d 04       		.byte	0x4
 1723 036e 72030000 		.4byte	0x372
 1724 0372 07       		.uleb128 0x7
 1725 0373 61030000 		.4byte	0x361
 1726 0377 02       		.uleb128 0x2
 1727 0378 6F060000 		.4byte	.LASF45
 1728 037c 0B       		.byte	0xb
 1729 037d 39       		.byte	0x39
 1730 037e F7010000 		.4byte	0x1f7
 1731 0382 13       		.uleb128 0x13
 1732 0383 01       		.byte	0x1
 1733 0384 0C       		.byte	0xc
 1734 0385 8D       		.byte	0x8d
 1735 0386 DF030000 		.4byte	0x3df
 1736 038a 14       		.uleb128 0x14
 1737 038b 83040000 		.4byte	.LASF46
 1738 038f 7F       		.sleb128 -1
 1739 0390 14       		.uleb128 0x14
 1740 0391 27030000 		.4byte	.LASF47
 1741 0395 00       		.sleb128 0
 1742 0396 14       		.uleb128 0x14
 1743 0397 35030000 		.4byte	.LASF48
ARM GAS  /tmp/ccTzRrrl.s 			page 32


 1744 039b 01       		.sleb128 1
 1745 039c 14       		.uleb128 0x14
 1746 039d 43030000 		.4byte	.LASF49
 1747 03a1 02       		.sleb128 2
 1748 03a2 14       		.uleb128 0x14
 1749 03a3 51030000 		.4byte	.LASF50
 1750 03a7 03       		.sleb128 3
 1751 03a8 14       		.uleb128 0x14
 1752 03a9 5F030000 		.4byte	.LASF51
 1753 03ad 04       		.sleb128 4
 1754 03ae 14       		.uleb128 0x14
 1755 03af 6D030000 		.4byte	.LASF52
 1756 03b3 05       		.sleb128 5
 1757 03b4 14       		.uleb128 0x14
 1758 03b5 7B030000 		.4byte	.LASF53
 1759 03b9 06       		.sleb128 6
 1760 03ba 14       		.uleb128 0x14
 1761 03bb 89030000 		.4byte	.LASF54
 1762 03bf 07       		.sleb128 7
 1763 03c0 14       		.uleb128 0x14
 1764 03c1 39010000 		.4byte	.LASF55
 1765 03c5 08       		.sleb128 8
 1766 03c6 14       		.uleb128 0x14
 1767 03c7 02060000 		.4byte	.LASF56
 1768 03cb 09       		.sleb128 9
 1769 03cc 14       		.uleb128 0x14
 1770 03cd 11060000 		.4byte	.LASF57
 1771 03d1 0A       		.sleb128 10
 1772 03d2 14       		.uleb128 0x14
 1773 03d3 20060000 		.4byte	.LASF58
 1774 03d7 0B       		.sleb128 11
 1775 03d8 14       		.uleb128 0x14
 1776 03d9 A4000000 		.4byte	.LASF59
 1777 03dd 0C       		.sleb128 12
 1778 03de 00       		.byte	0
 1779 03df 02       		.uleb128 0x2
 1780 03e0 4B070000 		.4byte	.LASF60
 1781 03e4 0C       		.byte	0xc
 1782 03e5 9D       		.byte	0x9d
 1783 03e6 82030000 		.4byte	0x382
 1784 03ea 13       		.uleb128 0x13
 1785 03eb 01       		.byte	0x1
 1786 03ec 0C       		.byte	0xc
 1787 03ed A2       		.byte	0xa2
 1788 03ee FF030000 		.4byte	0x3ff
 1789 03f2 14       		.uleb128 0x14
 1790 03f3 3A070000 		.4byte	.LASF61
 1791 03f7 00       		.sleb128 0
 1792 03f8 14       		.uleb128 0x14
 1793 03f9 7B000000 		.4byte	.LASF62
 1794 03fd 01       		.sleb128 1
 1795 03fe 00       		.byte	0
 1796 03ff 02       		.uleb128 0x2
 1797 0400 29010000 		.4byte	.LASF63
 1798 0404 0C       		.byte	0xc
 1799 0405 A5       		.byte	0xa5
 1800 0406 EA030000 		.4byte	0x3ea
ARM GAS  /tmp/ccTzRrrl.s 			page 33


 1801 040a 0B       		.uleb128 0xb
 1802 040b 28050000 		.4byte	.LASF64
 1803 040f 0C       		.byte	0xc
 1804 0410 0C       		.byte	0xc
 1805 0411 B2       		.byte	0xb2
 1806 0412 47040000 		.4byte	0x447
 1807 0416 0C       		.uleb128 0xc
 1808 0417 9C010000 		.4byte	.LASF65
 1809 041b 0C       		.byte	0xc
 1810 041c B3       		.byte	0xb3
 1811 041d 78020000 		.4byte	0x278
 1812 0421 00       		.byte	0
 1813 0422 0D       		.uleb128 0xd
 1814 0423 70616400 		.ascii	"pad\000"
 1815 0427 0C       		.byte	0xc
 1816 0428 B4       		.byte	0xb4
 1817 0429 D9000000 		.4byte	0xd9
 1818 042d 04       		.byte	0x4
 1819 042e 0C       		.uleb128 0xc
 1820 042f BC010000 		.4byte	.LASF41
 1821 0433 0C       		.byte	0xc
 1822 0434 B5       		.byte	0xb5
 1823 0435 FF030000 		.4byte	0x3ff
 1824 0439 06       		.byte	0x6
 1825 043a 0C       		.uleb128 0xc
 1826 043b 58010000 		.4byte	.LASF66
 1827 043f 0C       		.byte	0xc
 1828 0440 B6       		.byte	0xb6
 1829 0441 EF000000 		.4byte	0xef
 1830 0445 08       		.byte	0x8
 1831 0446 00       		.byte	0
 1832 0447 02       		.uleb128 0x2
 1833 0448 21030000 		.4byte	.LASF67
 1834 044c 0C       		.byte	0xc
 1835 044d B7       		.byte	0xb7
 1836 044e 0A040000 		.4byte	0x40a
 1837 0452 13       		.uleb128 0x13
 1838 0453 01       		.byte	0x1
 1839 0454 0D       		.byte	0xd
 1840 0455 39       		.byte	0x39
 1841 0456 7F040000 		.4byte	0x47f
 1842 045a 14       		.uleb128 0x14
 1843 045b 4F050000 		.4byte	.LASF68
 1844 045f 00       		.sleb128 0
 1845 0460 14       		.uleb128 0x14
 1846 0461 6A050000 		.4byte	.LASF69
 1847 0465 01       		.sleb128 1
 1848 0466 14       		.uleb128 0x14
 1849 0467 F0030000 		.4byte	.LASF70
 1850 046b 02       		.sleb128 2
 1851 046c 14       		.uleb128 0x14
 1852 046d 7C050000 		.4byte	.LASF71
 1853 0471 03       		.sleb128 3
 1854 0472 14       		.uleb128 0x14
 1855 0473 0D040000 		.4byte	.LASF72
 1856 0477 04       		.sleb128 4
 1857 0478 14       		.uleb128 0x14
ARM GAS  /tmp/ccTzRrrl.s 			page 34


 1858 0479 10000000 		.4byte	.LASF73
 1859 047d 05       		.sleb128 5
 1860 047e 00       		.byte	0
 1861 047f 02       		.uleb128 0x2
 1862 0480 8C060000 		.4byte	.LASF74
 1863 0484 0D       		.byte	0xd
 1864 0485 41       		.byte	0x41
 1865 0486 52040000 		.4byte	0x452
 1866 048a 0B       		.uleb128 0xb
 1867 048b 5D060000 		.4byte	.LASF75
 1868 048f 1C       		.byte	0x1c
 1869 0490 0D       		.byte	0xd
 1870 0491 4C       		.byte	0x4c
 1871 0492 01050000 		.4byte	0x501
 1872 0496 0C       		.uleb128 0xc
 1873 0497 0A000000 		.4byte	.LASF76
 1874 049b 0D       		.byte	0xd
 1875 049c 4D       		.byte	0x4d
 1876 049d 02020000 		.4byte	0x202
 1877 04a1 00       		.byte	0
 1878 04a2 0C       		.uleb128 0xc
 1879 04a3 4B060000 		.4byte	.LASF77
 1880 04a7 0D       		.byte	0xd
 1881 04a8 4E       		.byte	0x4e
 1882 04a9 EF000000 		.4byte	0xef
 1883 04ad 04       		.byte	0x4
 1884 04ae 0C       		.uleb128 0xc
 1885 04af F8000000 		.4byte	.LASF37
 1886 04b3 0D       		.byte	0xd
 1887 04b4 4F       		.byte	0x4f
 1888 04b5 D9000000 		.4byte	0xd9
 1889 04b9 08       		.byte	0x8
 1890 04ba 0D       		.uleb128 0xd
 1891 04bb 706100   		.ascii	"pa\000"
 1892 04be 0D       		.byte	0xd
 1893 04bf 50       		.byte	0x50
 1894 04c0 DF030000 		.4byte	0x3df
 1895 04c4 0A       		.byte	0xa
 1896 04c5 0D       		.uleb128 0xd
 1897 04c6 706200   		.ascii	"pb\000"
 1898 04c9 0D       		.byte	0xd
 1899 04ca 51       		.byte	0x51
 1900 04cb DF030000 		.4byte	0x3df
 1901 04cf 0B       		.byte	0xb
 1902 04d0 0C       		.uleb128 0xc
 1903 04d1 24000000 		.4byte	.LASF78
 1904 04d5 0D       		.byte	0xd
 1905 04d6 52       		.byte	0x52
 1906 04d7 78020000 		.4byte	0x278
 1907 04db 0C       		.byte	0xc
 1908 04dc 0C       		.uleb128 0xc
 1909 04dd 37040000 		.4byte	.LASF79
 1910 04e1 0D       		.byte	0xd
 1911 04e2 53       		.byte	0x53
 1912 04e3 D9000000 		.4byte	0xd9
 1913 04e7 10       		.byte	0x10
 1914 04e8 0C       		.uleb128 0xc
ARM GAS  /tmp/ccTzRrrl.s 			page 35


 1915 04e9 97030000 		.4byte	.LASF80
 1916 04ed 0D       		.byte	0xd
 1917 04ee 54       		.byte	0x54
 1918 04ef 78020000 		.4byte	0x278
 1919 04f3 14       		.byte	0x14
 1920 04f4 0C       		.uleb128 0xc
 1921 04f5 F1000000 		.4byte	.LASF81
 1922 04f9 0D       		.byte	0xd
 1923 04fa 55       		.byte	0x55
 1924 04fb D9000000 		.4byte	0xd9
 1925 04ff 18       		.byte	0x18
 1926 0500 00       		.byte	0
 1927 0501 02       		.uleb128 0x2
 1928 0502 BA030000 		.4byte	.LASF82
 1929 0506 0D       		.byte	0xd
 1930 0507 56       		.byte	0x56
 1931 0508 8A040000 		.4byte	0x48a
 1932 050c 13       		.uleb128 0x13
 1933 050d 01       		.byte	0x1
 1934 050e 0E       		.byte	0xe
 1935 050f 46       		.byte	0x46
 1936 0510 52050000 		.4byte	0x552
 1937 0514 14       		.uleb128 0x14
 1938 0515 94040000 		.4byte	.LASF83
 1939 0519 00       		.sleb128 0
 1940 051a 14       		.uleb128 0x14
 1941 051b 9C050000 		.4byte	.LASF84
 1942 051f 01       		.sleb128 1
 1943 0520 14       		.uleb128 0x14
 1944 0521 AA050000 		.4byte	.LASF85
 1945 0525 02       		.sleb128 2
 1946 0526 14       		.uleb128 0x14
 1947 0527 B8050000 		.4byte	.LASF86
 1948 052b 03       		.sleb128 3
 1949 052c 14       		.uleb128 0x14
 1950 052d C6050000 		.4byte	.LASF87
 1951 0531 04       		.sleb128 4
 1952 0532 14       		.uleb128 0x14
 1953 0533 A2040000 		.4byte	.LASF88
 1954 0537 05       		.sleb128 5
 1955 0538 14       		.uleb128 0x14
 1956 0539 DB050000 		.4byte	.LASF89
 1957 053d 06       		.sleb128 6
 1958 053e 14       		.uleb128 0x14
 1959 053f E9050000 		.4byte	.LASF90
 1960 0543 07       		.sleb128 7
 1961 0544 14       		.uleb128 0x14
 1962 0545 92010000 		.4byte	.LASF91
 1963 0549 08       		.sleb128 8
 1964 054a 14       		.uleb128 0x14
 1965 054b EE040000 		.4byte	.LASF92
 1966 054f E300     		.sleb128 99
 1967 0551 00       		.byte	0
 1968 0552 06       		.uleb128 0x6
 1969 0553 04       		.byte	0x4
 1970 0554 77030000 		.4byte	0x377
 1971 0558 06       		.uleb128 0x6
ARM GAS  /tmp/ccTzRrrl.s 			page 36


 1972 0559 04       		.byte	0x4
 1973 055a B6000000 		.4byte	0xb6
 1974 055e 18       		.uleb128 0x18
 1975 055f 54040000 		.4byte	.LASF95
 1976 0563 01       		.byte	0x1
 1977 0564 5A       		.byte	0x5a
 1978 0565 03       		.byte	0x3
 1979 0566 8A050000 		.4byte	0x58a
 1980 056a 19       		.uleb128 0x19
 1981 056b 656E6300 		.ascii	"enc\000"
 1982 056f 01       		.byte	0x1
 1983 0570 5A       		.byte	0x5a
 1984 0571 8A050000 		.4byte	0x58a
 1985 0575 1A       		.uleb128 0x1a
 1986 0576 706100   		.ascii	"pa\000"
 1987 0579 01       		.byte	0x1
 1988 057a 5C       		.byte	0x5c
 1989 057b D9000000 		.4byte	0xd9
 1990 057f 1A       		.uleb128 0x1a
 1991 0580 706200   		.ascii	"pb\000"
 1992 0583 01       		.byte	0x1
 1993 0584 5D       		.byte	0x5d
 1994 0585 D9000000 		.4byte	0xd9
 1995 0589 00       		.byte	0
 1996 058a 06       		.uleb128 0x6
 1997 058b 04       		.byte	0x4
 1998 058c 01050000 		.4byte	0x501
 1999 0590 1B       		.uleb128 0x1b
 2000 0591 DC060000 		.4byte	.LASF97
 2001 0595 01       		.byte	0x1
 2002 0596 DF       		.byte	0xdf
 2003 0597 00000000 		.4byte	.LFB72
 2004 059b 4A000000 		.4byte	.LFE72-.LFB72
 2005 059f 01       		.uleb128 0x1
 2006 05a0 9C       		.byte	0x9c
 2007 05a1 40060000 		.4byte	0x640
 2008 05a5 1C       		.uleb128 0x1c
 2009 05a6 E7000000 		.4byte	.LASF93
 2010 05aa 01       		.byte	0x1
 2011 05ab DF       		.byte	0xdf
 2012 05ac 0B030000 		.4byte	0x30b
 2013 05b0 00000000 		.4byte	.LLST0
 2014 05b4 1C       		.uleb128 0x1c
 2015 05b5 20050000 		.4byte	.LASF94
 2016 05b9 01       		.byte	0x1
 2017 05ba DF       		.byte	0xdf
 2018 05bb DF020000 		.4byte	0x2df
 2019 05bf 21000000 		.4byte	.LLST1
 2020 05c3 1D       		.uleb128 0x1d
 2021 05c4 02000000 		.4byte	.LBB6
 2022 05c8 06000000 		.4byte	.LBE6-.LBB6
 2023 05cc DE050000 		.4byte	0x5de
 2024 05d0 1E       		.uleb128 0x1e
 2025 05d1 746D7000 		.ascii	"tmp\000"
 2026 05d5 01       		.byte	0x1
 2027 05d6 E4       		.byte	0xe4
 2028 05d7 FA000000 		.4byte	0xfa
ARM GAS  /tmp/ccTzRrrl.s 			page 37


 2029 05db 01       		.uleb128 0x1
 2030 05dc 53       		.byte	0x53
 2031 05dd 00       		.byte	0
 2032 05de 1F       		.uleb128 0x1f
 2033 05df 5E050000 		.4byte	0x55e
 2034 05e3 08000000 		.4byte	.LBB7
 2035 05e7 36000000 		.4byte	.LBE7-.LBB7
 2036 05eb 01       		.byte	0x1
 2037 05ec E7       		.byte	0xe7
 2038 05ed 28060000 		.4byte	0x628
 2039 05f1 20       		.uleb128 0x20
 2040 05f2 6A050000 		.4byte	0x56a
 2041 05f6 06       		.uleb128 0x6
 2042 05f7 03       		.byte	0x3
 2043 05f8 54000000 		.4byte	vexQuadEncoders+84
 2044 05fc 9F       		.byte	0x9f
 2045 05fd 21       		.uleb128 0x21
 2046 05fe 08000000 		.4byte	.LBB8
 2047 0602 36000000 		.4byte	.LBE8-.LBB8
 2048 0606 22       		.uleb128 0x22
 2049 0607 75050000 		.4byte	0x575
 2050 060b 42000000 		.4byte	.LLST2
 2051 060f 23       		.uleb128 0x23
 2052 0610 7F050000 		.4byte	0x57f
 2053 0614 11       		.uleb128 0x11
 2054 0615 70       		.byte	0x70
 2055 0616 00       		.sleb128 0
 2056 0617 03       		.byte	0x3
 2057 0618 6C000000 		.4byte	vexQuadEncoders+108
 2058 061c 94       		.byte	0x94
 2059 061d 02       		.byte	0x2
 2060 061e 40       		.byte	0x40
 2061 061f 24       		.byte	0x24
 2062 0620 40       		.byte	0x40
 2063 0621 26       		.byte	0x26
 2064 0622 25       		.byte	0x25
 2065 0623 31       		.byte	0x31
 2066 0624 1A       		.byte	0x1a
 2067 0625 9F       		.byte	0x9f
 2068 0626 00       		.byte	0
 2069 0627 00       		.byte	0
 2070 0628 21       		.uleb128 0x21
 2071 0629 3E000000 		.4byte	.LBB9
 2072 062d 06000000 		.4byte	.LBE9-.LBB9
 2073 0631 1E       		.uleb128 0x1e
 2074 0632 746D7000 		.ascii	"tmp\000"
 2075 0636 01       		.byte	0x1
 2076 0637 E9       		.byte	0xe9
 2077 0638 FA000000 		.4byte	0xfa
 2078 063c 01       		.uleb128 0x1
 2079 063d 53       		.byte	0x53
 2080 063e 00       		.byte	0
 2081 063f 00       		.byte	0
 2082 0640 18       		.uleb128 0x18
 2083 0641 3E040000 		.4byte	.LASF96
 2084 0645 01       		.byte	0x1
 2085 0646 49       		.byte	0x49
ARM GAS  /tmp/ccTzRrrl.s 			page 38


 2086 0647 03       		.byte	0x3
 2087 0648 6C060000 		.4byte	0x66c
 2088 064c 19       		.uleb128 0x19
 2089 064d 656E6300 		.ascii	"enc\000"
 2090 0651 01       		.byte	0x1
 2091 0652 49       		.byte	0x49
 2092 0653 8A050000 		.4byte	0x58a
 2093 0657 1A       		.uleb128 0x1a
 2094 0658 706100   		.ascii	"pa\000"
 2095 065b 01       		.byte	0x1
 2096 065c 4B       		.byte	0x4b
 2097 065d D9000000 		.4byte	0xd9
 2098 0661 1A       		.uleb128 0x1a
 2099 0662 706200   		.ascii	"pb\000"
 2100 0665 01       		.byte	0x1
 2101 0666 4C       		.byte	0x4c
 2102 0667 D9000000 		.4byte	0xd9
 2103 066b 00       		.byte	0
 2104 066c 1B       		.uleb128 0x1b
 2105 066d 63000000 		.4byte	.LASF98
 2106 0671 01       		.byte	0x1
 2107 0672 ED       		.byte	0xed
 2108 0673 00000000 		.4byte	.LFB73
 2109 0677 4C000000 		.4byte	.LFE73-.LFB73
 2110 067b 01       		.uleb128 0x1
 2111 067c 9C       		.byte	0x9c
 2112 067d 1C070000 		.4byte	0x71c
 2113 0681 1C       		.uleb128 0x1c
 2114 0682 E7000000 		.4byte	.LASF93
 2115 0686 01       		.byte	0x1
 2116 0687 ED       		.byte	0xed
 2117 0688 0B030000 		.4byte	0x30b
 2118 068c 65000000 		.4byte	.LLST3
 2119 0690 1C       		.uleb128 0x1c
 2120 0691 20050000 		.4byte	.LASF94
 2121 0695 01       		.byte	0x1
 2122 0696 ED       		.byte	0xed
 2123 0697 DF020000 		.4byte	0x2df
 2124 069b 86000000 		.4byte	.LLST4
 2125 069f 1D       		.uleb128 0x1d
 2126 06a0 02000000 		.4byte	.LBB14
 2127 06a4 06000000 		.4byte	.LBE14-.LBB14
 2128 06a8 BA060000 		.4byte	0x6ba
 2129 06ac 1E       		.uleb128 0x1e
 2130 06ad 746D7000 		.ascii	"tmp\000"
 2131 06b1 01       		.byte	0x1
 2132 06b2 F2       		.byte	0xf2
 2133 06b3 FA000000 		.4byte	0xfa
 2134 06b7 01       		.uleb128 0x1
 2135 06b8 53       		.byte	0x53
 2136 06b9 00       		.byte	0
 2137 06ba 1F       		.uleb128 0x1f
 2138 06bb 40060000 		.4byte	0x640
 2139 06bf 08000000 		.4byte	.LBB15
 2140 06c3 38000000 		.4byte	.LBE15-.LBB15
 2141 06c7 01       		.byte	0x1
 2142 06c8 F5       		.byte	0xf5
ARM GAS  /tmp/ccTzRrrl.s 			page 39


 2143 06c9 04070000 		.4byte	0x704
 2144 06cd 20       		.uleb128 0x20
 2145 06ce 4C060000 		.4byte	0x64c
 2146 06d2 06       		.uleb128 0x6
 2147 06d3 03       		.byte	0x3
 2148 06d4 70000000 		.4byte	vexQuadEncoders+112
 2149 06d8 9F       		.byte	0x9f
 2150 06d9 21       		.uleb128 0x21
 2151 06da 08000000 		.4byte	.LBB16
 2152 06de 38000000 		.4byte	.LBE16-.LBB16
 2153 06e2 22       		.uleb128 0x22
 2154 06e3 57060000 		.4byte	0x657
 2155 06e7 A7000000 		.4byte	.LLST5
 2156 06eb 23       		.uleb128 0x23
 2157 06ec 61060000 		.4byte	0x661
 2158 06f0 11       		.uleb128 0x11
 2159 06f1 70       		.byte	0x70
 2160 06f2 00       		.sleb128 0
 2161 06f3 03       		.byte	0x3
 2162 06f4 88000000 		.4byte	vexQuadEncoders+136
 2163 06f8 94       		.byte	0x94
 2164 06f9 02       		.byte	0x2
 2165 06fa 40       		.byte	0x40
 2166 06fb 24       		.byte	0x24
 2167 06fc 40       		.byte	0x40
 2168 06fd 26       		.byte	0x26
 2169 06fe 25       		.byte	0x25
 2170 06ff 31       		.byte	0x31
 2171 0700 1A       		.byte	0x1a
 2172 0701 9F       		.byte	0x9f
 2173 0702 00       		.byte	0
 2174 0703 00       		.byte	0
 2175 0704 21       		.uleb128 0x21
 2176 0705 40000000 		.4byte	.LBB17
 2177 0709 06000000 		.4byte	.LBE17-.LBB17
 2178 070d 1E       		.uleb128 0x1e
 2179 070e 746D7000 		.ascii	"tmp\000"
 2180 0712 01       		.byte	0x1
 2181 0713 F7       		.byte	0xf7
 2182 0714 FA000000 		.4byte	0xfa
 2183 0718 01       		.uleb128 0x1
 2184 0719 53       		.byte	0x53
 2185 071a 00       		.byte	0
 2186 071b 00       		.byte	0
 2187 071c 1B       		.uleb128 0x1b
 2188 071d 6F000000 		.4byte	.LASF99
 2189 0721 01       		.byte	0x1
 2190 0722 FE       		.byte	0xfe
 2191 0723 00000000 		.4byte	.LFB74
 2192 0727 4C000000 		.4byte	.LFE74-.LFB74
 2193 072b 01       		.uleb128 0x1
 2194 072c 9C       		.byte	0x9c
 2195 072d CF070000 		.4byte	0x7cf
 2196 0731 1C       		.uleb128 0x1c
 2197 0732 E7000000 		.4byte	.LASF93
 2198 0736 01       		.byte	0x1
 2199 0737 FE       		.byte	0xfe
ARM GAS  /tmp/ccTzRrrl.s 			page 40


 2200 0738 0B030000 		.4byte	0x30b
 2201 073c CA000000 		.4byte	.LLST6
 2202 0740 1C       		.uleb128 0x1c
 2203 0741 20050000 		.4byte	.LASF94
 2204 0745 01       		.byte	0x1
 2205 0746 FE       		.byte	0xfe
 2206 0747 DF020000 		.4byte	0x2df
 2207 074b EB000000 		.4byte	.LLST7
 2208 074f 1D       		.uleb128 0x1d
 2209 0750 02000000 		.4byte	.LBB22
 2210 0754 06000000 		.4byte	.LBE22-.LBB22
 2211 0758 6B070000 		.4byte	0x76b
 2212 075c 24       		.uleb128 0x24
 2213 075d 746D7000 		.ascii	"tmp\000"
 2214 0761 01       		.byte	0x1
 2215 0762 0301     		.2byte	0x103
 2216 0764 FA000000 		.4byte	0xfa
 2217 0768 01       		.uleb128 0x1
 2218 0769 53       		.byte	0x53
 2219 076a 00       		.byte	0
 2220 076b 25       		.uleb128 0x25
 2221 076c 5E050000 		.4byte	0x55e
 2222 0770 08000000 		.4byte	.LBB23
 2223 0774 38000000 		.4byte	.LBE23-.LBB23
 2224 0778 01       		.byte	0x1
 2225 0779 0601     		.2byte	0x106
 2226 077b B6070000 		.4byte	0x7b6
 2227 077f 20       		.uleb128 0x20
 2228 0780 6A050000 		.4byte	0x56a
 2229 0784 06       		.uleb128 0x6
 2230 0785 03       		.byte	0x3
 2231 0786 70000000 		.4byte	vexQuadEncoders+112
 2232 078a 9F       		.byte	0x9f
 2233 078b 21       		.uleb128 0x21
 2234 078c 08000000 		.4byte	.LBB24
 2235 0790 38000000 		.4byte	.LBE24-.LBB24
 2236 0794 22       		.uleb128 0x22
 2237 0795 75050000 		.4byte	0x575
 2238 0799 0C010000 		.4byte	.LLST8
 2239 079d 23       		.uleb128 0x23
 2240 079e 7F050000 		.4byte	0x57f
 2241 07a2 11       		.uleb128 0x11
 2242 07a3 70       		.byte	0x70
 2243 07a4 00       		.sleb128 0
 2244 07a5 03       		.byte	0x3
 2245 07a6 88000000 		.4byte	vexQuadEncoders+136
 2246 07aa 94       		.byte	0x94
 2247 07ab 02       		.byte	0x2
 2248 07ac 40       		.byte	0x40
 2249 07ad 24       		.byte	0x24
 2250 07ae 40       		.byte	0x40
 2251 07af 26       		.byte	0x26
 2252 07b0 25       		.byte	0x25
 2253 07b1 31       		.byte	0x31
 2254 07b2 1A       		.byte	0x1a
 2255 07b3 9F       		.byte	0x9f
 2256 07b4 00       		.byte	0
ARM GAS  /tmp/ccTzRrrl.s 			page 41


 2257 07b5 00       		.byte	0
 2258 07b6 21       		.uleb128 0x21
 2259 07b7 40000000 		.4byte	.LBB25
 2260 07bb 06000000 		.4byte	.LBE25-.LBB25
 2261 07bf 24       		.uleb128 0x24
 2262 07c0 746D7000 		.ascii	"tmp\000"
 2263 07c4 01       		.byte	0x1
 2264 07c5 0801     		.2byte	0x108
 2265 07c7 FA000000 		.4byte	0xfa
 2266 07cb 01       		.uleb128 0x1
 2267 07cc 53       		.byte	0x53
 2268 07cd 00       		.byte	0
 2269 07ce 00       		.byte	0
 2270 07cf 1B       		.uleb128 0x1b
 2271 07d0 7A010000 		.4byte	.LASF100
 2272 07d4 01       		.byte	0x1
 2273 07d5 6B       		.byte	0x6b
 2274 07d6 00000000 		.4byte	.LFB65
 2275 07da 4A000000 		.4byte	.LFE65-.LFB65
 2276 07de 01       		.uleb128 0x1
 2277 07df 9C       		.byte	0x9c
 2278 07e0 7F080000 		.4byte	0x87f
 2279 07e4 1C       		.uleb128 0x1c
 2280 07e5 E7000000 		.4byte	.LASF93
 2281 07e9 01       		.byte	0x1
 2282 07ea 6B       		.byte	0x6b
 2283 07eb 0B030000 		.4byte	0x30b
 2284 07ef 2F010000 		.4byte	.LLST9
 2285 07f3 1C       		.uleb128 0x1c
 2286 07f4 20050000 		.4byte	.LASF94
 2287 07f8 01       		.byte	0x1
 2288 07f9 6B       		.byte	0x6b
 2289 07fa DF020000 		.4byte	0x2df
 2290 07fe 50010000 		.4byte	.LLST10
 2291 0802 1D       		.uleb128 0x1d
 2292 0803 02000000 		.4byte	.LBB30
 2293 0807 06000000 		.4byte	.LBE30-.LBB30
 2294 080b 1D080000 		.4byte	0x81d
 2295 080f 1E       		.uleb128 0x1e
 2296 0810 746D7000 		.ascii	"tmp\000"
 2297 0814 01       		.byte	0x1
 2298 0815 70       		.byte	0x70
 2299 0816 FA000000 		.4byte	0xfa
 2300 081a 01       		.uleb128 0x1
 2301 081b 53       		.byte	0x53
 2302 081c 00       		.byte	0
 2303 081d 1F       		.uleb128 0x1f
 2304 081e 40060000 		.4byte	0x640
 2305 0822 08000000 		.4byte	.LBB31
 2306 0826 36000000 		.4byte	.LBE31-.LBB31
 2307 082a 01       		.byte	0x1
 2308 082b 73       		.byte	0x73
 2309 082c 67080000 		.4byte	0x867
 2310 0830 20       		.uleb128 0x20
 2311 0831 4C060000 		.4byte	0x64c
 2312 0835 06       		.uleb128 0x6
 2313 0836 03       		.byte	0x3
ARM GAS  /tmp/ccTzRrrl.s 			page 42


 2314 0837 00000000 		.4byte	vexQuadEncoders
 2315 083b 9F       		.byte	0x9f
 2316 083c 21       		.uleb128 0x21
 2317 083d 08000000 		.4byte	.LBB32
 2318 0841 36000000 		.4byte	.LBE32-.LBB32
 2319 0845 22       		.uleb128 0x22
 2320 0846 57060000 		.4byte	0x657
 2321 084a 71010000 		.4byte	.LLST11
 2322 084e 23       		.uleb128 0x23
 2323 084f 61060000 		.4byte	0x661
 2324 0853 11       		.uleb128 0x11
 2325 0854 70       		.byte	0x70
 2326 0855 00       		.sleb128 0
 2327 0856 03       		.byte	0x3
 2328 0857 18000000 		.4byte	vexQuadEncoders+24
 2329 085b 94       		.byte	0x94
 2330 085c 02       		.byte	0x2
 2331 085d 40       		.byte	0x40
 2332 085e 24       		.byte	0x24
 2333 085f 40       		.byte	0x40
 2334 0860 26       		.byte	0x26
 2335 0861 25       		.byte	0x25
 2336 0862 31       		.byte	0x31
 2337 0863 1A       		.byte	0x1a
 2338 0864 9F       		.byte	0x9f
 2339 0865 00       		.byte	0
 2340 0866 00       		.byte	0
 2341 0867 21       		.uleb128 0x21
 2342 0868 3E000000 		.4byte	.LBB33
 2343 086c 06000000 		.4byte	.LBE33-.LBB33
 2344 0870 1E       		.uleb128 0x1e
 2345 0871 746D7000 		.ascii	"tmp\000"
 2346 0875 01       		.byte	0x1
 2347 0876 75       		.byte	0x75
 2348 0877 FA000000 		.4byte	0xfa
 2349 087b 01       		.uleb128 0x1
 2350 087c 53       		.byte	0x53
 2351 087d 00       		.byte	0
 2352 087e 00       		.byte	0
 2353 087f 1B       		.uleb128 0x1b
 2354 0880 15030000 		.4byte	.LASF101
 2355 0884 01       		.byte	0x1
 2356 0885 8D       		.byte	0x8d
 2357 0886 00000000 		.4byte	.LFB67
 2358 088a 4A000000 		.4byte	.LFE67-.LFB67
 2359 088e 01       		.uleb128 0x1
 2360 088f 9C       		.byte	0x9c
 2361 0890 2F090000 		.4byte	0x92f
 2362 0894 1C       		.uleb128 0x1c
 2363 0895 E7000000 		.4byte	.LASF93
 2364 0899 01       		.byte	0x1
 2365 089a 8D       		.byte	0x8d
 2366 089b 0B030000 		.4byte	0x30b
 2367 089f 94010000 		.4byte	.LLST12
 2368 08a3 1C       		.uleb128 0x1c
 2369 08a4 20050000 		.4byte	.LASF94
 2370 08a8 01       		.byte	0x1
ARM GAS  /tmp/ccTzRrrl.s 			page 43


 2371 08a9 8D       		.byte	0x8d
 2372 08aa DF020000 		.4byte	0x2df
 2373 08ae B5010000 		.4byte	.LLST13
 2374 08b2 1D       		.uleb128 0x1d
 2375 08b3 02000000 		.4byte	.LBB38
 2376 08b7 06000000 		.4byte	.LBE38-.LBB38
 2377 08bb CD080000 		.4byte	0x8cd
 2378 08bf 1E       		.uleb128 0x1e
 2379 08c0 746D7000 		.ascii	"tmp\000"
 2380 08c4 01       		.byte	0x1
 2381 08c5 92       		.byte	0x92
 2382 08c6 FA000000 		.4byte	0xfa
 2383 08ca 01       		.uleb128 0x1
 2384 08cb 53       		.byte	0x53
 2385 08cc 00       		.byte	0
 2386 08cd 1F       		.uleb128 0x1f
 2387 08ce 40060000 		.4byte	0x640
 2388 08d2 08000000 		.4byte	.LBB39
 2389 08d6 36000000 		.4byte	.LBE39-.LBB39
 2390 08da 01       		.byte	0x1
 2391 08db 95       		.byte	0x95
 2392 08dc 17090000 		.4byte	0x917
 2393 08e0 20       		.uleb128 0x20
 2394 08e1 4C060000 		.4byte	0x64c
 2395 08e5 06       		.uleb128 0x6
 2396 08e6 03       		.byte	0x3
 2397 08e7 1C000000 		.4byte	vexQuadEncoders+28
 2398 08eb 9F       		.byte	0x9f
 2399 08ec 21       		.uleb128 0x21
 2400 08ed 08000000 		.4byte	.LBB40
 2401 08f1 36000000 		.4byte	.LBE40-.LBB40
 2402 08f5 22       		.uleb128 0x22
 2403 08f6 57060000 		.4byte	0x657
 2404 08fa D6010000 		.4byte	.LLST14
 2405 08fe 23       		.uleb128 0x23
 2406 08ff 61060000 		.4byte	0x661
 2407 0903 11       		.uleb128 0x11
 2408 0904 70       		.byte	0x70
 2409 0905 00       		.sleb128 0
 2410 0906 03       		.byte	0x3
 2411 0907 34000000 		.4byte	vexQuadEncoders+52
 2412 090b 94       		.byte	0x94
 2413 090c 02       		.byte	0x2
 2414 090d 40       		.byte	0x40
 2415 090e 24       		.byte	0x24
 2416 090f 40       		.byte	0x40
 2417 0910 26       		.byte	0x26
 2418 0911 25       		.byte	0x25
 2419 0912 31       		.byte	0x31
 2420 0913 1A       		.byte	0x1a
 2421 0914 9F       		.byte	0x9f
 2422 0915 00       		.byte	0
 2423 0916 00       		.byte	0
 2424 0917 21       		.uleb128 0x21
 2425 0918 3E000000 		.4byte	.LBB41
 2426 091c 06000000 		.4byte	.LBE41-.LBB41
 2427 0920 1E       		.uleb128 0x1e
ARM GAS  /tmp/ccTzRrrl.s 			page 44


 2428 0921 746D7000 		.ascii	"tmp\000"
 2429 0925 01       		.byte	0x1
 2430 0926 97       		.byte	0x97
 2431 0927 FA000000 		.4byte	0xfa
 2432 092b 01       		.uleb128 0x1
 2433 092c 53       		.byte	0x53
 2434 092d 00       		.byte	0
 2435 092e 00       		.byte	0
 2436 092f 1B       		.uleb128 0x1b
 2437 0930 1F040000 		.4byte	.LASF102
 2438 0934 01       		.byte	0x1
 2439 0935 AF       		.byte	0xaf
 2440 0936 00000000 		.4byte	.LFB69
 2441 093a 4A000000 		.4byte	.LFE69-.LFB69
 2442 093e 01       		.uleb128 0x1
 2443 093f 9C       		.byte	0x9c
 2444 0940 DF090000 		.4byte	0x9df
 2445 0944 1C       		.uleb128 0x1c
 2446 0945 E7000000 		.4byte	.LASF93
 2447 0949 01       		.byte	0x1
 2448 094a AF       		.byte	0xaf
 2449 094b 0B030000 		.4byte	0x30b
 2450 094f F9010000 		.4byte	.LLST15
 2451 0953 1C       		.uleb128 0x1c
 2452 0954 20050000 		.4byte	.LASF94
 2453 0958 01       		.byte	0x1
 2454 0959 AF       		.byte	0xaf
 2455 095a DF020000 		.4byte	0x2df
 2456 095e 1A020000 		.4byte	.LLST16
 2457 0962 1D       		.uleb128 0x1d
 2458 0963 02000000 		.4byte	.LBB46
 2459 0967 06000000 		.4byte	.LBE46-.LBB46
 2460 096b 7D090000 		.4byte	0x97d
 2461 096f 1E       		.uleb128 0x1e
 2462 0970 746D7000 		.ascii	"tmp\000"
 2463 0974 01       		.byte	0x1
 2464 0975 B4       		.byte	0xb4
 2465 0976 FA000000 		.4byte	0xfa
 2466 097a 01       		.uleb128 0x1
 2467 097b 53       		.byte	0x53
 2468 097c 00       		.byte	0
 2469 097d 1F       		.uleb128 0x1f
 2470 097e 40060000 		.4byte	0x640
 2471 0982 08000000 		.4byte	.LBB47
 2472 0986 36000000 		.4byte	.LBE47-.LBB47
 2473 098a 01       		.byte	0x1
 2474 098b B7       		.byte	0xb7
 2475 098c C7090000 		.4byte	0x9c7
 2476 0990 20       		.uleb128 0x20
 2477 0991 4C060000 		.4byte	0x64c
 2478 0995 06       		.uleb128 0x6
 2479 0996 03       		.byte	0x3
 2480 0997 38000000 		.4byte	vexQuadEncoders+56
 2481 099b 9F       		.byte	0x9f
 2482 099c 21       		.uleb128 0x21
 2483 099d 08000000 		.4byte	.LBB48
 2484 09a1 36000000 		.4byte	.LBE48-.LBB48
ARM GAS  /tmp/ccTzRrrl.s 			page 45


 2485 09a5 22       		.uleb128 0x22
 2486 09a6 57060000 		.4byte	0x657
 2487 09aa 3B020000 		.4byte	.LLST17
 2488 09ae 23       		.uleb128 0x23
 2489 09af 61060000 		.4byte	0x661
 2490 09b3 11       		.uleb128 0x11
 2491 09b4 70       		.byte	0x70
 2492 09b5 00       		.sleb128 0
 2493 09b6 03       		.byte	0x3
 2494 09b7 50000000 		.4byte	vexQuadEncoders+80
 2495 09bb 94       		.byte	0x94
 2496 09bc 02       		.byte	0x2
 2497 09bd 40       		.byte	0x40
 2498 09be 24       		.byte	0x24
 2499 09bf 40       		.byte	0x40
 2500 09c0 26       		.byte	0x26
 2501 09c1 25       		.byte	0x25
 2502 09c2 31       		.byte	0x31
 2503 09c3 1A       		.byte	0x1a
 2504 09c4 9F       		.byte	0x9f
 2505 09c5 00       		.byte	0
 2506 09c6 00       		.byte	0
 2507 09c7 21       		.uleb128 0x21
 2508 09c8 3E000000 		.4byte	.LBB49
 2509 09cc 06000000 		.4byte	.LBE49-.LBB49
 2510 09d0 1E       		.uleb128 0x1e
 2511 09d1 746D7000 		.ascii	"tmp\000"
 2512 09d5 01       		.byte	0x1
 2513 09d6 B9       		.byte	0xb9
 2514 09d7 FA000000 		.4byte	0xfa
 2515 09db 01       		.uleb128 0x1
 2516 09dc 53       		.byte	0x53
 2517 09dd 00       		.byte	0
 2518 09de 00       		.byte	0
 2519 09df 1B       		.uleb128 0x1b
 2520 09e0 0B070000 		.4byte	.LASF103
 2521 09e4 01       		.byte	0x1
 2522 09e5 CE       		.byte	0xce
 2523 09e6 00000000 		.4byte	.LFB71
 2524 09ea 4A000000 		.4byte	.LFE71-.LFB71
 2525 09ee 01       		.uleb128 0x1
 2526 09ef 9C       		.byte	0x9c
 2527 09f0 8F0A0000 		.4byte	0xa8f
 2528 09f4 1C       		.uleb128 0x1c
 2529 09f5 E7000000 		.4byte	.LASF93
 2530 09f9 01       		.byte	0x1
 2531 09fa CE       		.byte	0xce
 2532 09fb 0B030000 		.4byte	0x30b
 2533 09ff 5E020000 		.4byte	.LLST18
 2534 0a03 1C       		.uleb128 0x1c
 2535 0a04 20050000 		.4byte	.LASF94
 2536 0a08 01       		.byte	0x1
 2537 0a09 CE       		.byte	0xce
 2538 0a0a DF020000 		.4byte	0x2df
 2539 0a0e 7F020000 		.4byte	.LLST19
 2540 0a12 1D       		.uleb128 0x1d
 2541 0a13 02000000 		.4byte	.LBB54
ARM GAS  /tmp/ccTzRrrl.s 			page 46


 2542 0a17 06000000 		.4byte	.LBE54-.LBB54
 2543 0a1b 2D0A0000 		.4byte	0xa2d
 2544 0a1f 1E       		.uleb128 0x1e
 2545 0a20 746D7000 		.ascii	"tmp\000"
 2546 0a24 01       		.byte	0x1
 2547 0a25 D3       		.byte	0xd3
 2548 0a26 FA000000 		.4byte	0xfa
 2549 0a2a 01       		.uleb128 0x1
 2550 0a2b 53       		.byte	0x53
 2551 0a2c 00       		.byte	0
 2552 0a2d 1F       		.uleb128 0x1f
 2553 0a2e 40060000 		.4byte	0x640
 2554 0a32 08000000 		.4byte	.LBB55
 2555 0a36 36000000 		.4byte	.LBE55-.LBB55
 2556 0a3a 01       		.byte	0x1
 2557 0a3b D6       		.byte	0xd6
 2558 0a3c 770A0000 		.4byte	0xa77
 2559 0a40 20       		.uleb128 0x20
 2560 0a41 4C060000 		.4byte	0x64c
 2561 0a45 06       		.uleb128 0x6
 2562 0a46 03       		.byte	0x3
 2563 0a47 54000000 		.4byte	vexQuadEncoders+84
 2564 0a4b 9F       		.byte	0x9f
 2565 0a4c 21       		.uleb128 0x21
 2566 0a4d 08000000 		.4byte	.LBB56
 2567 0a51 36000000 		.4byte	.LBE56-.LBB56
 2568 0a55 22       		.uleb128 0x22
 2569 0a56 57060000 		.4byte	0x657
 2570 0a5a A0020000 		.4byte	.LLST20
 2571 0a5e 23       		.uleb128 0x23
 2572 0a5f 61060000 		.4byte	0x661
 2573 0a63 11       		.uleb128 0x11
 2574 0a64 70       		.byte	0x70
 2575 0a65 00       		.sleb128 0
 2576 0a66 03       		.byte	0x3
 2577 0a67 6C000000 		.4byte	vexQuadEncoders+108
 2578 0a6b 94       		.byte	0x94
 2579 0a6c 02       		.byte	0x2
 2580 0a6d 40       		.byte	0x40
 2581 0a6e 24       		.byte	0x24
 2582 0a6f 40       		.byte	0x40
 2583 0a70 26       		.byte	0x26
 2584 0a71 25       		.byte	0x25
 2585 0a72 31       		.byte	0x31
 2586 0a73 1A       		.byte	0x1a
 2587 0a74 9F       		.byte	0x9f
 2588 0a75 00       		.byte	0
 2589 0a76 00       		.byte	0
 2590 0a77 21       		.uleb128 0x21
 2591 0a78 3E000000 		.4byte	.LBB57
 2592 0a7c 06000000 		.4byte	.LBE57-.LBB57
 2593 0a80 1E       		.uleb128 0x1e
 2594 0a81 746D7000 		.ascii	"tmp\000"
 2595 0a85 01       		.byte	0x1
 2596 0a86 D8       		.byte	0xd8
 2597 0a87 FA000000 		.4byte	0xfa
 2598 0a8b 01       		.uleb128 0x1
ARM GAS  /tmp/ccTzRrrl.s 			page 47


 2599 0a8c 53       		.byte	0x53
 2600 0a8d 00       		.byte	0
 2601 0a8e 00       		.byte	0
 2602 0a8f 1B       		.uleb128 0x1b
 2603 0a90 86010000 		.4byte	.LASF104
 2604 0a94 01       		.byte	0x1
 2605 0a95 7C       		.byte	0x7c
 2606 0a96 00000000 		.4byte	.LFB66
 2607 0a9a 4A000000 		.4byte	.LFE66-.LFB66
 2608 0a9e 01       		.uleb128 0x1
 2609 0a9f 9C       		.byte	0x9c
 2610 0aa0 3F0B0000 		.4byte	0xb3f
 2611 0aa4 1C       		.uleb128 0x1c
 2612 0aa5 E7000000 		.4byte	.LASF93
 2613 0aa9 01       		.byte	0x1
 2614 0aaa 7C       		.byte	0x7c
 2615 0aab 0B030000 		.4byte	0x30b
 2616 0aaf C3020000 		.4byte	.LLST21
 2617 0ab3 1C       		.uleb128 0x1c
 2618 0ab4 20050000 		.4byte	.LASF94
 2619 0ab8 01       		.byte	0x1
 2620 0ab9 7C       		.byte	0x7c
 2621 0aba DF020000 		.4byte	0x2df
 2622 0abe E4020000 		.4byte	.LLST22
 2623 0ac2 1D       		.uleb128 0x1d
 2624 0ac3 02000000 		.4byte	.LBB62
 2625 0ac7 06000000 		.4byte	.LBE62-.LBB62
 2626 0acb DD0A0000 		.4byte	0xadd
 2627 0acf 1E       		.uleb128 0x1e
 2628 0ad0 746D7000 		.ascii	"tmp\000"
 2629 0ad4 01       		.byte	0x1
 2630 0ad5 81       		.byte	0x81
 2631 0ad6 FA000000 		.4byte	0xfa
 2632 0ada 01       		.uleb128 0x1
 2633 0adb 53       		.byte	0x53
 2634 0adc 00       		.byte	0
 2635 0add 1F       		.uleb128 0x1f
 2636 0ade 5E050000 		.4byte	0x55e
 2637 0ae2 08000000 		.4byte	.LBB63
 2638 0ae6 36000000 		.4byte	.LBE63-.LBB63
 2639 0aea 01       		.byte	0x1
 2640 0aeb 84       		.byte	0x84
 2641 0aec 270B0000 		.4byte	0xb27
 2642 0af0 20       		.uleb128 0x20
 2643 0af1 6A050000 		.4byte	0x56a
 2644 0af5 06       		.uleb128 0x6
 2645 0af6 03       		.byte	0x3
 2646 0af7 00000000 		.4byte	vexQuadEncoders
 2647 0afb 9F       		.byte	0x9f
 2648 0afc 21       		.uleb128 0x21
 2649 0afd 08000000 		.4byte	.LBB64
 2650 0b01 36000000 		.4byte	.LBE64-.LBB64
 2651 0b05 22       		.uleb128 0x22
 2652 0b06 75050000 		.4byte	0x575
 2653 0b0a 05030000 		.4byte	.LLST23
 2654 0b0e 23       		.uleb128 0x23
 2655 0b0f 7F050000 		.4byte	0x57f
ARM GAS  /tmp/ccTzRrrl.s 			page 48


 2656 0b13 11       		.uleb128 0x11
 2657 0b14 70       		.byte	0x70
 2658 0b15 00       		.sleb128 0
 2659 0b16 03       		.byte	0x3
 2660 0b17 18000000 		.4byte	vexQuadEncoders+24
 2661 0b1b 94       		.byte	0x94
 2662 0b1c 02       		.byte	0x2
 2663 0b1d 40       		.byte	0x40
 2664 0b1e 24       		.byte	0x24
 2665 0b1f 40       		.byte	0x40
 2666 0b20 26       		.byte	0x26
 2667 0b21 25       		.byte	0x25
 2668 0b22 31       		.byte	0x31
 2669 0b23 1A       		.byte	0x1a
 2670 0b24 9F       		.byte	0x9f
 2671 0b25 00       		.byte	0
 2672 0b26 00       		.byte	0
 2673 0b27 21       		.uleb128 0x21
 2674 0b28 3E000000 		.4byte	.LBB65
 2675 0b2c 06000000 		.4byte	.LBE65-.LBB65
 2676 0b30 1E       		.uleb128 0x1e
 2677 0b31 746D7000 		.ascii	"tmp\000"
 2678 0b35 01       		.byte	0x1
 2679 0b36 86       		.byte	0x86
 2680 0b37 FA000000 		.4byte	0xfa
 2681 0b3b 01       		.uleb128 0x1
 2682 0b3c 53       		.byte	0x53
 2683 0b3d 00       		.byte	0
 2684 0b3e 00       		.byte	0
 2685 0b3f 1B       		.uleb128 0x1b
 2686 0b40 23070000 		.4byte	.LASF105
 2687 0b44 01       		.byte	0x1
 2688 0b45 9E       		.byte	0x9e
 2689 0b46 00000000 		.4byte	.LFB68
 2690 0b4a 4A000000 		.4byte	.LFE68-.LFB68
 2691 0b4e 01       		.uleb128 0x1
 2692 0b4f 9C       		.byte	0x9c
 2693 0b50 EF0B0000 		.4byte	0xbef
 2694 0b54 1C       		.uleb128 0x1c
 2695 0b55 E7000000 		.4byte	.LASF93
 2696 0b59 01       		.byte	0x1
 2697 0b5a 9E       		.byte	0x9e
 2698 0b5b 0B030000 		.4byte	0x30b
 2699 0b5f 28030000 		.4byte	.LLST24
 2700 0b63 1C       		.uleb128 0x1c
 2701 0b64 20050000 		.4byte	.LASF94
 2702 0b68 01       		.byte	0x1
 2703 0b69 9E       		.byte	0x9e
 2704 0b6a DF020000 		.4byte	0x2df
 2705 0b6e 49030000 		.4byte	.LLST25
 2706 0b72 1D       		.uleb128 0x1d
 2707 0b73 02000000 		.4byte	.LBB70
 2708 0b77 06000000 		.4byte	.LBE70-.LBB70
 2709 0b7b 8D0B0000 		.4byte	0xb8d
 2710 0b7f 1E       		.uleb128 0x1e
 2711 0b80 746D7000 		.ascii	"tmp\000"
 2712 0b84 01       		.byte	0x1
ARM GAS  /tmp/ccTzRrrl.s 			page 49


 2713 0b85 A3       		.byte	0xa3
 2714 0b86 FA000000 		.4byte	0xfa
 2715 0b8a 01       		.uleb128 0x1
 2716 0b8b 53       		.byte	0x53
 2717 0b8c 00       		.byte	0
 2718 0b8d 1F       		.uleb128 0x1f
 2719 0b8e 5E050000 		.4byte	0x55e
 2720 0b92 08000000 		.4byte	.LBB71
 2721 0b96 36000000 		.4byte	.LBE71-.LBB71
 2722 0b9a 01       		.byte	0x1
 2723 0b9b A6       		.byte	0xa6
 2724 0b9c D70B0000 		.4byte	0xbd7
 2725 0ba0 20       		.uleb128 0x20
 2726 0ba1 6A050000 		.4byte	0x56a
 2727 0ba5 06       		.uleb128 0x6
 2728 0ba6 03       		.byte	0x3
 2729 0ba7 1C000000 		.4byte	vexQuadEncoders+28
 2730 0bab 9F       		.byte	0x9f
 2731 0bac 21       		.uleb128 0x21
 2732 0bad 08000000 		.4byte	.LBB72
 2733 0bb1 36000000 		.4byte	.LBE72-.LBB72
 2734 0bb5 22       		.uleb128 0x22
 2735 0bb6 75050000 		.4byte	0x575
 2736 0bba 6A030000 		.4byte	.LLST26
 2737 0bbe 23       		.uleb128 0x23
 2738 0bbf 7F050000 		.4byte	0x57f
 2739 0bc3 11       		.uleb128 0x11
 2740 0bc4 70       		.byte	0x70
 2741 0bc5 00       		.sleb128 0
 2742 0bc6 03       		.byte	0x3
 2743 0bc7 34000000 		.4byte	vexQuadEncoders+52
 2744 0bcb 94       		.byte	0x94
 2745 0bcc 02       		.byte	0x2
 2746 0bcd 40       		.byte	0x40
 2747 0bce 24       		.byte	0x24
 2748 0bcf 40       		.byte	0x40
 2749 0bd0 26       		.byte	0x26
 2750 0bd1 25       		.byte	0x25
 2751 0bd2 31       		.byte	0x31
 2752 0bd3 1A       		.byte	0x1a
 2753 0bd4 9F       		.byte	0x9f
 2754 0bd5 00       		.byte	0
 2755 0bd6 00       		.byte	0
 2756 0bd7 21       		.uleb128 0x21
 2757 0bd8 3E000000 		.4byte	.LBB73
 2758 0bdc 06000000 		.4byte	.LBE73-.LBB73
 2759 0be0 1E       		.uleb128 0x1e
 2760 0be1 746D7000 		.ascii	"tmp\000"
 2761 0be5 01       		.byte	0x1
 2762 0be6 A8       		.byte	0xa8
 2763 0be7 FA000000 		.4byte	0xfa
 2764 0beb 01       		.uleb128 0x1
 2765 0bec 53       		.byte	0x53
 2766 0bed 00       		.byte	0
 2767 0bee 00       		.byte	0
 2768 0bef 1B       		.uleb128 0x1b
 2769 0bf0 2B040000 		.4byte	.LASF106
ARM GAS  /tmp/ccTzRrrl.s 			page 50


 2770 0bf4 01       		.byte	0x1
 2771 0bf5 C0       		.byte	0xc0
 2772 0bf6 00000000 		.4byte	.LFB70
 2773 0bfa 4A000000 		.4byte	.LFE70-.LFB70
 2774 0bfe 01       		.uleb128 0x1
 2775 0bff 9C       		.byte	0x9c
 2776 0c00 9F0C0000 		.4byte	0xc9f
 2777 0c04 1C       		.uleb128 0x1c
 2778 0c05 E7000000 		.4byte	.LASF93
 2779 0c09 01       		.byte	0x1
 2780 0c0a C0       		.byte	0xc0
 2781 0c0b 0B030000 		.4byte	0x30b
 2782 0c0f 8D030000 		.4byte	.LLST27
 2783 0c13 1C       		.uleb128 0x1c
 2784 0c14 20050000 		.4byte	.LASF94
 2785 0c18 01       		.byte	0x1
 2786 0c19 C0       		.byte	0xc0
 2787 0c1a DF020000 		.4byte	0x2df
 2788 0c1e AE030000 		.4byte	.LLST28
 2789 0c22 1D       		.uleb128 0x1d
 2790 0c23 02000000 		.4byte	.LBB78
 2791 0c27 06000000 		.4byte	.LBE78-.LBB78
 2792 0c2b 3D0C0000 		.4byte	0xc3d
 2793 0c2f 1E       		.uleb128 0x1e
 2794 0c30 746D7000 		.ascii	"tmp\000"
 2795 0c34 01       		.byte	0x1
 2796 0c35 C5       		.byte	0xc5
 2797 0c36 FA000000 		.4byte	0xfa
 2798 0c3a 01       		.uleb128 0x1
 2799 0c3b 53       		.byte	0x53
 2800 0c3c 00       		.byte	0
 2801 0c3d 1F       		.uleb128 0x1f
 2802 0c3e 5E050000 		.4byte	0x55e
 2803 0c42 08000000 		.4byte	.LBB79
 2804 0c46 36000000 		.4byte	.LBE79-.LBB79
 2805 0c4a 01       		.byte	0x1
 2806 0c4b C8       		.byte	0xc8
 2807 0c4c 870C0000 		.4byte	0xc87
 2808 0c50 20       		.uleb128 0x20
 2809 0c51 6A050000 		.4byte	0x56a
 2810 0c55 06       		.uleb128 0x6
 2811 0c56 03       		.byte	0x3
 2812 0c57 38000000 		.4byte	vexQuadEncoders+56
 2813 0c5b 9F       		.byte	0x9f
 2814 0c5c 21       		.uleb128 0x21
 2815 0c5d 08000000 		.4byte	.LBB80
 2816 0c61 36000000 		.4byte	.LBE80-.LBB80
 2817 0c65 22       		.uleb128 0x22
 2818 0c66 75050000 		.4byte	0x575
 2819 0c6a CF030000 		.4byte	.LLST29
 2820 0c6e 23       		.uleb128 0x23
 2821 0c6f 7F050000 		.4byte	0x57f
 2822 0c73 11       		.uleb128 0x11
 2823 0c74 70       		.byte	0x70
 2824 0c75 00       		.sleb128 0
 2825 0c76 03       		.byte	0x3
 2826 0c77 50000000 		.4byte	vexQuadEncoders+80
ARM GAS  /tmp/ccTzRrrl.s 			page 51


 2827 0c7b 94       		.byte	0x94
 2828 0c7c 02       		.byte	0x2
 2829 0c7d 40       		.byte	0x40
 2830 0c7e 24       		.byte	0x24
 2831 0c7f 40       		.byte	0x40
 2832 0c80 26       		.byte	0x26
 2833 0c81 25       		.byte	0x25
 2834 0c82 31       		.byte	0x31
 2835 0c83 1A       		.byte	0x1a
 2836 0c84 9F       		.byte	0x9f
 2837 0c85 00       		.byte	0
 2838 0c86 00       		.byte	0
 2839 0c87 21       		.uleb128 0x21
 2840 0c88 3E000000 		.4byte	.LBB81
 2841 0c8c 06000000 		.4byte	.LBE81-.LBB81
 2842 0c90 1E       		.uleb128 0x1e
 2843 0c91 746D7000 		.ascii	"tmp\000"
 2844 0c95 01       		.byte	0x1
 2845 0c96 CA       		.byte	0xca
 2846 0c97 FA000000 		.4byte	0xfa
 2847 0c9b 01       		.uleb128 0x1
 2848 0c9c 53       		.byte	0x53
 2849 0c9d 00       		.byte	0
 2850 0c9e 00       		.byte	0
 2851 0c9f 26       		.uleb128 0x26
 2852 0ca0 FC060000 		.4byte	.LASF107
 2853 0ca4 01       		.byte	0x1
 2854 0ca5 2301     		.2byte	0x123
 2855 0ca7 00000000 		.4byte	.LFB75
 2856 0cab 30000000 		.4byte	.LFE75-.LFB75
 2857 0caf 01       		.uleb128 0x1
 2858 0cb0 9C       		.byte	0x9c
 2859 0cb1 C40C0000 		.4byte	0xcc4
 2860 0cb5 27       		.uleb128 0x27
 2861 0cb6 6300     		.ascii	"c\000"
 2862 0cb8 01       		.byte	0x1
 2863 0cb9 2501     		.2byte	0x125
 2864 0cbb 7F040000 		.4byte	0x47f
 2865 0cbf F2030000 		.4byte	.LLST30
 2866 0cc3 00       		.byte	0
 2867 0cc4 26       		.uleb128 0x26
 2868 0cc5 D1030000 		.4byte	.LASF108
 2869 0cc9 01       		.byte	0x1
 2870 0cca 3A01     		.2byte	0x13a
 2871 0ccc 00000000 		.4byte	.LFB76
 2872 0cd0 B8000000 		.4byte	.LFE76-.LFB76
 2873 0cd4 01       		.uleb128 0x1
 2874 0cd5 9C       		.byte	0x9c
 2875 0cd6 830D0000 		.4byte	0xd83
 2876 0cda 28       		.uleb128 0x28
 2877 0cdb 20050000 		.4byte	.LASF94
 2878 0cdf 01       		.byte	0x1
 2879 0ce0 3A01     		.2byte	0x13a
 2880 0ce2 7F040000 		.4byte	0x47f
 2881 0ce6 1E040000 		.4byte	.LLST31
 2882 0cea 29       		.uleb128 0x29
 2883 0ceb 706100   		.ascii	"pa\000"
ARM GAS  /tmp/ccTzRrrl.s 			page 52


 2884 0cee 01       		.byte	0x1
 2885 0cef 3A01     		.2byte	0x13a
 2886 0cf1 DF030000 		.4byte	0x3df
 2887 0cf5 3F040000 		.4byte	.LLST32
 2888 0cf9 29       		.uleb128 0x29
 2889 0cfa 706200   		.ascii	"pb\000"
 2890 0cfd 01       		.byte	0x1
 2891 0cfe 3A01     		.2byte	0x13a
 2892 0d00 DF030000 		.4byte	0x3df
 2893 0d04 60040000 		.4byte	.LLST33
 2894 0d08 2A       		.uleb128 0x2a
 2895 0d09 3E000000 		.4byte	.LVL68
 2896 0d0d B50F0000 		.4byte	0xfb5
 2897 0d11 220D0000 		.4byte	0xd22
 2898 0d15 2B       		.uleb128 0x2b
 2899 0d16 01       		.uleb128 0x1
 2900 0d17 51       		.byte	0x51
 2901 0d18 02       		.uleb128 0x2
 2902 0d19 79       		.byte	0x79
 2903 0d1a 00       		.sleb128 0
 2904 0d1b 2B       		.uleb128 0x2b
 2905 0d1c 01       		.uleb128 0x1
 2906 0d1d 50       		.byte	0x50
 2907 0d1e 02       		.uleb128 0x2
 2908 0d1f 75       		.byte	0x75
 2909 0d20 00       		.sleb128 0
 2910 0d21 00       		.byte	0
 2911 0d22 2A       		.uleb128 0x2a
 2912 0d23 78000000 		.4byte	.LVL69
 2913 0d27 CB0F0000 		.4byte	0xfcb
 2914 0d2b 440D0000 		.4byte	0xd44
 2915 0d2f 2B       		.uleb128 0x2b
 2916 0d30 01       		.uleb128 0x1
 2917 0d31 53       		.byte	0x53
 2918 0d32 0B       		.uleb128 0xb
 2919 0d33 74       		.byte	0x74
 2920 0d34 00       		.sleb128 0
 2921 0d35 32       		.byte	0x32
 2922 0d36 24       		.byte	0x24
 2923 0d37 03       		.byte	0x3
 2924 0d38 00000000 		.4byte	.LANCHOR1
 2925 0d3c 22       		.byte	0x22
 2926 0d3d 06       		.byte	0x6
 2927 0d3e 2B       		.uleb128 0x2b
 2928 0d3f 01       		.uleb128 0x1
 2929 0d40 52       		.byte	0x52
 2930 0d41 01       		.uleb128 0x1
 2931 0d42 33       		.byte	0x33
 2932 0d43 00       		.byte	0
 2933 0d44 2A       		.uleb128 0x2a
 2934 0d45 80000000 		.4byte	.LVL70
 2935 0d49 B50F0000 		.4byte	0xfb5
 2936 0d4d 5E0D0000 		.4byte	0xd5e
 2937 0d51 2B       		.uleb128 0x2b
 2938 0d52 01       		.uleb128 0x1
 2939 0d53 51       		.byte	0x51
 2940 0d54 02       		.uleb128 0x2
ARM GAS  /tmp/ccTzRrrl.s 			page 53


 2941 0d55 79       		.byte	0x79
 2942 0d56 00       		.sleb128 0
 2943 0d57 2B       		.uleb128 0x2b
 2944 0d58 01       		.uleb128 0x1
 2945 0d59 50       		.byte	0x50
 2946 0d5a 02       		.uleb128 0x2
 2947 0d5b 76       		.byte	0x76
 2948 0d5c 00       		.sleb128 0
 2949 0d5d 00       		.byte	0
 2950 0d5e 2C       		.uleb128 0x2c
 2951 0d5f B0000000 		.4byte	.LVL71
 2952 0d63 CB0F0000 		.4byte	0xfcb
 2953 0d67 2B       		.uleb128 0x2b
 2954 0d68 01       		.uleb128 0x1
 2955 0d69 53       		.byte	0x53
 2956 0d6a 0B       		.uleb128 0xb
 2957 0d6b 74       		.byte	0x74
 2958 0d6c 00       		.sleb128 0
 2959 0d6d 32       		.byte	0x32
 2960 0d6e 24       		.byte	0x24
 2961 0d6f 03       		.byte	0x3
 2962 0d70 00000000 		.4byte	.LANCHOR2
 2963 0d74 22       		.byte	0x22
 2964 0d75 06       		.byte	0x6
 2965 0d76 2B       		.uleb128 0x2b
 2966 0d77 01       		.uleb128 0x1
 2967 0d78 52       		.byte	0x52
 2968 0d79 01       		.uleb128 0x1
 2969 0d7a 33       		.byte	0x33
 2970 0d7b 2B       		.uleb128 0x2b
 2971 0d7c 01       		.uleb128 0x1
 2972 0d7d 50       		.byte	0x50
 2973 0d7e 02       		.uleb128 0x2
 2974 0d7f 75       		.byte	0x75
 2975 0d80 00       		.sleb128 0
 2976 0d81 00       		.byte	0
 2977 0d82 00       		.byte	0
 2978 0d83 26       		.uleb128 0x26
 2979 0d84 19010000 		.4byte	.LASF109
 2980 0d88 01       		.byte	0x1
 2981 0d89 5F01     		.2byte	0x15f
 2982 0d8b 00000000 		.4byte	.LFB77
 2983 0d8f 40000000 		.4byte	.LFE77-.LFB77
 2984 0d93 01       		.uleb128 0x1
 2985 0d94 9C       		.byte	0x9c
 2986 0d95 BC0D0000 		.4byte	0xdbc
 2987 0d99 28       		.uleb128 0x28
 2988 0d9a 20050000 		.4byte	.LASF94
 2989 0d9e 01       		.byte	0x1
 2990 0d9f 5F01     		.2byte	0x15f
 2991 0da1 7F040000 		.4byte	0x47f
 2992 0da5 81040000 		.4byte	.LLST34
 2993 0da9 2D       		.uleb128 0x2d
 2994 0daa 2C000000 		.4byte	.LVL74
 2995 0dae EB0F0000 		.4byte	0xfeb
 2996 0db2 2E       		.uleb128 0x2e
 2997 0db3 40000000 		.4byte	.LVL75
ARM GAS  /tmp/ccTzRrrl.s 			page 54


 2998 0db7 EB0F0000 		.4byte	0xfeb
 2999 0dbb 00       		.byte	0
 3000 0dbc 26       		.uleb128 0x26
 3001 0dbd 2C000000 		.4byte	.LASF110
 3002 0dc1 01       		.byte	0x1
 3003 0dc2 6E01     		.2byte	0x16e
 3004 0dc4 00000000 		.4byte	.LFB78
 3005 0dc8 40000000 		.4byte	.LFE78-.LFB78
 3006 0dcc 01       		.uleb128 0x1
 3007 0dcd 9C       		.byte	0x9c
 3008 0dce F50D0000 		.4byte	0xdf5
 3009 0dd2 28       		.uleb128 0x28
 3010 0dd3 20050000 		.4byte	.LASF94
 3011 0dd7 01       		.byte	0x1
 3012 0dd8 6E01     		.2byte	0x16e
 3013 0dda 7F040000 		.4byte	0x47f
 3014 0dde A2040000 		.4byte	.LLST35
 3015 0de2 2D       		.uleb128 0x2d
 3016 0de3 2C000000 		.4byte	.LVL78
 3017 0de7 01100000 		.4byte	0x1001
 3018 0deb 2E       		.uleb128 0x2e
 3019 0dec 40000000 		.4byte	.LVL79
 3020 0df0 01100000 		.4byte	0x1001
 3021 0df4 00       		.byte	0
 3022 0df5 26       		.uleb128 0x26
 3023 0df6 79060000 		.4byte	.LASF111
 3024 0dfa 01       		.byte	0x1
 3025 0dfb 7C01     		.2byte	0x17c
 3026 0dfd 00000000 		.4byte	.LFB79
 3027 0e01 14000000 		.4byte	.LFE79-.LFB79
 3028 0e05 01       		.uleb128 0x1
 3029 0e06 9C       		.byte	0x9c
 3030 0e07 230E0000 		.4byte	0xe23
 3031 0e0b 27       		.uleb128 0x27
 3032 0e0c 6300     		.ascii	"c\000"
 3033 0e0e 01       		.byte	0x1
 3034 0e0f 7E01     		.2byte	0x17e
 3035 0e11 7F040000 		.4byte	0x47f
 3036 0e15 C3040000 		.4byte	.LLST36
 3037 0e19 2D       		.uleb128 0x2d
 3038 0e1a 0E000000 		.4byte	.LVL83
 3039 0e1e 830D0000 		.4byte	0xd83
 3040 0e22 00       		.byte	0
 3041 0e23 2F       		.uleb128 0x2f
 3042 0e24 6A040000 		.4byte	.LASF114
 3043 0e28 01       		.byte	0x1
 3044 0e29 9101     		.2byte	0x191
 3045 0e2b EF000000 		.4byte	0xef
 3046 0e2f 00000000 		.4byte	.LFB80
 3047 0e33 22000000 		.4byte	.LFE80-.LFB80
 3048 0e37 01       		.uleb128 0x1
 3049 0e38 9C       		.byte	0x9c
 3050 0e39 4E0E0000 		.4byte	0xe4e
 3051 0e3d 28       		.uleb128 0x28
 3052 0e3e 20050000 		.4byte	.LASF94
 3053 0e42 01       		.byte	0x1
 3054 0e43 9101     		.2byte	0x191
ARM GAS  /tmp/ccTzRrrl.s 			page 55


 3055 0e45 D9000000 		.4byte	0xd9
 3056 0e49 F8040000 		.4byte	.LLST37
 3057 0e4d 00       		.byte	0
 3058 0e4e 26       		.uleb128 0x26
 3059 0e4f F7020000 		.4byte	.LASF112
 3060 0e53 01       		.byte	0x1
 3061 0e54 A401     		.2byte	0x1a4
 3062 0e56 00000000 		.4byte	.LFB81
 3063 0e5a 1E000000 		.4byte	.LFE81-.LFB81
 3064 0e5e 01       		.uleb128 0x1
 3065 0e5f 9C       		.byte	0x9c
 3066 0e60 850E0000 		.4byte	0xe85
 3067 0e64 28       		.uleb128 0x28
 3068 0e65 20050000 		.4byte	.LASF94
 3069 0e69 01       		.byte	0x1
 3070 0e6a A401     		.2byte	0x1a4
 3071 0e6c D9000000 		.4byte	0xd9
 3072 0e70 3A050000 		.4byte	.LLST38
 3073 0e74 28       		.uleb128 0x28
 3074 0e75 A1010000 		.4byte	.LASF113
 3075 0e79 01       		.byte	0x1
 3076 0e7a A401     		.2byte	0x1a4
 3077 0e7c EF000000 		.4byte	0xef
 3078 0e80 66050000 		.4byte	.LLST39
 3079 0e84 00       		.byte	0
 3080 0e85 2F       		.uleb128 0x2f
 3081 0e86 9F030000 		.4byte	.LASF115
 3082 0e8a 01       		.byte	0x1
 3083 0e8b B901     		.2byte	0x1b9
 3084 0e8d D9000000 		.4byte	0xd9
 3085 0e91 00000000 		.4byte	.LFB82
 3086 0e95 24000000 		.4byte	.LFE82-.LFB82
 3087 0e99 01       		.uleb128 0x1
 3088 0e9a 9C       		.byte	0x9c
 3089 0e9b B00E0000 		.4byte	0xeb0
 3090 0e9f 28       		.uleb128 0x28
 3091 0ea0 20050000 		.4byte	.LASF94
 3092 0ea4 01       		.byte	0x1
 3093 0ea5 B901     		.2byte	0x1b9
 3094 0ea7 D9000000 		.4byte	0xd9
 3095 0eab 87050000 		.4byte	.LLST40
 3096 0eaf 00       		.byte	0
 3097 0eb0 26       		.uleb128 0x26
 3098 0eb1 B6040000 		.4byte	.LASF116
 3099 0eb5 01       		.byte	0x1
 3100 0eb6 CA01     		.2byte	0x1ca
 3101 0eb8 00000000 		.4byte	.LFB83
 3102 0ebc 3E000000 		.4byte	.LFE83-.LFB83
 3103 0ec0 01       		.uleb128 0x1
 3104 0ec1 9C       		.byte	0x9c
 3105 0ec2 240F0000 		.4byte	0xf24
 3106 0ec6 29       		.uleb128 0x29
 3107 0ec7 63687000 		.ascii	"chp\000"
 3108 0ecb 01       		.byte	0x1
 3109 0ecc CA01     		.2byte	0x1ca
 3110 0ece 52050000 		.4byte	0x552
 3111 0ed2 A8050000 		.4byte	.LLST41
ARM GAS  /tmp/ccTzRrrl.s 			page 56


 3112 0ed6 28       		.uleb128 0x28
 3113 0ed7 F7060000 		.4byte	.LASF117
 3114 0edb 01       		.byte	0x1
 3115 0edc CA01     		.2byte	0x1ca
 3116 0ede 37000000 		.4byte	0x37
 3117 0ee2 C6050000 		.4byte	.LLST42
 3118 0ee6 28       		.uleb128 0x28
 3119 0ee7 2F070000 		.4byte	.LASF118
 3120 0eeb 01       		.byte	0x1
 3121 0eec CA01     		.2byte	0x1ca
 3122 0eee 58050000 		.4byte	0x558
 3123 0ef2 E7050000 		.4byte	.LLST43
 3124 0ef6 27       		.uleb128 0x27
 3125 0ef7 6300     		.ascii	"c\000"
 3126 0ef9 01       		.byte	0x1
 3127 0efa CF01     		.2byte	0x1cf
 3128 0efc 7F040000 		.4byte	0x47f
 3129 0f00 08060000 		.4byte	.LLST44
 3130 0f04 2C       		.uleb128 0x2c
 3131 0f05 32000000 		.4byte	.LVL98
 3132 0f09 17100000 		.4byte	0x1017
 3133 0f0d 2B       		.uleb128 0x2b
 3134 0f0e 01       		.uleb128 0x1
 3135 0f0f 52       		.byte	0x52
 3136 0f10 02       		.uleb128 0x2
 3137 0f11 74       		.byte	0x74
 3138 0f12 7F       		.sleb128 -1
 3139 0f13 2B       		.uleb128 0x2b
 3140 0f14 01       		.uleb128 0x1
 3141 0f15 51       		.byte	0x51
 3142 0f16 05       		.uleb128 0x5
 3143 0f17 03       		.byte	0x3
 3144 0f18 00000000 		.4byte	.LC0
 3145 0f1c 2B       		.uleb128 0x2b
 3146 0f1d 01       		.uleb128 0x1
 3147 0f1e 50       		.byte	0x50
 3148 0f1f 02       		.uleb128 0x2
 3149 0f20 77       		.byte	0x77
 3150 0f21 00       		.sleb128 0
 3151 0f22 00       		.byte	0
 3152 0f23 00       		.byte	0
 3153 0f24 16       		.uleb128 0x16
 3154 0f25 01050000 		.4byte	0x501
 3155 0f29 340F0000 		.4byte	0xf34
 3156 0f2d 17       		.uleb128 0x17
 3157 0f2e AD000000 		.4byte	0xad
 3158 0f32 04       		.byte	0x4
 3159 0f33 00       		.byte	0
 3160 0f34 30       		.uleb128 0x30
 3161 0f35 C1000000 		.4byte	.LASF119
 3162 0f39 01       		.byte	0x1
 3163 0f3a 3D       		.byte	0x3d
 3164 0f3b 240F0000 		.4byte	0xf24
 3165 0f3f 05       		.uleb128 0x5
 3166 0f40 03       		.byte	0x3
 3167 0f41 00000000 		.4byte	vexQuadEncoders
 3168 0f45 16       		.uleb128 0x16
ARM GAS  /tmp/ccTzRrrl.s 			page 57


 3169 0f46 EA020000 		.4byte	0x2ea
 3170 0f4a 550F0000 		.4byte	0xf55
 3171 0f4e 17       		.uleb128 0x17
 3172 0f4f AD000000 		.4byte	0xad
 3173 0f53 04       		.byte	0x4
 3174 0f54 00       		.byte	0
 3175 0f55 31       		.uleb128 0x31
 3176 0f56 E4040000 		.4byte	.LASF120
 3177 0f5a 01       		.byte	0x1
 3178 0f5b 0F01     		.2byte	0x10f
 3179 0f5d 670F0000 		.4byte	0xf67
 3180 0f61 05       		.uleb128 0x5
 3181 0f62 03       		.byte	0x3
 3182 0f63 00000000 		.4byte	_vqe_cb_a
 3183 0f67 07       		.uleb128 0x7
 3184 0f68 450F0000 		.4byte	0xf45
 3185 0f6c 31       		.uleb128 0x31
 3186 0f6d 59000000 		.4byte	.LASF121
 3187 0f71 01       		.byte	0x1
 3188 0f72 1601     		.2byte	0x116
 3189 0f74 7E0F0000 		.4byte	0xf7e
 3190 0f78 05       		.uleb128 0x5
 3191 0f79 03       		.byte	0x3
 3192 0f7a 00000000 		.4byte	_vqe_cb_b
 3193 0f7e 07       		.uleb128 0x7
 3194 0f7f 450F0000 		.4byte	0xf45
 3195 0f83 32       		.uleb128 0x32
 3196 0f84 B4000000 		.4byte	.LASF122
 3197 0f88 0F       		.byte	0xf
 3198 0f89 0706     		.2byte	0x607
 3199 0f8b 02020000 		.4byte	0x202
 3200 0f8f 33       		.uleb128 0x33
 3201 0f90 34070000 		.4byte	.LASF123
 3202 0f94 0A       		.byte	0xa
 3203 0f95 86       		.byte	0x86
 3204 0f96 AF020000 		.4byte	0x2af
 3205 0f9a 16       		.uleb128 0x16
 3206 0f9b 47040000 		.4byte	0x447
 3207 0f9f AA0F0000 		.4byte	0xfaa
 3208 0fa3 17       		.uleb128 0x17
 3209 0fa4 AD000000 		.4byte	0xad
 3210 0fa8 0B       		.byte	0xb
 3211 0fa9 00       		.byte	0
 3212 0faa 33       		.uleb128 0x33
 3213 0fab D4040000 		.4byte	.LASF124
 3214 0faf 0C       		.byte	0xc
 3215 0fb0 BE       		.byte	0xbe
 3216 0fb1 9A0F0000 		.4byte	0xf9a
 3217 0fb5 34       		.uleb128 0x34
 3218 0fb6 39060000 		.4byte	.LASF125
 3219 0fba 0C       		.byte	0xc
 3220 0fbb C1       		.byte	0xc1
 3221 0fbc CB0F0000 		.4byte	0xfcb
 3222 0fc0 0A       		.uleb128 0xa
 3223 0fc1 DF030000 		.4byte	0x3df
 3224 0fc5 0A       		.uleb128 0xa
 3225 0fc6 FF030000 		.4byte	0x3ff
ARM GAS  /tmp/ccTzRrrl.s 			page 58


 3226 0fca 00       		.byte	0
 3227 0fcb 34       		.uleb128 0x34
 3228 0fcc 00000000 		.4byte	.LASF126
 3229 0fd0 0C       		.byte	0xc
 3230 0fd1 CC       		.byte	0xcc
 3231 0fd2 EB0F0000 		.4byte	0xfeb
 3232 0fd6 0A       		.uleb128 0xa
 3233 0fd7 78020000 		.4byte	0x278
 3234 0fdb 0A       		.uleb128 0xa
 3235 0fdc E4000000 		.4byte	0xe4
 3236 0fe0 0A       		.uleb128 0xa
 3237 0fe1 FA000000 		.4byte	0xfa
 3238 0fe5 0A       		.uleb128 0xa
 3239 0fe6 EA020000 		.4byte	0x2ea
 3240 0fea 00       		.byte	0
 3241 0feb 34       		.uleb128 0x34
 3242 0fec A3060000 		.4byte	.LASF127
 3243 0ff0 09       		.byte	0x9
 3244 0ff1 94       		.byte	0x94
 3245 0ff2 01100000 		.4byte	0x1001
 3246 0ff6 0A       		.uleb128 0xa
 3247 0ff7 0B030000 		.4byte	0x30b
 3248 0ffb 0A       		.uleb128 0xa
 3249 0ffc DF020000 		.4byte	0x2df
 3250 1000 00       		.byte	0
 3251 1001 34       		.uleb128 0x34
 3252 1002 3D050000 		.4byte	.LASF128
 3253 1006 09       		.byte	0x9
 3254 1007 95       		.byte	0x95
 3255 1008 17100000 		.4byte	0x1017
 3256 100c 0A       		.uleb128 0xa
 3257 100d 0B030000 		.4byte	0x30b
 3258 1011 0A       		.uleb128 0xa
 3259 1012 DF020000 		.4byte	0x2df
 3260 1016 00       		.byte	0
 3261 1017 35       		.uleb128 0x35
 3262 1018 62010000 		.4byte	.LASF129
 3263 101c 10       		.byte	0x10
 3264 101d 3B       		.byte	0x3b
 3265 101e 37000000 		.4byte	0x37
 3266 1022 0A       		.uleb128 0xa
 3267 1023 52050000 		.4byte	0x552
 3268 1027 0A       		.uleb128 0xa
 3269 1028 C3000000 		.4byte	0xc3
 3270 102c 36       		.uleb128 0x36
 3271 102d 00       		.byte	0
 3272 102e 00       		.byte	0
 3273              		.section	.debug_abbrev,"",%progbits
 3274              	.Ldebug_abbrev0:
 3275 0000 01       		.uleb128 0x1
 3276 0001 11       		.uleb128 0x11
 3277 0002 01       		.byte	0x1
 3278 0003 25       		.uleb128 0x25
 3279 0004 0E       		.uleb128 0xe
 3280 0005 13       		.uleb128 0x13
 3281 0006 0B       		.uleb128 0xb
 3282 0007 03       		.uleb128 0x3
ARM GAS  /tmp/ccTzRrrl.s 			page 59


 3283 0008 0E       		.uleb128 0xe
 3284 0009 1B       		.uleb128 0x1b
 3285 000a 0E       		.uleb128 0xe
 3286 000b 55       		.uleb128 0x55
 3287 000c 17       		.uleb128 0x17
 3288 000d 11       		.uleb128 0x11
 3289 000e 01       		.uleb128 0x1
 3290 000f 10       		.uleb128 0x10
 3291 0010 17       		.uleb128 0x17
 3292 0011 00       		.byte	0
 3293 0012 00       		.byte	0
 3294 0013 02       		.uleb128 0x2
 3295 0014 16       		.uleb128 0x16
 3296 0015 00       		.byte	0
 3297 0016 03       		.uleb128 0x3
 3298 0017 0E       		.uleb128 0xe
 3299 0018 3A       		.uleb128 0x3a
 3300 0019 0B       		.uleb128 0xb
 3301 001a 3B       		.uleb128 0x3b
 3302 001b 0B       		.uleb128 0xb
 3303 001c 49       		.uleb128 0x49
 3304 001d 13       		.uleb128 0x13
 3305 001e 00       		.byte	0
 3306 001f 00       		.byte	0
 3307 0020 03       		.uleb128 0x3
 3308 0021 24       		.uleb128 0x24
 3309 0022 00       		.byte	0
 3310 0023 0B       		.uleb128 0xb
 3311 0024 0B       		.uleb128 0xb
 3312 0025 3E       		.uleb128 0x3e
 3313 0026 0B       		.uleb128 0xb
 3314 0027 03       		.uleb128 0x3
 3315 0028 0E       		.uleb128 0xe
 3316 0029 00       		.byte	0
 3317 002a 00       		.byte	0
 3318 002b 04       		.uleb128 0x4
 3319 002c 24       		.uleb128 0x24
 3320 002d 00       		.byte	0
 3321 002e 0B       		.uleb128 0xb
 3322 002f 0B       		.uleb128 0xb
 3323 0030 3E       		.uleb128 0x3e
 3324 0031 0B       		.uleb128 0xb
 3325 0032 03       		.uleb128 0x3
 3326 0033 08       		.uleb128 0x8
 3327 0034 00       		.byte	0
 3328 0035 00       		.byte	0
 3329 0036 05       		.uleb128 0x5
 3330 0037 0F       		.uleb128 0xf
 3331 0038 00       		.byte	0
 3332 0039 0B       		.uleb128 0xb
 3333 003a 0B       		.uleb128 0xb
 3334 003b 00       		.byte	0
 3335 003c 00       		.byte	0
 3336 003d 06       		.uleb128 0x6
 3337 003e 0F       		.uleb128 0xf
 3338 003f 00       		.byte	0
 3339 0040 0B       		.uleb128 0xb
ARM GAS  /tmp/ccTzRrrl.s 			page 60


 3340 0041 0B       		.uleb128 0xb
 3341 0042 49       		.uleb128 0x49
 3342 0043 13       		.uleb128 0x13
 3343 0044 00       		.byte	0
 3344 0045 00       		.byte	0
 3345 0046 07       		.uleb128 0x7
 3346 0047 26       		.uleb128 0x26
 3347 0048 00       		.byte	0
 3348 0049 49       		.uleb128 0x49
 3349 004a 13       		.uleb128 0x13
 3350 004b 00       		.byte	0
 3351 004c 00       		.byte	0
 3352 004d 08       		.uleb128 0x8
 3353 004e 35       		.uleb128 0x35
 3354 004f 00       		.byte	0
 3355 0050 49       		.uleb128 0x49
 3356 0051 13       		.uleb128 0x13
 3357 0052 00       		.byte	0
 3358 0053 00       		.byte	0
 3359 0054 09       		.uleb128 0x9
 3360 0055 15       		.uleb128 0x15
 3361 0056 01       		.byte	0x1
 3362 0057 27       		.uleb128 0x27
 3363 0058 19       		.uleb128 0x19
 3364 0059 49       		.uleb128 0x49
 3365 005a 13       		.uleb128 0x13
 3366 005b 01       		.uleb128 0x1
 3367 005c 13       		.uleb128 0x13
 3368 005d 00       		.byte	0
 3369 005e 00       		.byte	0
 3370 005f 0A       		.uleb128 0xa
 3371 0060 05       		.uleb128 0x5
 3372 0061 00       		.byte	0
 3373 0062 49       		.uleb128 0x49
 3374 0063 13       		.uleb128 0x13
 3375 0064 00       		.byte	0
 3376 0065 00       		.byte	0
 3377 0066 0B       		.uleb128 0xb
 3378 0067 13       		.uleb128 0x13
 3379 0068 01       		.byte	0x1
 3380 0069 03       		.uleb128 0x3
 3381 006a 0E       		.uleb128 0xe
 3382 006b 0B       		.uleb128 0xb
 3383 006c 0B       		.uleb128 0xb
 3384 006d 3A       		.uleb128 0x3a
 3385 006e 0B       		.uleb128 0xb
 3386 006f 3B       		.uleb128 0x3b
 3387 0070 0B       		.uleb128 0xb
 3388 0071 01       		.uleb128 0x1
 3389 0072 13       		.uleb128 0x13
 3390 0073 00       		.byte	0
 3391 0074 00       		.byte	0
 3392 0075 0C       		.uleb128 0xc
 3393 0076 0D       		.uleb128 0xd
 3394 0077 00       		.byte	0
 3395 0078 03       		.uleb128 0x3
 3396 0079 0E       		.uleb128 0xe
ARM GAS  /tmp/ccTzRrrl.s 			page 61


 3397 007a 3A       		.uleb128 0x3a
 3398 007b 0B       		.uleb128 0xb
 3399 007c 3B       		.uleb128 0x3b
 3400 007d 0B       		.uleb128 0xb
 3401 007e 49       		.uleb128 0x49
 3402 007f 13       		.uleb128 0x13
 3403 0080 38       		.uleb128 0x38
 3404 0081 0B       		.uleb128 0xb
 3405 0082 00       		.byte	0
 3406 0083 00       		.byte	0
 3407 0084 0D       		.uleb128 0xd
 3408 0085 0D       		.uleb128 0xd
 3409 0086 00       		.byte	0
 3410 0087 03       		.uleb128 0x3
 3411 0088 08       		.uleb128 0x8
 3412 0089 3A       		.uleb128 0x3a
 3413 008a 0B       		.uleb128 0xb
 3414 008b 3B       		.uleb128 0x3b
 3415 008c 0B       		.uleb128 0xb
 3416 008d 49       		.uleb128 0x49
 3417 008e 13       		.uleb128 0x13
 3418 008f 38       		.uleb128 0x38
 3419 0090 0B       		.uleb128 0xb
 3420 0091 00       		.byte	0
 3421 0092 00       		.byte	0
 3422 0093 0E       		.uleb128 0xe
 3423 0094 13       		.uleb128 0x13
 3424 0095 01       		.byte	0x1
 3425 0096 0B       		.uleb128 0xb
 3426 0097 0B       		.uleb128 0xb
 3427 0098 3A       		.uleb128 0x3a
 3428 0099 0B       		.uleb128 0xb
 3429 009a 3B       		.uleb128 0x3b
 3430 009b 0B       		.uleb128 0xb
 3431 009c 01       		.uleb128 0x1
 3432 009d 13       		.uleb128 0x13
 3433 009e 00       		.byte	0
 3434 009f 00       		.byte	0
 3435 00a0 0F       		.uleb128 0xf
 3436 00a1 13       		.uleb128 0x13
 3437 00a2 01       		.byte	0x1
 3438 00a3 0B       		.uleb128 0xb
 3439 00a4 0B       		.uleb128 0xb
 3440 00a5 3A       		.uleb128 0x3a
 3441 00a6 0B       		.uleb128 0xb
 3442 00a7 3B       		.uleb128 0x3b
 3443 00a8 05       		.uleb128 0x5
 3444 00a9 01       		.uleb128 0x1
 3445 00aa 13       		.uleb128 0x13
 3446 00ab 00       		.byte	0
 3447 00ac 00       		.byte	0
 3448 00ad 10       		.uleb128 0x10
 3449 00ae 0D       		.uleb128 0xd
 3450 00af 00       		.byte	0
 3451 00b0 03       		.uleb128 0x3
 3452 00b1 08       		.uleb128 0x8
 3453 00b2 3A       		.uleb128 0x3a
ARM GAS  /tmp/ccTzRrrl.s 			page 62


 3454 00b3 0B       		.uleb128 0xb
 3455 00b4 3B       		.uleb128 0x3b
 3456 00b5 05       		.uleb128 0x5
 3457 00b6 49       		.uleb128 0x49
 3458 00b7 13       		.uleb128 0x13
 3459 00b8 38       		.uleb128 0x38
 3460 00b9 0B       		.uleb128 0xb
 3461 00ba 00       		.byte	0
 3462 00bb 00       		.byte	0
 3463 00bc 11       		.uleb128 0x11
 3464 00bd 0D       		.uleb128 0xd
 3465 00be 00       		.byte	0
 3466 00bf 03       		.uleb128 0x3
 3467 00c0 0E       		.uleb128 0xe
 3468 00c1 3A       		.uleb128 0x3a
 3469 00c2 0B       		.uleb128 0xb
 3470 00c3 3B       		.uleb128 0x3b
 3471 00c4 05       		.uleb128 0x5
 3472 00c5 49       		.uleb128 0x49
 3473 00c6 13       		.uleb128 0x13
 3474 00c7 38       		.uleb128 0x38
 3475 00c8 0B       		.uleb128 0xb
 3476 00c9 00       		.byte	0
 3477 00ca 00       		.byte	0
 3478 00cb 12       		.uleb128 0x12
 3479 00cc 16       		.uleb128 0x16
 3480 00cd 00       		.byte	0
 3481 00ce 03       		.uleb128 0x3
 3482 00cf 0E       		.uleb128 0xe
 3483 00d0 3A       		.uleb128 0x3a
 3484 00d1 0B       		.uleb128 0xb
 3485 00d2 3B       		.uleb128 0x3b
 3486 00d3 05       		.uleb128 0x5
 3487 00d4 49       		.uleb128 0x49
 3488 00d5 13       		.uleb128 0x13
 3489 00d6 00       		.byte	0
 3490 00d7 00       		.byte	0
 3491 00d8 13       		.uleb128 0x13
 3492 00d9 04       		.uleb128 0x4
 3493 00da 01       		.byte	0x1
 3494 00db 0B       		.uleb128 0xb
 3495 00dc 0B       		.uleb128 0xb
 3496 00dd 3A       		.uleb128 0x3a
 3497 00de 0B       		.uleb128 0xb
 3498 00df 3B       		.uleb128 0x3b
 3499 00e0 0B       		.uleb128 0xb
 3500 00e1 01       		.uleb128 0x1
 3501 00e2 13       		.uleb128 0x13
 3502 00e3 00       		.byte	0
 3503 00e4 00       		.byte	0
 3504 00e5 14       		.uleb128 0x14
 3505 00e6 28       		.uleb128 0x28
 3506 00e7 00       		.byte	0
 3507 00e8 03       		.uleb128 0x3
 3508 00e9 0E       		.uleb128 0xe
 3509 00ea 1C       		.uleb128 0x1c
 3510 00eb 0D       		.uleb128 0xd
ARM GAS  /tmp/ccTzRrrl.s 			page 63


 3511 00ec 00       		.byte	0
 3512 00ed 00       		.byte	0
 3513 00ee 15       		.uleb128 0x15
 3514 00ef 15       		.uleb128 0x15
 3515 00f0 01       		.byte	0x1
 3516 00f1 27       		.uleb128 0x27
 3517 00f2 19       		.uleb128 0x19
 3518 00f3 01       		.uleb128 0x1
 3519 00f4 13       		.uleb128 0x13
 3520 00f5 00       		.byte	0
 3521 00f6 00       		.byte	0
 3522 00f7 16       		.uleb128 0x16
 3523 00f8 01       		.uleb128 0x1
 3524 00f9 01       		.byte	0x1
 3525 00fa 49       		.uleb128 0x49
 3526 00fb 13       		.uleb128 0x13
 3527 00fc 01       		.uleb128 0x1
 3528 00fd 13       		.uleb128 0x13
 3529 00fe 00       		.byte	0
 3530 00ff 00       		.byte	0
 3531 0100 17       		.uleb128 0x17
 3532 0101 21       		.uleb128 0x21
 3533 0102 00       		.byte	0
 3534 0103 49       		.uleb128 0x49
 3535 0104 13       		.uleb128 0x13
 3536 0105 2F       		.uleb128 0x2f
 3537 0106 0B       		.uleb128 0xb
 3538 0107 00       		.byte	0
 3539 0108 00       		.byte	0
 3540 0109 18       		.uleb128 0x18
 3541 010a 2E       		.uleb128 0x2e
 3542 010b 01       		.byte	0x1
 3543 010c 03       		.uleb128 0x3
 3544 010d 0E       		.uleb128 0xe
 3545 010e 3A       		.uleb128 0x3a
 3546 010f 0B       		.uleb128 0xb
 3547 0110 3B       		.uleb128 0x3b
 3548 0111 0B       		.uleb128 0xb
 3549 0112 27       		.uleb128 0x27
 3550 0113 19       		.uleb128 0x19
 3551 0114 20       		.uleb128 0x20
 3552 0115 0B       		.uleb128 0xb
 3553 0116 01       		.uleb128 0x1
 3554 0117 13       		.uleb128 0x13
 3555 0118 00       		.byte	0
 3556 0119 00       		.byte	0
 3557 011a 19       		.uleb128 0x19
 3558 011b 05       		.uleb128 0x5
 3559 011c 00       		.byte	0
 3560 011d 03       		.uleb128 0x3
 3561 011e 08       		.uleb128 0x8
 3562 011f 3A       		.uleb128 0x3a
 3563 0120 0B       		.uleb128 0xb
 3564 0121 3B       		.uleb128 0x3b
 3565 0122 0B       		.uleb128 0xb
 3566 0123 49       		.uleb128 0x49
 3567 0124 13       		.uleb128 0x13
ARM GAS  /tmp/ccTzRrrl.s 			page 64


 3568 0125 00       		.byte	0
 3569 0126 00       		.byte	0
 3570 0127 1A       		.uleb128 0x1a
 3571 0128 34       		.uleb128 0x34
 3572 0129 00       		.byte	0
 3573 012a 03       		.uleb128 0x3
 3574 012b 08       		.uleb128 0x8
 3575 012c 3A       		.uleb128 0x3a
 3576 012d 0B       		.uleb128 0xb
 3577 012e 3B       		.uleb128 0x3b
 3578 012f 0B       		.uleb128 0xb
 3579 0130 49       		.uleb128 0x49
 3580 0131 13       		.uleb128 0x13
 3581 0132 00       		.byte	0
 3582 0133 00       		.byte	0
 3583 0134 1B       		.uleb128 0x1b
 3584 0135 2E       		.uleb128 0x2e
 3585 0136 01       		.byte	0x1
 3586 0137 03       		.uleb128 0x3
 3587 0138 0E       		.uleb128 0xe
 3588 0139 3A       		.uleb128 0x3a
 3589 013a 0B       		.uleb128 0xb
 3590 013b 3B       		.uleb128 0x3b
 3591 013c 0B       		.uleb128 0xb
 3592 013d 27       		.uleb128 0x27
 3593 013e 19       		.uleb128 0x19
 3594 013f 11       		.uleb128 0x11
 3595 0140 01       		.uleb128 0x1
 3596 0141 12       		.uleb128 0x12
 3597 0142 06       		.uleb128 0x6
 3598 0143 40       		.uleb128 0x40
 3599 0144 18       		.uleb128 0x18
 3600 0145 9742     		.uleb128 0x2117
 3601 0147 19       		.uleb128 0x19
 3602 0148 01       		.uleb128 0x1
 3603 0149 13       		.uleb128 0x13
 3604 014a 00       		.byte	0
 3605 014b 00       		.byte	0
 3606 014c 1C       		.uleb128 0x1c
 3607 014d 05       		.uleb128 0x5
 3608 014e 00       		.byte	0
 3609 014f 03       		.uleb128 0x3
 3610 0150 0E       		.uleb128 0xe
 3611 0151 3A       		.uleb128 0x3a
 3612 0152 0B       		.uleb128 0xb
 3613 0153 3B       		.uleb128 0x3b
 3614 0154 0B       		.uleb128 0xb
 3615 0155 49       		.uleb128 0x49
 3616 0156 13       		.uleb128 0x13
 3617 0157 02       		.uleb128 0x2
 3618 0158 17       		.uleb128 0x17
 3619 0159 00       		.byte	0
 3620 015a 00       		.byte	0
 3621 015b 1D       		.uleb128 0x1d
 3622 015c 0B       		.uleb128 0xb
 3623 015d 01       		.byte	0x1
 3624 015e 11       		.uleb128 0x11
ARM GAS  /tmp/ccTzRrrl.s 			page 65


 3625 015f 01       		.uleb128 0x1
 3626 0160 12       		.uleb128 0x12
 3627 0161 06       		.uleb128 0x6
 3628 0162 01       		.uleb128 0x1
 3629 0163 13       		.uleb128 0x13
 3630 0164 00       		.byte	0
 3631 0165 00       		.byte	0
 3632 0166 1E       		.uleb128 0x1e
 3633 0167 34       		.uleb128 0x34
 3634 0168 00       		.byte	0
 3635 0169 03       		.uleb128 0x3
 3636 016a 08       		.uleb128 0x8
 3637 016b 3A       		.uleb128 0x3a
 3638 016c 0B       		.uleb128 0xb
 3639 016d 3B       		.uleb128 0x3b
 3640 016e 0B       		.uleb128 0xb
 3641 016f 49       		.uleb128 0x49
 3642 0170 13       		.uleb128 0x13
 3643 0171 02       		.uleb128 0x2
 3644 0172 18       		.uleb128 0x18
 3645 0173 00       		.byte	0
 3646 0174 00       		.byte	0
 3647 0175 1F       		.uleb128 0x1f
 3648 0176 1D       		.uleb128 0x1d
 3649 0177 01       		.byte	0x1
 3650 0178 31       		.uleb128 0x31
 3651 0179 13       		.uleb128 0x13
 3652 017a 11       		.uleb128 0x11
 3653 017b 01       		.uleb128 0x1
 3654 017c 12       		.uleb128 0x12
 3655 017d 06       		.uleb128 0x6
 3656 017e 58       		.uleb128 0x58
 3657 017f 0B       		.uleb128 0xb
 3658 0180 59       		.uleb128 0x59
 3659 0181 0B       		.uleb128 0xb
 3660 0182 01       		.uleb128 0x1
 3661 0183 13       		.uleb128 0x13
 3662 0184 00       		.byte	0
 3663 0185 00       		.byte	0
 3664 0186 20       		.uleb128 0x20
 3665 0187 05       		.uleb128 0x5
 3666 0188 00       		.byte	0
 3667 0189 31       		.uleb128 0x31
 3668 018a 13       		.uleb128 0x13
 3669 018b 02       		.uleb128 0x2
 3670 018c 18       		.uleb128 0x18
 3671 018d 00       		.byte	0
 3672 018e 00       		.byte	0
 3673 018f 21       		.uleb128 0x21
 3674 0190 0B       		.uleb128 0xb
 3675 0191 01       		.byte	0x1
 3676 0192 11       		.uleb128 0x11
 3677 0193 01       		.uleb128 0x1
 3678 0194 12       		.uleb128 0x12
 3679 0195 06       		.uleb128 0x6
 3680 0196 00       		.byte	0
 3681 0197 00       		.byte	0
ARM GAS  /tmp/ccTzRrrl.s 			page 66


 3682 0198 22       		.uleb128 0x22
 3683 0199 34       		.uleb128 0x34
 3684 019a 00       		.byte	0
 3685 019b 31       		.uleb128 0x31
 3686 019c 13       		.uleb128 0x13
 3687 019d 02       		.uleb128 0x2
 3688 019e 17       		.uleb128 0x17
 3689 019f 00       		.byte	0
 3690 01a0 00       		.byte	0
 3691 01a1 23       		.uleb128 0x23
 3692 01a2 34       		.uleb128 0x34
 3693 01a3 00       		.byte	0
 3694 01a4 31       		.uleb128 0x31
 3695 01a5 13       		.uleb128 0x13
 3696 01a6 02       		.uleb128 0x2
 3697 01a7 18       		.uleb128 0x18
 3698 01a8 00       		.byte	0
 3699 01a9 00       		.byte	0
 3700 01aa 24       		.uleb128 0x24
 3701 01ab 34       		.uleb128 0x34
 3702 01ac 00       		.byte	0
 3703 01ad 03       		.uleb128 0x3
 3704 01ae 08       		.uleb128 0x8
 3705 01af 3A       		.uleb128 0x3a
 3706 01b0 0B       		.uleb128 0xb
 3707 01b1 3B       		.uleb128 0x3b
 3708 01b2 05       		.uleb128 0x5
 3709 01b3 49       		.uleb128 0x49
 3710 01b4 13       		.uleb128 0x13
 3711 01b5 02       		.uleb128 0x2
 3712 01b6 18       		.uleb128 0x18
 3713 01b7 00       		.byte	0
 3714 01b8 00       		.byte	0
 3715 01b9 25       		.uleb128 0x25
 3716 01ba 1D       		.uleb128 0x1d
 3717 01bb 01       		.byte	0x1
 3718 01bc 31       		.uleb128 0x31
 3719 01bd 13       		.uleb128 0x13
 3720 01be 11       		.uleb128 0x11
 3721 01bf 01       		.uleb128 0x1
 3722 01c0 12       		.uleb128 0x12
 3723 01c1 06       		.uleb128 0x6
 3724 01c2 58       		.uleb128 0x58
 3725 01c3 0B       		.uleb128 0xb
 3726 01c4 59       		.uleb128 0x59
 3727 01c5 05       		.uleb128 0x5
 3728 01c6 01       		.uleb128 0x1
 3729 01c7 13       		.uleb128 0x13
 3730 01c8 00       		.byte	0
 3731 01c9 00       		.byte	0
 3732 01ca 26       		.uleb128 0x26
 3733 01cb 2E       		.uleb128 0x2e
 3734 01cc 01       		.byte	0x1
 3735 01cd 3F       		.uleb128 0x3f
 3736 01ce 19       		.uleb128 0x19
 3737 01cf 03       		.uleb128 0x3
 3738 01d0 0E       		.uleb128 0xe
ARM GAS  /tmp/ccTzRrrl.s 			page 67


 3739 01d1 3A       		.uleb128 0x3a
 3740 01d2 0B       		.uleb128 0xb
 3741 01d3 3B       		.uleb128 0x3b
 3742 01d4 05       		.uleb128 0x5
 3743 01d5 27       		.uleb128 0x27
 3744 01d6 19       		.uleb128 0x19
 3745 01d7 11       		.uleb128 0x11
 3746 01d8 01       		.uleb128 0x1
 3747 01d9 12       		.uleb128 0x12
 3748 01da 06       		.uleb128 0x6
 3749 01db 40       		.uleb128 0x40
 3750 01dc 18       		.uleb128 0x18
 3751 01dd 9742     		.uleb128 0x2117
 3752 01df 19       		.uleb128 0x19
 3753 01e0 01       		.uleb128 0x1
 3754 01e1 13       		.uleb128 0x13
 3755 01e2 00       		.byte	0
 3756 01e3 00       		.byte	0
 3757 01e4 27       		.uleb128 0x27
 3758 01e5 34       		.uleb128 0x34
 3759 01e6 00       		.byte	0
 3760 01e7 03       		.uleb128 0x3
 3761 01e8 08       		.uleb128 0x8
 3762 01e9 3A       		.uleb128 0x3a
 3763 01ea 0B       		.uleb128 0xb
 3764 01eb 3B       		.uleb128 0x3b
 3765 01ec 05       		.uleb128 0x5
 3766 01ed 49       		.uleb128 0x49
 3767 01ee 13       		.uleb128 0x13
 3768 01ef 02       		.uleb128 0x2
 3769 01f0 17       		.uleb128 0x17
 3770 01f1 00       		.byte	0
 3771 01f2 00       		.byte	0
 3772 01f3 28       		.uleb128 0x28
 3773 01f4 05       		.uleb128 0x5
 3774 01f5 00       		.byte	0
 3775 01f6 03       		.uleb128 0x3
 3776 01f7 0E       		.uleb128 0xe
 3777 01f8 3A       		.uleb128 0x3a
 3778 01f9 0B       		.uleb128 0xb
 3779 01fa 3B       		.uleb128 0x3b
 3780 01fb 05       		.uleb128 0x5
 3781 01fc 49       		.uleb128 0x49
 3782 01fd 13       		.uleb128 0x13
 3783 01fe 02       		.uleb128 0x2
 3784 01ff 17       		.uleb128 0x17
 3785 0200 00       		.byte	0
 3786 0201 00       		.byte	0
 3787 0202 29       		.uleb128 0x29
 3788 0203 05       		.uleb128 0x5
 3789 0204 00       		.byte	0
 3790 0205 03       		.uleb128 0x3
 3791 0206 08       		.uleb128 0x8
 3792 0207 3A       		.uleb128 0x3a
 3793 0208 0B       		.uleb128 0xb
 3794 0209 3B       		.uleb128 0x3b
 3795 020a 05       		.uleb128 0x5
ARM GAS  /tmp/ccTzRrrl.s 			page 68


 3796 020b 49       		.uleb128 0x49
 3797 020c 13       		.uleb128 0x13
 3798 020d 02       		.uleb128 0x2
 3799 020e 17       		.uleb128 0x17
 3800 020f 00       		.byte	0
 3801 0210 00       		.byte	0
 3802 0211 2A       		.uleb128 0x2a
 3803 0212 898201   		.uleb128 0x4109
 3804 0215 01       		.byte	0x1
 3805 0216 11       		.uleb128 0x11
 3806 0217 01       		.uleb128 0x1
 3807 0218 31       		.uleb128 0x31
 3808 0219 13       		.uleb128 0x13
 3809 021a 01       		.uleb128 0x1
 3810 021b 13       		.uleb128 0x13
 3811 021c 00       		.byte	0
 3812 021d 00       		.byte	0
 3813 021e 2B       		.uleb128 0x2b
 3814 021f 8A8201   		.uleb128 0x410a
 3815 0222 00       		.byte	0
 3816 0223 02       		.uleb128 0x2
 3817 0224 18       		.uleb128 0x18
 3818 0225 9142     		.uleb128 0x2111
 3819 0227 18       		.uleb128 0x18
 3820 0228 00       		.byte	0
 3821 0229 00       		.byte	0
 3822 022a 2C       		.uleb128 0x2c
 3823 022b 898201   		.uleb128 0x4109
 3824 022e 01       		.byte	0x1
 3825 022f 11       		.uleb128 0x11
 3826 0230 01       		.uleb128 0x1
 3827 0231 31       		.uleb128 0x31
 3828 0232 13       		.uleb128 0x13
 3829 0233 00       		.byte	0
 3830 0234 00       		.byte	0
 3831 0235 2D       		.uleb128 0x2d
 3832 0236 898201   		.uleb128 0x4109
 3833 0239 00       		.byte	0
 3834 023a 11       		.uleb128 0x11
 3835 023b 01       		.uleb128 0x1
 3836 023c 31       		.uleb128 0x31
 3837 023d 13       		.uleb128 0x13
 3838 023e 00       		.byte	0
 3839 023f 00       		.byte	0
 3840 0240 2E       		.uleb128 0x2e
 3841 0241 898201   		.uleb128 0x4109
 3842 0244 00       		.byte	0
 3843 0245 11       		.uleb128 0x11
 3844 0246 01       		.uleb128 0x1
 3845 0247 9542     		.uleb128 0x2115
 3846 0249 19       		.uleb128 0x19
 3847 024a 31       		.uleb128 0x31
 3848 024b 13       		.uleb128 0x13
 3849 024c 00       		.byte	0
 3850 024d 00       		.byte	0
 3851 024e 2F       		.uleb128 0x2f
 3852 024f 2E       		.uleb128 0x2e
ARM GAS  /tmp/ccTzRrrl.s 			page 69


 3853 0250 01       		.byte	0x1
 3854 0251 3F       		.uleb128 0x3f
 3855 0252 19       		.uleb128 0x19
 3856 0253 03       		.uleb128 0x3
 3857 0254 0E       		.uleb128 0xe
 3858 0255 3A       		.uleb128 0x3a
 3859 0256 0B       		.uleb128 0xb
 3860 0257 3B       		.uleb128 0x3b
 3861 0258 05       		.uleb128 0x5
 3862 0259 27       		.uleb128 0x27
 3863 025a 19       		.uleb128 0x19
 3864 025b 49       		.uleb128 0x49
 3865 025c 13       		.uleb128 0x13
 3866 025d 11       		.uleb128 0x11
 3867 025e 01       		.uleb128 0x1
 3868 025f 12       		.uleb128 0x12
 3869 0260 06       		.uleb128 0x6
 3870 0261 40       		.uleb128 0x40
 3871 0262 18       		.uleb128 0x18
 3872 0263 9742     		.uleb128 0x2117
 3873 0265 19       		.uleb128 0x19
 3874 0266 01       		.uleb128 0x1
 3875 0267 13       		.uleb128 0x13
 3876 0268 00       		.byte	0
 3877 0269 00       		.byte	0
 3878 026a 30       		.uleb128 0x30
 3879 026b 34       		.uleb128 0x34
 3880 026c 00       		.byte	0
 3881 026d 03       		.uleb128 0x3
 3882 026e 0E       		.uleb128 0xe
 3883 026f 3A       		.uleb128 0x3a
 3884 0270 0B       		.uleb128 0xb
 3885 0271 3B       		.uleb128 0x3b
 3886 0272 0B       		.uleb128 0xb
 3887 0273 49       		.uleb128 0x49
 3888 0274 13       		.uleb128 0x13
 3889 0275 02       		.uleb128 0x2
 3890 0276 18       		.uleb128 0x18
 3891 0277 00       		.byte	0
 3892 0278 00       		.byte	0
 3893 0279 31       		.uleb128 0x31
 3894 027a 34       		.uleb128 0x34
 3895 027b 00       		.byte	0
 3896 027c 03       		.uleb128 0x3
 3897 027d 0E       		.uleb128 0xe
 3898 027e 3A       		.uleb128 0x3a
 3899 027f 0B       		.uleb128 0xb
 3900 0280 3B       		.uleb128 0x3b
 3901 0281 05       		.uleb128 0x5
 3902 0282 49       		.uleb128 0x49
 3903 0283 13       		.uleb128 0x13
 3904 0284 02       		.uleb128 0x2
 3905 0285 18       		.uleb128 0x18
 3906 0286 00       		.byte	0
 3907 0287 00       		.byte	0
 3908 0288 32       		.uleb128 0x32
 3909 0289 34       		.uleb128 0x34
ARM GAS  /tmp/ccTzRrrl.s 			page 70


 3910 028a 00       		.byte	0
 3911 028b 03       		.uleb128 0x3
 3912 028c 0E       		.uleb128 0xe
 3913 028d 3A       		.uleb128 0x3a
 3914 028e 0B       		.uleb128 0xb
 3915 028f 3B       		.uleb128 0x3b
 3916 0290 05       		.uleb128 0x5
 3917 0291 49       		.uleb128 0x49
 3918 0292 13       		.uleb128 0x13
 3919 0293 3F       		.uleb128 0x3f
 3920 0294 19       		.uleb128 0x19
 3921 0295 3C       		.uleb128 0x3c
 3922 0296 19       		.uleb128 0x19
 3923 0297 00       		.byte	0
 3924 0298 00       		.byte	0
 3925 0299 33       		.uleb128 0x33
 3926 029a 34       		.uleb128 0x34
 3927 029b 00       		.byte	0
 3928 029c 03       		.uleb128 0x3
 3929 029d 0E       		.uleb128 0xe
 3930 029e 3A       		.uleb128 0x3a
 3931 029f 0B       		.uleb128 0xb
 3932 02a0 3B       		.uleb128 0x3b
 3933 02a1 0B       		.uleb128 0xb
 3934 02a2 49       		.uleb128 0x49
 3935 02a3 13       		.uleb128 0x13
 3936 02a4 3F       		.uleb128 0x3f
 3937 02a5 19       		.uleb128 0x19
 3938 02a6 3C       		.uleb128 0x3c
 3939 02a7 19       		.uleb128 0x19
 3940 02a8 00       		.byte	0
 3941 02a9 00       		.byte	0
 3942 02aa 34       		.uleb128 0x34
 3943 02ab 2E       		.uleb128 0x2e
 3944 02ac 01       		.byte	0x1
 3945 02ad 3F       		.uleb128 0x3f
 3946 02ae 19       		.uleb128 0x19
 3947 02af 03       		.uleb128 0x3
 3948 02b0 0E       		.uleb128 0xe
 3949 02b1 3A       		.uleb128 0x3a
 3950 02b2 0B       		.uleb128 0xb
 3951 02b3 3B       		.uleb128 0x3b
 3952 02b4 0B       		.uleb128 0xb
 3953 02b5 27       		.uleb128 0x27
 3954 02b6 19       		.uleb128 0x19
 3955 02b7 3C       		.uleb128 0x3c
 3956 02b8 19       		.uleb128 0x19
 3957 02b9 01       		.uleb128 0x1
 3958 02ba 13       		.uleb128 0x13
 3959 02bb 00       		.byte	0
 3960 02bc 00       		.byte	0
 3961 02bd 35       		.uleb128 0x35
 3962 02be 2E       		.uleb128 0x2e
 3963 02bf 01       		.byte	0x1
 3964 02c0 3F       		.uleb128 0x3f
 3965 02c1 19       		.uleb128 0x19
 3966 02c2 03       		.uleb128 0x3
ARM GAS  /tmp/ccTzRrrl.s 			page 71


 3967 02c3 0E       		.uleb128 0xe
 3968 02c4 3A       		.uleb128 0x3a
 3969 02c5 0B       		.uleb128 0xb
 3970 02c6 3B       		.uleb128 0x3b
 3971 02c7 0B       		.uleb128 0xb
 3972 02c8 27       		.uleb128 0x27
 3973 02c9 19       		.uleb128 0x19
 3974 02ca 49       		.uleb128 0x49
 3975 02cb 13       		.uleb128 0x13
 3976 02cc 3C       		.uleb128 0x3c
 3977 02cd 19       		.uleb128 0x19
 3978 02ce 00       		.byte	0
 3979 02cf 00       		.byte	0
 3980 02d0 36       		.uleb128 0x36
 3981 02d1 18       		.uleb128 0x18
 3982 02d2 00       		.byte	0
 3983 02d3 00       		.byte	0
 3984 02d4 00       		.byte	0
 3985 02d5 00       		.byte	0
 3986              		.section	.debug_loc,"",%progbits
 3987              	.Ldebug_loc0:
 3988              	.LLST0:
 3989 0000 00000000 		.4byte	.LVL0
 3990 0004 18000000 		.4byte	.LVL4
 3991 0008 0100     		.2byte	0x1
 3992 000a 50       		.byte	0x50
 3993 000b 18000000 		.4byte	.LVL4
 3994 000f 4A000000 		.4byte	.LFE72
 3995 0013 0400     		.2byte	0x4
 3996 0015 F3       		.byte	0xf3
 3997 0016 01       		.uleb128 0x1
 3998 0017 50       		.byte	0x50
 3999 0018 9F       		.byte	0x9f
 4000 0019 00000000 		.4byte	0
 4001 001d 00000000 		.4byte	0
 4002              	.LLST1:
 4003 0021 00000000 		.4byte	.LVL0
 4004 0025 12000000 		.4byte	.LVL2
 4005 0029 0100     		.2byte	0x1
 4006 002b 51       		.byte	0x51
 4007 002c 12000000 		.4byte	.LVL2
 4008 0030 4A000000 		.4byte	.LFE72
 4009 0034 0400     		.2byte	0x4
 4010 0036 F3       		.byte	0xf3
 4011 0037 01       		.uleb128 0x1
 4012 0038 51       		.byte	0x51
 4013 0039 9F       		.byte	0x9f
 4014 003a 00000000 		.4byte	0
 4015 003e 00000000 		.4byte	0
 4016              	.LLST2:
 4017 0042 16000000 		.4byte	.LVL3
 4018 0046 48000000 		.4byte	.LVL5
 4019 004a 1100     		.2byte	0x11
 4020 004c 74       		.byte	0x74
 4021 004d 00       		.sleb128 0
 4022 004e 03       		.byte	0x3
 4023 004f 64000000 		.4byte	vexQuadEncoders+100
ARM GAS  /tmp/ccTzRrrl.s 			page 72


 4024 0053 94       		.byte	0x94
 4025 0054 02       		.byte	0x2
 4026 0055 40       		.byte	0x40
 4027 0056 24       		.byte	0x24
 4028 0057 40       		.byte	0x40
 4029 0058 26       		.byte	0x26
 4030 0059 25       		.byte	0x25
 4031 005a 31       		.byte	0x31
 4032 005b 1A       		.byte	0x1a
 4033 005c 9F       		.byte	0x9f
 4034 005d 00000000 		.4byte	0
 4035 0061 00000000 		.4byte	0
 4036              	.LLST3:
 4037 0065 00000000 		.4byte	.LVL6
 4038 0069 1A000000 		.4byte	.LVL10
 4039 006d 0100     		.2byte	0x1
 4040 006f 50       		.byte	0x50
 4041 0070 1A000000 		.4byte	.LVL10
 4042 0074 4C000000 		.4byte	.LFE73
 4043 0078 0400     		.2byte	0x4
 4044 007a F3       		.byte	0xf3
 4045 007b 01       		.uleb128 0x1
 4046 007c 50       		.byte	0x50
 4047 007d 9F       		.byte	0x9f
 4048 007e 00000000 		.4byte	0
 4049 0082 00000000 		.4byte	0
 4050              	.LLST4:
 4051 0086 00000000 		.4byte	.LVL6
 4052 008a 12000000 		.4byte	.LVL8
 4053 008e 0100     		.2byte	0x1
 4054 0090 51       		.byte	0x51
 4055 0091 12000000 		.4byte	.LVL8
 4056 0095 4C000000 		.4byte	.LFE73
 4057 0099 0400     		.2byte	0x4
 4058 009b F3       		.byte	0xf3
 4059 009c 01       		.uleb128 0x1
 4060 009d 51       		.byte	0x51
 4061 009e 9F       		.byte	0x9f
 4062 009f 00000000 		.4byte	0
 4063 00a3 00000000 		.4byte	0
 4064              	.LLST5:
 4065 00a7 18000000 		.4byte	.LVL9
 4066 00ab 4A000000 		.4byte	.LVL11
 4067 00af 1100     		.2byte	0x11
 4068 00b1 74       		.byte	0x74
 4069 00b2 00       		.sleb128 0
 4070 00b3 03       		.byte	0x3
 4071 00b4 80000000 		.4byte	vexQuadEncoders+128
 4072 00b8 94       		.byte	0x94
 4073 00b9 02       		.byte	0x2
 4074 00ba 40       		.byte	0x40
 4075 00bb 24       		.byte	0x24
 4076 00bc 40       		.byte	0x40
 4077 00bd 26       		.byte	0x26
 4078 00be 25       		.byte	0x25
 4079 00bf 31       		.byte	0x31
 4080 00c0 1A       		.byte	0x1a
ARM GAS  /tmp/ccTzRrrl.s 			page 73


 4081 00c1 9F       		.byte	0x9f
 4082 00c2 00000000 		.4byte	0
 4083 00c6 00000000 		.4byte	0
 4084              	.LLST6:
 4085 00ca 00000000 		.4byte	.LVL12
 4086 00ce 1A000000 		.4byte	.LVL16
 4087 00d2 0100     		.2byte	0x1
 4088 00d4 50       		.byte	0x50
 4089 00d5 1A000000 		.4byte	.LVL16
 4090 00d9 4C000000 		.4byte	.LFE74
 4091 00dd 0400     		.2byte	0x4
 4092 00df F3       		.byte	0xf3
 4093 00e0 01       		.uleb128 0x1
 4094 00e1 50       		.byte	0x50
 4095 00e2 9F       		.byte	0x9f
 4096 00e3 00000000 		.4byte	0
 4097 00e7 00000000 		.4byte	0
 4098              	.LLST7:
 4099 00eb 00000000 		.4byte	.LVL12
 4100 00ef 12000000 		.4byte	.LVL14
 4101 00f3 0100     		.2byte	0x1
 4102 00f5 51       		.byte	0x51
 4103 00f6 12000000 		.4byte	.LVL14
 4104 00fa 4C000000 		.4byte	.LFE74
 4105 00fe 0400     		.2byte	0x4
 4106 0100 F3       		.byte	0xf3
 4107 0101 01       		.uleb128 0x1
 4108 0102 51       		.byte	0x51
 4109 0103 9F       		.byte	0x9f
 4110 0104 00000000 		.4byte	0
 4111 0108 00000000 		.4byte	0
 4112              	.LLST8:
 4113 010c 18000000 		.4byte	.LVL15
 4114 0110 4A000000 		.4byte	.LVL17
 4115 0114 1100     		.2byte	0x11
 4116 0116 74       		.byte	0x74
 4117 0117 00       		.sleb128 0
 4118 0118 03       		.byte	0x3
 4119 0119 80000000 		.4byte	vexQuadEncoders+128
 4120 011d 94       		.byte	0x94
 4121 011e 02       		.byte	0x2
 4122 011f 40       		.byte	0x40
 4123 0120 24       		.byte	0x24
 4124 0121 40       		.byte	0x40
 4125 0122 26       		.byte	0x26
 4126 0123 25       		.byte	0x25
 4127 0124 31       		.byte	0x31
 4128 0125 1A       		.byte	0x1a
 4129 0126 9F       		.byte	0x9f
 4130 0127 00000000 		.4byte	0
 4131 012b 00000000 		.4byte	0
 4132              	.LLST9:
 4133 012f 00000000 		.4byte	.LVL18
 4134 0133 18000000 		.4byte	.LVL22
 4135 0137 0100     		.2byte	0x1
 4136 0139 50       		.byte	0x50
 4137 013a 18000000 		.4byte	.LVL22
ARM GAS  /tmp/ccTzRrrl.s 			page 74


 4138 013e 4A000000 		.4byte	.LFE65
 4139 0142 0400     		.2byte	0x4
 4140 0144 F3       		.byte	0xf3
 4141 0145 01       		.uleb128 0x1
 4142 0146 50       		.byte	0x50
 4143 0147 9F       		.byte	0x9f
 4144 0148 00000000 		.4byte	0
 4145 014c 00000000 		.4byte	0
 4146              	.LLST10:
 4147 0150 00000000 		.4byte	.LVL18
 4148 0154 12000000 		.4byte	.LVL20
 4149 0158 0100     		.2byte	0x1
 4150 015a 51       		.byte	0x51
 4151 015b 12000000 		.4byte	.LVL20
 4152 015f 4A000000 		.4byte	.LFE65
 4153 0163 0400     		.2byte	0x4
 4154 0165 F3       		.byte	0xf3
 4155 0166 01       		.uleb128 0x1
 4156 0167 51       		.byte	0x51
 4157 0168 9F       		.byte	0x9f
 4158 0169 00000000 		.4byte	0
 4159 016d 00000000 		.4byte	0
 4160              	.LLST11:
 4161 0171 16000000 		.4byte	.LVL21
 4162 0175 48000000 		.4byte	.LVL23
 4163 0179 1100     		.2byte	0x11
 4164 017b 74       		.byte	0x74
 4165 017c 00       		.sleb128 0
 4166 017d 03       		.byte	0x3
 4167 017e 10000000 		.4byte	vexQuadEncoders+16
 4168 0182 94       		.byte	0x94
 4169 0183 02       		.byte	0x2
 4170 0184 40       		.byte	0x40
 4171 0185 24       		.byte	0x24
 4172 0186 40       		.byte	0x40
 4173 0187 26       		.byte	0x26
 4174 0188 25       		.byte	0x25
 4175 0189 31       		.byte	0x31
 4176 018a 1A       		.byte	0x1a
 4177 018b 9F       		.byte	0x9f
 4178 018c 00000000 		.4byte	0
 4179 0190 00000000 		.4byte	0
 4180              	.LLST12:
 4181 0194 00000000 		.4byte	.LVL24
 4182 0198 18000000 		.4byte	.LVL28
 4183 019c 0100     		.2byte	0x1
 4184 019e 50       		.byte	0x50
 4185 019f 18000000 		.4byte	.LVL28
 4186 01a3 4A000000 		.4byte	.LFE67
 4187 01a7 0400     		.2byte	0x4
 4188 01a9 F3       		.byte	0xf3
 4189 01aa 01       		.uleb128 0x1
 4190 01ab 50       		.byte	0x50
 4191 01ac 9F       		.byte	0x9f
 4192 01ad 00000000 		.4byte	0
 4193 01b1 00000000 		.4byte	0
 4194              	.LLST13:
ARM GAS  /tmp/ccTzRrrl.s 			page 75


 4195 01b5 00000000 		.4byte	.LVL24
 4196 01b9 12000000 		.4byte	.LVL26
 4197 01bd 0100     		.2byte	0x1
 4198 01bf 51       		.byte	0x51
 4199 01c0 12000000 		.4byte	.LVL26
 4200 01c4 4A000000 		.4byte	.LFE67
 4201 01c8 0400     		.2byte	0x4
 4202 01ca F3       		.byte	0xf3
 4203 01cb 01       		.uleb128 0x1
 4204 01cc 51       		.byte	0x51
 4205 01cd 9F       		.byte	0x9f
 4206 01ce 00000000 		.4byte	0
 4207 01d2 00000000 		.4byte	0
 4208              	.LLST14:
 4209 01d6 16000000 		.4byte	.LVL27
 4210 01da 48000000 		.4byte	.LVL29
 4211 01de 1100     		.2byte	0x11
 4212 01e0 74       		.byte	0x74
 4213 01e1 00       		.sleb128 0
 4214 01e2 03       		.byte	0x3
 4215 01e3 2C000000 		.4byte	vexQuadEncoders+44
 4216 01e7 94       		.byte	0x94
 4217 01e8 02       		.byte	0x2
 4218 01e9 40       		.byte	0x40
 4219 01ea 24       		.byte	0x24
 4220 01eb 40       		.byte	0x40
 4221 01ec 26       		.byte	0x26
 4222 01ed 25       		.byte	0x25
 4223 01ee 31       		.byte	0x31
 4224 01ef 1A       		.byte	0x1a
 4225 01f0 9F       		.byte	0x9f
 4226 01f1 00000000 		.4byte	0
 4227 01f5 00000000 		.4byte	0
 4228              	.LLST15:
 4229 01f9 00000000 		.4byte	.LVL30
 4230 01fd 18000000 		.4byte	.LVL34
 4231 0201 0100     		.2byte	0x1
 4232 0203 50       		.byte	0x50
 4233 0204 18000000 		.4byte	.LVL34
 4234 0208 4A000000 		.4byte	.LFE69
 4235 020c 0400     		.2byte	0x4
 4236 020e F3       		.byte	0xf3
 4237 020f 01       		.uleb128 0x1
 4238 0210 50       		.byte	0x50
 4239 0211 9F       		.byte	0x9f
 4240 0212 00000000 		.4byte	0
 4241 0216 00000000 		.4byte	0
 4242              	.LLST16:
 4243 021a 00000000 		.4byte	.LVL30
 4244 021e 12000000 		.4byte	.LVL32
 4245 0222 0100     		.2byte	0x1
 4246 0224 51       		.byte	0x51
 4247 0225 12000000 		.4byte	.LVL32
 4248 0229 4A000000 		.4byte	.LFE69
 4249 022d 0400     		.2byte	0x4
 4250 022f F3       		.byte	0xf3
 4251 0230 01       		.uleb128 0x1
ARM GAS  /tmp/ccTzRrrl.s 			page 76


 4252 0231 51       		.byte	0x51
 4253 0232 9F       		.byte	0x9f
 4254 0233 00000000 		.4byte	0
 4255 0237 00000000 		.4byte	0
 4256              	.LLST17:
 4257 023b 16000000 		.4byte	.LVL33
 4258 023f 48000000 		.4byte	.LVL35
 4259 0243 1100     		.2byte	0x11
 4260 0245 74       		.byte	0x74
 4261 0246 00       		.sleb128 0
 4262 0247 03       		.byte	0x3
 4263 0248 48000000 		.4byte	vexQuadEncoders+72
 4264 024c 94       		.byte	0x94
 4265 024d 02       		.byte	0x2
 4266 024e 40       		.byte	0x40
 4267 024f 24       		.byte	0x24
 4268 0250 40       		.byte	0x40
 4269 0251 26       		.byte	0x26
 4270 0252 25       		.byte	0x25
 4271 0253 31       		.byte	0x31
 4272 0254 1A       		.byte	0x1a
 4273 0255 9F       		.byte	0x9f
 4274 0256 00000000 		.4byte	0
 4275 025a 00000000 		.4byte	0
 4276              	.LLST18:
 4277 025e 00000000 		.4byte	.LVL36
 4278 0262 18000000 		.4byte	.LVL40
 4279 0266 0100     		.2byte	0x1
 4280 0268 50       		.byte	0x50
 4281 0269 18000000 		.4byte	.LVL40
 4282 026d 4A000000 		.4byte	.LFE71
 4283 0271 0400     		.2byte	0x4
 4284 0273 F3       		.byte	0xf3
 4285 0274 01       		.uleb128 0x1
 4286 0275 50       		.byte	0x50
 4287 0276 9F       		.byte	0x9f
 4288 0277 00000000 		.4byte	0
 4289 027b 00000000 		.4byte	0
 4290              	.LLST19:
 4291 027f 00000000 		.4byte	.LVL36
 4292 0283 12000000 		.4byte	.LVL38
 4293 0287 0100     		.2byte	0x1
 4294 0289 51       		.byte	0x51
 4295 028a 12000000 		.4byte	.LVL38
 4296 028e 4A000000 		.4byte	.LFE71
 4297 0292 0400     		.2byte	0x4
 4298 0294 F3       		.byte	0xf3
 4299 0295 01       		.uleb128 0x1
 4300 0296 51       		.byte	0x51
 4301 0297 9F       		.byte	0x9f
 4302 0298 00000000 		.4byte	0
 4303 029c 00000000 		.4byte	0
 4304              	.LLST20:
 4305 02a0 16000000 		.4byte	.LVL39
 4306 02a4 48000000 		.4byte	.LVL41
 4307 02a8 1100     		.2byte	0x11
 4308 02aa 74       		.byte	0x74
ARM GAS  /tmp/ccTzRrrl.s 			page 77


 4309 02ab 00       		.sleb128 0
 4310 02ac 03       		.byte	0x3
 4311 02ad 64000000 		.4byte	vexQuadEncoders+100
 4312 02b1 94       		.byte	0x94
 4313 02b2 02       		.byte	0x2
 4314 02b3 40       		.byte	0x40
 4315 02b4 24       		.byte	0x24
 4316 02b5 40       		.byte	0x40
 4317 02b6 26       		.byte	0x26
 4318 02b7 25       		.byte	0x25
 4319 02b8 31       		.byte	0x31
 4320 02b9 1A       		.byte	0x1a
 4321 02ba 9F       		.byte	0x9f
 4322 02bb 00000000 		.4byte	0
 4323 02bf 00000000 		.4byte	0
 4324              	.LLST21:
 4325 02c3 00000000 		.4byte	.LVL42
 4326 02c7 18000000 		.4byte	.LVL46
 4327 02cb 0100     		.2byte	0x1
 4328 02cd 50       		.byte	0x50
 4329 02ce 18000000 		.4byte	.LVL46
 4330 02d2 4A000000 		.4byte	.LFE66
 4331 02d6 0400     		.2byte	0x4
 4332 02d8 F3       		.byte	0xf3
 4333 02d9 01       		.uleb128 0x1
 4334 02da 50       		.byte	0x50
 4335 02db 9F       		.byte	0x9f
 4336 02dc 00000000 		.4byte	0
 4337 02e0 00000000 		.4byte	0
 4338              	.LLST22:
 4339 02e4 00000000 		.4byte	.LVL42
 4340 02e8 12000000 		.4byte	.LVL44
 4341 02ec 0100     		.2byte	0x1
 4342 02ee 51       		.byte	0x51
 4343 02ef 12000000 		.4byte	.LVL44
 4344 02f3 4A000000 		.4byte	.LFE66
 4345 02f7 0400     		.2byte	0x4
 4346 02f9 F3       		.byte	0xf3
 4347 02fa 01       		.uleb128 0x1
 4348 02fb 51       		.byte	0x51
 4349 02fc 9F       		.byte	0x9f
 4350 02fd 00000000 		.4byte	0
 4351 0301 00000000 		.4byte	0
 4352              	.LLST23:
 4353 0305 16000000 		.4byte	.LVL45
 4354 0309 48000000 		.4byte	.LVL47
 4355 030d 1100     		.2byte	0x11
 4356 030f 74       		.byte	0x74
 4357 0310 00       		.sleb128 0
 4358 0311 03       		.byte	0x3
 4359 0312 10000000 		.4byte	vexQuadEncoders+16
 4360 0316 94       		.byte	0x94
 4361 0317 02       		.byte	0x2
 4362 0318 40       		.byte	0x40
 4363 0319 24       		.byte	0x24
 4364 031a 40       		.byte	0x40
 4365 031b 26       		.byte	0x26
ARM GAS  /tmp/ccTzRrrl.s 			page 78


 4366 031c 25       		.byte	0x25
 4367 031d 31       		.byte	0x31
 4368 031e 1A       		.byte	0x1a
 4369 031f 9F       		.byte	0x9f
 4370 0320 00000000 		.4byte	0
 4371 0324 00000000 		.4byte	0
 4372              	.LLST24:
 4373 0328 00000000 		.4byte	.LVL48
 4374 032c 18000000 		.4byte	.LVL52
 4375 0330 0100     		.2byte	0x1
 4376 0332 50       		.byte	0x50
 4377 0333 18000000 		.4byte	.LVL52
 4378 0337 4A000000 		.4byte	.LFE68
 4379 033b 0400     		.2byte	0x4
 4380 033d F3       		.byte	0xf3
 4381 033e 01       		.uleb128 0x1
 4382 033f 50       		.byte	0x50
 4383 0340 9F       		.byte	0x9f
 4384 0341 00000000 		.4byte	0
 4385 0345 00000000 		.4byte	0
 4386              	.LLST25:
 4387 0349 00000000 		.4byte	.LVL48
 4388 034d 12000000 		.4byte	.LVL50
 4389 0351 0100     		.2byte	0x1
 4390 0353 51       		.byte	0x51
 4391 0354 12000000 		.4byte	.LVL50
 4392 0358 4A000000 		.4byte	.LFE68
 4393 035c 0400     		.2byte	0x4
 4394 035e F3       		.byte	0xf3
 4395 035f 01       		.uleb128 0x1
 4396 0360 51       		.byte	0x51
 4397 0361 9F       		.byte	0x9f
 4398 0362 00000000 		.4byte	0
 4399 0366 00000000 		.4byte	0
 4400              	.LLST26:
 4401 036a 16000000 		.4byte	.LVL51
 4402 036e 48000000 		.4byte	.LVL53
 4403 0372 1100     		.2byte	0x11
 4404 0374 74       		.byte	0x74
 4405 0375 00       		.sleb128 0
 4406 0376 03       		.byte	0x3
 4407 0377 2C000000 		.4byte	vexQuadEncoders+44
 4408 037b 94       		.byte	0x94
 4409 037c 02       		.byte	0x2
 4410 037d 40       		.byte	0x40
 4411 037e 24       		.byte	0x24
 4412 037f 40       		.byte	0x40
 4413 0380 26       		.byte	0x26
 4414 0381 25       		.byte	0x25
 4415 0382 31       		.byte	0x31
 4416 0383 1A       		.byte	0x1a
 4417 0384 9F       		.byte	0x9f
 4418 0385 00000000 		.4byte	0
 4419 0389 00000000 		.4byte	0
 4420              	.LLST27:
 4421 038d 00000000 		.4byte	.LVL54
 4422 0391 18000000 		.4byte	.LVL58
ARM GAS  /tmp/ccTzRrrl.s 			page 79


 4423 0395 0100     		.2byte	0x1
 4424 0397 50       		.byte	0x50
 4425 0398 18000000 		.4byte	.LVL58
 4426 039c 4A000000 		.4byte	.LFE70
 4427 03a0 0400     		.2byte	0x4
 4428 03a2 F3       		.byte	0xf3
 4429 03a3 01       		.uleb128 0x1
 4430 03a4 50       		.byte	0x50
 4431 03a5 9F       		.byte	0x9f
 4432 03a6 00000000 		.4byte	0
 4433 03aa 00000000 		.4byte	0
 4434              	.LLST28:
 4435 03ae 00000000 		.4byte	.LVL54
 4436 03b2 12000000 		.4byte	.LVL56
 4437 03b6 0100     		.2byte	0x1
 4438 03b8 51       		.byte	0x51
 4439 03b9 12000000 		.4byte	.LVL56
 4440 03bd 4A000000 		.4byte	.LFE70
 4441 03c1 0400     		.2byte	0x4
 4442 03c3 F3       		.byte	0xf3
 4443 03c4 01       		.uleb128 0x1
 4444 03c5 51       		.byte	0x51
 4445 03c6 9F       		.byte	0x9f
 4446 03c7 00000000 		.4byte	0
 4447 03cb 00000000 		.4byte	0
 4448              	.LLST29:
 4449 03cf 16000000 		.4byte	.LVL57
 4450 03d3 48000000 		.4byte	.LVL59
 4451 03d7 1100     		.2byte	0x11
 4452 03d9 74       		.byte	0x74
 4453 03da 00       		.sleb128 0
 4454 03db 03       		.byte	0x3
 4455 03dc 48000000 		.4byte	vexQuadEncoders+72
 4456 03e0 94       		.byte	0x94
 4457 03e1 02       		.byte	0x2
 4458 03e2 40       		.byte	0x40
 4459 03e3 24       		.byte	0x24
 4460 03e4 40       		.byte	0x40
 4461 03e5 26       		.byte	0x26
 4462 03e6 25       		.byte	0x25
 4463 03e7 31       		.byte	0x31
 4464 03e8 1A       		.byte	0x1a
 4465 03e9 9F       		.byte	0x9f
 4466 03ea 00000000 		.4byte	0
 4467 03ee 00000000 		.4byte	0
 4468              	.LLST30:
 4469 03f2 00000000 		.4byte	.LVL60
 4470 03f6 0C000000 		.4byte	.LVL61
 4471 03fa 0200     		.2byte	0x2
 4472 03fc 30       		.byte	0x30
 4473 03fd 9F       		.byte	0x9f
 4474 03fe 0C000000 		.4byte	.LVL61
 4475 0402 12000000 		.4byte	.LVL62
 4476 0406 0100     		.2byte	0x1
 4477 0408 53       		.byte	0x53
 4478 0409 12000000 		.4byte	.LVL62
 4479 040d 22000000 		.4byte	.LVL63
ARM GAS  /tmp/ccTzRrrl.s 			page 80


 4480 0411 0300     		.2byte	0x3
 4481 0413 73       		.byte	0x73
 4482 0414 7F       		.sleb128 -1
 4483 0415 9F       		.byte	0x9f
 4484 0416 00000000 		.4byte	0
 4485 041a 00000000 		.4byte	0
 4486              	.LLST31:
 4487 041e 00000000 		.4byte	.LVL64
 4488 0422 34000000 		.4byte	.LVL66
 4489 0426 0100     		.2byte	0x1
 4490 0428 50       		.byte	0x50
 4491 0429 34000000 		.4byte	.LVL66
 4492 042d B8000000 		.4byte	.LFE76
 4493 0431 0400     		.2byte	0x4
 4494 0433 F3       		.byte	0xf3
 4495 0434 01       		.uleb128 0x1
 4496 0435 50       		.byte	0x50
 4497 0436 9F       		.byte	0x9f
 4498 0437 00000000 		.4byte	0
 4499 043b 00000000 		.4byte	0
 4500              	.LLST32:
 4501 043f 00000000 		.4byte	.LVL64
 4502 0443 36000000 		.4byte	.LVL67
 4503 0447 0100     		.2byte	0x1
 4504 0449 51       		.byte	0x51
 4505 044a 36000000 		.4byte	.LVL67
 4506 044e B8000000 		.4byte	.LFE76
 4507 0452 0400     		.2byte	0x4
 4508 0454 F3       		.byte	0xf3
 4509 0455 01       		.uleb128 0x1
 4510 0456 51       		.byte	0x51
 4511 0457 9F       		.byte	0x9f
 4512 0458 00000000 		.4byte	0
 4513 045c 00000000 		.4byte	0
 4514              	.LLST33:
 4515 0460 00000000 		.4byte	.LVL64
 4516 0464 1E000000 		.4byte	.LVL65
 4517 0468 0100     		.2byte	0x1
 4518 046a 52       		.byte	0x52
 4519 046b 1E000000 		.4byte	.LVL65
 4520 046f B8000000 		.4byte	.LFE76
 4521 0473 0400     		.2byte	0x4
 4522 0475 F3       		.byte	0xf3
 4523 0476 01       		.uleb128 0x1
 4524 0477 52       		.byte	0x52
 4525 0478 9F       		.byte	0x9f
 4526 0479 00000000 		.4byte	0
 4527 047d 00000000 		.4byte	0
 4528              	.LLST34:
 4529 0481 00000000 		.4byte	.LVL72
 4530 0485 0C000000 		.4byte	.LVL73
 4531 0489 0100     		.2byte	0x1
 4532 048b 50       		.byte	0x50
 4533 048c 0C000000 		.4byte	.LVL73
 4534 0490 40000000 		.4byte	.LFE77
 4535 0494 0400     		.2byte	0x4
 4536 0496 F3       		.byte	0xf3
ARM GAS  /tmp/ccTzRrrl.s 			page 81


 4537 0497 01       		.uleb128 0x1
 4538 0498 50       		.byte	0x50
 4539 0499 9F       		.byte	0x9f
 4540 049a 00000000 		.4byte	0
 4541 049e 00000000 		.4byte	0
 4542              	.LLST35:
 4543 04a2 00000000 		.4byte	.LVL76
 4544 04a6 0C000000 		.4byte	.LVL77
 4545 04aa 0100     		.2byte	0x1
 4546 04ac 50       		.byte	0x50
 4547 04ad 0C000000 		.4byte	.LVL77
 4548 04b1 40000000 		.4byte	.LFE78
 4549 04b5 0400     		.2byte	0x4
 4550 04b7 F3       		.byte	0xf3
 4551 04b8 01       		.uleb128 0x1
 4552 04b9 50       		.byte	0x50
 4553 04ba 9F       		.byte	0x9f
 4554 04bb 00000000 		.4byte	0
 4555 04bf 00000000 		.4byte	0
 4556              	.LLST36:
 4557 04c3 00000000 		.4byte	.LVL80
 4558 04c7 04000000 		.4byte	.LVL81
 4559 04cb 0200     		.2byte	0x2
 4560 04cd 30       		.byte	0x30
 4561 04ce 9F       		.byte	0x9f
 4562 04cf 04000000 		.4byte	.LVL81
 4563 04d3 08000000 		.4byte	.LVL82
 4564 04d7 0100     		.2byte	0x1
 4565 04d9 54       		.byte	0x54
 4566 04da 08000000 		.4byte	.LVL82
 4567 04de 0D000000 		.4byte	.LVL83-1
 4568 04e2 0100     		.2byte	0x1
 4569 04e4 50       		.byte	0x50
 4570 04e5 0E000000 		.4byte	.LVL83
 4571 04e9 14000000 		.4byte	.LFE79
 4572 04ed 0100     		.2byte	0x1
 4573 04ef 54       		.byte	0x54
 4574 04f0 00000000 		.4byte	0
 4575 04f4 00000000 		.4byte	0
 4576              	.LLST37:
 4577 04f8 00000000 		.4byte	.LVL84
 4578 04fc 0A000000 		.4byte	.LVL85
 4579 0500 0100     		.2byte	0x1
 4580 0502 50       		.byte	0x50
 4581 0503 0A000000 		.4byte	.LVL85
 4582 0507 0E000000 		.4byte	.LVL86
 4583 050b 0100     		.2byte	0x1
 4584 050d 53       		.byte	0x53
 4585 050e 0E000000 		.4byte	.LVL86
 4586 0512 1E000000 		.4byte	.LVL87
 4587 0516 0400     		.2byte	0x4
 4588 0518 F3       		.byte	0xf3
 4589 0519 01       		.uleb128 0x1
 4590 051a 50       		.byte	0x50
 4591 051b 9F       		.byte	0x9f
 4592 051c 1E000000 		.4byte	.LVL87
 4593 0520 20000000 		.4byte	.LVL88
ARM GAS  /tmp/ccTzRrrl.s 			page 82


 4594 0524 0100     		.2byte	0x1
 4595 0526 50       		.byte	0x50
 4596 0527 20000000 		.4byte	.LVL88
 4597 052b 22000000 		.4byte	.LFE80
 4598 052f 0100     		.2byte	0x1
 4599 0531 53       		.byte	0x53
 4600 0532 00000000 		.4byte	0
 4601 0536 00000000 		.4byte	0
 4602              	.LLST38:
 4603 053a 00000000 		.4byte	.LVL89
 4604 053e 0A000000 		.4byte	.LVL90
 4605 0542 0100     		.2byte	0x1
 4606 0544 50       		.byte	0x50
 4607 0545 0A000000 		.4byte	.LVL90
 4608 0549 0E000000 		.4byte	.LVL91
 4609 054d 0100     		.2byte	0x1
 4610 054f 53       		.byte	0x53
 4611 0550 0E000000 		.4byte	.LVL91
 4612 0554 1E000000 		.4byte	.LFE81
 4613 0558 0400     		.2byte	0x4
 4614 055a F3       		.byte	0xf3
 4615 055b 01       		.uleb128 0x1
 4616 055c 50       		.byte	0x50
 4617 055d 9F       		.byte	0x9f
 4618 055e 00000000 		.4byte	0
 4619 0562 00000000 		.4byte	0
 4620              	.LLST39:
 4621 0566 00000000 		.4byte	.LVL89
 4622 056a 1A000000 		.4byte	.LVL92
 4623 056e 0100     		.2byte	0x1
 4624 0570 51       		.byte	0x51
 4625 0571 1A000000 		.4byte	.LVL92
 4626 0575 1E000000 		.4byte	.LFE81
 4627 0579 0400     		.2byte	0x4
 4628 057b F3       		.byte	0xf3
 4629 057c 01       		.uleb128 0x1
 4630 057d 51       		.byte	0x51
 4631 057e 9F       		.byte	0x9f
 4632 057f 00000000 		.4byte	0
 4633 0583 00000000 		.4byte	0
 4634              	.LLST40:
 4635 0587 00000000 		.4byte	.LVL93
 4636 058b 0C000000 		.4byte	.LVL94
 4637 058f 0100     		.2byte	0x1
 4638 0591 50       		.byte	0x50
 4639 0592 0C000000 		.4byte	.LVL94
 4640 0596 24000000 		.4byte	.LFE82
 4641 059a 0400     		.2byte	0x4
 4642 059c F3       		.byte	0xf3
 4643 059d 01       		.uleb128 0x1
 4644 059e 50       		.byte	0x50
 4645 059f 9F       		.byte	0x9f
 4646 05a0 00000000 		.4byte	0
 4647 05a4 00000000 		.4byte	0
 4648              	.LLST41:
 4649 05a8 00000000 		.4byte	.LVL95
 4650 05ac 12000000 		.4byte	.LVL96
ARM GAS  /tmp/ccTzRrrl.s 			page 83


 4651 05b0 0100     		.2byte	0x1
 4652 05b2 50       		.byte	0x50
 4653 05b3 12000000 		.4byte	.LVL96
 4654 05b7 3E000000 		.4byte	.LFE83
 4655 05bb 0100     		.2byte	0x1
 4656 05bd 57       		.byte	0x57
 4657 05be 00000000 		.4byte	0
 4658 05c2 00000000 		.4byte	0
 4659              	.LLST42:
 4660 05c6 00000000 		.4byte	.LVL95
 4661 05ca 12000000 		.4byte	.LVL96
 4662 05ce 0100     		.2byte	0x1
 4663 05d0 51       		.byte	0x51
 4664 05d1 12000000 		.4byte	.LVL96
 4665 05d5 3E000000 		.4byte	.LFE83
 4666 05d9 0400     		.2byte	0x4
 4667 05db F3       		.byte	0xf3
 4668 05dc 01       		.uleb128 0x1
 4669 05dd 51       		.byte	0x51
 4670 05de 9F       		.byte	0x9f
 4671 05df 00000000 		.4byte	0
 4672 05e3 00000000 		.4byte	0
 4673              	.LLST43:
 4674 05e7 00000000 		.4byte	.LVL95
 4675 05eb 12000000 		.4byte	.LVL96
 4676 05ef 0100     		.2byte	0x1
 4677 05f1 52       		.byte	0x52
 4678 05f2 12000000 		.4byte	.LVL96
 4679 05f6 3E000000 		.4byte	.LFE83
 4680 05fa 0400     		.2byte	0x4
 4681 05fc F3       		.byte	0xf3
 4682 05fd 01       		.uleb128 0x1
 4683 05fe 52       		.byte	0x52
 4684 05ff 9F       		.byte	0x9f
 4685 0600 00000000 		.4byte	0
 4686 0604 00000000 		.4byte	0
 4687              	.LLST44:
 4688 0608 00000000 		.4byte	.LVL95
 4689 060c 12000000 		.4byte	.LVL96
 4690 0610 0200     		.2byte	0x2
 4691 0612 30       		.byte	0x30
 4692 0613 9F       		.byte	0x9f
 4693 0614 12000000 		.4byte	.LVL96
 4694 0618 2E000000 		.4byte	.LVL97
 4695 061c 0100     		.2byte	0x1
 4696 061e 54       		.byte	0x54
 4697 061f 2E000000 		.4byte	.LVL97
 4698 0623 31000000 		.4byte	.LVL98-1
 4699 0627 0100     		.2byte	0x1
 4700 0629 52       		.byte	0x52
 4701 062a 31000000 		.4byte	.LVL98-1
 4702 062e 32000000 		.4byte	.LVL98
 4703 0632 0300     		.2byte	0x3
 4704 0634 74       		.byte	0x74
 4705 0635 7F       		.sleb128 -1
 4706 0636 9F       		.byte	0x9f
 4707 0637 00000000 		.4byte	0
ARM GAS  /tmp/ccTzRrrl.s 			page 84


 4708 063b 00000000 		.4byte	0
 4709              		.section	.debug_aranges,"",%progbits
 4710 0000 AC000000 		.4byte	0xac
 4711 0004 0200     		.2byte	0x2
 4712 0006 00000000 		.4byte	.Ldebug_info0
 4713 000a 04       		.byte	0x4
 4714 000b 00       		.byte	0
 4715 000c 0000     		.2byte	0
 4716 000e 0000     		.2byte	0
 4717 0010 00000000 		.4byte	.LFB72
 4718 0014 4A000000 		.4byte	.LFE72-.LFB72
 4719 0018 00000000 		.4byte	.LFB73
 4720 001c 4C000000 		.4byte	.LFE73-.LFB73
 4721 0020 00000000 		.4byte	.LFB74
 4722 0024 4C000000 		.4byte	.LFE74-.LFB74
 4723 0028 00000000 		.4byte	.LFB65
 4724 002c 4A000000 		.4byte	.LFE65-.LFB65
 4725 0030 00000000 		.4byte	.LFB67
 4726 0034 4A000000 		.4byte	.LFE67-.LFB67
 4727 0038 00000000 		.4byte	.LFB69
 4728 003c 4A000000 		.4byte	.LFE69-.LFB69
 4729 0040 00000000 		.4byte	.LFB71
 4730 0044 4A000000 		.4byte	.LFE71-.LFB71
 4731 0048 00000000 		.4byte	.LFB66
 4732 004c 4A000000 		.4byte	.LFE66-.LFB66
 4733 0050 00000000 		.4byte	.LFB68
 4734 0054 4A000000 		.4byte	.LFE68-.LFB68
 4735 0058 00000000 		.4byte	.LFB70
 4736 005c 4A000000 		.4byte	.LFE70-.LFB70
 4737 0060 00000000 		.4byte	.LFB75
 4738 0064 30000000 		.4byte	.LFE75-.LFB75
 4739 0068 00000000 		.4byte	.LFB76
 4740 006c B8000000 		.4byte	.LFE76-.LFB76
 4741 0070 00000000 		.4byte	.LFB77
 4742 0074 40000000 		.4byte	.LFE77-.LFB77
 4743 0078 00000000 		.4byte	.LFB78
 4744 007c 40000000 		.4byte	.LFE78-.LFB78
 4745 0080 00000000 		.4byte	.LFB79
 4746 0084 14000000 		.4byte	.LFE79-.LFB79
 4747 0088 00000000 		.4byte	.LFB80
 4748 008c 22000000 		.4byte	.LFE80-.LFB80
 4749 0090 00000000 		.4byte	.LFB81
 4750 0094 1E000000 		.4byte	.LFE81-.LFB81
 4751 0098 00000000 		.4byte	.LFB82
 4752 009c 24000000 		.4byte	.LFE82-.LFB82
 4753 00a0 00000000 		.4byte	.LFB83
 4754 00a4 3E000000 		.4byte	.LFE83-.LFB83
 4755 00a8 00000000 		.4byte	0
 4756 00ac 00000000 		.4byte	0
 4757              		.section	.debug_ranges,"",%progbits
 4758              	.Ldebug_ranges0:
 4759 0000 00000000 		.4byte	.LFB72
 4760 0004 4A000000 		.4byte	.LFE72
 4761 0008 00000000 		.4byte	.LFB73
 4762 000c 4C000000 		.4byte	.LFE73
 4763 0010 00000000 		.4byte	.LFB74
 4764 0014 4C000000 		.4byte	.LFE74
ARM GAS  /tmp/ccTzRrrl.s 			page 85


 4765 0018 00000000 		.4byte	.LFB65
 4766 001c 4A000000 		.4byte	.LFE65
 4767 0020 00000000 		.4byte	.LFB67
 4768 0024 4A000000 		.4byte	.LFE67
 4769 0028 00000000 		.4byte	.LFB69
 4770 002c 4A000000 		.4byte	.LFE69
 4771 0030 00000000 		.4byte	.LFB71
 4772 0034 4A000000 		.4byte	.LFE71
 4773 0038 00000000 		.4byte	.LFB66
 4774 003c 4A000000 		.4byte	.LFE66
 4775 0040 00000000 		.4byte	.LFB68
 4776 0044 4A000000 		.4byte	.LFE68
 4777 0048 00000000 		.4byte	.LFB70
 4778 004c 4A000000 		.4byte	.LFE70
 4779 0050 00000000 		.4byte	.LFB75
 4780 0054 30000000 		.4byte	.LFE75
 4781 0058 00000000 		.4byte	.LFB76
 4782 005c B8000000 		.4byte	.LFE76
 4783 0060 00000000 		.4byte	.LFB77
 4784 0064 40000000 		.4byte	.LFE77
 4785 0068 00000000 		.4byte	.LFB78
 4786 006c 40000000 		.4byte	.LFE78
 4787 0070 00000000 		.4byte	.LFB79
 4788 0074 14000000 		.4byte	.LFE79
 4789 0078 00000000 		.4byte	.LFB80
 4790 007c 22000000 		.4byte	.LFE80
 4791 0080 00000000 		.4byte	.LFB81
 4792 0084 1E000000 		.4byte	.LFE81
 4793 0088 00000000 		.4byte	.LFB82
 4794 008c 24000000 		.4byte	.LFE82
 4795 0090 00000000 		.4byte	.LFB83
 4796 0094 3E000000 		.4byte	.LFE83
 4797 0098 00000000 		.4byte	0
 4798 009c 00000000 		.4byte	0
 4799              		.section	.debug_line,"",%progbits
 4800              	.Ldebug_line0:
 4801 0000 14050000 		.section	.debug_str,"MS",%progbits,1
 4801      0200B702 
 4801      00000201 
 4801      FB0E0D00 
 4801      01010101 
 4802              	.LASF126:
 4803 0000 76657845 		.ascii	"vexExtSet\000"
 4803      78745365 
 4803      7400
 4804              	.LASF76:
 4805 000a 636F756E 		.ascii	"count\000"
 4805      7400
 4806              	.LASF73:
 4807 0010 6B566578 		.ascii	"kVexQuadEncoder_Num\000"
 4807      51756164 
 4807      456E636F 
 4807      6465725F 
 4807      4E756D00 
 4808              	.LASF78:
 4809 0024 70615F70 		.ascii	"pa_port\000"
 4809      6F727400 
ARM GAS  /tmp/ccTzRrrl.s 			page 86


 4810              	.LASF110:
 4811 002c 76657845 		.ascii	"vexEncoderStop\000"
 4811      6E636F64 
 4811      65725374 
 4811      6F7000
 4812              	.LASF2:
 4813 003b 73697A65 		.ascii	"size_t\000"
 4813      5F7400
 4814              	.LASF3:
 4815 0042 5F5F7569 		.ascii	"__uint8_t\000"
 4815      6E74385F 
 4815      7400
 4816              	.LASF39:
 4817 004c 65787063 		.ascii	"expchannel_t\000"
 4817      68616E6E 
 4817      656C5F74 
 4817      00
 4818              	.LASF121:
 4819 0059 5F767165 		.ascii	"_vqe_cb_b\000"
 4819      5F63625F 
 4819      6200
 4820              	.LASF98:
 4821 0063 5F767165 		.ascii	"_vqe_5_cb_a\000"
 4821      5F355F63 
 4821      625F6100 
 4822              	.LASF99:
 4823 006f 5F767165 		.ascii	"_vqe_5_cb_b\000"
 4823      5F355F63 
 4823      625F6200 
 4824              	.LASF62:
 4825 007b 6B566578 		.ascii	"kVexDigitalOutput\000"
 4825      44696769 
 4825      74616C4F 
 4825      75747075 
 4825      7400
 4826              	.LASF14:
 4827 008d 6C6F6E67 		.ascii	"long long unsigned int\000"
 4827      206C6F6E 
 4827      6720756E 
 4827      7369676E 
 4827      65642069 
 4828              	.LASF59:
 4829 00a4 6B566578 		.ascii	"kVexDigital_Num\000"
 4829      44696769 
 4829      74616C5F 
 4829      4E756D00 
 4830              	.LASF122:
 4831 00b4 49544D5F 		.ascii	"ITM_RxBuffer\000"
 4831      52784275 
 4831      66666572 
 4831      00
 4832              	.LASF119:
 4833 00c1 76657851 		.ascii	"vexQuadEncoders\000"
 4833      75616445 
 4833      6E636F64 
 4833      65727300 
 4834              	.LASF18:
ARM GAS  /tmp/ccTzRrrl.s 			page 87


 4835 00d1 696E7431 		.ascii	"int16_t\000"
 4835      365F7400 
 4836              	.LASF13:
 4837 00d9 6C6F6E67 		.ascii	"long long int\000"
 4837      206C6F6E 
 4837      6720696E 
 4837      7400
 4838              	.LASF93:
 4839 00e7 65787470 		.ascii	"extp\000"
 4839      00
 4840              	.LASF27:
 4841 00ec 42535252 		.ascii	"BSRR\000"
 4841      00
 4842              	.LASF81:
 4843 00f1 70625F70 		.ascii	"pb_pad\000"
 4843      616400
 4844              	.LASF37:
 4845 00f8 73746174 		.ascii	"state\000"
 4845      6500
 4846              	.LASF43:
 4847 00fe 6368616E 		.ascii	"channels\000"
 4847      6E656C73 
 4847      00
 4848              	.LASF10:
 4849 0107 6C6F6E67 		.ascii	"long int\000"
 4849      20696E74 
 4849      00
 4850              	.LASF19:
 4851 0110 75696E74 		.ascii	"uint16_t\000"
 4851      31365F74 
 4851      00
 4852              	.LASF109:
 4853 0119 76657845 		.ascii	"vexEncoderStart\000"
 4853      6E636F64 
 4853      65725374 
 4853      61727400 
 4854              	.LASF63:
 4855 0129 74566578 		.ascii	"tVexDigitalMode\000"
 4855      44696769 
 4855      74616C4D 
 4855      6F646500 
 4856              	.LASF55:
 4857 0139 6B566578 		.ascii	"kVexDigital_9\000"
 4857      44696769 
 4857      74616C5F 
 4857      3900
 4858              	.LASF42:
 4859 0147 45585443 		.ascii	"EXTChannelConfig\000"
 4859      68616E6E 
 4859      656C436F 
 4859      6E666967 
 4859      00
 4860              	.LASF66:
 4861 0158 696E7472 		.ascii	"intrCount\000"
 4861      436F756E 
 4861      7400
 4862              	.LASF129:
ARM GAS  /tmp/ccTzRrrl.s 			page 88


 4863 0162 7665785F 		.ascii	"vex_chprintf\000"
 4863      63687072 
 4863      696E7466 
 4863      00
 4864              	.LASF11:
 4865 016f 5F5F7569 		.ascii	"__uint32_t\000"
 4865      6E743332 
 4865      5F7400
 4866              	.LASF100:
 4867 017a 5F767165 		.ascii	"_vqe_1_cb_a\000"
 4867      5F315F63 
 4867      625F6100 
 4868              	.LASF104:
 4869 0186 5F767165 		.ascii	"_vqe_1_cb_b\000"
 4869      5F315F63 
 4869      625F6200 
 4870              	.LASF91:
 4871 0192 6B496D65 		.ascii	"kImeTotal\000"
 4871      546F7461 
 4871      6C00
 4872              	.LASF65:
 4873 019c 706F7274 		.ascii	"port\000"
 4873      00
 4874              	.LASF113:
 4875 01a1 76616C75 		.ascii	"value\000"
 4875      6500
 4876              	.LASF26:
 4877 01a7 42617365 		.ascii	"BaseSequentialStream\000"
 4877      53657175 
 4877      656E7469 
 4877      616C5374 
 4877      7265616D 
 4878              	.LASF41:
 4879 01bc 6D6F6465 		.ascii	"mode\000"
 4879      00
 4880              	.LASF0:
 4881 01c1 756E7369 		.ascii	"unsigned int\000"
 4881      676E6564 
 4881      20696E74 
 4881      00
 4882              	.LASF12:
 4883 01ce 6C6F6E67 		.ascii	"long unsigned int\000"
 4883      20756E73 
 4883      69676E65 
 4883      6420696E 
 4883      7400
 4884              	.LASF29:
 4885 01e0 4750494F 		.ascii	"GPIO_TypeDef\000"
 4885      5F547970 
 4885      65446566 
 4885      00
 4886              	.LASF28:
 4887 01ed 4C434B52 		.ascii	"LCKR\000"
 4887      00
 4888              	.LASF132:
 4889 01f2 2F6D6E74 		.ascii	"/mnt/c/Users/DQ Sullivan/Downloads/Convex/convex/co"
 4889      2F632F55 
ARM GAS  /tmp/ccTzRrrl.s 			page 89


 4889      73657273 
 4889      2F445120 
 4889      53756C6C 
 4890 0225 72746578 		.ascii	"rtex/projects/Vex2016 CyberBrains\000"
 4890      2F70726F 
 4890      6A656374 
 4890      732F5665 
 4890      78323031 
 4891              	.LASF130:
 4892 0247 474E5520 		.ascii	"GNU C 4.8.2 -mcpu=cortex-m3 -mno-thumb-interwork -m"
 4892      4320342E 
 4892      382E3220 
 4892      2D6D6370 
 4892      753D636F 
 4893 027a 7468756D 		.ascii	"thumb -ggdb -O2 -fomit-frame-pointer -falign-functi"
 4893      62202D67 
 4893      67646220 
 4893      2D4F3220 
 4893      2D666F6D 
 4894 02ad 6F6E733D 		.ascii	"ons=16 -ffunction-sections -fdata-sections -fno-com"
 4894      3136202D 
 4894      6666756E 
 4894      6374696F 
 4894      6E2D7365 
 4895 02e0 6D6F6E00 		.ascii	"mon\000"
 4896              	.LASF8:
 4897 02e4 73686F72 		.ascii	"short unsigned int\000"
 4897      7420756E 
 4897      7369676E 
 4897      65642069 
 4897      6E7400
 4898              	.LASF112:
 4899 02f7 76657845 		.ascii	"vexEncoderSet\000"
 4899      6E636F64 
 4899      65725365 
 4899      7400
 4900              	.LASF44:
 4901 0305 45585443 		.ascii	"EXTConfig\000"
 4901      6F6E6669 
 4901      6700
 4902              	.LASF23:
 4903 030f 6D73675F 		.ascii	"msg_t\000"
 4903      7400
 4904              	.LASF101:
 4905 0315 5F767165 		.ascii	"_vqe_2_cb_a\000"
 4905      5F325F63 
 4905      625F6100 
 4906              	.LASF67:
 4907 0321 696F4465 		.ascii	"ioDef\000"
 4907      6600
 4908              	.LASF47:
 4909 0327 6B566578 		.ascii	"kVexDigital_1\000"
 4909      44696769 
 4909      74616C5F 
 4909      3100
 4910              	.LASF48:
 4911 0335 6B566578 		.ascii	"kVexDigital_2\000"
ARM GAS  /tmp/ccTzRrrl.s 			page 90


 4911      44696769 
 4911      74616C5F 
 4911      3200
 4912              	.LASF49:
 4913 0343 6B566578 		.ascii	"kVexDigital_3\000"
 4913      44696769 
 4913      74616C5F 
 4913      3300
 4914              	.LASF50:
 4915 0351 6B566578 		.ascii	"kVexDigital_4\000"
 4915      44696769 
 4915      74616C5F 
 4915      3400
 4916              	.LASF51:
 4917 035f 6B566578 		.ascii	"kVexDigital_5\000"
 4917      44696769 
 4917      74616C5F 
 4917      3500
 4918              	.LASF52:
 4919 036d 6B566578 		.ascii	"kVexDigital_6\000"
 4919      44696769 
 4919      74616C5F 
 4919      3600
 4920              	.LASF53:
 4921 037b 6B566578 		.ascii	"kVexDigital_7\000"
 4921      44696769 
 4921      74616C5F 
 4921      3700
 4922              	.LASF54:
 4923 0389 6B566578 		.ascii	"kVexDigital_8\000"
 4923      44696769 
 4923      74616C5F 
 4923      3800
 4924              	.LASF80:
 4925 0397 70625F70 		.ascii	"pb_port\000"
 4925      6F727400 
 4926              	.LASF115:
 4927 039f 76657845 		.ascii	"vexEncoderGetId\000"
 4927      6E636F64 
 4927      65724765 
 4927      74496400 
 4928              	.LASF33:
 4929 03af 4558545F 		.ascii	"EXT_ACTIVE\000"
 4929      41435449 
 4929      564500
 4930              	.LASF82:
 4931 03ba 76657851 		.ascii	"vexQuadEncoder_t\000"
 4931      75616445 
 4931      6E636F64 
 4931      65725F74 
 4931      00
 4932              	.LASF24:
 4933 03cb 77726974 		.ascii	"write\000"
 4933      6500
 4934              	.LASF108:
 4935 03d1 76657845 		.ascii	"vexEncoderAdd\000"
 4935      6E636F64 
ARM GAS  /tmp/ccTzRrrl.s 			page 91


 4935      65724164 
 4935      6400
 4936              	.LASF20:
 4937 03df 696E7433 		.ascii	"int32_t\000"
 4937      325F7400 
 4938              	.LASF15:
 4939 03e7 73697A65 		.ascii	"sizetype\000"
 4939      74797065 
 4939      00
 4940              	.LASF70:
 4941 03f0 6B566578 		.ascii	"kVexQuadEncoder_3\000"
 4941      51756164 
 4941      456E636F 
 4941      6465725F 
 4941      3300
 4942              	.LASF34:
 4943 0402 65787473 		.ascii	"extstate_t\000"
 4943      74617465 
 4943      5F7400
 4944              	.LASF72:
 4945 040d 6B566578 		.ascii	"kVexQuadEncoder_5\000"
 4945      51756164 
 4945      456E636F 
 4945      6465725F 
 4945      3500
 4946              	.LASF102:
 4947 041f 5F767165 		.ascii	"_vqe_3_cb_a\000"
 4947      5F335F63 
 4947      625F6100 
 4948              	.LASF106:
 4949 042b 5F767165 		.ascii	"_vqe_3_cb_b\000"
 4949      5F335F63 
 4949      625F6200 
 4950              	.LASF79:
 4951 0437 70615F70 		.ascii	"pa_pad\000"
 4951      616400
 4952              	.LASF96:
 4953 043e 76657845 		.ascii	"vexEncoderIrqServiceA\000"
 4953      6E636F64 
 4953      65724972 
 4953      71536572 
 4953      76696365 
 4954              	.LASF95:
 4955 0454 76657845 		.ascii	"vexEncoderIrqServiceB\000"
 4955      6E636F64 
 4955      65724972 
 4955      71536572 
 4955      76696365 
 4956              	.LASF114:
 4957 046a 76657845 		.ascii	"vexEncoderGet\000"
 4957      6E636F64 
 4957      65724765 
 4957      7400
 4958              	.LASF31:
 4959 0478 4558545F 		.ascii	"EXT_UNINIT\000"
 4959      554E494E 
 4959      495400
ARM GAS  /tmp/ccTzRrrl.s 			page 92


 4960              	.LASF46:
 4961 0483 6B566578 		.ascii	"kVexDigital_None\000"
 4961      44696769 
 4961      74616C5F 
 4961      4E6F6E65 
 4961      00
 4962              	.LASF83:
 4963 0494 6B496D65 		.ascii	"kImeChannel_1\000"
 4963      4368616E 
 4963      6E656C5F 
 4963      3100
 4964              	.LASF88:
 4965 04a2 6B496D65 		.ascii	"kImeChannel_6\000"
 4965      4368616E 
 4965      6E656C5F 
 4965      3600
 4966              	.LASF22:
 4967 04b0 5F426F6F 		.ascii	"_Bool\000"
 4967      6C00
 4968              	.LASF116:
 4969 04b6 76657845 		.ascii	"vexEncoderDebug\000"
 4969      6E636F64 
 4969      65724465 
 4969      62756700 
 4970              	.LASF4:
 4971 04c6 756E7369 		.ascii	"unsigned char\000"
 4971      676E6564 
 4971      20636861 
 4971      7200
 4972              	.LASF124:
 4973 04d4 76657869 		.ascii	"vexioDefinition\000"
 4973      6F446566 
 4973      696E6974 
 4973      696F6E00 
 4974              	.LASF120:
 4975 04e4 5F767165 		.ascii	"_vqe_cb_a\000"
 4975      5F63625F 
 4975      6100
 4976              	.LASF92:
 4977 04ee 6B496D65 		.ascii	"kImeChannelNone\000"
 4977      4368616E 
 4977      6E656C4E 
 4977      6F6E6500 
 4978              	.LASF6:
 4979 04fe 73686F72 		.ascii	"short int\000"
 4979      7420696E 
 4979      7400
 4980              	.LASF36:
 4981 0508 42617365 		.ascii	"BaseSequentialStreamVMT\000"
 4981      53657175 
 4981      656E7469 
 4981      616C5374 
 4981      7265616D 
 4982              	.LASF94:
 4983 0520 6368616E 		.ascii	"channel\000"
 4983      6E656C00 
 4984              	.LASF64:
ARM GAS  /tmp/ccTzRrrl.s 			page 93


 4985 0528 5F696F44 		.ascii	"_ioDef\000"
 4985      656600
 4986              	.LASF40:
 4987 052f 65787463 		.ascii	"extcallback_t\000"
 4987      616C6C62 
 4987      61636B5F 
 4987      7400
 4988              	.LASF128:
 4989 053d 65787443 		.ascii	"extChannelDisable\000"
 4989      68616E6E 
 4989      656C4469 
 4989      7361626C 
 4989      6500
 4990              	.LASF68:
 4991 054f 6B566578 		.ascii	"kVexQuadEncoder_1\000"
 4991      51756164 
 4991      456E636F 
 4991      6465725F 
 4991      3100
 4992              	.LASF21:
 4993 0561 75696E74 		.ascii	"uint32_t\000"
 4993      33325F74 
 4993      00
 4994              	.LASF69:
 4995 056a 6B566578 		.ascii	"kVexQuadEncoder_2\000"
 4995      51756164 
 4995      456E636F 
 4995      6465725F 
 4995      3200
 4996              	.LASF71:
 4997 057c 6B566578 		.ascii	"kVexQuadEncoder_4\000"
 4997      51756164 
 4997      456E636F 
 4997      6465725F 
 4997      3400
 4998              	.LASF32:
 4999 058e 4558545F 		.ascii	"EXT_STOP\000"
 4999      53544F50 
 4999      00
 5000              	.LASF16:
 5001 0597 63686172 		.ascii	"char\000"
 5001      00
 5002              	.LASF84:
 5003 059c 6B496D65 		.ascii	"kImeChannel_2\000"
 5003      4368616E 
 5003      6E656C5F 
 5003      3200
 5004              	.LASF85:
 5005 05aa 6B496D65 		.ascii	"kImeChannel_3\000"
 5005      4368616E 
 5005      6E656C5F 
 5005      3300
 5006              	.LASF86:
 5007 05b8 6B496D65 		.ascii	"kImeChannel_4\000"
 5007      4368616E 
 5007      6E656C5F 
 5007      3400
ARM GAS  /tmp/ccTzRrrl.s 			page 94


 5008              	.LASF87:
 5009 05c6 6B496D65 		.ascii	"kImeChannel_5\000"
 5009      4368616E 
 5009      6E656C5F 
 5009      3500
 5010              	.LASF38:
 5011 05d4 636F6E66 		.ascii	"config\000"
 5011      696700
 5012              	.LASF89:
 5013 05db 6B496D65 		.ascii	"kImeChannel_7\000"
 5013      4368616E 
 5013      6E656C5F 
 5013      3700
 5014              	.LASF90:
 5015 05e9 6B496D65 		.ascii	"kImeChannel_8\000"
 5015      4368616E 
 5015      6E656C5F 
 5015      3800
 5016              	.LASF7:
 5017 05f7 5F5F7569 		.ascii	"__uint16_t\000"
 5017      6E743136 
 5017      5F7400
 5018              	.LASF56:
 5019 0602 6B566578 		.ascii	"kVexDigital_10\000"
 5019      44696769 
 5019      74616C5F 
 5019      313000
 5020              	.LASF57:
 5021 0611 6B566578 		.ascii	"kVexDigital_11\000"
 5021      44696769 
 5021      74616C5F 
 5021      313100
 5022              	.LASF58:
 5023 0620 6B566578 		.ascii	"kVexDigital_12\000"
 5023      44696769 
 5023      74616C5F 
 5023      313200
 5024              	.LASF9:
 5025 062f 5F5F696E 		.ascii	"__int32_t\000"
 5025      7433325F 
 5025      7400
 5026              	.LASF125:
 5027 0639 76657844 		.ascii	"vexDigitalModeSet\000"
 5027      69676974 
 5027      616C4D6F 
 5027      64655365 
 5027      7400
 5028              	.LASF77:
 5029 064b 6F666673 		.ascii	"offset\000"
 5029      657400
 5030              	.LASF30:
 5031 0652 696F706F 		.ascii	"ioportid_t\000"
 5031      72746964 
 5031      5F7400
 5032              	.LASF75:
 5033 065d 5F766578 		.ascii	"_vexQuadEncoder_t\000"
 5033      51756164 
ARM GAS  /tmp/ccTzRrrl.s 			page 95


 5033      456E636F 
 5033      6465725F 
 5033      7400
 5034              	.LASF45:
 5035 066f 76657853 		.ascii	"vexStream\000"
 5035      74726561 
 5035      6D00
 5036              	.LASF111:
 5037 0679 76657845 		.ascii	"vexEncoderStartAll\000"
 5037      6E636F64 
 5037      65725374 
 5037      61727441 
 5037      6C6C00
 5038              	.LASF74:
 5039 068c 74566578 		.ascii	"tVexQuadEncoderChannel\000"
 5039      51756164 
 5039      456E636F 
 5039      64657243 
 5039      68616E6E 
 5040              	.LASF127:
 5041 06a3 65787443 		.ascii	"extChannelEnable\000"
 5041      68616E6E 
 5041      656C456E 
 5041      61626C65 
 5041      00
 5042              	.LASF35:
 5043 06b4 45585444 		.ascii	"EXTDriver\000"
 5043      72697665 
 5043      7200
 5044              	.LASF17:
 5045 06be 75696E74 		.ascii	"uint8_t\000"
 5045      385F7400 
 5046              	.LASF131:
 5047 06c6 2E2E2F2E 		.ascii	"../../fw/vexencoder.c\000"
 5047      2E2F6677 
 5047      2F766578 
 5047      656E636F 
 5047      6465722E 
 5048              	.LASF97:
 5049 06dc 5F767165 		.ascii	"_vqe_4_cb_b\000"
 5049      5F345F63 
 5049      625F6200 
 5050              	.LASF5:
 5051 06e8 5F5F696E 		.ascii	"__int16_t\000"
 5051      7431365F 
 5051      7400
 5052              	.LASF25:
 5053 06f2 72656164 		.ascii	"read\000"
 5053      00
 5054              	.LASF117:
 5055 06f7 61726763 		.ascii	"argc\000"
 5055      00
 5056              	.LASF107:
 5057 06fc 76657845 		.ascii	"vexEncoderInit\000"
 5057      6E636F64 
 5057      6572496E 
 5057      697400
ARM GAS  /tmp/ccTzRrrl.s 			page 96


 5058              	.LASF103:
 5059 070b 5F767165 		.ascii	"_vqe_4_cb_a\000"
 5059      5F345F63 
 5059      625F6100 
 5060              	.LASF1:
 5061 0717 7369676E 		.ascii	"signed char\000"
 5061      65642063 
 5061      68617200 
 5062              	.LASF105:
 5063 0723 5F767165 		.ascii	"_vqe_2_cb_b\000"
 5063      5F325F63 
 5063      625F6200 
 5064              	.LASF118:
 5065 072f 61726776 		.ascii	"argv\000"
 5065      00
 5066              	.LASF123:
 5067 0734 45585444 		.ascii	"EXTD1\000"
 5067      3100
 5068              	.LASF61:
 5069 073a 6B566578 		.ascii	"kVexDigitalInput\000"
 5069      44696769 
 5069      74616C49 
 5069      6E707574 
 5069      00
 5070              	.LASF60:
 5071 074b 74566578 		.ascii	"tVexDigitalPin\000"
 5071      44696769 
 5071      74616C50 
 5071      696E00
 5072              		.ident	"GCC: (4.8.2-14ubuntu1+6) 4.8.2"
ARM GAS  /tmp/ccTzRrrl.s 			page 97


DEFINED SYMBOLS
                            *ABS*:0000000000000000 vexencoder.c
     /tmp/ccTzRrrl.s:19     .text._vqe_4_cb_b:0000000000000000 $t
     /tmp/ccTzRrrl.s:24     .text._vqe_4_cb_b:0000000000000000 _vqe_4_cb_b
     /tmp/ccTzRrrl.s:1277   .bss.vexQuadEncoders:0000000000000000 .LANCHOR0
     /tmp/ccTzRrrl.s:95     .text._vqe_5_cb_a:0000000000000000 $t
     /tmp/ccTzRrrl.s:100    .text._vqe_5_cb_a:0000000000000000 _vqe_5_cb_a
     /tmp/ccTzRrrl.s:170    .text._vqe_5_cb_b:0000000000000000 $t
     /tmp/ccTzRrrl.s:175    .text._vqe_5_cb_b:0000000000000000 _vqe_5_cb_b
     /tmp/ccTzRrrl.s:245    .text._vqe_1_cb_a:0000000000000000 $t
     /tmp/ccTzRrrl.s:250    .text._vqe_1_cb_a:0000000000000000 _vqe_1_cb_a
     /tmp/ccTzRrrl.s:320    .text._vqe_2_cb_a:0000000000000000 $t
     /tmp/ccTzRrrl.s:325    .text._vqe_2_cb_a:0000000000000000 _vqe_2_cb_a
     /tmp/ccTzRrrl.s:395    .text._vqe_3_cb_a:0000000000000000 $t
     /tmp/ccTzRrrl.s:400    .text._vqe_3_cb_a:0000000000000000 _vqe_3_cb_a
     /tmp/ccTzRrrl.s:470    .text._vqe_4_cb_a:0000000000000000 $t
     /tmp/ccTzRrrl.s:475    .text._vqe_4_cb_a:0000000000000000 _vqe_4_cb_a
     /tmp/ccTzRrrl.s:545    .text._vqe_1_cb_b:0000000000000000 $t
     /tmp/ccTzRrrl.s:550    .text._vqe_1_cb_b:0000000000000000 _vqe_1_cb_b
     /tmp/ccTzRrrl.s:620    .text._vqe_2_cb_b:0000000000000000 $t
     /tmp/ccTzRrrl.s:625    .text._vqe_2_cb_b:0000000000000000 _vqe_2_cb_b
     /tmp/ccTzRrrl.s:695    .text._vqe_3_cb_b:0000000000000000 $t
     /tmp/ccTzRrrl.s:700    .text._vqe_3_cb_b:0000000000000000 _vqe_3_cb_b
     /tmp/ccTzRrrl.s:770    .text.vexEncoderInit:0000000000000000 $t
     /tmp/ccTzRrrl.s:776    .text.vexEncoderInit:0000000000000000 vexEncoderInit
     /tmp/ccTzRrrl.s:816    .text.vexEncoderInit:000000000000002c $d
     /tmp/ccTzRrrl.s:821    .text.vexEncoderAdd:0000000000000000 $t
     /tmp/ccTzRrrl.s:827    .text.vexEncoderAdd:0000000000000000 vexEncoderAdd
     /tmp/ccTzRrrl.s:1251   .rodata._vqe_cb_a:0000000000000000 .LANCHOR1
     /tmp/ccTzRrrl.s:1262   .rodata._vqe_cb_b:0000000000000000 .LANCHOR2
     /tmp/ccTzRrrl.s:944    .text.vexEncoderStart:0000000000000000 $t
     /tmp/ccTzRrrl.s:950    .text.vexEncoderStart:0000000000000000 vexEncoderStart
     /tmp/ccTzRrrl.s:993    .text.vexEncoderStop:0000000000000000 $t
     /tmp/ccTzRrrl.s:999    .text.vexEncoderStop:0000000000000000 vexEncoderStop
     /tmp/ccTzRrrl.s:1042   .text.vexEncoderStartAll:0000000000000000 $t
     /tmp/ccTzRrrl.s:1048   .text.vexEncoderStartAll:0000000000000000 vexEncoderStartAll
     /tmp/ccTzRrrl.s:1081   .text.vexEncoderGet:0000000000000000 $t
     /tmp/ccTzRrrl.s:1087   .text.vexEncoderGet:0000000000000000 vexEncoderGet
     /tmp/ccTzRrrl.s:1122   .text.vexEncoderSet:0000000000000000 $t
     /tmp/ccTzRrrl.s:1128   .text.vexEncoderSet:0000000000000000 vexEncoderSet
     /tmp/ccTzRrrl.s:1158   .text.vexEncoderGetId:0000000000000000 $t
     /tmp/ccTzRrrl.s:1164   .text.vexEncoderGetId:0000000000000000 vexEncoderGetId
     /tmp/ccTzRrrl.s:1194   .text.vexEncoderDebug:0000000000000000 $t
     /tmp/ccTzRrrl.s:1200   .text.vexEncoderDebug:0000000000000000 vexEncoderDebug
     /tmp/ccTzRrrl.s:1273   .rodata.str1.4:0000000000000000 .LC0
     /tmp/ccTzRrrl.s:1250   .rodata._vqe_cb_a:0000000000000000 $d
     /tmp/ccTzRrrl.s:1254   .rodata._vqe_cb_a:0000000000000000 _vqe_cb_a
     /tmp/ccTzRrrl.s:1261   .rodata._vqe_cb_b:0000000000000000 $d
     /tmp/ccTzRrrl.s:1265   .rodata._vqe_cb_b:0000000000000000 _vqe_cb_b
     /tmp/ccTzRrrl.s:1272   .rodata.str1.4:0000000000000000 $d
     /tmp/ccTzRrrl.s:1276   .bss.vexQuadEncoders:0000000000000000 $d
     /tmp/ccTzRrrl.s:1280   .bss.vexQuadEncoders:0000000000000000 vexQuadEncoders
                     .debug_frame:0000000000000010 $d

UNDEFINED SYMBOLS
vexDigitalModeSet
vexioDefinition
ARM GAS  /tmp/ccTzRrrl.s 			page 98


vexExtSet
EXTD1
extChannelEnable
extChannelDisable
vex_chprintf
