ARM GAS  /tmp/cctaaBF1.s 			page 1


   1              		.syntax unified
   2              		.cpu cortex-m3
   3              		.fpu softvfp
   4              		.eabi_attribute 20, 1
   5              		.eabi_attribute 21, 1
   6              		.eabi_attribute 23, 3
   7              		.eabi_attribute 24, 1
   8              		.eabi_attribute 25, 1
   9              		.eabi_attribute 26, 1
  10              		.eabi_attribute 30, 2
  11              		.eabi_attribute 34, 1
  12              		.eabi_attribute 18, 4
  13              		.thumb
  14              		.file	"vexgyro.c"
  15              		.text
  16              	.Ltext0:
  17              		.cfi_sections	.debug_frame
  18              		.section	.text.vexGyroTask,"ax",%progbits
  19              		.align	2
  20              		.p2align 4,,15
  21              		.thumb
  22              		.thumb_func
  23              		.type	vexGyroTask, %function
  24              	vexGyroTask:
  25              	.LFB63:
  26              		.file 1 "../../opt/vexgyro.c"
  27              		.loc 1 78 0
  28              		.cfi_startproc
  29              		@ args = 0, pretend = 0, frame = 0
  30              		@ frame_needed = 0, uses_anonymous_args = 0
  31              	.LVL0:
  32 0000 2DE9F84F 		push	{r3, r4, r5, r6, r7, r8, r9, r10, fp, lr}
  33              		.cfi_def_cfa_offset 40
  34              		.cfi_offset 3, -40
  35              		.cfi_offset 4, -36
  36              		.cfi_offset 5, -32
  37              		.cfi_offset 6, -28
  38              		.cfi_offset 7, -24
  39              		.cfi_offset 8, -20
  40              		.cfi_offset 9, -16
  41              		.cfi_offset 10, -12
  42              		.cfi_offset 11, -8
  43              		.cfi_offset 14, -4
  44              		.loc 1 91 0
  45 0004 40F20008 		movw	r8, #:lower16:rlist
  46 0008 C0F20008 		movt	r8, #:upper16:rlist
  47 000c D8F81820 		ldr	r2, [r8, #24]
  48 0010 40F20003 		movw	r3, #:lower16:.LC0
  49 0014 C0F20003 		movt	r3, #:upper16:.LC0
  50 0018 40F20006 		movw	r6, #:lower16:.LANCHOR0
  51 001c 9361     		str	r3, [r2, #24]
  52              	.LVL1:
  53 001e C0F20006 		movt	r6, #:upper16:.LANCHOR0
  54 0022 4FF48064 		mov	r4, #1024
  55              		.loc 1 80 0
  56 0026 0025     		movs	r5, #0
  57              	.LVL2:
ARM GAS  /tmp/cctaaBF1.s 			page 2


  58              	.L3:
  59              		.loc 1 96 0 discriminator 2
  60 0028 96F90000 		ldrsb	r0, [r6]
  61 002c FFF7FEFF 		bl	vexAdcGet
  62              	.LVL3:
  63 0030 013C     		subs	r4, r4, #1
  64              	.LVL4:
  65 0032 0544     		add	r5, r5, r0
  66              	.LVL5:
  67 0034 A4B2     		uxth	r4, r4
  68              	.LVL6:
  69              		.loc 1 97 0 discriminator 2
  70 0036 0120     		movs	r0, #1
  71 0038 FFF7FEFF 		bl	chThdSleep
  72              	.LVL7:
  73              		.loc 1 94 0 discriminator 2
  74 003c 002C     		cmp	r4, #0
  75 003e F3D1     		bne	.L3
  76              		.loc 1 104 0
  77 0040 D8F81830 		ldr	r3, [r8, #24]
  78              		.loc 1 100 0
  79 0044 05F2FF3B 		addw	fp, r5, #1023
  80              		.loc 1 104 0
  81 0048 5B7F     		ldrb	r3, [r3, #29]	@ zero_extendqisi2
  82              		.loc 1 100 0
  83 004a 1BEA250B 		ands	fp, fp, r5, asr #32
  84 004e 38BF     		it	cc
  85 0050 AB46     		movcc	fp, r5
  86 0052 4FEAAB2B 		asr	fp, fp, #10
  87              	.LVL8:
  88              		.loc 1 104 0
  89 0056 5A07     		lsls	r2, r3, #29
  90              		.loc 1 101 0
  91 0058 A5EB8B25 		sub	r5, r5, fp, lsl #10
  92              	.LVL9:
  93              		.loc 1 104 0
  94 005c 2CD4     		bmi	.L8
  95 005e 40F20009 		movw	r9, #:lower16:.LANCHOR1
  96              		.loc 1 123 0
  97 0062 4EF27F0A 		movw	r10, #57471
  98 0066 1FFA8BFB 		uxth	fp, fp
  99              	.LVL10:
 100              		.loc 1 84 0
 101 006a 2746     		mov	r7, r4
 102 006c C0F20009 		movt	r9, #:upper16:.LANCHOR1
 103              		.loc 1 123 0
 104 0070 C7F6076A 		movt	r10, 32263
 105              	.LVL11:
 106              	.L7:
 107              		.loc 1 107 0
 108 0074 96F90000 		ldrsb	r0, [r6]
 109 0078 FFF7FEFF 		bl	vexAdcGet
 110              	.LVL12:
 111              		.loc 1 109 0
 112 007c CBEB0003 		rsb	r3, fp, r0
 113 0080 9BB2     		uxth	r3, r3
 114              	.LVL13:
ARM GAS  /tmp/cctaaBF1.s 			page 3


 115              		.loc 1 112 0
 116 0082 1A1D     		adds	r2, r3, #4
 117 0084 92B2     		uxth	r2, r2
 118 0086 082A     		cmp	r2, #8
 119              		.loc 1 126 0
 120 0088 4FF00100 		mov	r0, #1
 121              	.LVL14:
 122              		.loc 1 112 0
 123 008c 06D9     		bls	.L5
 124              		.loc 1 118 0
 125 008e 0444     		add	r4, r4, r0
 126              	.LVL15:
 127              		.loc 1 115 0
 128 0090 1BB2     		sxth	r3, r3
 129              	.LVL16:
 130              		.loc 1 118 0
 131 0092 C4F30902 		ubfx	r2, r4, #0, #10
 132              		.loc 1 115 0
 133 0096 1F44     		add	r7, r7, r3
 134              	.LVL17:
 135              		.loc 1 118 0
 136 0098 02B9     		cbnz	r2, .L5
 137              		.loc 1 119 0
 138 009a 7F1B     		subs	r7, r7, r5
 139              	.LVL18:
 140              	.L5:
 141              		.loc 1 123 0
 142 009c 8AFB0723 		smull	r2, r3, r10, r7
 143 00a0 FA17     		asrs	r2, r7, #31
 144 00a2 C2EBA313 		rsb	r3, r2, r3, asr #6
 145 00a6 C9F80030 		str	r3, [r9]
 146              		.loc 1 126 0
 147 00aa FFF7FEFF 		bl	chThdSleep
 148              	.LVL19:
 149              		.loc 1 104 0
 150 00ae D8F81830 		ldr	r3, [r8, #24]
 151 00b2 5B7F     		ldrb	r3, [r3, #29]	@ zero_extendqisi2
 152 00b4 5B07     		lsls	r3, r3, #29
 153 00b6 DDD5     		bpl	.L7
 154              	.LVL20:
 155              	.L8:
 156              		.loc 1 130 0
 157 00b8 0020     		movs	r0, #0
 158 00ba BDE8F88F 		pop	{r3, r4, r5, r6, r7, r8, r9, r10, fp, pc}
 159              		.cfi_endproc
 160              	.LFE63:
 161              		.size	vexGyroTask, .-vexGyroTask
 162 00be 00BF     		.section	.text.vexGyroGet,"ax",%progbits
 163              		.align	2
 164              		.p2align 4,,15
 165              		.global	vexGyroGet
 166              		.thumb
 167              		.thumb_func
 168              		.type	vexGyroGet, %function
 169              	vexGyroGet:
 170              	.LFB64:
 171              		.loc 1 139 0
ARM GAS  /tmp/cctaaBF1.s 			page 4


 172              		.cfi_startproc
 173              		@ args = 0, pretend = 0, frame = 0
 174              		@ frame_needed = 0, uses_anonymous_args = 0
 175              		@ link register save eliminated.
 176              		.loc 1 140 0
 177 0000 40F20003 		movw	r3, #:lower16:.LANCHOR1
 178 0004 C0F20003 		movt	r3, #:upper16:.LANCHOR1
 179              		.loc 1 141 0
 180 0008 1868     		ldr	r0, [r3]
 181 000a 7047     		bx	lr
 182              		.cfi_endproc
 183              	.LFE64:
 184              		.size	vexGyroGet, .-vexGyroGet
 185 000c AFF30080 		.section	.text.vexGyroInit,"ax",%progbits
 186              		.align	2
 187              		.p2align 4,,15
 188              		.global	vexGyroInit
 189              		.thumb
 190              		.thumb_func
 191              		.type	vexGyroInit, %function
 192              	vexGyroInit:
 193              	.LFB65:
 194              		.loc 1 149 0
 195              		.cfi_startproc
 196              		@ args = 0, pretend = 0, frame = 0
 197              		@ frame_needed = 0, uses_anonymous_args = 0
 198              	.LVL21:
 199 0000 30B5     		push	{r4, r5, lr}
 200              		.cfi_def_cfa_offset 12
 201              		.cfi_offset 4, -12
 202              		.cfi_offset 5, -8
 203              		.cfi_offset 14, -4
 204              		.loc 1 150 0
 205 0002 C3B2     		uxtb	r3, r0
 206 0004 072B     		cmp	r3, #7
 207              		.loc 1 149 0
 208 0006 83B0     		sub	sp, sp, #12
 209              		.cfi_def_cfa_offset 24
 210              		.loc 1 149 0
 211 0008 0446     		mov	r4, r0
 212              		.loc 1 150 0
 213 000a 18D8     		bhi	.L11
 214              		.loc 1 155 0
 215 000c 0022     		movs	r2, #0
 216              		.loc 1 153 0
 217 000e 40F20005 		movw	r5, #:lower16:.LANCHOR0
 218              		.loc 1 155 0
 219 0012 40F20000 		movw	r0, #:lower16:.LANCHOR2
 220              	.LVL22:
 221 0016 40F20003 		movw	r3, #:lower16:vexGyroTask
 222              	.LVL23:
 223 001a 0092     		str	r2, [sp]
 224 001c C0F20003 		movt	r3, #:upper16:vexGyroTask
 225              		.loc 1 153 0
 226 0020 C0F20005 		movt	r5, #:upper16:.LANCHOR0
 227              		.loc 1 155 0
 228 0024 C0F20000 		movt	r0, #:upper16:.LANCHOR2
ARM GAS  /tmp/cctaaBF1.s 			page 5


 229 0028 4FF42C71 		mov	r1, #688
 230 002c 4122     		movs	r2, #65
 231              		.loc 1 153 0
 232 002e 2C70     		strb	r4, [r5]
 233              		.loc 1 155 0
 234 0030 FFF7FEFF 		bl	chThdCreateStatic
 235              	.LVL24:
 236 0034 40F20003 		movw	r3, #:lower16:.LANCHOR3
 237 0038 C0F20003 		movt	r3, #:upper16:.LANCHOR3
 238 003c 1860     		str	r0, [r3]
 239              	.L11:
 240              		.loc 1 156 0
 241 003e 03B0     		add	sp, sp, #12
 242              		@ sp needed
 243 0040 30BD     		pop	{r4, r5, pc}
 244              		.cfi_endproc
 245              	.LFE65:
 246              		.size	vexGyroInit, .-vexGyroInit
 247 0042 00BFAFF3 		.section	.text.vexGyroReset,"ax",%progbits
 247      0080AFF3 
 247      0080AFF3 
 247      0080
 248              		.align	2
 249              		.p2align 4,,15
 250              		.global	vexGyroReset
 251              		.thumb
 252              		.thumb_func
 253              		.type	vexGyroReset, %function
 254              	vexGyroReset:
 255              	.LFB66:
 256              		.loc 1 164 0
 257              		.cfi_startproc
 258              		@ args = 0, pretend = 0, frame = 0
 259              		@ frame_needed = 0, uses_anonymous_args = 0
 260 0000 10B5     		push	{r4, lr}
 261              		.cfi_def_cfa_offset 8
 262              		.cfi_offset 4, -8
 263              		.cfi_offset 14, -4
 264              		.loc 1 165 0
 265 0002 40F20004 		movw	r4, #:lower16:.LANCHOR3
 266 0006 C0F20004 		movt	r4, #:upper16:.LANCHOR3
 267 000a 2068     		ldr	r0, [r4]
 268 000c 80B1     		cbz	r0, .L13
 269              		.loc 1 168 0
 270 000e FFF7FEFF 		bl	chThdTerminate
 271              	.LVL25:
 272              		.loc 1 170 0
 273 0012 2068     		ldr	r0, [r4]
 274 0014 FFF7FEFF 		bl	chThdWait
 275              	.LVL26:
 276              		.loc 1 174 0
 277 0018 40F20003 		movw	r3, #:lower16:.LANCHOR0
 278 001c C0F20003 		movt	r3, #:upper16:.LANCHOR0
 279 0020 93F90000 		ldrsb	r0, [r3]
 280              		.loc 1 173 0
 281 0024 0023     		movs	r3, #0
 282 0026 2360     		str	r3, [r4]
ARM GAS  /tmp/cctaaBF1.s 			page 6


 283              		.loc 1 176 0
 284 0028 BDE81040 		pop	{r4, lr}
 285              		.loc 1 174 0
 286 002c FFF7FEBF 		b	vexGyroInit
 287              	.LVL27:
 288              	.L13:
 289 0030 10BD     		pop	{r4, pc}
 290              		.cfi_endproc
 291              	.LFE66:
 292              		.size	vexGyroReset, .-vexGyroReset
 293              		.global	GyroJitterRange
 294 0032 00BFAFF3 		.section	.bss.gyroThread,"aw",%nobits
 294      0080AFF3 
 294      0080AFF3 
 294      0080
 295              		.align	2
 296              		.set	.LANCHOR3,. + 0
 297              		.type	gyroThread, %object
 298              		.size	gyroThread, 4
 299              	gyroThread:
 300 0000 00000000 		.space	4
 301              		.section	.rodata.GyroJitterRange,"a",%progbits
 302              		.align	2
 303              		.type	GyroJitterRange, %object
 304              		.size	GyroJitterRange, 4
 305              	GyroJitterRange:
 306 0000 04000000 		.word	4
 307              		.section	.rodata.str1.4,"aMS",%progbits,1
 308              		.align	2
 309              	.LC0:
 310 0000 6779726F 		.ascii	"gyro\000"
 310      00
 311 0005 000000   		.section	.bss.GyroValue,"aw",%nobits
 312              		.align	2
 313              		.set	.LANCHOR1,. + 0
 314              		.type	GyroValue, %object
 315              		.size	GyroValue, 4
 316              	GyroValue:
 317 0000 00000000 		.space	4
 318              		.section	.bss.waVexGyroTask,"aw",%nobits
 319              		.align	3
 320              		.set	.LANCHOR2,. + 0
 321              		.type	waVexGyroTask, %object
 322              		.size	waVexGyroTask, 688
 323              	waVexGyroTask:
 324 0000 00000000 		.space	688
 324      00000000 
 324      00000000 
 324      00000000 
 324      00000000 
 325              		.section	.bss.gyroAnalogPin,"aw",%nobits
 326              		.set	.LANCHOR0,. + 0
 327              		.type	gyroAnalogPin, %object
 328              		.size	gyroAnalogPin, 1
 329              	gyroAnalogPin:
 330 0000 00       		.space	1
 331              		.text
ARM GAS  /tmp/cctaaBF1.s 			page 7


 332              	.Letext0:
 333              		.file 2 "/usr/lib/gcc/arm-none-eabi/4.8.2/include/stddef.h"
 334              		.file 3 "/usr/include/newlib/machine/_default_types.h"
 335              		.file 4 "/usr/include/newlib/stdint.h"
 336              		.file 5 "../../../../ChibiOS_2.6.2/os/ports/GCC/ARMCMx/chtypes.h"
 337              		.file 6 "../../../../ChibiOS_2.6.2/os/kernel/include/chlists.h"
 338              		.file 7 "../../../../ChibiOS_2.6.2/os/kernel/include/chthreads.h"
 339              		.file 8 "../../../../ChibiOS_2.6.2/os/ports/GCC/ARMCMx/chcore_v7m.h"
 340              		.file 9 "../../../../ChibiOS_2.6.2/os/kernel/include/chschd.h"
 341              		.file 10 "../../../../ChibiOS_2.6.2/os/kernel/include/chmtx.h"
 342              		.file 11 "../../fw/vexanalog.h"
 343              		.file 12 "../../fw/vexdigital.h"
 344              		.file 13 "../../fw/vexime.h"
 345              		.file 14 "../../../../ChibiOS_2.6.2/os/ports/common/ARMCMx/CMSIS/include/core_cm3.h"