ARM GAS  /tmp/cc4PNelj.s 			page 1


   1              		.syntax unified
   2              		.cpu cortex-m3
   3              		.fpu softvfp
   4              		.eabi_attribute 20, 1
   5              		.eabi_attribute 21, 1
   6              		.eabi_attribute 23, 3
   7              		.eabi_attribute 24, 1
   8              		.eabi_attribute 25, 1
   9              		.eabi_attribute 26, 1
  10              		.eabi_attribute 30, 2
  11              		.eabi_attribute 34, 1
  12              		.eabi_attribute 18, 4
  13              		.thumb
  14              		.file	"vexime.c"
  15              		.text
  16              	.Ltext0:
  17              		.cfi_sections	.debug_frame
  18              		.section	.text.vexImeGetCount,"ax",%progbits
  19              		.align	2
  20              		.p2align 4,,15
  21              		.global	vexImeGetCount
  22              		.thumb
  23              		.thumb_func
  24              		.type	vexImeGetCount, %function
  25              	vexImeGetCount:
  26              	.LFB63:
  27              		.file 1 "../../fw/vexime.c"
  28              		.loc 1 85 0
  29              		.cfi_startproc
  30              		@ args = 0, pretend = 0, frame = 0
  31              		@ frame_needed = 0, uses_anonymous_args = 0
  32              		@ link register save eliminated.
  33              	.LVL0:
  34              		.loc 1 86 0
  35 0000 C3B2     		uxtb	r3, r0
  36 0002 072B     		cmp	r3, #7
  37 0004 0CD8     		bhi	.L3
  38              		.loc 1 89 0
  39 0006 40F20003 		movw	r3, #:lower16:.LANCHOR0
  40 000a C0F20003 		movt	r3, #:upper16:.LANCHOR0
  41 000e 6C22     		movs	r2, #108
  42 0010 02FB0033 		mla	r3, r2, r0, r3
  43 0014 D88B     		ldrh	r0, [r3, #30]
  44              	.LVL1:
  45 0016 20B1     		cbz	r0, .L2
  46              		.loc 1 90 0
  47 0018 586E     		ldr	r0, [r3, #100]
  48 001a 9B6E     		ldr	r3, [r3, #104]
  49 001c C01A     		subs	r0, r0, r3
  50 001e 7047     		bx	lr
  51              	.LVL2:
  52              	.L3:
  53              		.loc 1 87 0
  54 0020 0020     		movs	r0, #0
  55              	.LVL3:
  56              	.L2:
  57              		.loc 1 93 0
ARM GAS  /tmp/cc4PNelj.s 			page 2


  58 0022 7047     		bx	lr
  59              		.cfi_endproc
  60              	.LFE63:
  61              		.size	vexImeGetCount, .-vexImeGetCount
  62 0024 AFF30080 		.section	.text.vexImeSetCount,"ax",%progbits
  62      AFF30080 
  62      AFF30080 
  63              		.align	2
  64              		.p2align 4,,15
  65              		.global	vexImeSetCount
  66              		.thumb
  67              		.thumb_func
  68              		.type	vexImeSetCount, %function
  69              	vexImeSetCount:
  70              	.LFB64:
  71              		.loc 1 104 0
  72              		.cfi_startproc
  73              		@ args = 0, pretend = 0, frame = 0
  74              		@ frame_needed = 0, uses_anonymous_args = 0
  75              		@ link register save eliminated.
  76              	.LVL4:
  77              		.loc 1 105 0
  78 0000 C3B2     		uxtb	r3, r0
  79 0002 072B     		cmp	r3, #7
  80 0004 0BD8     		bhi	.L6
  81              		.loc 1 108 0
  82 0006 40F20003 		movw	r3, #:lower16:.LANCHOR0
  83 000a C0F20003 		movt	r3, #:upper16:.LANCHOR0
  84 000e 6C22     		movs	r2, #108
  85 0010 02FB0030 		mla	r0, r2, r0, r3
  86              	.LVL5:
  87 0014 C38B     		ldrh	r3, [r0, #30]
  88 0016 13B1     		cbz	r3, .L6
  89              		.loc 1 109 0
  90 0018 436E     		ldr	r3, [r0, #100]
  91 001a 591A     		subs	r1, r3, r1
  92              	.LVL6:
  93 001c 8166     		str	r1, [r0, #104]
  94              	.L6:
  95 001e 7047     		bx	lr
  96              		.cfi_endproc
  97              	.LFE64:
  98              		.size	vexImeSetCount, .-vexImeSetCount
  99              		.section	.text.vexImeGetId,"ax",%progbits
 100              		.align	2
 101              		.p2align 4,,15
 102              		.global	vexImeGetId
 103              		.thumb
 104              		.thumb_func
 105              		.type	vexImeGetId, %function
 106              	vexImeGetId:
 107              	.LFB65:
 108              		.loc 1 123 0
 109              		.cfi_startproc
 110              		@ args = 0, pretend = 0, frame = 0
 111              		@ frame_needed = 0, uses_anonymous_args = 0
 112              		@ link register save eliminated.
ARM GAS  /tmp/cc4PNelj.s 			page 3


 113              	.LVL7:
 114              		.loc 1 124 0
 115 0000 C3B2     		uxtb	r3, r0
 116 0002 072B     		cmp	r3, #7
 117              		.loc 1 128 0
 118 0004 9FBF     		itttt	ls
 119 0006 40F20003 		movwls	r3, #:lower16:.LANCHOR0
 120 000a C0F20003 		movtls	r3, #:upper16:.LANCHOR0
 121 000e 6C22     		movls	r2, #108
 122 0010 02FB0033 		mlals	r3, r2, r0, r3
 123 0014 94BF     		ite	ls
 124 0016 187F     		ldrbls	r0, [r3, #28]	@ zero_extendqisi2
 125              	.LVL8:
 126              		.loc 1 125 0
 127 0018 4FF6FF70 		movwhi	r0, #65535
 128              		.loc 1 129 0
 129 001c 00B2     		sxth	r0, r0
 130 001e 7047     		bx	lr
 131              		.cfi_endproc
 132              	.LFE65:
 133              		.size	vexImeGetId, .-vexImeGetId
 134              		.section	.text.vexImeGetPtr,"ax",%progbits
 135              		.align	2
 136              		.p2align 4,,15
 137              		.global	vexImeGetPtr
 138              		.thumb
 139              		.thumb_func
 140              		.type	vexImeGetPtr, %function
 141              	vexImeGetPtr:
 142              	.LFB66:
 143              		.loc 1 139 0
 144              		.cfi_startproc
 145              		@ args = 0, pretend = 0, frame = 0
 146              		@ frame_needed = 0, uses_anonymous_args = 0
 147              		@ link register save eliminated.
 148              	.LVL9:
 149              		.loc 1 140 0
 150 0000 0728     		cmp	r0, #7
 151              		.loc 1 144 0
 152 0002 9FBF     		itttt	ls
 153 0004 40F20003 		movwls	r3, #:lower16:.LANCHOR0
 154 0008 C0F20003 		movtls	r3, #:upper16:.LANCHOR0
 155 000c 6C22     		movls	r2, #108
 156 000e 02FB0030 		mlals	r0, r2, r0, r3
 157              	.LVL10:
 158 0012 94BF     		ite	ls
 159 0014 1C30     		addls	r0, r0, #28
 160              		.loc 1 141 0
 161 0016 0020     		movhi	r0, #0
 162              		.loc 1 145 0
 163 0018 7047     		bx	lr
 164              		.cfi_endproc
 165              	.LFE66:
 166              		.size	vexImeGetPtr, .-vexImeGetPtr
 167 001a 00BFAFF3 		.section	.text.vexImeGetChannelMax,"ax",%progbits
 167      0080
 168              		.align	2
ARM GAS  /tmp/cc4PNelj.s 			page 4


 169              		.p2align 4,,15
 170              		.global	vexImeGetChannelMax
 171              		.thumb
 172              		.thumb_func
 173              		.type	vexImeGetChannelMax, %function
 174              	vexImeGetChannelMax:
 175              	.LFB67:
 176              		.loc 1 154 0
 177              		.cfi_startproc
 178              		@ args = 0, pretend = 0, frame = 0
 179              		@ frame_needed = 0, uses_anonymous_args = 0
 180              		@ link register save eliminated.
 181              		.loc 1 155 0
 182 0000 40F20003 		movw	r3, #:lower16:.LANCHOR0
 183 0004 C0F20003 		movt	r3, #:upper16:.LANCHOR0
 184              		.loc 1 156 0
 185 0008 B3F90800 		ldrsh	r0, [r3, #8]
 186 000c 7047     		bx	lr
 187              		.cfi_endproc
 188              	.LFE67:
 189              		.size	vexImeGetChannelMax, .-vexImeGetChannelMax
 190 000e 00BF     		.section	.text.vexImeSetType,"ax",%progbits
 191              		.align	2
 192              		.p2align 4,,15
 193              		.global	vexImeSetType
 194              		.thumb
 195              		.thumb_func
 196              		.type	vexImeSetType, %function
 197              	vexImeSetType:
 198              	.LFB68:
 199              		.loc 1 169 0
 200              		.cfi_startproc
 201              		@ args = 0, pretend = 0, frame = 0
 202              		@ frame_needed = 0, uses_anonymous_args = 0
 203              		@ link register save eliminated.
 204              	.LVL11:
 205              		.loc 1 170 0
 206 0000 0728     		cmp	r0, #7
 207 0002 0FD8     		bhi	.L18
 208              		.loc 1 174 0
 209 0004 0139     		subs	r1, r1, #1
 210              	.LVL12:
 211 0006 0329     		cmp	r1, #3
 212 0008 03D8     		bhi	.L20
 213 000a DFE801F0 		tbb	[pc, r1]
 214              	.L22:
 215 000e 16       		.byte	(.L21-.L22)/2
 216 000f 20       		.byte	(.L23-.L22)/2
 217 0010 2A       		.byte	(.L24-.L22)/2
 218 0011 0C       		.byte	(.L25-.L22)/2
 219              		.align	1
 220              	.L20:
 221              		.loc 1 189 0
 222 0012 40F20003 		movw	r3, #:lower16:.LANCHOR0
 223 0016 C0F20003 		movt	r3, #:upper16:.LANCHOR0
 224 001a 6C22     		movs	r2, #108
 225 001c 02FB0030 		mla	r0, r2, r0, r3
ARM GAS  /tmp/cc4PNelj.s 			page 5


 226              	.LVL13:
 227 0020 1023     		movs	r3, #16
 228 0022 4377     		strb	r3, [r0, #29]
 229              	.L18:
 230 0024 7047     		bx	lr
 231              	.LVL14:
 232              	.L25:
 233              		.loc 1 186 0
 234 0026 40F20003 		movw	r3, #:lower16:.LANCHOR0
 235 002a C0F20003 		movt	r3, #:upper16:.LANCHOR0
 236 002e 6C22     		movs	r2, #108
 237 0030 02FB0030 		mla	r0, r2, r0, r3
 238              	.LVL15:
 239 0034 0323     		movs	r3, #3
 240 0036 4377     		strb	r3, [r0, #29]
 241              		.loc 1 187 0
 242 0038 7047     		bx	lr
 243              	.LVL16:
 244              	.L21:
 245              		.loc 1 177 0
 246 003a 40F20003 		movw	r3, #:lower16:.LANCHOR0
 247 003e 6C22     		movs	r2, #108
 248 0040 C0F20003 		movt	r3, #:upper16:.LANCHOR0
 249 0044 02FB0033 		mla	r3, r2, r0, r3
 250 0048 0022     		movs	r2, #0
 251 004a 5A77     		strb	r2, [r3, #29]
 252              		.loc 1 178 0
 253 004c 7047     		bx	lr
 254              	.L23:
 255              		.loc 1 180 0
 256 004e 40F20003 		movw	r3, #:lower16:.LANCHOR0
 257 0052 C0F20003 		movt	r3, #:upper16:.LANCHOR0
 258 0056 6C22     		movs	r2, #108
 259 0058 02FB0030 		mla	r0, r2, r0, r3
 260              	.LVL17:
 261 005c 0123     		movs	r3, #1
 262 005e 4377     		strb	r3, [r0, #29]
 263              		.loc 1 181 0
 264 0060 7047     		bx	lr
 265              	.LVL18:
 266              	.L24:
 267              		.loc 1 183 0
 268 0062 40F20003 		movw	r3, #:lower16:.LANCHOR0
 269 0066 C0F20003 		movt	r3, #:upper16:.LANCHOR0
 270 006a 6C22     		movs	r2, #108
 271 006c 02FB0030 		mla	r0, r2, r0, r3
 272              	.LVL19:
 273 0070 0223     		movs	r3, #2
 274 0072 4377     		strb	r3, [r0, #29]
 275              		.loc 1 184 0
 276 0074 7047     		bx	lr
 277              		.cfi_endproc
 278              	.LFE68:
 279              		.size	vexImeSetType, .-vexImeSetType
 280 0076 00BFAFF3 		.section	.text.vexImeSetMotor,"ax",%progbits
 280      0080AFF3 
 280      0080
ARM GAS  /tmp/cc4PNelj.s 			page 6


 281              		.align	2
 282              		.p2align 4,,15
 283              		.global	vexImeSetMotor
 284              		.thumb
 285              		.thumb_func
 286              		.type	vexImeSetMotor, %function
 287              	vexImeSetMotor:
 288              	.LFB69:
 289              		.loc 1 202 0
 290              		.cfi_startproc
 291              		@ args = 0, pretend = 0, frame = 0
 292              		@ frame_needed = 0, uses_anonymous_args = 0
 293              		@ link register save eliminated.
 294              	.LVL20:
 295              		.loc 1 203 0
 296 0000 0728     		cmp	r0, #7
 297 0002 0AD8     		bhi	.L26
 298              		.loc 1 205 0
 299 0004 0929     		cmp	r1, #9
 300              		.loc 1 209 0
 301 0006 DFBF     		itttt	le
 302 0008 40F20003 		movwle	r3, #:lower16:.LANCHOR0
 303 000c C0F20003 		movtle	r3, #:upper16:.LANCHOR0
 304 0010 6C22     		movle	r2, #108
 305 0012 02FB0030 		mlale	r0, r2, r0, r3
 306              	.LVL21:
 307 0016 D8BF     		it	le
 308 0018 0184     		strhle	r1, [r0, #32]	@ movhi
 309              	.L26:
 310 001a 7047     		bx	lr
 311              		.cfi_endproc
 312              	.LFE69:
 313              		.size	vexImeSetMotor, .-vexImeSetMotor
 314 001c AFF30080 		.section	.text.vexImeMotorGetCount,"ax",%progbits
 315              		.align	2
 316              		.p2align 4,,15
 317              		.global	vexImeMotorGetCount
 318              		.thumb
 319              		.thumb_func
 320              		.type	vexImeMotorGetCount, %function
 321              	vexImeMotorGetCount:
 322              	.LFB70:
 323              		.loc 1 221 0
 324              		.cfi_startproc
 325              		@ args = 0, pretend = 0, frame = 0
 326              		@ frame_needed = 0, uses_anonymous_args = 0
 327              		@ link register save eliminated.
 328              	.LVL22:
 329              		.loc 1 224 0
 330 0000 0928     		cmp	r0, #9
 331              		.loc 1 221 0
 332 0002 10B4     		push	{r4}
 333              		.cfi_def_cfa_offset 4
 334              		.cfi_offset 4, -4
 335              		.loc 1 224 0
 336 0004 0CDC     		bgt	.L34
 337 0006 40F20004 		movw	r4, #:lower16:.LANCHOR0
ARM GAS  /tmp/cc4PNelj.s 			page 7


 338 000a C0F20004 		movt	r4, #:upper16:.LANCHOR0
 339 000e 2346     		mov	r3, r4
 340 0010 0022     		movs	r2, #0
 341              	.L31:
 342              	.LVL23:
 343              		.loc 1 230 0
 344 0012 198C     		ldrh	r1, [r3, #32]
 345 0014 6C33     		adds	r3, r3, #108
 346 0016 8142     		cmp	r1, r0
 347 0018 06D0     		beq	.L36
 348 001a 0132     		adds	r2, r2, #1
 349              	.LVL24:
 350              		.loc 1 228 0
 351 001c 082A     		cmp	r2, #8
 352 001e F8D1     		bne	.L31
 353              	.LVL25:
 354              	.L34:
 355              		.loc 1 225 0
 356 0020 0020     		movs	r0, #0
 357              	.LVL26:
 358              	.L29:
 359              		.loc 1 235 0
 360 0022 5DF8044B 		ldr	r4, [sp], #4
 361 0026 7047     		bx	lr
 362              	.LVL27:
 363              	.L36:
 364              	.LBB4:
 365              	.LBB5:
 366              		.loc 1 89 0
 367 0028 6C23     		movs	r3, #108
 368 002a 03FB0242 		mla	r2, r3, r2, r4
 369              	.LVL28:
 370 002e D08B     		ldrh	r0, [r2, #30]
 371              	.LVL29:
 372 0030 0028     		cmp	r0, #0
 373 0032 F6D0     		beq	.L29
 374              		.loc 1 90 0
 375 0034 506E     		ldr	r0, [r2, #100]
 376 0036 936E     		ldr	r3, [r2, #104]
 377 0038 C01A     		subs	r0, r0, r3
 378 003a F2E7     		b	.L29
 379              	.LBE5:
 380              	.LBE4:
 381              		.cfi_endproc
 382              	.LFE70:
 383              		.size	vexImeMotorGetCount, .-vexImeMotorGetCount
 384 003c AFF30080 		.section	.text.vexImeInit,"ax",%progbits
 385              		.align	2
 386              		.p2align 4,,15
 387              		.global	vexImeInit
 388              		.thumb
 389              		.thumb_func
 390              		.type	vexImeInit, %function
 391              	vexImeInit:
 392              	.LFB72:
 393              		.loc 1 313 0
 394              		.cfi_startproc
ARM GAS  /tmp/cc4PNelj.s 			page 8


 395              		@ args = 0, pretend = 0, frame = 0
 396              		@ frame_needed = 0, uses_anonymous_args = 0
 397              	.LVL30:
 398 0000 70B5     		push	{r4, r5, r6, lr}
 399              		.cfi_def_cfa_offset 16
 400              		.cfi_offset 4, -16
 401              		.cfi_offset 5, -12
 402              		.cfi_offset 6, -8
 403              		.cfi_offset 14, -4
 404 0002 0E46     		mov	r6, r1
 405              		.loc 1 318 0
 406 0004 40F20001 		movw	r1, #:lower16:.LANCHOR1
 407              	.LVL31:
 408              		.loc 1 313 0
 409 0008 82B0     		sub	sp, sp, #8
 410              		.cfi_def_cfa_offset 24
 411              		.loc 1 318 0
 412 000a C0F20001 		movt	r1, #:upper16:.LANCHOR1
 413              		.loc 1 321 0
 414 000e 40F20004 		movw	r4, #:lower16:.LANCHOR0
 415 0012 C0F20004 		movt	r4, #:upper16:.LANCHOR0
 416              		.loc 1 313 0
 417 0016 0546     		mov	r5, r0
 418              		.loc 1 318 0
 419 0018 FFF7FEFF 		bl	i2cStart
 420              	.LVL32:
 421              		.loc 1 326 0
 422 001c 0022     		movs	r2, #0
 423              		.loc 1 321 0
 424 001e 84E86000 		stmia	r4, {r5, r6}
 425 0022 2346     		mov	r3, r4
 426 0024 04F55875 		add	r5, r4, #864
 427              	.LVL33:
 428              		.loc 1 326 0
 429 0028 E281     		strh	r2, [r4, #14]	@ movhi
 430              		.loc 1 327 0
 431 002a 6282     		strh	r2, [r4, #18]	@ movhi
 432              		.loc 1 328 0
 433 002c 2282     		strh	r2, [r4, #16]	@ movhi
 434              		.loc 1 331 0
 435 002e 6283     		strh	r2, [r4, #26]	@ movhi
 436              	.LVL34:
 437              		.loc 1 339 0
 438 0030 4FF6FF70 		movw	r0, #65535
 439              	.LVL35:
 440              	.L39:
 441              		.loc 1 336 0 discriminator 2
 442 0034 1A77     		strb	r2, [r3, #28]
 443              		.loc 1 337 0 discriminator 2
 444 0036 C3F88020 		str	r2, [r3, #128]
 445              		.loc 1 338 0 discriminator 2
 446 003a C3F88420 		str	r2, [r3, #132]
 447              		.loc 1 339 0 discriminator 2
 448 003e 1884     		strh	r0, [r3, #32]	@ movhi
 449 0040 6C33     		adds	r3, r3, #108
 450              		.loc 1 334 0 discriminator 2
 451 0042 AB42     		cmp	r3, r5
ARM GAS  /tmp/cc4PNelj.s 			page 9


 452              		.loc 1 336 0 discriminator 2
 453 0044 4FF00001 		mov	r1, #0
 454              		.loc 1 334 0 discriminator 2
 455 0048 F4D1     		bne	.L39
 456              		.loc 1 343 0
 457 004a 40F20000 		movw	r0, #:lower16:.LANCHOR2
 458 004e 40F20003 		movw	r3, #:lower16:vexImeTask
 459 0052 0091     		str	r1, [sp]
 460 0054 C0F20003 		movt	r3, #:upper16:vexImeTask
 461 0058 4FF42071 		mov	r1, #640
 462 005c 4922     		movs	r2, #73
 463 005e C0F20000 		movt	r0, #:upper16:.LANCHOR2
 464 0062 FFF7FEFF 		bl	chThdCreateStatic
 465              	.LVL36:
 466              		.loc 1 344 0
 467 0066 02B0     		add	sp, sp, #8
 468              		@ sp needed
 469 0068 70BD     		pop	{r4, r5, r6, pc}
 470              		.cfi_endproc
 471              	.LFE72:
 472              		.size	vexImeInit, .-vexImeInit
 473 006a 00BFAFF3 		.section	.text.vexIMEDataInit,"ax",%progbits
 473      0080
 474              		.align	2
 475              		.p2align 4,,15
 476              		.global	vexIMEDataInit
 477              		.thumb
 478              		.thumb_func
 479              		.type	vexIMEDataInit, %function
 480              	vexIMEDataInit:
 481              	.LFB74:
 482              		.loc 1 405 0
 483              		.cfi_startproc
 484              		@ args = 0, pretend = 0, frame = 0
 485              		@ frame_needed = 0, uses_anonymous_args = 0
 486              	.LVL37:
 487 0000 70B5     		push	{r4, r5, r6, lr}
 488              		.cfi_def_cfa_offset 16
 489              		.cfi_offset 4, -16
 490              		.cfi_offset 5, -12
 491              		.cfi_offset 6, -8
 492              		.cfi_offset 14, -4
 493              		.loc 1 406 0
 494 0002 6023     		movs	r3, #96
 495              		.loc 1 407 0
 496 0004 0025     		movs	r5, #0
 497              		.loc 1 409 0
 498 0006 1026     		movs	r6, #16
 499              		.loc 1 405 0
 500 0008 0446     		mov	r4, r0
 501              		.loc 1 406 0
 502 000a 0370     		strb	r3, [r0]
 503              		.loc 1 407 0
 504 000c 4580     		strh	r5, [r0, #2]	@ movhi
 505              		.loc 1 409 0
 506 000e 2946     		mov	r1, r5
 507 0010 3246     		mov	r2, r6
ARM GAS  /tmp/cc4PNelj.s 			page 10


 508 0012 0630     		adds	r0, r0, #6
 509              	.LVL38:
 510 0014 FFF7FEFF 		bl	memset
 511              	.LVL39:
 512              		.loc 1 410 0
 513 0018 2946     		mov	r1, r5
 514 001a 3246     		mov	r2, r6
 515 001c 04F11600 		add	r0, r4, #22
 516 0020 FFF7FEFF 		bl	memset
 517              	.LVL40:
 518              		.loc 1 411 0
 519 0024 2946     		mov	r1, r5
 520 0026 3246     		mov	r2, r6
 521 0028 04F12600 		add	r0, r4, #38
 522 002c FFF7FEFF 		bl	memset
 523              	.LVL41:
 524              		.loc 1 412 0
 525 0030 3246     		mov	r2, r6
 526 0032 04F13600 		add	r0, r4, #54
 527 0036 2946     		mov	r1, r5
 528 0038 FFF7FEFF 		bl	memset
 529              	.LVL42:
 530              		.loc 1 416 0
 531 003c 4FF0FE43 		mov	r3, #2130706432
 532              		.loc 1 414 0
 533 0040 A564     		str	r5, [r4, #72]
 534              		.loc 1 415 0
 535 0042 E564     		str	r5, [r4, #76]
 536              		.loc 1 417 0
 537 0044 2565     		str	r5, [r4, #80]
 538              		.loc 1 416 0
 539 0046 E365     		str	r3, [r4, #92]
 540 0048 70BD     		pop	{r4, r5, r6, pc}
 541              		.cfi_endproc
 542              	.LFE74:
 543              		.size	vexIMEDataInit, .-vexIMEDataInit
 544 004a 00BFAFF3 		.section	.text.vexIMEResetAll,"ax",%progbits
 544      0080
 545              		.align	2
 546              		.p2align 4,,15
 547              		.global	vexIMEResetAll
 548              		.thumb
 549              		.thumb_func
 550              		.type	vexIMEResetAll, %function
 551              	vexIMEResetAll:
 552              	.LFB87:
 553              		.loc 1 871 0
 554              		.cfi_startproc
 555              		@ args = 0, pretend = 0, frame = 8
 556              		@ frame_needed = 0, uses_anonymous_args = 0
 557              	.LVL43:
 558 0000 30B5     		push	{r4, r5, lr}
 559              		.cfi_def_cfa_offset 12
 560              		.cfi_offset 4, -12
 561              		.cfi_offset 5, -8
 562              		.cfi_offset 14, -4
 563              		.loc 1 880 0
ARM GAS  /tmp/cc4PNelj.s 			page 11


 564 0002 40F20004 		movw	r4, #:lower16:.LANCHOR0
 565 0006 C0F20004 		movt	r4, #:upper16:.LANCHOR0
 566              		.loc 1 871 0
 567 000a 87B0     		sub	sp, sp, #28
 568              		.cfi_def_cfa_offset 40
 569              		.loc 1 880 0
 570 000c 2068     		ldr	r0, [r4]
 571              		.loc 1 876 0
 572 000e 4E22     		movs	r2, #78
 573              		.loc 1 877 0
 574 0010 CA23     		movs	r3, #202
 575              		.loc 1 878 0
 576 0012 0325     		movs	r5, #3
 577              		.loc 1 876 0
 578 0014 8DF81420 		strb	r2, [sp, #20]
 579              		.loc 1 877 0
 580 0018 8DF81530 		strb	r3, [sp, #21]
 581              		.loc 1 878 0
 582 001c 8DF81650 		strb	r5, [sp, #22]
 583              		.loc 1 880 0
 584 0020 FFF7FEFF 		bl	i2cAcquireBus
 585              	.LVL44:
 586              		.loc 1 881 0
 587 0024 0021     		movs	r1, #0
 588 0026 0422     		movs	r2, #4
 589 0028 2B46     		mov	r3, r5
 590 002a 0091     		str	r1, [sp]
 591 002c 0191     		str	r1, [sp, #4]
 592 002e 0292     		str	r2, [sp, #8]
 593 0030 2068     		ldr	r0, [r4]
 594 0032 05AA     		add	r2, sp, #20
 595 0034 FFF7FEFF 		bl	i2cMasterTransmitTimeout
 596              	.LVL45:
 597 0038 0546     		mov	r5, r0
 598              	.LVL46:
 599              		.loc 1 882 0
 600 003a 2068     		ldr	r0, [r4]
 601              	.LVL47:
 602 003c FFF7FEFF 		bl	i2cReleaseBus
 603              	.LVL48:
 604              		.loc 1 885 0
 605 0040 6420     		movs	r0, #100
 606 0042 FFF7FEFF 		bl	chThdSleep
 607              	.LVL49:
 608              		.loc 1 888 0
 609 0046 2846     		mov	r0, r5
 610 0048 07B0     		add	sp, sp, #28
 611              		@ sp needed
 612 004a 30BD     		pop	{r4, r5, pc}
 613              		.cfi_endproc
 614              	.LFE87:
 615              		.size	vexIMEResetAll, .-vexIMEResetAll
 616 004c AFF30080 		.section	.text.vexIMEHandleErrors,"ax",%progbits
 617              		.align	2
 618              		.p2align 4,,15
 619              		.global	vexIMEHandleErrors
 620              		.thumb
ARM GAS  /tmp/cc4PNelj.s 			page 12


 621              		.thumb_func
 622              		.type	vexIMEHandleErrors, %function
 623              	vexIMEHandleErrors:
 624              	.LFB88:
 625              		.loc 1 900 0
 626              		.cfi_startproc
 627              		@ args = 0, pretend = 0, frame = 0
 628              		@ frame_needed = 0, uses_anonymous_args = 0
 629              	.LVL50:
 630              		.loc 1 903 0
 631 0000 0130     		adds	r0, r0, #1
 632              	.LVL51:
 633              		.loc 1 900 0
 634 0002 38B5     		push	{r3, r4, r5, lr}
 635              		.cfi_def_cfa_offset 16
 636              		.cfi_offset 3, -16
 637              		.cfi_offset 4, -12
 638              		.cfi_offset 5, -8
 639              		.cfi_offset 14, -4
 640              		.loc 1 900 0
 641 0004 0C46     		mov	r4, r1
 642              		.loc 1 903 0
 643 0006 30D0     		beq	.L64
 644              	.LVL52:
 645              	.L44:
 646              		.loc 1 919 0
 647 0008 84B1     		cbz	r4, .L46
 648              		.loc 1 921 0
 649 000a 40F20003 		movw	r3, #:lower16:.LANCHOR0
 650 000e C0F20003 		movt	r3, #:upper16:.LANCHOR0
 651 0012 DA8A     		ldrh	r2, [r3, #22]
 652 0014 0132     		adds	r2, r2, #1
 653 0016 92B2     		uxth	r2, r2
 654              		.loc 1 923 0
 655 0018 052A     		cmp	r2, #5
 656              		.loc 1 921 0
 657 001a DA82     		strh	r2, [r3, #22]	@ movhi
 658              		.loc 1 926 0
 659 001c 04BF     		itt	eq
 660 001e 0122     		moveq	r2, #1
 661 0020 1A83     		strheq	r2, [r3, #24]	@ movhi
 662              		.loc 1 931 0
 663 0022 6007     		lsls	r0, r4, #29
 664              		.loc 1 932 0
 665 0024 42BF     		ittt	mi
 666 0026 DA89     		ldrhmi	r2, [r3, #14]
 667 0028 0132     		addmi	r2, r2, #1
 668 002a DA81     		strhmi	r2, [r3, #14]	@ movhi
 669              	.L46:
 670              		.loc 1 933 0
 671 002c A107     		lsls	r1, r4, #30
 672              		.loc 1 934 0
 673 002e 41BF     		itttt	mi
 674 0030 40F20003 		movwmi	r3, #:lower16:.LANCHOR0
 675 0034 C0F20003 		movtmi	r3, #:upper16:.LANCHOR0
 676 0038 5A8A     		ldrhmi	r2, [r3, #18]
 677 003a 0132     		addmi	r2, r2, #1
ARM GAS  /tmp/cc4PNelj.s 			page 13


 678 003c 48BF     		it	mi
 679 003e 5A82     		strhmi	r2, [r3, #18]	@ movhi
 680              		.loc 1 935 0
 681 0040 E207     		lsls	r2, r4, #31
 682              		.loc 1 936 0
 683 0042 41BF     		itttt	mi
 684 0044 40F20003 		movwmi	r3, #:lower16:.LANCHOR0
 685 0048 C0F20003 		movtmi	r3, #:upper16:.LANCHOR0
 686 004c 1A8A     		ldrhmi	r2, [r3, #16]
 687 004e 0132     		addmi	r2, r2, #1
 688 0050 48BF     		it	mi
 689 0052 1A82     		strhmi	r2, [r3, #16]	@ movhi
 690              		.loc 1 937 0
 691 0054 A306     		lsls	r3, r4, #26
 692              		.loc 1 938 0
 693 0056 41BF     		itttt	mi
 694 0058 40F20003 		movwmi	r3, #:lower16:.LANCHOR0
 695 005c C0F20003 		movtmi	r3, #:upper16:.LANCHOR0
 696 0060 9A8A     		ldrhmi	r2, [r3, #20]
 697 0062 0132     		addmi	r2, r2, #1
 698 0064 48BF     		it	mi
 699 0066 9A82     		strhmi	r2, [r3, #20]	@ movhi
 700 0068 38BD     		pop	{r3, r4, r5, pc}
 701              	.LVL53:
 702              	.L64:
 703              		.loc 1 906 0
 704 006a 40F20005 		movw	r5, #:lower16:.LANCHOR0
 705 006e C0F20005 		movt	r5, #:upper16:.LANCHOR0
 706 0072 AB89     		ldrh	r3, [r5, #12]
 707              		.loc 1 908 0
 708 0074 2868     		ldr	r0, [r5]
 709              		.loc 1 906 0
 710 0076 0133     		adds	r3, r3, #1
 711 0078 AB81     		strh	r3, [r5, #12]	@ movhi
 712              		.loc 1 908 0
 713 007a FFF7FEFF 		bl	i2cStop
 714              	.LVL54:
 715              		.loc 1 910 0
 716 007e 6420     		movs	r0, #100
 717 0080 FFF7FEFF 		bl	chThdSleep
 718              	.LVL55:
 719              		.loc 1 912 0
 720 0084 40F20001 		movw	r1, #:lower16:.LANCHOR1
 721 0088 2868     		ldr	r0, [r5]
 722 008a C0F20001 		movt	r1, #:upper16:.LANCHOR1
 723 008e FFF7FEFF 		bl	i2cStart
 724              	.LVL56:
 725              		.loc 1 914 0
 726 0092 0123     		movs	r3, #1
 727 0094 2B83     		strh	r3, [r5, #24]	@ movhi
 728 0096 B7E7     		b	.L44
 729              		.cfi_endproc
 730              	.LFE88:
 731              		.size	vexIMEHandleErrors, .-vexIMEHandleErrors
 732 0098 AFF30080 		.section	.text.vexIMEGetVersion,"ax",%progbits
 732      AFF30080 
 733              		.align	2
ARM GAS  /tmp/cc4PNelj.s 			page 14


 734              		.p2align 4,,15
 735              		.global	vexIMEGetVersion
 736              		.thumb
 737              		.thumb_func
 738              		.type	vexIMEGetVersion, %function
 739              	vexIMEGetVersion:
 740              	.LFB76:
 741              		.loc 1 529 0
 742              		.cfi_startproc
 743              		@ args = 0, pretend = 0, frame = 8
 744              		@ frame_needed = 0, uses_anonymous_args = 0
 745              	.LVL57:
 746 0000 2DE9F041 		push	{r4, r5, r6, r7, r8, lr}
 747              		.cfi_def_cfa_offset 24
 748              		.cfi_offset 4, -24
 749              		.cfi_offset 5, -20
 750              		.cfi_offset 6, -16
 751              		.cfi_offset 7, -12
 752              		.cfi_offset 8, -8
 753              		.cfi_offset 14, -4
 754              		.loc 1 533 0
 755 0004 40F20004 		movw	r4, #:lower16:.LANCHOR0
 756              		.loc 1 529 0
 757 0008 86B0     		sub	sp, sp, #24
 758              		.cfi_def_cfa_offset 48
 759              		.loc 1 533 0
 760 000a C0F20004 		movt	r4, #:upper16:.LANCHOR0
 761              		.loc 1 531 0
 762 000e 0023     		movs	r3, #0
 763 0010 06AD     		add	r5, sp, #24
 764              		.loc 1 529 0
 765 0012 0646     		mov	r6, r0
 766              		.loc 1 533 0
 767 0014 2068     		ldr	r0, [r4]
 768              	.LVL58:
 769              		.loc 1 531 0
 770 0016 05F8013D 		strb	r3, [r5, #-1]!
 771              		.loc 1 529 0
 772 001a 8846     		mov	r8, r1
 773              		.loc 1 534 0
 774 001c 0427     		movs	r7, #4
 775              		.loc 1 533 0
 776 001e FFF7FEFF 		bl	i2cAcquireBus
 777              	.LVL59:
 778              		.loc 1 534 0
 779 0022 0823     		movs	r3, #8
 780 0024 2A46     		mov	r2, r5
 781 0026 0193     		str	r3, [sp, #4]
 782 0028 2068     		ldr	r0, [r4]
 783 002a CDF80080 		str	r8, [sp]
 784 002e 7108     		lsrs	r1, r6, #1
 785 0030 0297     		str	r7, [sp, #8]
 786 0032 0123     		movs	r3, #1
 787 0034 FFF7FEFF 		bl	i2cMasterTransmitTimeout
 788              	.LVL60:
 789 0038 0546     		mov	r5, r0
 790              	.LVL61:
ARM GAS  /tmp/cc4PNelj.s 			page 15


 791              		.loc 1 535 0
 792 003a 2068     		ldr	r0, [r4]
 793              	.LVL62:
 794 003c FFF7FEFF 		bl	i2cReleaseBus
 795              	.LVL63:
 796              		.loc 1 537 0
 797 0040 65B1     		cbz	r5, .L66
 798              		.loc 1 538 0
 799 0042 2068     		ldr	r0, [r4]
 800 0044 FFF7FEFF 		bl	i2cGetErrors
 801              	.LVL64:
 802 0048 40F20003 		movw	r3, #:lower16:.LANCHOR3
 803 004c 0246     		mov	r2, r0
 804 004e C0F20003 		movt	r3, #:upper16:.LANCHOR3
 805              		.loc 1 539 0
 806 0052 0146     		mov	r1, r0
 807 0054 2846     		mov	r0, r5
 808              		.loc 1 538 0
 809 0056 1A60     		str	r2, [r3]
 810              		.loc 1 539 0
 811 0058 FFF7FEFF 		bl	vexIMEHandleErrors
 812              	.LVL65:
 813              	.L66:
 814              		.loc 1 543 0
 815 005c 2846     		mov	r0, r5
 816 005e 06B0     		add	sp, sp, #24
 817              		@ sp needed
 818 0060 BDE8F081 		pop	{r4, r5, r6, r7, r8, pc}
 819              		.cfi_endproc
 820              	.LFE76:
 821              		.size	vexIMEGetVersion, .-vexIMEGetVersion
 822 0064 AFF30080 		.section	.text.vexIMEGetVendor,"ax",%progbits
 822      AFF30080 
 822      AFF30080 
 823              		.align	2
 824              		.p2align 4,,15
 825              		.global	vexIMEGetVendor
 826              		.thumb
 827              		.thumb_func
 828              		.type	vexIMEGetVendor, %function
 829              	vexIMEGetVendor:
 830              	.LFB77:
 831              		.loc 1 558 0
 832              		.cfi_startproc
 833              		@ args = 0, pretend = 0, frame = 8
 834              		@ frame_needed = 0, uses_anonymous_args = 0
 835              	.LVL66:
 836 0000 2DE9F041 		push	{r4, r5, r6, r7, r8, lr}
 837              		.cfi_def_cfa_offset 24
 838              		.cfi_offset 4, -24
 839              		.cfi_offset 5, -20
 840              		.cfi_offset 6, -16
 841              		.cfi_offset 7, -12
 842              		.cfi_offset 8, -8
 843              		.cfi_offset 14, -4
 844              		.loc 1 562 0
 845 0004 40F20004 		movw	r4, #:lower16:.LANCHOR0
ARM GAS  /tmp/cc4PNelj.s 			page 16


 846              		.loc 1 558 0
 847 0008 86B0     		sub	sp, sp, #24
 848              		.cfi_def_cfa_offset 48
 849              		.loc 1 562 0
 850 000a C0F20004 		movt	r4, #:upper16:.LANCHOR0
 851              		.loc 1 560 0
 852 000e 06AD     		add	r5, sp, #24
 853              		.loc 1 558 0
 854 0010 0746     		mov	r7, r0
 855              		.loc 1 560 0
 856 0012 0826     		movs	r6, #8
 857              		.loc 1 562 0
 858 0014 2068     		ldr	r0, [r4]
 859              	.LVL67:
 860              		.loc 1 558 0
 861 0016 8846     		mov	r8, r1
 862              		.loc 1 560 0
 863 0018 05F8016D 		strb	r6, [r5, #-1]!
 864              		.loc 1 562 0
 865 001c FFF7FEFF 		bl	i2cAcquireBus
 866              	.LVL68:
 867              		.loc 1 563 0
 868 0020 0423     		movs	r3, #4
 869 0022 2A46     		mov	r2, r5
 870 0024 0293     		str	r3, [sp, #8]
 871 0026 2068     		ldr	r0, [r4]
 872 0028 CDF80080 		str	r8, [sp]
 873 002c 0196     		str	r6, [sp, #4]
 874 002e 7908     		lsrs	r1, r7, #1
 875 0030 0123     		movs	r3, #1
 876 0032 FFF7FEFF 		bl	i2cMasterTransmitTimeout
 877              	.LVL69:
 878 0036 0546     		mov	r5, r0
 879              	.LVL70:
 880              		.loc 1 564 0
 881 0038 2068     		ldr	r0, [r4]
 882              	.LVL71:
 883 003a FFF7FEFF 		bl	i2cReleaseBus
 884              	.LVL72:
 885              		.loc 1 566 0
 886 003e 65B1     		cbz	r5, .L71
 887              		.loc 1 567 0
 888 0040 2068     		ldr	r0, [r4]
 889 0042 FFF7FEFF 		bl	i2cGetErrors
 890              	.LVL73:
 891 0046 40F20003 		movw	r3, #:lower16:.LANCHOR3
 892 004a 0246     		mov	r2, r0
 893 004c C0F20003 		movt	r3, #:upper16:.LANCHOR3
 894              		.loc 1 568 0
 895 0050 0146     		mov	r1, r0
 896 0052 2846     		mov	r0, r5
 897              		.loc 1 567 0
 898 0054 1A60     		str	r2, [r3]
 899              		.loc 1 568 0
 900 0056 FFF7FEFF 		bl	vexIMEHandleErrors
 901              	.LVL74:
 902              	.L71:
ARM GAS  /tmp/cc4PNelj.s 			page 17


 903              		.loc 1 572 0
 904 005a 2846     		mov	r0, r5
 905 005c 06B0     		add	sp, sp, #24
 906              		@ sp needed
 907 005e BDE8F081 		pop	{r4, r5, r6, r7, r8, pc}
 908              		.cfi_endproc
 909              	.LFE77:
 910              		.size	vexIMEGetVendor, .-vexIMEGetVendor
 911 0062 00BFAFF3 		.section	.text.vexIMEGetDeviceId,"ax",%progbits
 911      0080AFF3 
 911      0080AFF3 
 911      0080
 912              		.align	2
 913              		.p2align 4,,15
 914              		.global	vexIMEGetDeviceId
 915              		.thumb
 916              		.thumb_func
 917              		.type	vexIMEGetDeviceId, %function
 918              	vexIMEGetDeviceId:
 919              	.LFB78:
 920              		.loc 1 587 0
 921              		.cfi_startproc
 922              		@ args = 0, pretend = 0, frame = 8
 923              		@ frame_needed = 0, uses_anonymous_args = 0
 924              	.LVL75:
 925 0000 2DE9F041 		push	{r4, r5, r6, r7, r8, lr}
 926              		.cfi_def_cfa_offset 24
 927              		.cfi_offset 4, -24
 928              		.cfi_offset 5, -20
 929              		.cfi_offset 6, -16
 930              		.cfi_offset 7, -12
 931              		.cfi_offset 8, -8
 932              		.cfi_offset 14, -4
 933              		.loc 1 591 0
 934 0004 40F20004 		movw	r4, #:lower16:.LANCHOR0
 935              		.loc 1 587 0
 936 0008 86B0     		sub	sp, sp, #24
 937              		.cfi_def_cfa_offset 48
 938              		.loc 1 591 0
 939 000a C0F20004 		movt	r4, #:upper16:.LANCHOR0
 940              		.loc 1 589 0
 941 000e 1023     		movs	r3, #16
 942 0010 06AD     		add	r5, sp, #24
 943              		.loc 1 587 0
 944 0012 0646     		mov	r6, r0
 945              		.loc 1 591 0
 946 0014 2068     		ldr	r0, [r4]
 947              	.LVL76:
 948              		.loc 1 589 0
 949 0016 05F8013D 		strb	r3, [r5, #-1]!
 950              		.loc 1 587 0
 951 001a 8846     		mov	r8, r1
 952              		.loc 1 592 0
 953 001c 0427     		movs	r7, #4
 954              		.loc 1 591 0
 955 001e FFF7FEFF 		bl	i2cAcquireBus
 956              	.LVL77:
ARM GAS  /tmp/cc4PNelj.s 			page 18


 957              		.loc 1 592 0
 958 0022 0823     		movs	r3, #8
 959 0024 2A46     		mov	r2, r5
 960 0026 0193     		str	r3, [sp, #4]
 961 0028 2068     		ldr	r0, [r4]
 962 002a CDF80080 		str	r8, [sp]
 963 002e 7108     		lsrs	r1, r6, #1
 964 0030 0297     		str	r7, [sp, #8]
 965 0032 0123     		movs	r3, #1
 966 0034 FFF7FEFF 		bl	i2cMasterTransmitTimeout
 967              	.LVL78:
 968 0038 0546     		mov	r5, r0
 969              	.LVL79:
 970              		.loc 1 593 0
 971 003a 2068     		ldr	r0, [r4]
 972              	.LVL80:
 973 003c FFF7FEFF 		bl	i2cReleaseBus
 974              	.LVL81:
 975              		.loc 1 595 0
 976 0040 65B1     		cbz	r5, .L76
 977              		.loc 1 596 0
 978 0042 2068     		ldr	r0, [r4]
 979 0044 FFF7FEFF 		bl	i2cGetErrors
 980              	.LVL82:
 981 0048 40F20003 		movw	r3, #:lower16:.LANCHOR3
 982 004c 0246     		mov	r2, r0
 983 004e C0F20003 		movt	r3, #:upper16:.LANCHOR3
 984              		.loc 1 597 0
 985 0052 0146     		mov	r1, r0
 986 0054 2846     		mov	r0, r5
 987              		.loc 1 596 0
 988 0056 1A60     		str	r2, [r3]
 989              		.loc 1 597 0
 990 0058 FFF7FEFF 		bl	vexIMEHandleErrors
 991              	.LVL83:
 992              	.L76:
 993              		.loc 1 601 0
 994 005c 2846     		mov	r0, r5
 995 005e 06B0     		add	sp, sp, #24
 996              		@ sp needed
 997 0060 BDE8F081 		pop	{r4, r5, r6, r7, r8, pc}
 998              		.cfi_endproc
 999              	.LFE78:
 1000              		.size	vexIMEGetDeviceId, .-vexIMEGetDeviceId
 1001 0064 AFF30080 		.section	.text.vexIMEGetStatus,"ax",%progbits
 1001      AFF30080 
 1001      AFF30080 
 1002              		.align	2
 1003              		.p2align 4,,15
 1004              		.global	vexIMEGetStatus
 1005              		.thumb
 1006              		.thumb_func
 1007              		.type	vexIMEGetStatus, %function
 1008              	vexIMEGetStatus:
 1009              	.LFB79:
 1010              		.loc 1 616 0
 1011              		.cfi_startproc
ARM GAS  /tmp/cc4PNelj.s 			page 19


 1012              		@ args = 0, pretend = 0, frame = 8
 1013              		@ frame_needed = 0, uses_anonymous_args = 0
 1014              	.LVL84:
 1015 0000 F0B5     		push	{r4, r5, r6, r7, lr}
 1016              		.cfi_def_cfa_offset 20
 1017              		.cfi_offset 4, -20
 1018              		.cfi_offset 5, -16
 1019              		.cfi_offset 6, -12
 1020              		.cfi_offset 7, -8
 1021              		.cfi_offset 14, -4
 1022              		.loc 1 620 0
 1023 0002 40F20004 		movw	r4, #:lower16:.LANCHOR0
 1024              		.loc 1 616 0
 1025 0006 87B0     		sub	sp, sp, #28
 1026              		.cfi_def_cfa_offset 48
 1027              		.loc 1 620 0
 1028 0008 C0F20004 		movt	r4, #:upper16:.LANCHOR0
 1029              		.loc 1 618 0
 1030 000c 2023     		movs	r3, #32
 1031 000e 06AD     		add	r5, sp, #24
 1032              		.loc 1 616 0
 1033 0010 0646     		mov	r6, r0
 1034              		.loc 1 620 0
 1035 0012 2068     		ldr	r0, [r4]
 1036              	.LVL85:
 1037              		.loc 1 618 0
 1038 0014 05F8013D 		strb	r3, [r5, #-1]!
 1039              		.loc 1 616 0
 1040 0018 0F46     		mov	r7, r1
 1041              		.loc 1 620 0
 1042 001a FFF7FEFF 		bl	i2cAcquireBus
 1043              	.LVL86:
 1044              		.loc 1 621 0
 1045 001e 0423     		movs	r3, #4
 1046 0020 2A46     		mov	r2, r5
 1047 0022 0193     		str	r3, [sp, #4]
 1048 0024 0293     		str	r3, [sp, #8]
 1049 0026 2068     		ldr	r0, [r4]
 1050 0028 0097     		str	r7, [sp]
 1051 002a 7108     		lsrs	r1, r6, #1
 1052 002c 0123     		movs	r3, #1
 1053 002e FFF7FEFF 		bl	i2cMasterTransmitTimeout
 1054              	.LVL87:
 1055 0032 0546     		mov	r5, r0
 1056              	.LVL88:
 1057              		.loc 1 622 0
 1058 0034 2068     		ldr	r0, [r4]
 1059              	.LVL89:
 1060 0036 FFF7FEFF 		bl	i2cReleaseBus
 1061              	.LVL90:
 1062              		.loc 1 624 0
 1063 003a 65B1     		cbz	r5, .L81
 1064              		.loc 1 625 0
 1065 003c 2068     		ldr	r0, [r4]
 1066 003e FFF7FEFF 		bl	i2cGetErrors
 1067              	.LVL91:
 1068 0042 40F20003 		movw	r3, #:lower16:.LANCHOR3
ARM GAS  /tmp/cc4PNelj.s 			page 20


 1069 0046 0246     		mov	r2, r0
 1070 0048 C0F20003 		movt	r3, #:upper16:.LANCHOR3
 1071              		.loc 1 626 0
 1072 004c 0146     		mov	r1, r0
 1073 004e 2846     		mov	r0, r5
 1074              		.loc 1 625 0
 1075 0050 1A60     		str	r2, [r3]
 1076              		.loc 1 626 0
 1077 0052 FFF7FEFF 		bl	vexIMEHandleErrors
 1078              	.LVL92:
 1079              	.L81:
 1080              		.loc 1 630 0
 1081 0056 2846     		mov	r0, r5
 1082 0058 07B0     		add	sp, sp, #28
 1083              		@ sp needed
 1084 005a F0BD     		pop	{r4, r5, r6, r7, pc}
 1085              		.cfi_endproc
 1086              	.LFE79:
 1087              		.size	vexIMEGetStatus, .-vexIMEGetStatus
 1088 005c AFF30080 		.section	.text.vexIMEGetData,"ax",%progbits
 1089              		.align	2
 1090              		.p2align 4,,15
 1091              		.global	vexIMEGetData
 1092              		.thumb
 1093              		.thumb_func
 1094              		.type	vexIMEGetData, %function
 1095              	vexIMEGetData:
 1096              	.LFB80:
 1097              		.loc 1 645 0
 1098              		.cfi_startproc
 1099              		@ args = 0, pretend = 0, frame = 8
 1100              		@ frame_needed = 0, uses_anonymous_args = 0
 1101              	.LVL93:
 1102 0000 2DE9F041 		push	{r4, r5, r6, r7, r8, lr}
 1103              		.cfi_def_cfa_offset 24
 1104              		.cfi_offset 4, -24
 1105              		.cfi_offset 5, -20
 1106              		.cfi_offset 6, -16
 1107              		.cfi_offset 7, -12
 1108              		.cfi_offset 8, -8
 1109              		.cfi_offset 14, -4
 1110              		.loc 1 649 0
 1111 0004 40F20004 		movw	r4, #:lower16:.LANCHOR0
 1112              		.loc 1 645 0
 1113 0008 86B0     		sub	sp, sp, #24
 1114              		.cfi_def_cfa_offset 48
 1115              		.loc 1 649 0
 1116 000a C0F20004 		movt	r4, #:upper16:.LANCHOR0
 1117              		.loc 1 647 0
 1118 000e 4023     		movs	r3, #64
 1119 0010 06AD     		add	r5, sp, #24
 1120              		.loc 1 645 0
 1121 0012 0646     		mov	r6, r0
 1122              		.loc 1 649 0
 1123 0014 2068     		ldr	r0, [r4]
 1124              	.LVL94:
 1125              		.loc 1 647 0
ARM GAS  /tmp/cc4PNelj.s 			page 21


 1126 0016 05F8013D 		strb	r3, [r5, #-1]!
 1127              		.loc 1 645 0
 1128 001a 8846     		mov	r8, r1
 1129              		.loc 1 650 0
 1130 001c 0427     		movs	r7, #4
 1131              		.loc 1 649 0
 1132 001e FFF7FEFF 		bl	i2cAcquireBus
 1133              	.LVL95:
 1134              		.loc 1 650 0
 1135 0022 0823     		movs	r3, #8
 1136 0024 2A46     		mov	r2, r5
 1137 0026 0193     		str	r3, [sp, #4]
 1138 0028 2068     		ldr	r0, [r4]
 1139 002a CDF80080 		str	r8, [sp]
 1140 002e 7108     		lsrs	r1, r6, #1
 1141 0030 0297     		str	r7, [sp, #8]
 1142 0032 0123     		movs	r3, #1
 1143 0034 FFF7FEFF 		bl	i2cMasterTransmitTimeout
 1144              	.LVL96:
 1145 0038 0546     		mov	r5, r0
 1146              	.LVL97:
 1147              		.loc 1 651 0
 1148 003a 2068     		ldr	r0, [r4]
 1149              	.LVL98:
 1150 003c FFF7FEFF 		bl	i2cReleaseBus
 1151              	.LVL99:
 1152              		.loc 1 653 0
 1153 0040 65B1     		cbz	r5, .L86
 1154              		.loc 1 654 0
 1155 0042 2068     		ldr	r0, [r4]
 1156 0044 FFF7FEFF 		bl	i2cGetErrors
 1157              	.LVL100:
 1158 0048 40F20003 		movw	r3, #:lower16:.LANCHOR3
 1159 004c 0246     		mov	r2, r0
 1160 004e C0F20003 		movt	r3, #:upper16:.LANCHOR3
 1161              		.loc 1 655 0
 1162 0052 0146     		mov	r1, r0
 1163 0054 2846     		mov	r0, r5
 1164              		.loc 1 654 0
 1165 0056 1A60     		str	r2, [r3]
 1166              		.loc 1 655 0
 1167 0058 FFF7FEFF 		bl	vexIMEHandleErrors
 1168              	.LVL101:
 1169              	.L86:
 1170              		.loc 1 659 0
 1171 005c 2846     		mov	r0, r5
 1172 005e 06B0     		add	sp, sp, #24
 1173              		@ sp needed
 1174 0060 BDE8F081 		pop	{r4, r5, r6, r7, r8, pc}
 1175              		.cfi_endproc
 1176              	.LFE80:
 1177              		.size	vexIMEGetData, .-vexIMEGetData
 1178 0064 AFF30080 		.section	.text.vexIMEUpdateCounts,"ax",%progbits
 1178      AFF30080 
 1178      AFF30080 
 1179              		.align	2
 1180              		.p2align 4,,15
ARM GAS  /tmp/cc4PNelj.s 			page 22


 1181              		.global	vexIMEUpdateCounts
 1182              		.thumb
 1183              		.thumb_func
 1184              		.type	vexIMEUpdateCounts, %function
 1185              	vexIMEUpdateCounts:
 1186              	.LFB73:
 1187              		.loc 1 359 0
 1188              		.cfi_startproc
 1189              		@ args = 0, pretend = 0, frame = 0
 1190              		@ frame_needed = 0, uses_anonymous_args = 0
 1191              	.LVL102:
 1192 0000 38B5     		push	{r3, r4, r5, lr}
 1193              		.cfi_def_cfa_offset 16
 1194              		.cfi_offset 3, -16
 1195              		.cfi_offset 4, -12
 1196              		.cfi_offset 5, -8
 1197              		.cfi_offset 14, -4
 1198              		.loc 1 362 0
 1199 0002 0446     		mov	r4, r0
 1200 0004 80B3     		cbz	r0, .L99
 1201              		.loc 1 366 0
 1202 0006 436E     		ldr	r3, [r0, #100]
 1203              		.loc 1 369 0
 1204 0008 0146     		mov	r1, r0
 1205              		.loc 1 366 0
 1206 000a 0133     		adds	r3, r3, #1
 1207              		.loc 1 369 0
 1208 000c 11F8360B 		ldrb	r0, [r1], #54	@ zero_extendqisi2
 1209              	.LVL103:
 1210              		.loc 1 366 0
 1211 0010 6366     		str	r3, [r4, #100]
 1212              		.loc 1 369 0
 1213 0012 FFF7FEFF 		bl	vexIMEGetData
 1214              	.LVL104:
 1215 0016 48BB     		cbnz	r0, .L92
 1216              		.loc 1 372 0
 1217 0018 94F83830 		ldrb	r3, [r4, #56]	@ zero_extendqisi2
 1218 001c 94F83620 		ldrb	r2, [r4, #54]	@ zero_extendqisi2
 1219 0020 94F83710 		ldrb	r1, [r4, #55]	@ zero_extendqisi2
 1220 0024 1B06     		lsls	r3, r3, #24
 1221 0026 43EA0223 		orr	r3, r3, r2, lsl #8
 1222 002a 0B43     		orrs	r3, r3, r1
 1223 002c 94F83950 		ldrb	r5, [r4, #57]	@ zero_extendqisi2
 1224              		.loc 1 373 0
 1225 0030 94F83A00 		ldrb	r0, [r4, #58]	@ zero_extendqisi2
 1226              	.LVL105:
 1227 0034 94F83B20 		ldrb	r2, [r4, #59]	@ zero_extendqisi2
 1228              		.loc 1 375 0
 1229 0038 E16D     		ldr	r1, [r4, #92]
 1230              		.loc 1 372 0
 1231 003a 43EA0543 		orr	r3, r3, r5, lsl #16
 1232              		.loc 1 373 0
 1233 003e 02EB0022 		add	r2, r2, r0, lsl #8
 1234              		.loc 1 375 0
 1235 0042 B1F1FE4F 		cmp	r1, #2130706432
 1236              		.loc 1 372 0
 1237 0046 A364     		str	r3, [r4, #72]
ARM GAS  /tmp/cc4PNelj.s 			page 23


 1238              		.loc 1 373 0
 1239 0048 2265     		str	r2, [r4, #80]
 1240              		.loc 1 375 0
 1241 004a 0CD0     		beq	.L93
 1242              		.loc 1 377 0
 1243 004c 591A     		subs	r1, r3, r1
 1244 004e 6165     		str	r1, [r4, #84]
 1245              		.loc 1 380 0
 1246 0050 82B1     		cbz	r2, .L94
 1247              		.loc 1 381 0
 1248 0052 206E     		ldr	r0, [r4, #96]
 1249 0054 44F25871 		movw	r1, #18264
 1250 0058 00FB02F2 		mul	r2, r0, r2
 1251 005c C0F6F851 		movt	r1, 3576
 1252 0060 91FBF2F1 		sdiv	r1, r1, r2
 1253 0064 A165     		str	r1, [r4, #88]
 1254              	.L93:
 1255              		.loc 1 386 0 discriminator 1
 1256 0066 E365     		str	r3, [r4, #92]
 1257              	.L99:
 1258 0068 0020     		movs	r0, #0
 1259 006a 38BD     		pop	{r3, r4, r5, pc}
 1260              	.LVL106:
 1261              	.L92:
 1262              		.loc 1 391 0
 1263 006c A36E     		ldr	r3, [r4, #104]
 1264 006e 0133     		adds	r3, r3, #1
 1265 0070 A366     		str	r3, [r4, #104]
 1266 0072 38BD     		pop	{r3, r4, r5, pc}
 1267              	.LVL107:
 1268              	.L94:
 1269              		.loc 1 383 0
 1270 0074 A265     		str	r2, [r4, #88]
 1271              		.loc 1 386 0
 1272 0076 E365     		str	r3, [r4, #92]
 1273 0078 F6E7     		b	.L99
 1274              		.cfi_endproc
 1275              	.LFE73:
 1276              		.size	vexIMEUpdateCounts, .-vexIMEUpdateCounts
 1277 007a 00BFAFF3 		.section	.text.vexIMEGetScratchpad,"ax",%progbits
 1277      0080
 1278              		.align	2
 1279              		.p2align 4,,15
 1280              		.global	vexIMEGetScratchpad
 1281              		.thumb
 1282              		.thumb_func
 1283              		.type	vexIMEGetScratchpad, %function
 1284              	vexIMEGetScratchpad:
 1285              	.LFB81:
 1286              		.loc 1 676 0
 1287              		.cfi_startproc
 1288              		@ args = 0, pretend = 0, frame = 8
 1289              		@ frame_needed = 0, uses_anonymous_args = 0
 1290              	.LVL108:
 1291 0000 2DE9F041 		push	{r4, r5, r6, r7, r8, lr}
 1292              		.cfi_def_cfa_offset 24
 1293              		.cfi_offset 4, -24
ARM GAS  /tmp/cc4PNelj.s 			page 24


 1294              		.cfi_offset 5, -20
 1295              		.cfi_offset 6, -16
 1296              		.cfi_offset 7, -12
 1297              		.cfi_offset 8, -8
 1298              		.cfi_offset 14, -4
 1299              		.loc 1 680 0
 1300 0004 40F20004 		movw	r4, #:lower16:.LANCHOR0
 1301              		.loc 1 676 0
 1302 0008 86B0     		sub	sp, sp, #24
 1303              		.cfi_def_cfa_offset 48
 1304              		.loc 1 680 0
 1305 000a C0F20004 		movt	r4, #:upper16:.LANCHOR0
 1306              		.loc 1 678 0
 1307 000e 6032     		adds	r2, r2, #96
 1308              	.LVL109:
 1309 0010 06AD     		add	r5, sp, #24
 1310              		.loc 1 676 0
 1311 0012 0646     		mov	r6, r0
 1312              		.loc 1 680 0
 1313 0014 2068     		ldr	r0, [r4]
 1314              	.LVL110:
 1315              		.loc 1 676 0
 1316 0016 8846     		mov	r8, r1
 1317 0018 1F46     		mov	r7, r3
 1318              		.loc 1 678 0
 1319 001a 05F8012D 		strb	r2, [r5, #-1]!
 1320              		.loc 1 680 0
 1321 001e FFF7FEFF 		bl	i2cAcquireBus
 1322              	.LVL111:
 1323              		.loc 1 681 0
 1324 0022 0423     		movs	r3, #4
 1325 0024 2A46     		mov	r2, r5
 1326 0026 0293     		str	r3, [sp, #8]
 1327 0028 2068     		ldr	r0, [r4]
 1328 002a CDF80080 		str	r8, [sp]
 1329 002e 0197     		str	r7, [sp, #4]
 1330 0030 7108     		lsrs	r1, r6, #1
 1331 0032 0123     		movs	r3, #1
 1332 0034 FFF7FEFF 		bl	i2cMasterTransmitTimeout
 1333              	.LVL112:
 1334 0038 0546     		mov	r5, r0
 1335              	.LVL113:
 1336              		.loc 1 682 0
 1337 003a 2068     		ldr	r0, [r4]
 1338              	.LVL114:
 1339 003c FFF7FEFF 		bl	i2cReleaseBus
 1340              	.LVL115:
 1341              		.loc 1 684 0
 1342 0040 65B1     		cbz	r5, .L101
 1343              		.loc 1 685 0
 1344 0042 2068     		ldr	r0, [r4]
 1345 0044 FFF7FEFF 		bl	i2cGetErrors
 1346              	.LVL116:
 1347 0048 40F20003 		movw	r3, #:lower16:.LANCHOR3
 1348 004c 0246     		mov	r2, r0
 1349 004e C0F20003 		movt	r3, #:upper16:.LANCHOR3
 1350              		.loc 1 686 0
ARM GAS  /tmp/cc4PNelj.s 			page 25


 1351 0052 0146     		mov	r1, r0
 1352 0054 2846     		mov	r0, r5
 1353              		.loc 1 685 0
 1354 0056 1A60     		str	r2, [r3]
 1355              		.loc 1 686 0
 1356 0058 FFF7FEFF 		bl	vexIMEHandleErrors
 1357              	.LVL117:
 1358              	.L101:
 1359              		.loc 1 690 0
 1360 005c 2846     		mov	r0, r5
 1361 005e 06B0     		add	sp, sp, #24
 1362              		@ sp needed
 1363 0060 BDE8F081 		pop	{r4, r5, r6, r7, r8, pc}
 1364              		.cfi_endproc
 1365              	.LFE81:
 1366              		.size	vexIMEGetScratchpad, .-vexIMEGetScratchpad
 1367 0064 AFF30080 		.section	.text.vexIMESetScratchpad,"ax",%progbits
 1367      AFF30080 
 1367      AFF30080 
 1368              		.align	2
 1369              		.p2align 4,,15
 1370              		.global	vexIMESetScratchpad
 1371              		.thumb
 1372              		.thumb_func
 1373              		.type	vexIMESetScratchpad, %function
 1374              	vexIMESetScratchpad:
 1375              	.LFB82:
 1376              		.loc 1 707 0
 1377              		.cfi_startproc
 1378              		@ args = 0, pretend = 0, frame = 0
 1379              		@ frame_needed = 0, uses_anonymous_args = 0
 1380              	.LVL118:
 1381 0000 2DE9F047 		push	{r4, r5, r6, r7, r8, r9, r10, lr}
 1382              		.cfi_def_cfa_offset 32
 1383              		.cfi_offset 4, -32
 1384              		.cfi_offset 5, -28
 1385              		.cfi_offset 6, -24
 1386              		.cfi_offset 7, -20
 1387              		.cfi_offset 8, -16
 1388              		.cfi_offset 9, -12
 1389              		.cfi_offset 10, -8
 1390              		.cfi_offset 14, -4
 1391 0004 8246     		mov	r10, r0
 1392 0006 84B0     		sub	sp, sp, #16
 1393              		.cfi_def_cfa_offset 48
 1394              		.loc 1 707 0
 1395 0008 8846     		mov	r8, r1
 1396              		.loc 1 716 0
 1397 000a 0020     		movs	r0, #0
 1398              	.LVL119:
 1399 000c 4021     		movs	r1, #64
 1400              	.LVL120:
 1401              		.loc 1 707 0
 1402 000e 1446     		mov	r4, r2
 1403 0010 1F46     		mov	r7, r3
 1404              		.loc 1 716 0
 1405 0012 FFF7FEFF 		bl	chHeapAlloc
ARM GAS  /tmp/cc4PNelj.s 			page 26


 1406              	.LVL121:
 1407              		.loc 1 718 0
 1408 0016 8146     		mov	r9, r0
 1409              		.loc 1 708 0
 1410 0018 0546     		mov	r5, r0
 1411              		.loc 1 718 0
 1412 001a 30B3     		cbz	r0, .L106
 1413              		.loc 1 720 0
 1414 001c 603C     		subs	r4, r4, #96
 1415 001e 0470     		strb	r4, [r0]
 1416              	.LVL122:
 1417 0020 0546     		mov	r5, r0
 1418              		.loc 1 721 0
 1419 0022 0024     		movs	r4, #0
 1420 0024 37B1     		cbz	r7, .L109
 1421              	.LVL123:
 1422              	.L110:
 1423              		.loc 1 722 0 discriminator 2
 1424 0026 18F80460 		ldrb	r6, [r8, r4]	@ zero_extendqisi2
 1425              		.loc 1 721 0 discriminator 2
 1426 002a 0134     		adds	r4, r4, #1
 1427              	.LVL124:
 1428 002c A742     		cmp	r7, r4
 1429              		.loc 1 722 0 discriminator 2
 1430 002e 05F8016F 		strb	r6, [r5, #1]!
 1431              		.loc 1 721 0 discriminator 2
 1432 0032 F8DC     		bgt	.L110
 1433              	.LVL125:
 1434              	.L109:
 1435              		.loc 1 724 0
 1436 0034 40F20004 		movw	r4, #:lower16:.LANCHOR0
 1437 0038 C0F20004 		movt	r4, #:upper16:.LANCHOR0
 1438 003c 2068     		ldr	r0, [r4]
 1439              	.LVL126:
 1440 003e FFF7FEFF 		bl	i2cAcquireBus
 1441              	.LVL127:
 1442              		.loc 1 725 0
 1443 0042 0425     		movs	r5, #4
 1444 0044 0022     		movs	r2, #0
 1445 0046 2068     		ldr	r0, [r4]
 1446 0048 4FEA5A01 		lsr	r1, r10, #1
 1447 004c 7B1C     		adds	r3, r7, #1
 1448 004e 0092     		str	r2, [sp]
 1449 0050 0192     		str	r2, [sp, #4]
 1450 0052 0295     		str	r5, [sp, #8]
 1451 0054 4A46     		mov	r2, r9
 1452 0056 FFF7FEFF 		bl	i2cMasterTransmitTimeout
 1453              	.LVL128:
 1454 005a 0546     		mov	r5, r0
 1455              	.LVL129:
 1456              		.loc 1 726 0
 1457 005c 2068     		ldr	r0, [r4]
 1458              	.LVL130:
 1459 005e FFF7FEFF 		bl	i2cReleaseBus
 1460              	.LVL131:
 1461              		.loc 1 729 0
 1462 0062 4846     		mov	r0, r9
ARM GAS  /tmp/cc4PNelj.s 			page 27


 1463 0064 FFF7FEFF 		bl	chHeapFree
 1464              	.LVL132:
 1465              		.loc 1 732 0
 1466 0068 1DB9     		cbnz	r5, .L113
 1467              	.LVL133:
 1468              	.L106:
 1469              		.loc 1 738 0
 1470 006a 2846     		mov	r0, r5
 1471 006c 04B0     		add	sp, sp, #16
 1472              		@ sp needed
 1473 006e BDE8F087 		pop	{r4, r5, r6, r7, r8, r9, r10, pc}
 1474              	.LVL134:
 1475              	.L113:
 1476              		.loc 1 733 0
 1477 0072 2068     		ldr	r0, [r4]
 1478 0074 FFF7FEFF 		bl	i2cGetErrors
 1479              	.LVL135:
 1480 0078 40F20003 		movw	r3, #:lower16:.LANCHOR3
 1481 007c 0246     		mov	r2, r0
 1482 007e C0F20003 		movt	r3, #:upper16:.LANCHOR3
 1483              		.loc 1 734 0
 1484 0082 0146     		mov	r1, r0
 1485 0084 2846     		mov	r0, r5
 1486              		.loc 1 733 0
 1487 0086 1A60     		str	r2, [r3]
 1488              		.loc 1 734 0
 1489 0088 FFF7FEFF 		bl	vexIMEHandleErrors
 1490              	.LVL136:
 1491              		.loc 1 738 0
 1492 008c 2846     		mov	r0, r5
 1493 008e 04B0     		add	sp, sp, #16
 1494              		@ sp needed
 1495 0090 BDE8F087 		pop	{r4, r5, r6, r7, r8, r9, r10, pc}
 1496              		.cfi_endproc
 1497              	.LFE82:
 1498              		.size	vexIMESetScratchpad, .-vexIMESetScratchpad
 1499 0094 AFF30080 		.section	.text.vexIMEClearCounters,"ax",%progbits
 1499      AFF30080 
 1499      AFF30080 
 1500              		.align	2
 1501              		.p2align 4,,15
 1502              		.global	vexIMEClearCounters
 1503              		.thumb
 1504              		.thumb_func
 1505              		.type	vexIMEClearCounters, %function
 1506              	vexIMEClearCounters:
 1507              	.LFB83:
 1508              		.loc 1 752 0
 1509              		.cfi_startproc
 1510              		@ args = 0, pretend = 0, frame = 8
 1511              		@ frame_needed = 0, uses_anonymous_args = 0
 1512              	.LVL137:
 1513 0000 F0B5     		push	{r4, r5, r6, r7, lr}
 1514              		.cfi_def_cfa_offset 20
 1515              		.cfi_offset 4, -20
 1516              		.cfi_offset 5, -16
 1517              		.cfi_offset 6, -12
ARM GAS  /tmp/cc4PNelj.s 			page 28


 1518              		.cfi_offset 7, -8
 1519              		.cfi_offset 14, -4
 1520              		.loc 1 756 0
 1521 0002 40F20004 		movw	r4, #:lower16:.LANCHOR0
 1522              		.loc 1 752 0
 1523 0006 87B0     		sub	sp, sp, #28
 1524              		.cfi_def_cfa_offset 48
 1525              		.loc 1 756 0
 1526 0008 C0F20004 		movt	r4, #:upper16:.LANCHOR0
 1527              		.loc 1 754 0
 1528 000c 4A23     		movs	r3, #74
 1529 000e 06AD     		add	r5, sp, #24
 1530              		.loc 1 752 0
 1531 0010 0746     		mov	r7, r0
 1532              		.loc 1 756 0
 1533 0012 2068     		ldr	r0, [r4]
 1534              	.LVL138:
 1535              		.loc 1 754 0
 1536 0014 05F8013D 		strb	r3, [r5, #-1]!
 1537              		.loc 1 757 0
 1538 0018 0426     		movs	r6, #4
 1539              		.loc 1 756 0
 1540 001a FFF7FEFF 		bl	i2cAcquireBus
 1541              	.LVL139:
 1542              		.loc 1 757 0
 1543 001e 0023     		movs	r3, #0
 1544 0020 2A46     		mov	r2, r5
 1545 0022 0093     		str	r3, [sp]
 1546 0024 0193     		str	r3, [sp, #4]
 1547 0026 2068     		ldr	r0, [r4]
 1548 0028 7908     		lsrs	r1, r7, #1
 1549 002a 0296     		str	r6, [sp, #8]
 1550 002c 0123     		movs	r3, #1
 1551 002e FFF7FEFF 		bl	i2cMasterTransmitTimeout
 1552              	.LVL140:
 1553 0032 0546     		mov	r5, r0
 1554              	.LVL141:
 1555              		.loc 1 758 0
 1556 0034 2068     		ldr	r0, [r4]
 1557              	.LVL142:
 1558 0036 FFF7FEFF 		bl	i2cReleaseBus
 1559              	.LVL143:
 1560              		.loc 1 760 0
 1561 003a 65B1     		cbz	r5, .L115
 1562              		.loc 1 761 0
 1563 003c 2068     		ldr	r0, [r4]
 1564 003e FFF7FEFF 		bl	i2cGetErrors
 1565              	.LVL144:
 1566 0042 40F20003 		movw	r3, #:lower16:.LANCHOR3
 1567 0046 0246     		mov	r2, r0
 1568 0048 C0F20003 		movt	r3, #:upper16:.LANCHOR3
 1569              		.loc 1 762 0
 1570 004c 0146     		mov	r1, r0
 1571 004e 2846     		mov	r0, r5
 1572              		.loc 1 761 0
 1573 0050 1A60     		str	r2, [r3]
 1574              		.loc 1 762 0
ARM GAS  /tmp/cc4PNelj.s 			page 29


 1575 0052 FFF7FEFF 		bl	vexIMEHandleErrors
 1576              	.LVL145:
 1577              	.L115:
 1578              		.loc 1 766 0
 1579 0056 2846     		mov	r0, r5
 1580 0058 07B0     		add	sp, sp, #28
 1581              		@ sp needed
 1582 005a F0BD     		pop	{r4, r5, r6, r7, pc}
 1583              		.cfi_endproc
 1584              	.LFE83:
 1585              		.size	vexIMEClearCounters, .-vexIMEClearCounters
 1586 005c AFF30080 		.section	.text.vexIMEDisableTermination,"ax",%progbits
 1587              		.align	2
 1588              		.p2align 4,,15
 1589              		.global	vexIMEDisableTermination
 1590              		.thumb
 1591              		.thumb_func
 1592              		.type	vexIMEDisableTermination, %function
 1593              	vexIMEDisableTermination:
 1594              	.LFB84:
 1595              		.loc 1 780 0
 1596              		.cfi_startproc
 1597              		@ args = 0, pretend = 0, frame = 8
 1598              		@ frame_needed = 0, uses_anonymous_args = 0
 1599              	.LVL146:
 1600 0000 F0B5     		push	{r4, r5, r6, r7, lr}
 1601              		.cfi_def_cfa_offset 20
 1602              		.cfi_offset 4, -20
 1603              		.cfi_offset 5, -16
 1604              		.cfi_offset 6, -12
 1605              		.cfi_offset 7, -8
 1606              		.cfi_offset 14, -4
 1607              		.loc 1 784 0
 1608 0002 40F20004 		movw	r4, #:lower16:.LANCHOR0
 1609              		.loc 1 780 0
 1610 0006 87B0     		sub	sp, sp, #28
 1611              		.cfi_def_cfa_offset 48
 1612              		.loc 1 784 0
 1613 0008 C0F20004 		movt	r4, #:upper16:.LANCHOR0
 1614              		.loc 1 782 0
 1615 000c 4B23     		movs	r3, #75
 1616 000e 06AD     		add	r5, sp, #24
 1617              		.loc 1 780 0
 1618 0010 0746     		mov	r7, r0
 1619              		.loc 1 784 0
 1620 0012 2068     		ldr	r0, [r4]
 1621              	.LVL147:
 1622              		.loc 1 782 0
 1623 0014 05F8013D 		strb	r3, [r5, #-1]!
 1624              		.loc 1 785 0
 1625 0018 0426     		movs	r6, #4
 1626              		.loc 1 784 0
 1627 001a FFF7FEFF 		bl	i2cAcquireBus
 1628              	.LVL148:
 1629              		.loc 1 785 0
 1630 001e 0023     		movs	r3, #0
 1631 0020 2A46     		mov	r2, r5
ARM GAS  /tmp/cc4PNelj.s 			page 30


 1632 0022 0093     		str	r3, [sp]
 1633 0024 0193     		str	r3, [sp, #4]
 1634 0026 2068     		ldr	r0, [r4]
 1635 0028 7908     		lsrs	r1, r7, #1
 1636 002a 0296     		str	r6, [sp, #8]
 1637 002c 0123     		movs	r3, #1
 1638 002e FFF7FEFF 		bl	i2cMasterTransmitTimeout
 1639              	.LVL149:
 1640 0032 0546     		mov	r5, r0
 1641              	.LVL150:
 1642              		.loc 1 786 0
 1643 0034 2068     		ldr	r0, [r4]
 1644              	.LVL151:
 1645 0036 FFF7FEFF 		bl	i2cReleaseBus
 1646              	.LVL152:
 1647              		.loc 1 788 0
 1648 003a 65B1     		cbz	r5, .L120
 1649              		.loc 1 789 0
 1650 003c 2068     		ldr	r0, [r4]
 1651 003e FFF7FEFF 		bl	i2cGetErrors
 1652              	.LVL153:
 1653 0042 40F20003 		movw	r3, #:lower16:.LANCHOR3
 1654 0046 0246     		mov	r2, r0
 1655 0048 C0F20003 		movt	r3, #:upper16:.LANCHOR3
 1656              		.loc 1 790 0
 1657 004c 0146     		mov	r1, r0
 1658 004e 2846     		mov	r0, r5
 1659              		.loc 1 789 0
 1660 0050 1A60     		str	r2, [r3]
 1661              		.loc 1 790 0
 1662 0052 FFF7FEFF 		bl	vexIMEHandleErrors
 1663              	.LVL154:
 1664              	.L120:
 1665              		.loc 1 794 0
 1666 0056 2846     		mov	r0, r5
 1667 0058 07B0     		add	sp, sp, #28
 1668              		@ sp needed
 1669 005a F0BD     		pop	{r4, r5, r6, r7, pc}
 1670              		.cfi_endproc
 1671              	.LFE84:
 1672              		.size	vexIMEDisableTermination, .-vexIMEDisableTermination
 1673 005c AFF30080 		.section	.text.vexIMEEnableTermination,"ax",%progbits
 1674              		.align	2
 1675              		.p2align 4,,15
 1676              		.global	vexIMEEnableTermination
 1677              		.thumb
 1678              		.thumb_func
 1679              		.type	vexIMEEnableTermination, %function
 1680              	vexIMEEnableTermination:
 1681              	.LFB85:
 1682              		.loc 1 808 0
 1683              		.cfi_startproc
 1684              		@ args = 0, pretend = 0, frame = 8
 1685              		@ frame_needed = 0, uses_anonymous_args = 0
 1686              	.LVL155:
 1687 0000 F0B5     		push	{r4, r5, r6, r7, lr}
 1688              		.cfi_def_cfa_offset 20
ARM GAS  /tmp/cc4PNelj.s 			page 31


 1689              		.cfi_offset 4, -20
 1690              		.cfi_offset 5, -16
 1691              		.cfi_offset 6, -12
 1692              		.cfi_offset 7, -8
 1693              		.cfi_offset 14, -4
 1694              		.loc 1 812 0
 1695 0002 40F20004 		movw	r4, #:lower16:.LANCHOR0
 1696              		.loc 1 808 0
 1697 0006 87B0     		sub	sp, sp, #28
 1698              		.cfi_def_cfa_offset 48
 1699              		.loc 1 812 0
 1700 0008 C0F20004 		movt	r4, #:upper16:.LANCHOR0
 1701              		.loc 1 810 0
 1702 000c 4C23     		movs	r3, #76
 1703 000e 06AD     		add	r5, sp, #24
 1704              		.loc 1 808 0
 1705 0010 0746     		mov	r7, r0
 1706              		.loc 1 812 0
 1707 0012 2068     		ldr	r0, [r4]
 1708              	.LVL156:
 1709              		.loc 1 810 0
 1710 0014 05F8013D 		strb	r3, [r5, #-1]!
 1711              		.loc 1 813 0
 1712 0018 0426     		movs	r6, #4
 1713              		.loc 1 812 0
 1714 001a FFF7FEFF 		bl	i2cAcquireBus
 1715              	.LVL157:
 1716              		.loc 1 813 0
 1717 001e 0023     		movs	r3, #0
 1718 0020 2A46     		mov	r2, r5
 1719 0022 0093     		str	r3, [sp]
 1720 0024 0193     		str	r3, [sp, #4]
 1721 0026 2068     		ldr	r0, [r4]
 1722 0028 7908     		lsrs	r1, r7, #1
 1723 002a 0296     		str	r6, [sp, #8]
 1724 002c 0123     		movs	r3, #1
 1725 002e FFF7FEFF 		bl	i2cMasterTransmitTimeout
 1726              	.LVL158:
 1727 0032 0546     		mov	r5, r0
 1728              	.LVL159:
 1729              		.loc 1 814 0
 1730 0034 2068     		ldr	r0, [r4]
 1731              	.LVL160:
 1732 0036 FFF7FEFF 		bl	i2cReleaseBus
 1733              	.LVL161:
 1734              		.loc 1 816 0
 1735 003a 65B1     		cbz	r5, .L125
 1736              		.loc 1 817 0
 1737 003c 2068     		ldr	r0, [r4]
 1738 003e FFF7FEFF 		bl	i2cGetErrors
 1739              	.LVL162:
 1740 0042 40F20003 		movw	r3, #:lower16:.LANCHOR3
 1741 0046 0246     		mov	r2, r0
 1742 0048 C0F20003 		movt	r3, #:upper16:.LANCHOR3
 1743              		.loc 1 818 0
 1744 004c 0146     		mov	r1, r0
 1745 004e 2846     		mov	r0, r5
ARM GAS  /tmp/cc4PNelj.s 			page 32


 1746              		.loc 1 817 0
 1747 0050 1A60     		str	r2, [r3]
 1748              		.loc 1 818 0
 1749 0052 FFF7FEFF 		bl	vexIMEHandleErrors
 1750              	.LVL163:
 1751              	.L125:
 1752              		.loc 1 822 0
 1753 0056 2846     		mov	r0, r5
 1754 0058 07B0     		add	sp, sp, #28
 1755              		@ sp needed
 1756 005a F0BD     		pop	{r4, r5, r6, r7, pc}
 1757              		.cfi_endproc
 1758              	.LFE85:
 1759              		.size	vexIMEEnableTermination, .-vexIMEEnableTermination
 1760 005c AFF30080 		.section	.text.vexIMESetAddr,"ax",%progbits
 1761              		.align	2
 1762              		.p2align 4,,15
 1763              		.global	vexIMESetAddr
 1764              		.thumb
 1765              		.thumb_func
 1766              		.type	vexIMESetAddr, %function
 1767              	vexIMESetAddr:
 1768              	.LFB86:
 1769              		.loc 1 837 0
 1770              		.cfi_startproc
 1771              		@ args = 0, pretend = 0, frame = 8
 1772              		@ frame_needed = 0, uses_anonymous_args = 0
 1773              	.LVL164:
 1774 0000 F0B5     		push	{r4, r5, r6, r7, lr}
 1775              		.cfi_def_cfa_offset 20
 1776              		.cfi_offset 4, -20
 1777              		.cfi_offset 5, -16
 1778              		.cfi_offset 6, -12
 1779              		.cfi_offset 7, -8
 1780              		.cfi_offset 14, -4
 1781              		.loc 1 846 0
 1782 0002 40F20004 		movw	r4, #:lower16:.LANCHOR0
 1783 0006 C0F20004 		movt	r4, #:upper16:.LANCHOR0
 1784              		.loc 1 837 0
 1785 000a 87B0     		sub	sp, sp, #28
 1786              		.cfi_def_cfa_offset 48
 1787              		.loc 1 843 0
 1788 000c 4D23     		movs	r3, #77
 1789              		.loc 1 837 0
 1790 000e 0646     		mov	r6, r0
 1791              		.loc 1 846 0
 1792 0010 2068     		ldr	r0, [r4]
 1793              	.LVL165:
 1794              		.loc 1 837 0
 1795 0012 0F46     		mov	r7, r1
 1796              		.loc 1 844 0
 1797 0014 8DF81510 		strb	r1, [sp, #21]
 1798              		.loc 1 843 0
 1799 0018 8DF81430 		strb	r3, [sp, #20]
 1800              		.loc 1 846 0
 1801 001c FFF7FEFF 		bl	i2cAcquireBus
 1802              	.LVL166:
ARM GAS  /tmp/cc4PNelj.s 			page 33


 1803              		.loc 1 847 0
 1804 0020 3178     		ldrb	r1, [r6]	@ zero_extendqisi2
 1805 0022 0023     		movs	r3, #0
 1806 0024 0422     		movs	r2, #4
 1807 0026 0093     		str	r3, [sp]
 1808 0028 0193     		str	r3, [sp, #4]
 1809 002a 0292     		str	r2, [sp, #8]
 1810 002c 2068     		ldr	r0, [r4]
 1811 002e 4908     		lsrs	r1, r1, #1
 1812 0030 05AA     		add	r2, sp, #20
 1813 0032 0223     		movs	r3, #2
 1814 0034 FFF7FEFF 		bl	i2cMasterTransmitTimeout
 1815              	.LVL167:
 1816 0038 0546     		mov	r5, r0
 1817              	.LVL168:
 1818              		.loc 1 848 0
 1819 003a 2068     		ldr	r0, [r4]
 1820              	.LVL169:
 1821 003c FFF7FEFF 		bl	i2cReleaseBus
 1822              	.LVL170:
 1823              		.loc 1 850 0
 1824 0040 65B1     		cbz	r5, .L130
 1825              		.loc 1 851 0
 1826 0042 2068     		ldr	r0, [r4]
 1827 0044 FFF7FEFF 		bl	i2cGetErrors
 1828              	.LVL171:
 1829 0048 40F20003 		movw	r3, #:lower16:.LANCHOR3
 1830 004c 0246     		mov	r2, r0
 1831 004e C0F20003 		movt	r3, #:upper16:.LANCHOR3
 1832              		.loc 1 852 0
 1833 0052 0146     		mov	r1, r0
 1834 0054 2846     		mov	r0, r5
 1835              		.loc 1 851 0
 1836 0056 1A60     		str	r2, [r3]
 1837              		.loc 1 852 0
 1838 0058 FFF7FEFF 		bl	vexIMEHandleErrors
 1839              	.LVL172:
 1840              	.L130:
 1841              		.loc 1 858 0
 1842 005c 2846     		mov	r0, r5
 1843              		.loc 1 855 0
 1844 005e 3770     		strb	r7, [r6]
 1845              		.loc 1 858 0
 1846 0060 07B0     		add	sp, sp, #28
 1847              		@ sp needed
 1848 0062 F0BD     		pop	{r4, r5, r6, r7, pc}
 1849              		.cfi_endproc
 1850              	.LFE86:
 1851              		.size	vexIMESetAddr, .-vexIMESetAddr
 1852 0064 AFF30080 		.section	.text.vexIMEFindEncoders,"ax",%progbits
 1852      AFF30080 
 1852      AFF30080 
 1853              		.align	2
 1854              		.p2align 4,,15
 1855              		.global	vexIMEFindEncoders
 1856              		.thumb
 1857              		.thumb_func
ARM GAS  /tmp/cc4PNelj.s 			page 34


 1858              		.type	vexIMEFindEncoders, %function
 1859              	vexIMEFindEncoders:
 1860              	.LFB75:
 1861              		.loc 1 428 0
 1862              		.cfi_startproc
 1863              		@ args = 0, pretend = 0, frame = 0
 1864              		@ frame_needed = 0, uses_anonymous_args = 0
 1865              	.LVL173:
 1866 0000 2DE9F84F 		push	{r3, r4, r5, r6, r7, r8, r9, r10, fp, lr}
 1867              		.cfi_def_cfa_offset 40
 1868              		.cfi_offset 3, -40
 1869              		.cfi_offset 4, -36
 1870              		.cfi_offset 5, -32
 1871              		.cfi_offset 6, -28
 1872              		.cfi_offset 7, -24
 1873              		.cfi_offset 8, -20
 1874              		.cfi_offset 9, -16
 1875              		.cfi_offset 10, -12
 1876              		.cfi_offset 11, -8
 1877              		.cfi_offset 14, -4
 1878              		.loc 1 436 0
 1879 0004 40F20005 		movw	r5, #:lower16:.LANCHOR0
 1880 0008 C0F20005 		movt	r5, #:upper16:.LANCHOR0
 1881              		.loc 1 433 0
 1882 000c FFF7FEFF 		bl	vexIMEResetAll
 1883              	.LVL174:
 1884              		.loc 1 436 0
 1885 0010 0023     		movs	r3, #0
 1886              		.loc 1 438 0
 1887 0012 2022     		movs	r2, #32
 1888 0014 6A81     		strh	r2, [r5, #10]	@ movhi
 1889              		.loc 1 436 0
 1890 0016 2B81     		strh	r3, [r5, #8]	@ movhi
 1891              		.loc 1 437 0
 1892 0018 EB82     		strh	r3, [r5, #22]	@ movhi
 1893              		.loc 1 439 0
 1894 001a 2B83     		strh	r3, [r5, #24]	@ movhi
 1895 001c 05F11C06 		add	r6, r5, #28
 1896 0020 05F12204 		add	r4, r5, #34
 1897 0024 05F28238 		addw	r8, r5, #898
 1898              		.loc 1 460 0
 1899 0028 0127     		movs	r7, #1
 1900              		.loc 1 490 0
 1901 002a 42F2486B 		movw	fp, #9800
 1902              		.loc 1 487 0
 1903 002e 41F6E77A 		movw	r10, #8167
 1904              		.loc 1 484 0
 1905 0032 42F6DA79 		movw	r9, #12250
 1906              	.LVL175:
 1907              	.L144:
 1908              		.loc 1 446 0
 1909 0036 3046     		mov	r0, r6
 1910 0038 FFF7FEFF 		bl	vexIMEDataInit
 1911              	.LVL176:
 1912              		.loc 1 450 0
 1913 003c 14F8060C 		ldrb	r0, [r4, #-6]	@ zero_extendqisi2
 1914 0040 FFF7FEFF 		bl	vexIMEEnableTermination
ARM GAS  /tmp/cc4PNelj.s 			page 35


 1915              	.LVL177:
 1916 0044 0028     		cmp	r0, #0
 1917 0046 5BD1     		bne	.L135
 1918              		.loc 1 453 0
 1919 0048 2B89     		ldrh	r3, [r5, #8]
 1920              		.loc 1 456 0
 1921 004a A97A     		ldrb	r1, [r5, #10]	@ zero_extendqisi2
 1922              		.loc 1 453 0
 1923 004c 0133     		adds	r3, r3, #1
 1924              		.loc 1 456 0
 1925 004e 3046     		mov	r0, r6
 1926              		.loc 1 453 0
 1927 0050 2B81     		strh	r3, [r5, #8]	@ movhi
 1928              		.loc 1 456 0
 1929 0052 FFF7FEFF 		bl	vexIMESetAddr
 1930              	.LVL178:
 1931              		.loc 1 457 0
 1932 0056 6B89     		ldrh	r3, [r5, #10]
 1933              		.loc 1 460 0
 1934 0058 0120     		movs	r0, #1
 1935              		.loc 1 457 0
 1936 005a 0233     		adds	r3, r3, #2
 1937 005c 6B81     		strh	r3, [r5, #10]	@ movhi
 1938              		.loc 1 460 0
 1939 005e FFF7FEFF 		bl	chThdSleep
 1940              	.LVL179:
 1941              		.loc 1 463 0
 1942 0062 2146     		mov	r1, r4
 1943 0064 14F8060C 		ldrb	r0, [r4, #-6]	@ zero_extendqisi2
 1944 0068 FFF7FEFF 		bl	vexIMEGetVersion
 1945              	.LVL180:
 1946              		.loc 1 464 0
 1947 006c 04F11001 		add	r1, r4, #16
 1948 0070 14F8060C 		ldrb	r0, [r4, #-6]	@ zero_extendqisi2
 1949 0074 FFF7FEFF 		bl	vexIMEGetVendor
 1950              	.LVL181:
 1951              		.loc 1 465 0
 1952 0078 04F12001 		add	r1, r4, #32
 1953 007c 14F8060C 		ldrb	r0, [r4, #-6]	@ zero_extendqisi2
 1954 0080 FFF7FEFF 		bl	vexIMEGetDeviceId
 1955              	.LVL182:
 1956              		.loc 1 468 0
 1957 0084 14F8060C 		ldrb	r0, [r4, #-6]	@ zero_extendqisi2
 1958 0088 FFF7FEFF 		bl	vexIMEClearCounters
 1959              	.LVL183:
 1960              		.loc 1 475 0
 1961 008c 14F8053C 		ldrb	r3, [r4, #-5]	@ zero_extendqisi2
 1962 0090 032B     		cmp	r3, #3
 1963 0092 32D8     		bhi	.L136
 1964 0094 DFE803F0 		tbb	[pc, r3]
 1965              	.L138:
 1966 0098 27       		.byte	(.L137-.L138)/2
 1967 0099 2C       		.byte	(.L139-.L138)/2
 1968 009a 24       		.byte	(.L140-.L138)/2
 1969 009b 02       		.byte	(.L141-.L138)/2
 1970              		.align	1
 1971              	.L141:
ARM GAS  /tmp/cc4PNelj.s 			page 36


 1972              		.loc 1 487 0
 1973 009c C4F85AA0 		str	r10, [r4, #90]
 1974              	.L142:
 1975              		.loc 1 498 0
 1976 00a0 14F8060C 		ldrb	r0, [r4, #-6]	@ zero_extendqisi2
 1977              		.loc 1 495 0
 1978 00a4 24F8047C 		strh	r7, [r4, #-4]	@ movhi
 1979              		.loc 1 498 0
 1980 00a8 FFF7FEFF 		bl	vexIMEDisableTermination
 1981              	.LVL184:
 1982 00ac 6C34     		adds	r4, r4, #108
 1983              		.loc 1 499 0
 1984 00ae 0120     		movs	r0, #1
 1985 00b0 FFF7FEFF 		bl	chThdSleep
 1986              	.LVL185:
 1987              		.loc 1 442 0
 1988 00b4 4445     		cmp	r4, r8
 1989 00b6 06F16C06 		add	r6, r6, #108
 1990              	.LVL186:
 1991 00ba BCD1     		bne	.L144
 1992              	.LVL187:
 1993              	.L143:
 1994              		.loc 1 510 0
 1995 00bc 2889     		ldrh	r0, [r5, #8]
 1996 00be 40F20004 		movw	r4, #:lower16:.LANCHOR0
 1997 00c2 03B2     		sxth	r3, r0
 1998 00c4 002B     		cmp	r3, #0
 1999 00c6 C0F20004 		movt	r4, #:upper16:.LANCHOR0
 2000 00ca 07DD     		ble	.L145
 2001              		.loc 1 511 0
 2002 00cc 6C22     		movs	r2, #108
 2003 00ce 013B     		subs	r3, r3, #1
 2004 00d0 02FB0343 		mla	r3, r2, r3, r4
 2005 00d4 187F     		ldrb	r0, [r3, #28]	@ zero_extendqisi2
 2006 00d6 FFF7FEFF 		bl	vexIMEEnableTermination
 2007              	.LVL188:
 2008 00da 2089     		ldrh	r0, [r4, #8]
 2009              	.L145:
 2010              		.loc 1 514 0
 2011 00dc BDE8F88F 		pop	{r3, r4, r5, r6, r7, r8, r9, r10, fp, pc}
 2012              	.LVL189:
 2013              	.L140:
 2014              		.loc 1 484 0
 2015 00e0 C4F85A90 		str	r9, [r4, #90]
 2016              		.loc 1 485 0
 2017 00e4 DCE7     		b	.L142
 2018              	.L137:
 2019              		.loc 1 478 0
 2020 00e6 41F65A53 		movw	r3, #7514
 2021 00ea C4F85A30 		str	r3, [r4, #90]
 2022              		.loc 1 479 0
 2023 00ee D7E7     		b	.L142
 2024              	.L139:
 2025              		.loc 1 481 0
 2026 00f0 44F69042 		movw	r2, #19600
 2027 00f4 C4F85A20 		str	r2, [r4, #90]
 2028              		.loc 1 482 0
ARM GAS  /tmp/cc4PNelj.s 			page 37


 2029 00f8 D2E7     		b	.L142
 2030              	.L136:
 2031              		.loc 1 490 0
 2032 00fa C4F85AB0 		str	fp, [r4, #90]
 2033              		.loc 1 491 0
 2034 00fe CFE7     		b	.L142
 2035              	.L135:
 2036              		.loc 1 504 0
 2037 0100 0023     		movs	r3, #0
 2038 0102 3370     		strb	r3, [r6]
 2039              		.loc 1 505 0
 2040 0104 DAE7     		b	.L143
 2041              		.cfi_endproc
 2042              	.LFE75:
 2043              		.size	vexIMEFindEncoders, .-vexIMEFindEncoders
 2044 0106 00BFAFF3 		.section	.text.vexIMEPrintBuf,"ax",%progbits
 2044      0080AFF3 
 2044      0080
 2045              		.align	2
 2046              		.p2align 4,,15
 2047              		.global	vexIMEPrintBuf
 2048              		.thumb
 2049              		.thumb_func
 2050              		.type	vexIMEPrintBuf, %function
 2051              	vexIMEPrintBuf:
 2052              	.LFB89:
 2053              		.loc 1 952 0
 2054              		.cfi_startproc
 2055              		@ args = 0, pretend = 0, frame = 0
 2056              		@ frame_needed = 0, uses_anonymous_args = 0
 2057              	.LVL190:
 2058 0000 F8B5     		push	{r3, r4, r5, r6, r7, lr}
 2059              		.cfi_def_cfa_offset 24
 2060              		.cfi_offset 3, -24
 2061              		.cfi_offset 4, -20
 2062              		.cfi_offset 5, -16
 2063              		.cfi_offset 6, -12
 2064              		.cfi_offset 7, -8
 2065              		.cfi_offset 14, -4
 2066              		.loc 1 955 0
 2067 0002 1646     		mov	r6, r2
 2068              		.loc 1 952 0
 2069 0004 0F46     		mov	r7, r1
 2070 0006 0546     		mov	r5, r0
 2071              		.loc 1 955 0
 2072 0008 B2B3     		cbz	r2, .L148
 2073 000a 0024     		movs	r4, #0
 2074              	.LVL191:
 2075              	.L150:
 2076              		.loc 1 956 0 discriminator 2
 2077 000c 40F20001 		movw	r1, #:lower16:.LC0
 2078 0010 3A5D     		ldrb	r2, [r7, r4]	@ zero_extendqisi2
 2079 0012 C0F20001 		movt	r1, #:upper16:.LC0
 2080 0016 2846     		mov	r0, r5
 2081              		.loc 1 955 0 discriminator 2
 2082 0018 0134     		adds	r4, r4, #1
 2083              	.LVL192:
ARM GAS  /tmp/cc4PNelj.s 			page 38


 2084              		.loc 1 956 0 discriminator 2
 2085 001a FFF7FEFF 		bl	vex_chprintf
 2086              	.LVL193:
 2087              		.loc 1 955 0 discriminator 2
 2088 001e B442     		cmp	r4, r6
 2089 0020 F4DB     		blt	.L150
 2090              		.loc 1 958 0
 2091 0022 40F20001 		movw	r1, #:lower16:.LC4
 2092 0026 C0F20001 		movt	r1, #:upper16:.LC4
 2093 002a 2846     		mov	r0, r5
 2094 002c FFF7FEFF 		bl	vex_chprintf
 2095              	.LVL194:
 2096              		.loc 1 960 0
 2097 0030 0024     		movs	r4, #0
 2098 0032 08E0     		b	.L155
 2099              	.LVL195:
 2100              	.L156:
 2101              		.loc 1 963 0
 2102 0034 40F20001 		movw	r1, #:lower16:.LC1
 2103 0038 C0F20001 		movt	r1, #:upper16:.LC1
 2104              		.loc 1 960 0
 2105 003c 0134     		adds	r4, r4, #1
 2106              	.LVL196:
 2107              		.loc 1 963 0
 2108 003e FFF7FEFF 		bl	vex_chprintf
 2109              	.LVL197:
 2110              		.loc 1 960 0
 2111 0042 B442     		cmp	r4, r6
 2112 0044 0FDA     		bge	.L154
 2113              	.LVL198:
 2114              	.L155:
 2115              		.loc 1 962 0
 2116 0046 3A5D     		ldrb	r2, [r7, r4]	@ zero_extendqisi2
 2117              		.loc 1 965 0
 2118 0048 40F20001 		movw	r1, #:lower16:.LC2
 2119              		.loc 1 962 0
 2120 004c A2F12003 		sub	r3, r2, #32
 2121 0050 DBB2     		uxtb	r3, r3
 2122 0052 5E2B     		cmp	r3, #94
 2123              		.loc 1 965 0
 2124 0054 2846     		mov	r0, r5
 2125 0056 C0F20001 		movt	r1, #:upper16:.LC2
 2126              		.loc 1 962 0
 2127 005a EBD9     		bls	.L156
 2128              	.LVL199:
 2129              		.loc 1 960 0
 2130 005c 0134     		adds	r4, r4, #1
 2131              	.LVL200:
 2132              		.loc 1 965 0
 2133 005e FFF7FEFF 		bl	vex_chprintf
 2134              	.LVL201:
 2135              		.loc 1 960 0
 2136 0062 B442     		cmp	r4, r6
 2137 0064 EFDB     		blt	.L155
 2138              	.LVL202:
 2139              	.L154:
 2140              		.loc 1 968 0
ARM GAS  /tmp/cc4PNelj.s 			page 39


 2141 0066 40F20001 		movw	r1, #:lower16:.LC3
 2142 006a 2846     		mov	r0, r5
 2143 006c C0F20001 		movt	r1, #:upper16:.LC3
 2144              		.loc 1 969 0
 2145 0070 BDE8F840 		pop	{r3, r4, r5, r6, r7, lr}
 2146              	.LVL203:
 2147              		.loc 1 968 0
 2148 0074 FFF7FEBF 		b	vex_chprintf
 2149              	.LVL204:
 2150              	.L148:
 2151              		.loc 1 958 0
 2152 0078 40F20001 		movw	r1, #:lower16:.LC4
 2153              	.LVL205:
 2154 007c C0F20001 		movt	r1, #:upper16:.LC4
 2155 0080 FFF7FEFF 		bl	vex_chprintf
 2156              	.LVL206:
 2157 0084 EFE7     		b	.L154
 2158              		.cfi_endproc
 2159              	.LFE89:
 2160              		.size	vexIMEPrintBuf, .-vexIMEPrintBuf
 2161 0086 00BFAFF3 		.section	.text.vexImeTask,"ax",%progbits
 2161      0080AFF3 
 2161      0080
 2162              		.align	2
 2163              		.p2align 4,,15
 2164              		.thumb
 2165              		.thumb_func
 2166              		.type	vexImeTask, %function
 2167              	vexImeTask:
 2168              	.LFB71:
 2169              		.loc 1 244 0
 2170              		.cfi_startproc
 2171              		@ args = 0, pretend = 0, frame = 0
 2172              		@ frame_needed = 0, uses_anonymous_args = 0
 2173              	.LVL207:
 2174 0000 2DE9F041 		push	{r4, r5, r6, r7, r8, lr}
 2175              		.cfi_def_cfa_offset 24
 2176              		.cfi_offset 4, -24
 2177              		.cfi_offset 5, -20
 2178              		.cfi_offset 6, -16
 2179              		.cfi_offset 7, -12
 2180              		.cfi_offset 8, -8
 2181              		.cfi_offset 14, -4
 2182              		.loc 1 248 0
 2183 0004 40F20007 		movw	r7, #:lower16:rlist
 2184 0008 C0F20007 		movt	r7, #:upper16:rlist
 2185 000c BB69     		ldr	r3, [r7, #24]
 2186 000e 40F20002 		movw	r2, #:lower16:.LC5
 2187 0012 C0F20002 		movt	r2, #:upper16:.LC5
 2188 0016 9A61     		str	r2, [r3, #24]
 2189              		.loc 1 253 0
 2190 0018 5B7F     		ldrb	r3, [r3, #29]	@ zero_extendqisi2
 2191              		.loc 1 251 0
 2192 001a 40F20006 		movw	r6, #:lower16:.LANCHOR0
 2193 001e C0F20006 		movt	r6, #:upper16:.LANCHOR0
 2194 0022 0121     		movs	r1, #1
 2195              		.loc 1 253 0
ARM GAS  /tmp/cc4PNelj.s 			page 40


 2196 0024 03F00403 		and	r3, r3, #4
 2197              		.loc 1 255 0
 2198 0028 B046     		mov	r8, r6
 2199              		.loc 1 251 0
 2200 002a 3183     		strh	r1, [r6, #24]	@ movhi
 2201              		.loc 1 253 0
 2202 002c 03F0FF05 		and	r5, r3, #255
 2203 0030 03BB     		cbnz	r3, .L170
 2204              	.LVL208:
 2205              	.L167:
 2206              		.loc 1 255 0
 2207 0032 338B     		ldrh	r3, [r6, #24]
 2208 0034 012B     		cmp	r3, #1
 2209 0036 20D0     		beq	.L159
 2210              	.L169:
 2211 0038 B8F80830 		ldrh	r3, [r8, #8]
 2212              		.loc 1 280 0
 2213 003c 1BB2     		sxth	r3, r3
 2214 003e 002B     		cmp	r3, #0
 2215 0040 5EDD     		ble	.L162
 2216              	.L171:
 2217              	.LVL209:
 2218 0042 334D     		ldr	r5, .L173
 2219 0044 0024     		movs	r4, #0
 2220              	.LVL210:
 2221              	.L166:
 2222              		.loc 1 285 0
 2223 0046 2846     		mov	r0, r5
 2224 0048 FFF7FEFF 		bl	vexIMEUpdateCounts
 2225              	.LVL211:
 2226 004c 0346     		mov	r3, r0
 2227              		.loc 1 282 0
 2228 004e 0134     		adds	r4, r4, #1
 2229              	.LVL212:
 2230 0050 6C35     		adds	r5, r5, #108
 2231              		.loc 1 289 0
 2232 0052 0120     		movs	r0, #1
 2233              		.loc 1 285 0
 2234 0054 03B9     		cbnz	r3, .L164
 2235              		.loc 1 286 0
 2236 0056 F382     		strh	r3, [r6, #22]	@ movhi
 2237              	.L164:
 2238              		.loc 1 289 0
 2239 0058 FFF7FEFF 		bl	chThdSleep
 2240              	.LVL213:
 2241              		.loc 1 282 0
 2242 005c B6F90830 		ldrsh	r3, [r6, #8]
 2243 0060 A342     		cmp	r3, r4
 2244 0062 F0DC     		bgt	.L166
 2245 0064 BB69     		ldr	r3, [r7, #24]
 2246              	.LVL214:
 2247              	.L172:
 2248              		.loc 1 253 0
 2249 0066 5B7F     		ldrb	r3, [r3, #29]	@ zero_extendqisi2
 2250 0068 03F00403 		and	r3, r3, #4
 2251 006c 03F0FF05 		and	r5, r3, #255
 2252 0070 002B     		cmp	r3, #0
ARM GAS  /tmp/cc4PNelj.s 			page 41


 2253 0072 DED0     		beq	.L167
 2254              	.L170:
 2255              		.loc 1 302 0
 2256 0074 0020     		movs	r0, #0
 2257 0076 BDE8F081 		pop	{r4, r5, r6, r7, r8, pc}
 2258              	.L159:
 2259              		.loc 1 258 0
 2260 007a FFF7FEFF 		bl	vexIMEFindEncoders
 2261              	.LVL215:
 2262              		.loc 1 261 0
 2263 007e B8F81A30 		ldrh	r3, [r8, #26]
 2264 0082 002B     		cmp	r3, #0
 2265 0084 D8D0     		beq	.L169
 2266              	.LVL216:
 2267              		.loc 1 263 0 discriminator 1
 2268 0086 B8F90830 		ldrsh	r3, [r8, #8]
 2269 008a 002B     		cmp	r3, #0
 2270 008c 38DD     		ble	.L162
 2271 008e 214C     		ldr	r4, .L173+4
 2272              	.LVL217:
 2273              	.L163:
 2274              		.loc 1 266 0 discriminator 2
 2275 0090 40F20001 		movw	r1, #:lower16:.LC6
 2276 0094 2A46     		mov	r2, r5
 2277 0096 C0F20001 		movt	r1, #:upper16:.LC6
 2278 009a 7068     		ldr	r0, [r6, #4]
 2279 009c FFF7FEFF 		bl	vex_chprintf
 2280              	.LVL218:
 2281              		.loc 1 267 0 discriminator 2
 2282 00a0 40F20001 		movw	r1, #:lower16:.LC7
 2283 00a4 C0F20001 		movt	r1, #:upper16:.LC7
 2284 00a8 7068     		ldr	r0, [r6, #4]
 2285 00aa FFF7FEFF 		bl	vex_chprintf
 2286              	.LVL219:
 2287              		.loc 1 268 0 discriminator 2
 2288 00ae 2146     		mov	r1, r4
 2289 00b0 0822     		movs	r2, #8
 2290 00b2 7068     		ldr	r0, [r6, #4]
 2291 00b4 FFF7FEFF 		bl	vexIMEPrintBuf
 2292              	.LVL220:
 2293              		.loc 1 270 0 discriminator 2
 2294 00b8 40F20001 		movw	r1, #:lower16:.LC8
 2295 00bc C0F20001 		movt	r1, #:upper16:.LC8
 2296 00c0 7068     		ldr	r0, [r6, #4]
 2297 00c2 FFF7FEFF 		bl	vex_chprintf
 2298              	.LVL221:
 2299              		.loc 1 271 0 discriminator 2
 2300 00c6 04F11001 		add	r1, r4, #16
 2301 00ca 0822     		movs	r2, #8
 2302 00cc 7068     		ldr	r0, [r6, #4]
 2303 00ce FFF7FEFF 		bl	vexIMEPrintBuf
 2304              	.LVL222:
 2305              		.loc 1 273 0 discriminator 2
 2306 00d2 40F20001 		movw	r1, #:lower16:.LC9
 2307 00d6 C0F20001 		movt	r1, #:upper16:.LC9
 2308 00da 7068     		ldr	r0, [r6, #4]
 2309 00dc FFF7FEFF 		bl	vex_chprintf
ARM GAS  /tmp/cc4PNelj.s 			page 42


 2310              	.LVL223:
 2311              		.loc 1 274 0 discriminator 2
 2312 00e0 04F12001 		add	r1, r4, #32
 2313 00e4 0822     		movs	r2, #8
 2314 00e6 7068     		ldr	r0, [r6, #4]
 2315 00e8 FFF7FEFF 		bl	vexIMEPrintBuf
 2316              	.LVL224:
 2317              		.loc 1 263 0 discriminator 2
 2318 00ec 3389     		ldrh	r3, [r6, #8]
 2319 00ee 0135     		adds	r5, r5, #1
 2320              	.LVL225:
 2321 00f0 1AB2     		sxth	r2, r3
 2322 00f2 AA42     		cmp	r2, r5
 2323 00f4 04F16C04 		add	r4, r4, #108
 2324 00f8 CADC     		bgt	.L163
 2325              		.loc 1 280 0
 2326 00fa 1BB2     		sxth	r3, r3
 2327 00fc 002B     		cmp	r3, #0
 2328 00fe A0DC     		bgt	.L171
 2329              	.LVL226:
 2330              	.L162:
 2331              		.loc 1 295 0
 2332 0100 0123     		movs	r3, #1
 2333              		.loc 1 297 0
 2334 0102 0A20     		movs	r0, #10
 2335              		.loc 1 295 0
 2336 0104 3383     		strh	r3, [r6, #24]	@ movhi
 2337              		.loc 1 297 0
 2338 0106 FFF7FEFF 		bl	chThdSleep
 2339              	.LVL227:
 2340 010a BB69     		ldr	r3, [r7, #24]
 2341 010c ABE7     		b	.L172
 2342              	.L174:
 2343 010e 00BF     		.align	2
 2344              	.L173:
 2345 0110 1C000000 		.word	.LANCHOR0+28
 2346 0114 22000000 		.word	.LANCHOR0+34
 2347              		.cfi_endproc
 2348              	.LFE71:
 2349              		.size	vexImeTask, .-vexImeTask
 2350 0118 AFF30080 		.section	.text.vexIMEDebug,"ax",%progbits
 2350      AFF30080 
 2351              		.align	2
 2352              		.p2align 4,,15
 2353              		.global	vexIMEDebug
 2354              		.thumb
 2355              		.thumb_func
 2356              		.type	vexIMEDebug, %function
 2357              	vexIMEDebug:
 2358              	.LFB90:
 2359              		.loc 1 980 0
 2360              		.cfi_startproc
 2361              		@ args = 0, pretend = 0, frame = 0
 2362              		@ frame_needed = 0, uses_anonymous_args = 0
 2363              	.LVL228:
 2364 0000 F0B5     		push	{r4, r5, r6, r7, lr}
 2365              		.cfi_def_cfa_offset 20
ARM GAS  /tmp/cc4PNelj.s 			page 43


 2366              		.cfi_offset 4, -20
 2367              		.cfi_offset 5, -16
 2368              		.cfi_offset 6, -12
 2369              		.cfi_offset 7, -8
 2370              		.cfi_offset 14, -4
 2371              		.loc 1 986 0
 2372 0002 40F20007 		movw	r7, #:lower16:.LANCHOR0
 2373 0006 C0F20007 		movt	r7, #:upper16:.LANCHOR0
 2374 000a 40F20001 		movw	r1, #:lower16:.LC10
 2375              	.LVL229:
 2376              		.loc 1 980 0
 2377 000e 85B0     		sub	sp, sp, #20
 2378              		.cfi_def_cfa_offset 40
 2379              		.loc 1 986 0
 2380 0010 B7F90820 		ldrsh	r2, [r7, #8]
 2381              	.LVL230:
 2382 0014 C0F20001 		movt	r1, #:upper16:.LC10
 2383              		.loc 1 980 0
 2384 0018 0546     		mov	r5, r0
 2385              		.loc 1 986 0
 2386 001a FFF7FEFF 		bl	vex_chprintf
 2387              	.LVL231:
 2388              		.loc 1 987 0
 2389 001e B88A     		ldrh	r0, [r7, #20]
 2390 0020 3E8A     		ldrh	r6, [r7, #16]
 2391 0022 7C8A     		ldrh	r4, [r7, #18]
 2392 0024 40F20001 		movw	r1, #:lower16:.LC11
 2393 0028 FB89     		ldrh	r3, [r7, #14]
 2394 002a BA89     		ldrh	r2, [r7, #12]
 2395 002c C0F20001 		movt	r1, #:upper16:.LC11
 2396 0030 0290     		str	r0, [sp, #8]
 2397 0032 0096     		str	r6, [sp]
 2398 0034 0194     		str	r4, [sp, #4]
 2399 0036 2846     		mov	r0, r5
 2400 0038 FFF7FEFF 		bl	vex_chprintf
 2401              	.LVL232:
 2402              		.loc 1 990 0
 2403 003c B7F90830 		ldrsh	r3, [r7, #8]
 2404 0040 002B     		cmp	r3, #0
 2405 0042 5EDD     		ble	.L175
 2406 0044 07F14204 		add	r4, r7, #66
 2407 0048 0026     		movs	r6, #0
 2408              	.LVL233:
 2409              	.L185:
 2410              		.loc 1 992 0
 2411 004a 0136     		adds	r6, r6, #1
 2412              	.LVL234:
 2413 004c 40F20001 		movw	r1, #:lower16:.LC12
 2414 0050 3246     		mov	r2, r6
 2415 0052 C0F20001 		movt	r1, #:upper16:.LC12
 2416 0056 2846     		mov	r0, r5
 2417 0058 FFF7FEFF 		bl	vex_chprintf
 2418              	.LVL235:
 2419              		.loc 1 994 0
 2420 005c 14F8253C 		ldrb	r3, [r4, #-37]	@ zero_extendqisi2
 2421 0060 032B     		cmp	r3, #3
 2422 0062 68D8     		bhi	.L177
ARM GAS  /tmp/cc4PNelj.s 			page 44


 2423 0064 DFE803F0 		tbb	[pc, r3]
 2424              	.L179:
 2425 0068 5F       		.byte	(.L178-.L179)/2
 2426 0069 57       		.byte	(.L180-.L179)/2
 2427 006a 4F       		.byte	(.L181-.L179)/2
 2428 006b 02       		.byte	(.L182-.L179)/2
 2429              		.align	1
 2430              	.L182:
 2431              		.loc 1 1006 0
 2432 006c 40F20001 		movw	r1, #:lower16:.LC16
 2433 0070 C0F20001 		movt	r1, #:upper16:.LC16
 2434 0074 2846     		mov	r0, r5
 2435 0076 FFF7FEFF 		bl	vex_chprintf
 2436              	.LVL236:
 2437              	.L183:
 2438              		.loc 1 1013 0
 2439 007a 34F8223C 		ldrh	r3, [r4, #-34]
 2440 007e 40F20001 		movw	r1, #:lower16:.LC18
 2441 0082 0133     		adds	r3, r3, #1
 2442 0084 2246     		mov	r2, r4
 2443 0086 C0F20001 		movt	r1, #:upper16:.LC18
 2444 008a 2846     		mov	r0, r5
 2445 008c FFF7FEFF 		bl	vex_chprintf
 2446              	.LVL237:
 2447              		.loc 1 1014 0
 2448 0090 40F20001 		movw	r1, #:lower16:.LC19
 2449 0094 D4F83E20 		ldr	r2, [r4, #62]
 2450 0098 C0F20001 		movt	r1, #:upper16:.LC19
 2451 009c 2846     		mov	r0, r5
 2452 009e FFF7FEFF 		bl	vex_chprintf
 2453              	.LVL238:
 2454              		.loc 1 1015 0
 2455 00a2 40F20001 		movw	r1, #:lower16:.LC20
 2456 00a6 D4F84220 		ldr	r2, [r4, #66]
 2457 00aa C0F20001 		movt	r1, #:upper16:.LC20
 2458 00ae 2846     		mov	r0, r5
 2459 00b0 FFF7FEFF 		bl	vex_chprintf
 2460              	.LVL239:
 2461              		.loc 1 1016 0
 2462 00b4 40F20001 		movw	r1, #:lower16:.LC21
 2463 00b8 D4F82220 		ldr	r2, [r4, #34]
 2464 00bc C0F20001 		movt	r1, #:upper16:.LC21
 2465 00c0 2846     		mov	r0, r5
 2466 00c2 FFF7FEFF 		bl	vex_chprintf
 2467              	.LVL240:
 2468              		.loc 1 1017 0
 2469 00c6 40F20001 		movw	r1, #:lower16:.LC22
 2470 00ca D4F82A20 		ldr	r2, [r4, #42]
 2471 00ce C0F20001 		movt	r1, #:upper16:.LC22
 2472 00d2 2846     		mov	r0, r5
 2473 00d4 FFF7FEFF 		bl	vex_chprintf
 2474              	.LVL241:
 2475              		.loc 1 1018 0
 2476 00d8 40F20001 		movw	r1, #:lower16:.LC23
 2477 00dc D4F83220 		ldr	r2, [r4, #50]
 2478 00e0 C0F20001 		movt	r1, #:upper16:.LC23
 2479 00e4 2846     		mov	r0, r5
ARM GAS  /tmp/cc4PNelj.s 			page 45


 2480 00e6 FFF7FEFF 		bl	vex_chprintf
 2481              	.LVL242:
 2482              		.loc 1 1019 0
 2483 00ea 40F20001 		movw	r1, #:lower16:.LC3
 2484 00ee 2846     		mov	r0, r5
 2485 00f0 C0F20001 		movt	r1, #:upper16:.LC3
 2486 00f4 FFF7FEFF 		bl	vex_chprintf
 2487              	.LVL243:
 2488              		.loc 1 990 0
 2489 00f8 B7F90830 		ldrsh	r3, [r7, #8]
 2490 00fc 6C34     		adds	r4, r4, #108
 2491 00fe B342     		cmp	r3, r6
 2492 0100 A3DC     		bgt	.L185
 2493              	.LVL244:
 2494              	.L175:
 2495              		.loc 1 1021 0
 2496 0102 05B0     		add	sp, sp, #20
 2497              		@ sp needed
 2498 0104 F0BD     		pop	{r4, r5, r6, r7, pc}
 2499              	.LVL245:
 2500              	.L181:
 2501              		.loc 1 1003 0
 2502 0106 40F20001 		movw	r1, #:lower16:.LC15
 2503 010a C0F20001 		movt	r1, #:upper16:.LC15
 2504 010e 2846     		mov	r0, r5
 2505 0110 FFF7FEFF 		bl	vex_chprintf
 2506              	.LVL246:
 2507              		.loc 1 1004 0
 2508 0114 B1E7     		b	.L183
 2509              	.L180:
 2510              		.loc 1 1000 0
 2511 0116 40F20001 		movw	r1, #:lower16:.LC14
 2512 011a C0F20001 		movt	r1, #:upper16:.LC14
 2513 011e 2846     		mov	r0, r5
 2514 0120 FFF7FEFF 		bl	vex_chprintf
 2515              	.LVL247:
 2516              		.loc 1 1001 0
 2517 0124 A9E7     		b	.L183
 2518              	.L178:
 2519              		.loc 1 997 0
 2520 0126 40F20001 		movw	r1, #:lower16:.LC13
 2521 012a C0F20001 		movt	r1, #:upper16:.LC13
 2522 012e 2846     		mov	r0, r5
 2523 0130 FFF7FEFF 		bl	vex_chprintf
 2524              	.LVL248:
 2525              		.loc 1 998 0
 2526 0134 A1E7     		b	.L183
 2527              	.L177:
 2528              		.loc 1 1009 0
 2529 0136 40F20001 		movw	r1, #:lower16:.LC17
 2530 013a C0F20001 		movt	r1, #:upper16:.LC17
 2531 013e 2846     		mov	r0, r5
 2532 0140 FFF7FEFF 		bl	vex_chprintf
 2533              	.LVL249:
 2534              		.loc 1 1010 0
 2535 0144 99E7     		b	.L183
 2536              		.cfi_endproc
ARM GAS  /tmp/cc4PNelj.s 			page 46


 2537              	.LFE90:
 2538              		.size	vexIMEDebug, .-vexIMEDebug
 2539 0146 00BFAFF3 		.section	.bss.errors,"aw",%nobits
 2539      0080AFF3 
 2539      0080
 2540              		.align	2
 2541              		.set	.LANCHOR3,. + 0
 2542              		.type	errors, %object
 2543              		.size	errors, 4
 2544              	errors:
 2545 0000 00000000 		.space	4
 2546              		.section	.bss.waVexImeTask,"aw",%nobits
 2547              		.align	3
 2548              		.set	.LANCHOR2,. + 0
 2549              		.type	waVexImeTask, %object
 2550              		.size	waVexImeTask, 640
 2551              	waVexImeTask:
 2552 0000 00000000 		.space	640
 2552      00000000 
 2552      00000000 
 2552      00000000 
 2552      00000000 
 2553              		.section	.rodata.str1.4,"aMS",%progbits,1
 2554              		.align	2
 2555              	.LC0:
 2556 0000 25303258 		.ascii	"%02X \000"
 2556      2000
 2557 0006 0000     		.space	2
 2558              	.LC1:
 2559 0008 256300   		.ascii	"%c\000"
 2560 000b 00       		.space	1
 2561              	.LC2:
 2562 000c 2E00     		.ascii	".\000"
 2563 000e 0000     		.space	2
 2564              	.LC3:
 2565 0010 0D0A00   		.ascii	"\015\012\000"
 2566 0013 00       		.space	1
 2567              	.LC4:
 2568 0014 3A2000   		.ascii	": \000"
 2569 0017 00       		.space	1
 2570              	.LC5:
 2571 0018 696D6500 		.ascii	"ime\000"
 2572              	.LC6:
 2573 001c 456E636F 		.ascii	"Encoder:%d\015\012\000"
 2573      6465723A 
 2573      25640D0A 
 2573      00
 2574 0029 000000   		.space	3
 2575              	.LC7:
 2576 002c 56657273 		.ascii	"Version:   \000"
 2576      696F6E3A 
 2576      20202000 
 2577              	.LC8:
 2578 0038 56656E64 		.ascii	"Vendor:    \000"
 2578      6F723A20 
 2578      20202000 
 2579              	.LC9:
ARM GAS  /tmp/cc4PNelj.s 			page 47


 2580 0044 44657669 		.ascii	"Device ID: \000"
 2580      63652049 
 2580      443A2000 
 2581              	.LC10:
 2582 0050 25642049 		.ascii	"%d IME's found\015\012\000"
 2582      4D452773 
 2582      20666F75 
 2582      6E640D0A 
 2582      00
 2583 0061 000000   		.space	3
 2584              	.LC11:
 2585 0064 4572726F 		.ascii	"Errors Lock(%d) Ack(%d) Bus(%d) Arb(%d) Tim(%d)\015"
 2585      7273204C 
 2585      6F636B28 
 2585      25642920 
 2585      41636B28 
 2586 0094 0A00     		.ascii	"\012\000"
 2587 0096 0000     		.space	2
 2588              	.LC12:
 2589 0098 494D455F 		.ascii	"IME_%d \000"
 2589      25642000 
 2590              	.LC13:
 2591 00a0 32363920 		.ascii	"269  \000"
 2591      2000
 2592 00a6 0000     		.space	2
 2593              	.LC14:
 2594 00a8 33393354 		.ascii	"393T \000"
 2594      2000
 2595 00ae 0000     		.space	2
 2596              	.LC15:
 2597 00b0 33393353 		.ascii	"393S \000"
 2597      2000
 2598 00b6 0000     		.space	2
 2599              	.LC16:
 2600 00b8 33393352 		.ascii	"393R \000"
 2600      2000
 2601 00be 0000     		.space	2
 2602              	.LC17:
 2603 00c0 2D2D2D2D 		.ascii	"---- \000"
 2603      2000
 2604 00c6 0000     		.space	2
 2605              	.LC18:
 2606 00c8 28252D38 		.ascii	"(%-8s) M_%-2d \000"
 2606      7329204D 
 2606      5F252D32 
 2606      642000
 2607 00d7 00       		.space	1
 2608              	.LC19:
 2609 00d8 2538642F 		.ascii	"%8d/\000"
 2609      00
 2610 00dd 000000   		.space	3
 2611              	.LC20:
 2612 00e0 252D3564 		.ascii	"%-5d \000"
 2612      2000
 2613 00e6 0000     		.space	2
 2614              	.LC21:
 2615 00e8 636F756E 		.ascii	"count %6d \000"
ARM GAS  /tmp/cc4PNelj.s 			page 48


 2615      74202536 
 2615      642000
 2616 00f3 00       		.space	1
 2617              	.LC22:
 2618 00f4 76656C20 		.ascii	"vel   %5d \000"
 2618      20202535 
 2618      642000
 2619 00ff 00       		.space	1
 2620              	.LC23:
 2621 0100 72706D20 		.ascii	"rpm   %3d \000"
 2621      20202533 
 2621      642000
 2622 010b 00       		.section	.rodata.imeI2cConfig,"a",%progbits
 2623              		.align	2
 2624              		.set	.LANCHOR1,. + 0
 2625              		.type	imeI2cConfig, %object
 2626              		.size	imeI2cConfig, 12
 2627              	imeI2cConfig:
 2628 0000 01       		.byte	1
 2629 0001 000000   		.space	3
 2630 0004 A0860100 		.word	100000
 2631 0008 02       		.byte	2
 2632 0009 000000   		.space	3
 2633              		.section	.bss.vexImes,"aw",%nobits
 2634              		.align	2
 2635              		.set	.LANCHOR0,. + 0
 2636              		.type	vexImes, %object
 2637              		.size	vexImes, 892
 2638              	vexImes:
 2639 0000 00000000 		.space	892
 2639      00000000 
 2639      00000000 
 2639      00000000 
 2639      00000000 
 2640              		.text
 2641              	.Letext0:
 2642              		.file 2 "/usr/lib/gcc/arm-none-eabi/4.8.2/include/stddef.h"
 2643              		.file 3 "/usr/include/newlib/machine/_default_types.h"
 2644              		.file 4 "/usr/include/newlib/stdint.h"
 2645              		.file 5 "../../../../ChibiOS_2.6.2/os/ports/GCC/ARMCMx/chtypes.h"
 2646              		.file 6 "../../../../ChibiOS_2.6.2/os/kernel/include/chlists.h"
 2647              		.file 7 "../../../../ChibiOS_2.6.2/os/kernel/include/chthreads.h"
 2648              		.file 8 "../../../../ChibiOS_2.6.2/os/ports/GCC/ARMCMx/chcore_v7m.h"
 2649              		.file 9 "../../../../ChibiOS_2.6.2/os/kernel/include/chschd.h"
 2650              		.file 10 "../../../../ChibiOS_2.6.2/os/kernel/include/chmtx.h"
 2651              		.file 11 "../../../../ChibiOS_2.6.2/os/kernel/include/chmemcore.h"
 2652              		.file 12 "../../../../ChibiOS_2.6.2/os/kernel/include/chheap.h"
 2653              		.file 13 "../../../../ChibiOS_2.6.2/os/kernel/include/chstreams.h"
 2654              		.file 14 "../../../../ChibiOS_2.6.2/os/hal/platforms/STM32F1xx/stm32f10x.h"
 2655              		.file 15 "../../../../ChibiOS_2.6.2/os/hal/platforms/STM32F1xx/stm32_dma.h"
 2656              		.file 16 "../../../../ChibiOS_2.6.2/os/hal/include/i2c.h"
 2657              		.file 17 "../../../../ChibiOS_2.6.2/os/hal/platforms/STM32/I2Cv1/i2c_lld.h"
 2658              		.file 18 "../../fw/vexcompat.h"
 2659              		.file 19 "../../fw/vexdigital.h"
 2660              		.file 20 "../../fw/vexmotor.h"
 2661              		.file 21 "../../fw/vexime.h"
 2662              		.file 22 "../../../../ChibiOS_2.6.2/os/ports/common/ARMCMx/CMSIS/include/core_cm3.h"
ARM GAS  /tmp/cc4PNelj.s 			page 49


 2663              		.file 23 "../../fw/vexprintf.h"