ARM GAS  /tmp/cc4PNelj.s 			page 1


   1              		.syntax unified
   2              		.cpu cortex-m3
   3              		.fpu softvfp
   4              		.eabi_attribute 20, 1
   5              		.eabi_attribute 21, 1
   6              		.eabi_attribute 23, 3
   7              		.eabi_attribute 24, 1
   8              		.eabi_attribute 25, 1
   9              		.eabi_attribute 26, 1
  10              		.eabi_attribute 30, 2
  11              		.eabi_attribute 34, 1
  12              		.eabi_attribute 18, 4
  13              		.thumb
  14              		.file	"vexime.c"
  15              		.text
  16              	.Ltext0:
  17              		.cfi_sections	.debug_frame
  18              		.section	.text.vexImeGetCount,"ax",%progbits
  19              		.align	2
  20              		.p2align 4,,15
  21              		.global	vexImeGetCount
  22              		.thumb
  23              		.thumb_func
  24              		.type	vexImeGetCount, %function
  25              	vexImeGetCount:
  26              	.LFB63:
  27              		.file 1 "../../fw/vexime.c"
  28              		.loc 1 85 0
  29              		.cfi_startproc
  30              		@ args = 0, pretend = 0, frame = 0
  31              		@ frame_needed = 0, uses_anonymous_args = 0
  32              		@ link register save eliminated.
  33              	.LVL0:
  34              		.loc 1 86 0
  35 0000 C3B2     		uxtb	r3, r0
  36 0002 072B     		cmp	r3, #7
  37 0004 0CD8     		bhi	.L3
  38              		.loc 1 89 0
  39 0006 40F20003 		movw	r3, #:lower16:.LANCHOR0
  40 000a C0F20003 		movt	r3, #:upper16:.LANCHOR0
  41 000e 6C22     		movs	r2, #108
  42 0010 02FB0033 		mla	r3, r2, r0, r3
  43 0014 D88B     		ldrh	r0, [r3, #30]
  44              	.LVL1:
  45 0016 20B1     		cbz	r0, .L2
  46              		.loc 1 90 0
  47 0018 586E     		ldr	r0, [r3, #100]
  48 001a 9B6E     		ldr	r3, [r3, #104]
  49 001c C01A     		subs	r0, r0, r3
  50 001e 7047     		bx	lr
  51              	.LVL2:
  52              	.L3:
  53              		.loc 1 87 0
  54 0020 0020     		movs	r0, #0
  55              	.LVL3:
  56              	.L2:
  57              		.loc 1 93 0
ARM GAS  /tmp/cc4PNelj.s 			page 2


  58 0022 7047     		bx	lr
  59              		.cfi_endproc
  60              	.LFE63:
  61              		.size	vexImeGetCount, .-vexImeGetCount
  62 0024 AFF30080 		.section	.text.vexImeSetCount,"ax",%progbits
  62      AFF30080 
  62      AFF30080 
  63              		.align	2
  64              		.p2align 4,,15
  65              		.global	vexImeSetCount
  66              		.thumb
  67              		.thumb_func
  68              		.type	vexImeSetCount, %function
  69              	vexImeSetCount:
  70              	.LFB64:
  71              		.loc 1 104 0
  72              		.cfi_startproc
  73              		@ args = 0, pretend = 0, frame = 0
  74              		@ frame_needed = 0, uses_anonymous_args = 0
  75              		@ link register save eliminated.
  76              	.LVL4:
  77              		.loc 1 105 0
  78 0000 C3B2     		uxtb	r3, r0
  79 0002 072B     		cmp	r3, #7
  80 0004 0BD8     		bhi	.L6
  81              		.loc 1 108 0
  82 0006 40F20003 		movw	r3, #:lower16:.LANCHOR0
  83 000a C0F20003 		movt	r3, #:upper16:.LANCHOR0
  84 000e 6C22     		movs	r2, #108
  85 0010 02FB0030 		mla	r0, r2, r0, r3
  86              	.LVL5:
  87 0014 C38B     		ldrh	r3, [r0, #30]
  88 0016 13B1     		cbz	r3, .L6
  89              		.loc 1 109 0
  90 0018 436E     		ldr	r3, [r0, #100]
  91 001a 591A     		subs	r1, r3, r1
  92              	.LVL6:
  93 001c 8166     		str	r1, [r0, #104]
  94              	.L6:
  95 001e 7047     		bx	lr
  96              		.cfi_endproc
  97              	.LFE64:
  98              		.size	vexImeSetCount, .-vexImeSetCount
  99              		.section	.text.vexImeGetId,"ax",%progbits
 100              		.align	2
 101              		.p2align 4,,15
 102              		.global	vexImeGetId
 103              		.thumb
 104              		.thumb_func
 105              		.type	vexImeGetId, %function
 106              	vexImeGetId:
 107              	.LFB65:
 108              		.loc 1 123 0
 109              		.cfi_startproc
 110              		@ args = 0, pretend = 0, frame = 0
 111              		@ frame_needed = 0, uses_anonymous_args = 0
 112              		@ link register save eliminated.
ARM GAS  /tmp/cc4PNelj.s 			page 3


 113              	.LVL7:
 114              		.loc 1 124 0
 115 0000 C3B2     		uxtb	r3, r0
 116 0002 072B     		cmp	r3, #7
 117              		.loc 1 128 0
 118 0004 9FBF     		itttt	ls
 119 0006 40F20003 		movwls	r3, #:lower16:.LANCHOR0
 120 000a C0F20003 		movtls	r3, #:upper16:.LANCHOR0
 121 000e 6C22     		movls	r2, #108
 122 0010 02FB0033 		mlals	r3, r2, r0, r3
 123 0014 94BF     		ite	ls
 124 0016 187F     		ldrbls	r0, [r3, #28]	@ zero_extendqisi2
 125              	.LVL8:
 126              		.loc 1 125 0
 127 0018 4FF6FF70 		movwhi	r0, #65535
 128              		.loc 1 129 0
 129 001c 00B2     		sxth	r0, r0
 130 001e 7047     		bx	lr
 131              		.cfi_endproc
 132              	.LFE65:
 133              		.size	vexImeGetId, .-vexImeGetId
 134              		.section	.text.vexImeGetPtr,"ax",%progbits
 135              		.align	2
 136              		.p2align 4,,15
 137              		.global	vexImeGetPtr
 138              		.thumb
 139              		.thumb_func
 140              		.type	vexImeGetPtr, %function
 141              	vexImeGetPtr:
 142              	.LFB66:
 143              		.loc 1 139 0
 144              		.cfi_startproc
 145              		@ args = 0, pretend = 0, frame = 0
 146              		@ frame_needed = 0, uses_anonymous_args = 0
 147              		@ link register save eliminated.
 148              	.LVL9:
 149              		.loc 1 140 0
 150 0000 0728     		cmp	r0, #7
 151              		.loc 1 144 0
 152 0002 9FBF     		itttt	ls
 153 0004 40F20003 		movwls	r3, #:lower16:.LANCHOR0
 154 0008 C0F20003 		movtls	r3, #:upper16:.LANCHOR0
 155 000c 6C22     		movls	r2, #108
 156 000e 02FB0030 		mlals	r0, r2, r0, r3
 157              	.LVL10:
 158 0012 94BF     		ite	ls
 159 0014 1C30     		addls	r0, r0, #28
 160              		.loc 1 141 0
 161 0016 0020     		movhi	r0, #0
 162              		.loc 1 145 0
 163 0018 7047     		bx	lr
 164              		.cfi_endproc
 165              	.LFE66:
 166              		.size	vexImeGetPtr, .-vexImeGetPtr
 167 001a 00BFAFF3 		.section	.text.vexImeGetChannelMax,"ax",%progbits
 167      0080
 168              		.align	2
ARM GAS  /tmp/cc4PNelj.s 			page 4


 169              		.p2align 4,,15
 170              		.global	vexImeGetChannelMax
 171              		.thumb
 172              		.thumb_func
 173              		.type	vexImeGetChannelMax, %function
 174              	vexImeGetChannelMax:
 175              	.LFB67:
 176              		.loc 1 154 0
 177              		.cfi_startproc
 178              		@ args = 0, pretend = 0, frame = 0
 179              		@ frame_needed = 0, uses_anonymous_args = 0
 180              		@ link register save eliminated.
 181              		.loc 1 155 0
 182 0000 40F20003 		movw	r3, #:lower16:.LANCHOR0
 183 0004 C0F20003 		movt	r3, #:upper16:.LANCHOR0
 184              		.loc 1 156 0
 185 0008 B3F90800 		ldrsh	r0, [r3, #8]
 186 000c 7047     		bx	lr
 187              		.cfi_endproc
 188              	.LFE67:
 189              		.size	vexImeGetChannelMax, .-vexImeGetChannelMax
 190 000e 00BF     		.section	.text.vexImeSetType,"ax",%progbits
 191              		.align	2
 192              		.p2align 4,,15
 193              		.global	vexImeSetType
 194              		.thumb
 195              		.thumb_func
 196              		.type	vexImeSetType, %function
 197              	vexImeSetType:
 198              	.LFB68:
 199              		.loc 1 169 0
 200              		.cfi_startproc
 201              		@ args = 0, pretend = 0, frame = 0
 202              		@ frame_needed = 0, uses_anonymous_args = 0
 203              		@ link register save eliminated.
 204              	.LVL11:
 205              		.loc 1 170 0
 206 0000 0728     		cmp	r0, #7
 207 0002 0FD8     		bhi	.L18
 208              		.loc 1 174 0
 209 0004 0139     		subs	r1, r1, #1
 210              	.LVL12:
 211 0006 0329     		cmp	r1, #3
 212 0008 03D8     		bhi	.L20
 213 000a DFE801F0 		tbb	[pc, r1]
 214              	.L22:
 215 000e 16       		.byte	(.L21-.L22)/2
 216 000f 20       		.byte	(.L23-.L22)/2
 217 0010 2A       		.byte	(.L24-.L22)/2
 218 0011 0C       		.byte	(.L25-.L22)/2
 219              		.align	1
 220              	.L20:
 221              		.loc 1 189 0
 222 0012 40F20003 		movw	r3, #:lower16:.LANCHOR0
 223 0016 C0F20003 		movt	r3, #:upper16:.LANCHOR0
 224 001a 6C22     		movs	r2, #108
 225 001c 02FB0030 		mla	r0, r2, r0, r3
ARM GAS  /tmp/cc4PNelj.s 			page 5


 226              	.LVL13:
 227 0020 1023     		movs	r3, #16
 228 0022 4377     		strb	r3, [r0, #29]
 229              	.L18:
 230 0024 7047     		bx	lr
 231              	.LVL14:
 232              	.L25:
 233              		.loc 1 186 0
 234 0026 40F20003 		movw	r3, #:lower16:.LANCHOR0
 235 002a C0F20003 		movt	r3, #:upper16:.LANCHOR0
 236 002e 6C22     		movs	r2, #108
 237 0030 02FB0030 		mla	r0, r2, r0, r3
 238              	.LVL15:
 239 0034 0323     		movs	r3, #3
 240 0036 4377     		strb	r3, [r0, #29]
 241              		.loc 1 187 0
 242 0038 7047     		bx	lr
 243              	.LVL16:
 244              	.L21:
 245              		.loc 1 177 0
 246 003a 40F20003 		movw	r3, #:lower16:.LANCHOR0
 247 003e 6C22     		movs	r2, #108
 248 0040 C0F20003 		movt	r3, #:upper16:.LANCHOR0
 249 0044 02FB0033 		mla	r3, r2, r0, r3
 250 0048 0022     		movs	r2, #0
 251 004a 5A77     		strb	r2, [r3, #29]
 252              		.loc 1 178 0
 253 004c 7047     		bx	lr
 254              	.L23:
 255              		.loc 1 180 0
 256 004e 40F20003 		movw	r3, #:lower16:.LANCHOR0
 257 0052 C0F20003 		movt	r3, #:upper16:.LANCHOR0
 258 0056 6C22     		movs	r2, #108
 259 0058 02FB0030 		mla	r0, r2, r0, r3
 260              	.LVL17:
 261 005c 0123     		movs	r3, #1
 262 005e 4377     		strb	r3, [r0, #29]
 263              		.loc 1 181 0
 264 0060 7047     		bx	lr
 265              	.LVL18:
 266              	.L24:
 267              		.loc 1 183 0
 268 0062 40F20003 		movw	r3, #:lower16:.LANCHOR0
 269 0066 C0F20003 		movt	r3, #:upper16:.LANCHOR0
 270 006a 6C22     		movs	r2, #108
 271 006c 02FB0030 		mla	r0, r2, r0, r3
 272              	.LVL19:
 273 0070 0223     		movs	r3, #2
 274 0072 4377     		strb	r3, [r0, #29]
 275              		.loc 1 184 0
 276 0074 7047     		bx	lr
 277              		.cfi_endproc
 278              	.LFE68:
 279              		.size	vexImeSetType, .-vexImeSetType
 280 0076 00BFAFF3 		.section	.text.vexImeSetMotor,"ax",%progbits
 280      0080AFF3 
 280      0080
ARM GAS  /tmp/cc4PNelj.s 			page 6


 281              		.align	2
 282              		.p2align 4,,15
 283              		.global	vexImeSetMotor
 284              		.thumb
 285              		.thumb_func
 286              		.type	vexImeSetMotor, %function
 287              	vexImeSetMotor:
 288              	.LFB69:
 289              		.loc 1 202 0
 290              		.cfi_startproc
 291              		@ args = 0, pretend = 0, frame = 0
 292              		@ frame_needed = 0, uses_anonymous_args = 0
 293              		@ link register save eliminated.
 294              	.LVL20:
 295              		.loc 1 203 0
 296 0000 0728     		cmp	r0, #7
 297 0002 0AD8     		bhi	.L26
 298              		.loc 1 205 0
 299 0004 0929     		cmp	r1, #9
 300              		.loc 1 209 0
 301 0006 DFBF     		itttt	le
 302 0008 40F20003 		movwle	r3, #:lower16:.LANCHOR0
 303 000c C0F20003 		movtle	r3, #:upper16:.LANCHOR0
 304 0010 6C22     		movle	r2, #108
 305 0012 02FB0030 		mlale	r0, r2, r0, r3
 306              	.LVL21:
 307 0016 D8BF     		it	le
 308 0018 0184     		strhle	r1, [r0, #32]	@ movhi
 309              	.L26:
 310 001a 7047     		bx	lr
 311              		.cfi_endproc
 312              	.LFE69:
 313              		.size	vexImeSetMotor, .-vexImeSetMotor
 314 001c AFF30080 		.section	.text.vexImeMotorGetCount,"ax",%progbits
 315              		.align	2
 316              		.p2align 4,,15
 317              		.global	vexImeMotorGetCount
 318              		.thumb
 319              		.thumb_func
 320              		.type	vexImeMotorGetCount, %function
 321              	vexImeMotorGetCount:
 322              	.LFB70:
 323              		.loc 1 221 0
 324              		.cfi_startproc
 325              		@ args = 0, pretend = 0, frame = 0
 326              		@ frame_needed = 0, uses_anonymous_args = 0
 327              		@ link register save eliminated.
 328              	.LVL22:
 329              		.loc 1 224 0
 330 0000 0928     		cmp	r0, #9
 331              		.loc 1 221 0
 332 0002 10B4     		push	{r4}
 333              		.cfi_def_cfa_offset 4
 334              		.cfi_offset 4, -4
 335              		.loc 1 224 0
 336 0004 0CDC     		bgt	.L34
 337 0006 40F20004 		movw	r4, #:lower16:.LANCHOR0
ARM GAS  /tmp/cc4PNelj.s 			page 7


 338 000a C0F20004 		movt	r4, #:upper16:.LANCHOR0
 339 000e 2346     		mov	r3, r4
 340 0010 0022     		movs	r2, #0
 341              	.L31:
 342              	.LVL23:
 343              		.loc 1 230 0
 344 0012 198C     		ldrh	r1, [r3, #32]
 345 0014 6C33     		adds	r3, r3, #108
 346 0016 8142     		cmp	r1, r0
 347 0018 06D0     		beq	.L36
 348 001a 0132     		adds	r2, r2, #1
 349              	.LVL24:
 350              		.loc 1 228 0
 351 001c 082A     		cmp	r2, #8
 352 001e F8D1     		bne	.L31
 353              	.LVL25:
 354              	.L34:
 355              		.loc 1 225 0
 356 0020 0020     		movs	r0, #0
 357              	.LVL26:
 358              	.L29:
 359              		.loc 1 235 0
 360 0022 5DF8044B 		ldr	r4, [sp], #4
 361 0026 7047     		bx	lr
 362              	.LVL27:
 363              	.L36:
 364              	.LBB4:
 365              	.LBB5:
 366              		.loc 1 89 0
 367 0028 6C23     		movs	r3, #108
 368 002a 03FB0242 		mla	r2, r3, r2, r4
 369              	.LVL28:
 370 002e D08B     		ldrh	r0, [r2, #30]
 371              	.LVL29:
 372 0030 0028     		cmp	r0, #0
 373 0032 F6D0     		beq	.L29
 374              		.loc 1 90 0
 375 0034 506E     		ldr	r0, [r2, #100]
 376 0036 936E     		ldr	r3, [r2, #104]
 377 0038 C01A     		subs	r0, r0, r3
 378 003a F2E7     		b	.L29
 379              	.LBE5:
 380              	.LBE4:
 381              		.cfi_endproc
 382              	.LFE70:
 383              		.size	vexImeMotorGetCount, .-vexImeMotorGetCount
 384 003c AFF30080 		.section	.text.vexImeInit,"ax",%progbits
 385              		.align	2
 386              		.p2align 4,,15
 387              		.global	vexImeInit
 388              		.thumb
 389              		.thumb_func
 390              		.type	vexImeInit, %function
 391              	vexImeInit:
 392              	.LFB72:
 393              		.loc 1 313 0
 394              		.cfi_startproc
ARM GAS  /tmp/cc4PNelj.s 			page 8


 395              		@ args = 0, pretend = 0, frame = 0
 396              		@ frame_needed = 0, uses_anonymous_args = 0
 397              	.LVL30:
 398 0000 70B5     		push	{r4, r5, r6, lr}
 399              		.cfi_def_cfa_offset 16
 400              		.cfi_offset 4, -16
 401              		.cfi_offset 5, -12
 402              		.cfi_offset 6, -8
 403              		.cfi_offset 14, -4
 404 0002 0E46     		mov	r6, r1
 405              		.loc 1 318 0
 406 0004 40F20001 		movw	r1, #:lower16:.LANCHOR1
 407              	.LVL31:
 408              		.loc 1 313 0
 409 0008 82B0     		sub	sp, sp, #8
 410              		.cfi_def_cfa_offset 24
 411              		.loc 1 318 0
 412 000a C0F20001 		movt	r1, #:upper16:.LANCHOR1
 413              		.loc 1 321 0
 414 000e 40F20004 		movw	r4, #:lower16:.LANCHOR0
 415 0012 C0F20004 		movt	r4, #:upper16:.LANCHOR0
 416              		.loc 1 313 0
 417 0016 0546     		mov	r5, r0
 418              		.loc 1 318 0
 419 0018 FFF7FEFF 		bl	i2cStart
 420              	.LVL32:
 421              		.loc 1 326 0
 422 001c 0022     		movs	r2, #0
 423              		.loc 1 321 0
 424 001e 84E86000 		stmia	r4, {r5, r6}
 425 0022 2346     		mov	r3, r4
 426 0024 04F55875 		add	r5, r4, #864
 427              	.LVL33:
 428              		.loc 1 326 0
 429 0028 E281     		strh	r2, [r4, #14]	@ movhi
 430              		.loc 1 327 0
 431 002a 6282     		strh	r2, [r4, #18]	@ movhi
 432              		.loc 1 328 0
 433 002c 2282     		strh	r2, [r4, #16]	@ movhi
 434              		.loc 1 331 0
 435 002e 6283     		strh	r2, [r4, #26]	@ movhi
 436              	.LVL34:
 437              		.loc 1 339 0
 438 0030 4FF6FF70 		movw	r0, #65535
 439              	.LVL35:
 440              	.L39:
 441              		.loc 1 336 0 discriminator 2
 442 0034 1A77     		strb	r2, [r3, #28]
 443              		.loc 1 337 0 discriminator 2
 444 0036 C3F88020 		str	r2, [r3, #128]
 445              		.loc 1 338 0 discriminator 2
 446 003a C3F88420 		str	r2, [r3, #132]
 447              		.loc 1 339 0 discriminator 2
 448 003e 1884     		strh	r0, [r3, #32]	@ movhi
 449 0040 6C33     		adds	r3, r3, #108
 450              		.loc 1 334 0 discriminator 2
 451 0042 AB42     		cmp	r3, r5
ARM GAS  /tmp/cc4PNelj.s 			page 9


 452              		.loc 1 336 0 discriminator 2
 453 0044 4FF00001 		mov	r1, #0
 454              		.loc 1 334 0 discriminator 2
 455 0048 F4D1     		bne	.L39
 456              		.loc 1 343 0
 457 004a 40F20000 		movw	r0, #:lower16:.LANCHOR2
 458 004e 40F20003 		movw	r3, #:lower16:vexImeTask
 459 0052 0091     		str	r1, [sp]
 460 0054 C0F20003 		movt	r3, #:upper16:vexImeTask
 461 0058 4FF42071 		mov	r1, #640
 462 005c 4922     		movs	r2, #73
 463 005e C0F20000 		movt	r0, #:upper16:.LANCHOR2
 464 0062 FFF7FEFF 		bl	chThdCreateStatic
 465              	.LVL36:
 466              		.loc 1 344 0
 467 0066 02B0     		add	sp, sp, #8
 468              		@ sp needed
 469 0068 70BD     		pop	{r4, r5, r6, pc}
 470              		.cfi_endproc
 471              	.LFE72:
 472              		.size	vexImeInit, .-vexImeInit
 473 006a 00BFAFF3 		.section	.text.vexIMEDataInit,"ax",%progbits
 473      0080
 474              		.align	2
 475              		.p2align 4,,15
 476              		.global	vexIMEDataInit
 477              		.thumb
 478              		.thumb_func
 479              		.type	vexIMEDataInit, %function
 480              	vexIMEDataInit:
 481              	.LFB74:
 482              		.loc 1 405 0
 483              		.cfi_startproc
 484              		@ args = 0, pretend = 0, frame = 0
 485              		@ frame_needed = 0, uses_anonymous_args = 0
 486              	.LVL37:
 487 0000 70B5     		push	{r4, r5, r6, lr}
 488              		.cfi_def_cfa_offset 16
 489              		.cfi_offset 4, -16
 490              		.cfi_offset 5, -12
 491              		.cfi_offset 6, -8
 492              		.cfi_offset 14, -4
 493              		.loc 1 406 0
 494 0002 6023     		movs	r3, #96
 495              		.loc 1 407 0
 496 0004 0025     		movs	r5, #0
 497              		.loc 1 409 0
 498 0006 1026     		movs	r6, #16
 499              		.loc 1 405 0
 500 0008 0446     		mov	r4, r0
 501              		.loc 1 406 0
 502 000a 0370     		strb	r3, [r0]
 503              		.loc 1 407 0
 504 000c 4580     		strh	r5, [r0, #2]	@ movhi
 505              		.loc 1 409 0
 506 000e 2946     		mov	r1, r5
 507 0010 3246     		mov	r2, r6
ARM GAS  /tmp/cc4PNelj.s 			page 10


 508 0012 0630     		adds	r0, r0, #6
 509              	.LVL38:
 510 0014 FFF7FEFF 		bl	memset
 511              	.LVL39:
 512              		.loc 1 410 0
 513 0018 2946     		mov	r1, r5
 514 001a 3246     		mov	r2, r6
 515 001c 04F11600 		add	r0, r4, #22
 516 0020 FFF7FEFF 		bl	memset
 517              	.LVL40:
 518              		.loc 1 411 0
 519 0024 2946     		mov	r1, r5
 520 0026 3246     		mov	r2, r6
 521 0028 04F12600 		add	r0, r4, #38
 522 002c FFF7FEFF 		bl	memset
 523              	.LVL41:
 524              		.loc 1 412 0
 525 0030 3246     		mov	r2, r6
 526 0032 04F13600 		add	r0, r4, #54
 527 0036 2946     		mov	r1, r5
 528 0038 FFF7FEFF 		bl	memset
 529              	.LVL42:
 530              		.loc 1 416 0
 531 003c 4FF0FE43 		mov	r3, #2130706432
 532              		.loc 1 414 0
 533 0040 A564     		str	r5, [r4, #72]
 534              		.loc 1 415 0
 535 0042 E564     		str	r5, [r4, #76]
 536              		.loc 1 417 0
 537 0044 2565     		str	r5, [r4, #80]
 538              		.loc 1 416 0
 539 0046 E365     		str	r3, [r4, #92]
 540 0048 70BD     		pop	{r4, r5, r6, pc}
 541              		.cfi_endproc
 542              	.LFE74:
 543              		.size	vexIMEDataInit, .-vexIMEDataInit
 544 004a 00BFAFF3 		.section	.text.vexIMEResetAll,"ax",%progbits
 544      0080
 545              		.align	2
 546              		.p2align 4,,15
 547              		.global	vexIMEResetAll
 548              		.thumb
 549              		.thumb_func
 550              		.type	vexIMEResetAll, %function
 551              	vexIMEResetAll:
 552              	.LFB87:
 553              		.loc 1 871 0
 554              		.cfi_startproc
 555              		@ args = 0, pretend = 0, frame = 8
 556              		@ frame_needed = 0, uses_anonymous_args = 0
 557              	.LVL43:
 558 0000 30B5     		push	{r4, r5, lr}
 559              		.cfi_def_cfa_offset 12
 560              		.cfi_offset 4, -12
 561              		.cfi_offset 5, -8
 562              		.cfi_offset 14, -4
 563              		.loc 1 880 0
ARM GAS  /tmp/cc4PNelj.s 			page 11


 564 0002 40F20004 		movw	r4, #:lower16:.LANCHOR0
 565 0006 C0F20004 		movt	r4, #:upper16:.LANCHOR0
 566              		.loc 1 871 0
 567 000a 87B0     		sub	sp, sp, #28
 568              		.cfi_def_cfa_offset 40
 569              		.loc 1 880 0
 570 000c 2068     		ldr	r0, [r4]
 571              		.loc 1 876 0
 572 000e 4E22     		movs	r2, #78
 573              		.loc 1 877 0
 574 0010 CA23     		movs	r3, #202
 575              		.loc 1 878 0
 576 0012 0325     		movs	r5, #3
 577              		.loc 1 876 0
 578 0014 8DF81420 		strb	r2, [sp, #20]
 579              		.loc 1 877 0
 580 0018 8DF81530 		strb	r3, [sp, #21]
 581              		.loc 1 878 0
 582 001c 8DF81650 		strb	r5, [sp, #22]
 583              		.loc 1 880 0
 584 0020 FFF7FEFF 		bl	i2cAcquireBus
 585              	.LVL44:
 586              		.loc 1 881 0
 587 0024 0021     		movs	r1, #0
 588 0026 0422     		movs	r2, #4
 589 0028 2B46     		mov	r3, r5
 590 002a 0091     		str	r1, [sp]
 591 002c 0191     		str	r1, [sp, #4]
 592 002e 0292     		str	r2, [sp, #8]
 593 0030 2068     		ldr	r0, [r4]
 594 0032 05AA     		add	r2, sp, #20
 595 0034 FFF7FEFF 		bl	i2cMasterTransmitTimeout
 596              	.LVL45:
 597 0038 0546     		mov	r5, r0
 598              	.LVL46:
 599              		.loc 1 882 0
 600 003a 2068     		ldr	r0, [r4]
 601              	.LVL47:
 602 003c FFF7FEFF 		bl	i2cReleaseBus
 603              	.LVL48:
 604              		.loc 1 885 0
 605 0040 6420     		movs	r0, #100
 606 0042 FFF7FEFF 		bl	chThdSleep
 607              	.LVL49:
 608              		.loc 1 888 0
 609 0046 2846     		mov	r0, r5
 610 0048 07B0     		add	sp, sp, #28
 611              		@ sp needed
 612 004a 30BD     		pop	{r4, r5, pc}
 613              		.cfi_endproc
 614              	.LFE87:
 615              		.size	vexIMEResetAll, .-vexIMEResetAll
 616 004c AFF30080 		.section	.text.vexIMEHandleErrors,"ax",%progbits
 617              		.align	2
 618              		.p2align 4,,15
 619              		.global	vexIMEHandleErrors
 620              		.thumb
ARM GAS  /tmp/cc4PNelj.s 			page 12


 621              		.thumb_func
 622              		.type	vexIMEHandleErrors, %function
 623              	vexIMEHandleErrors:
 624              	.LFB88:
 625              		.loc 1 900 0
 626              		.cfi_startproc
 627              		@ args = 0, pretend = 0, frame = 0
 628              		@ frame_needed = 0, uses_anonymous_args = 0
 629              	.LVL50:
 630              		.loc 1 903 0
 631 0000 0130     		adds	r0, r0, #1
 632              	.LVL51:
 633              		.loc 1 900 0
 634 0002 38B5     		push	{r3, r4, r5, lr}
 635              		.cfi_def_cfa_offset 16
 636              		.cfi_offset 3, -16
 637              		.cfi_offset 4, -12
 638              		.cfi_offset 5, -8
 639              		.cfi_offset 14, -4
 640              		.loc 1 900 0
 641 0004 0C46     		mov	r4, r1
 642              		.loc 1 903 0
 643 0006 30D0     		beq	.L64
 644              	.LVL52:
 645              	.L44:
 646              		.loc 1 919 0
 647 0008 84B1     		cbz	r4, .L46
 648              		.loc 1 921 0
 649 000a 40F20003 		movw	r3, #:lower16:.LANCHOR0
 650 000e C0F20003 		movt	r3, #:upper16:.LANCHOR0
 651 0012 DA8A     		ldrh	r2, [r3, #22]
 652 0014 0132     		adds	r2, r2, #1
 653 0016 92B2     		uxth	r2, r2
 654              		.loc 1 923 0
 655 0018 052A     		cmp	r2, #5
 656              		.loc 1 921 0
 657 001a DA82     		strh	r2, [r3, #22]	@ movhi
 658              		.loc 1 926 0
 659 001c 04BF     		itt	eq
 660 001e 0122     		moveq	r2, #1
 661 0020 1A83     		strheq	r2, [r3, #24]	@ movhi
 662              		.loc 1 931 0
 663 0022 6007     		lsls	r0, r4, #29
 664              		.loc 1 932 0
 665 0024 42BF     		ittt	mi
 666 0026 DA89     		ldrhmi	r2, [r3, #14]
 667 0028 0132     		addmi	r2, r2, #1
 668 002a DA81     		strhmi	r2, [r3, #14]	@ movhi
 669              	.L46:
 670              		.loc 1 933 0
 671 002c A107     		lsls	r1, r4, #30
 672              		.loc 1 934 0
 673 002e 41BF     		itttt	mi
 674 0030 40F20003 		movwmi	r3, #:lower16:.LANCHOR0
 675 0034 C0F20003 		movtmi	r3, #:upper16:.LANCHOR0
 676 0038 5A8A     		ldrhmi	r2, [r3, #18]
 677 003a 0132     		addmi	r2, r2, #1
ARM GAS  /tmp/cc4PNelj.s 			page 13


 678 003c 48BF     		it	mi
 679 003e 5A82     		strhmi	r2, [r3, #18]	@ movhi
 680              		.loc 1 935 0
 681 0040 E207     		lsls	r2, r4, #31
 682              		.loc 1 936 0
 683 0042 41BF     		itttt	mi
 684 0044 40F20003 		movwmi	r3, #:lower16:.LANCHOR0
 685 0048 C0F20003 		movtmi	r3, #:upper16:.LANCHOR0
 686 004c 1A8A     		ldrhmi	r2, [r3, #16]
 687 004e 0132     		addmi	r2, r2, #1
 688 0050 48BF     		it	mi
 689 0052 1A82     		strhmi	r2, [r3, #16]	@ movhi
 690              		.loc 1 937 0
 691 0054 A306     		lsls	r3, r4, #26
 692              		.loc 1 938 0
 693 0056 41BF     		itttt	mi
 694 0058 40F20003 		movwmi	r3, #:lower16:.LANCHOR0
 695 005c C0F20003 		movtmi	r3, #:upper16:.LANCHOR0
 696 0060 9A8A     		ldrhmi	r2, [r3, #20]
 697 0062 0132     		addmi	r2, r2, #1
 698 0064 48BF     		it	mi
 699 0066 9A82     		strhmi	r2, [r3, #20]	@ movhi
 700 0068 38BD     		pop	{r3, r4, r5, pc}
 701              	.LVL53:
 702              	.L64:
 703              		.loc 1 906 0
 704 006a 40F20005 		movw	r5, #:lower16:.LANCHOR0
 705 006e C0F20005 		movt	r5, #:upper16:.LANCHOR0
 706 0072 AB89     		ldrh	r3, [r5, #12]
 707              		.loc 1 908 0
 708 0074 2868     		ldr	r0, [r5]
 709              		.loc 1 906 0
 710 0076 0133     		adds	r3, r3, #1
 711 0078 AB81     		strh	r3, [r5, #12]	@ movhi
 712              		.loc 1 908 0
 713 007a FFF7FEFF 		bl	i2cStop
 714              	.LVL54:
 715              		.loc 1 910 0
 716 007e 6420     		movs	r0, #100
 717 0080 FFF7FEFF 		bl	chThdSleep
 718              	.LVL55:
 719              		.loc 1 912 0
 720 0084 40F20001 		movw	r1, #:lower16:.LANCHOR1
 721 0088 2868     		ldr	r0, [r5]
 722 008a C0F20001 		movt	r1, #:upper16:.LANCHOR1
 723 008e FFF7FEFF 		bl	i2cStart
 724              	.LVL56:
 725              		.loc 1 914 0
 726 0092 0123     		movs	r3, #1
 727 0094 2B83     		strh	r3, [r5, #24]	@ movhi
 728 0096 B7E7     		b	.L44
 729              		.cfi_endproc
 730              	.LFE88:
 731              		.size	vexIMEHandleErrors, .-vexIMEHandleErrors
 732 0098 AFF30080 		.section	.text.vexIMEGetVersion,"ax",%progbits
 732      AFF30080 
 733              		.align	2
ARM GAS  /tmp/cc4PNelj.s 			page 14


 734              		.p2align 4,,15
 735              		.global	vexIMEGetVersion
 736              		.thumb
 737              		.thumb_func
 738              		.type	vexIMEGetVersion, %function
 739              	vexIMEGetVersion:
 740              	.LFB76:
 741              		.loc 1 529 0
 742              		.cfi_startproc
 743              		@ args = 0, pretend = 0, frame = 8
 744              		@ frame_needed = 0, uses_anonymous_args = 0
 745              	.LVL57:
 746 0000 2DE9F041 		push	{r4, r5, r6, r7, r8, lr}
 747              		.cfi_def_cfa_offset 24
 748              		.cfi_offset 4, -24
 749              		.cfi_offset 5, -20
 750              		.cfi_offset 6, -16
 751              		.cfi_offset 7, -12
 752              		.cfi_offset 8, -8
 753              		.cfi_offset 14, -4
 754              		.loc 1 533 0
 755 0004 40F20004 		movw	r4, #:lower16:.LANCHOR0
 756              		.loc 1 529 0
 757 0008 86B0     		sub	sp, sp, #24
 758              		.cfi_def_cfa_offset 48
 759              		.loc 1 533 0
 760 000a C0F20004 		movt	r4, #:upper16:.LANCHOR0
 761              		.loc 1 531 0
 762 000e 0023     		movs	r3, #0
 763 0010 06AD     		add	r5, sp, #24
 764              		.loc 1 529 0
 765 0012 0646     		mov	r6, r0
 766              		.loc 1 533 0
 767 0014 2068     		ldr	r0, [r4]
 768              	.LVL58:
 769              		.loc 1 531 0
 770 0016 05F8013D 		strb	r3, [r5, #-1]!
 771              		.loc 1 529 0
 772 001a 8846     		mov	r8, r1
 773              		.loc 1 534 0
 774 001c 0427     		movs	r7, #4
 775              		.loc 1 533 0
 776 001e FFF7FEFF 		bl	i2cAcquireBus
 777              	.LVL59:
 778              		.loc 1 534 0
 779 0022 0823     		movs	r3, #8
 780 0024 2A46     		mov	r2, r5
 781 0026 0193     		str	r3, [sp, #4]
 782 0028 2068     		ldr	r0, [r4]
 783 002a CDF80080 		str	r8, [sp]
 784 002e 7108     		lsrs	r1, r6, #1
 785 0030 0297     		str	r7, [sp, #8]
 786 0032 0123     		movs	r3, #1
 787 0034 FFF7FEFF 		bl	i2cMasterTransmitTimeout
 788              	.LVL60:
 789 0038 0546     		mov	r5, r0
 790              	.LVL61:
ARM GAS  /tmp/cc4PNelj.s 			page 15


 791              		.loc 1 535 0
 792 003a 2068     		ldr	r0, [r4]
 793              	.LVL62:
 794 003c FFF7FEFF 		bl	i2cReleaseBus
 795              	.LVL63:
 796              		.loc 1 537 0
 797 0040 65B1     		cbz	r5, .L66
 798              		.loc 1 538 0
 799 0042 2068     		ldr	r0, [r4]
 800 0044 FFF7FEFF 		bl	i2cGetErrors
 801              	.LVL64:
 802 0048 40F20003 		movw	r3, #:lower16:.LANCHOR3
 803 004c 0246     		mov	r2, r0
 804 004e C0F20003 		movt	r3, #:upper16:.LANCHOR3
 805              		.loc 1 539 0
 806 0052 0146     		mov	r1, r0
 807 0054 2846     		mov	r0, r5
 808              		.loc 1 538 0
 809 0056 1A60     		str	r2, [r3]
 810              		.loc 1 539 0
 811 0058 FFF7FEFF 		bl	vexIMEHandleErrors
 812              	.LVL65:
 813              	.L66:
 814              		.loc 1 543 0
 815 005c 2846     		mov	r0, r5
 816 005e 06B0     		add	sp, sp, #24
 817              		@ sp needed
 818 0060 BDE8F081 		pop	{r4, r5, r6, r7, r8, pc}
 819              		.cfi_endproc
 820              	.LFE76:
 821              		.size	vexIMEGetVersion, .-vexIMEGetVersion
 822 0064 AFF30080 		.section	.text.vexIMEGetVendor,"ax",%progbits
 822      AFF30080 
 822      AFF30080 
 823              		.align	2
 824              		.p2align 4,,15
 825              		.global	vexIMEGetVendor
 826              		.thumb
 827              		.thumb_func
 828              		.type	vexIMEGetVendor, %function
 829              	vexIMEGetVendor:
 830              	.LFB77:
 831              		.loc 1 558 0
 832              		.cfi_startproc
 833              		@ args = 0, pretend = 0, frame = 8
 834              		@ frame_needed = 0, uses_anonymous_args = 0
 835              	.LVL66:
 836 0000 2DE9F041 		push	{r4, r5, r6, r7, r8, lr}
 837              		.cfi_def_cfa_offset 24
 838              		.cfi_offset 4, -24
 839              		.cfi_offset 5, -20
 840              		.cfi_offset 6, -16
 841              		.cfi_offset 7, -12
 842              		.cfi_offset 8, -8
 843              		.cfi_offset 14, -4
 844              		.loc 1 562 0
 845 0004 40F20004 		movw	r4, #:lower16:.LANCHOR0
ARM GAS  /tmp/cc4PNelj.s 			page 16


 846              		.loc 1 558 0
 847 0008 86B0     		sub	sp, sp, #24
 848              		.cfi_def_cfa_offset 48
 849              		.loc 1 562 0
 850 000a C0F20004 		movt	r4, #:upper16:.LANCHOR0
 851              		.loc 1 560 0
 852 000e 06AD     		add	r5, sp, #24
 853              		.loc 1 558 0
 854 0010 0746     		mov	r7, r0
 855              		.loc 1 560 0
 856 0012 0826     		movs	r6, #8
 857              		.loc 1 562 0
 858 0014 2068     		ldr	r0, [r4]
 859              	.LVL67:
 860              		.loc 1 558 0
 861 0016 8846     		mov	r8, r1
 862              		.loc 1 560 0
 863 0018 05F8016D 		strb	r6, [r5, #-1]!
 864              		.loc 1 562 0
 865 001c FFF7FEFF 		bl	i2cAcquireBus
 866              	.LVL68:
 867              		.loc 1 563 0
 868 0020 0423     		movs	r3, #4
 869 0022 2A46     		mov	r2, r5
 870 0024 0293     		str	r3, [sp, #8]
 871 0026 2068     		ldr	r0, [r4]
 872 0028 CDF80080 		str	r8, [sp]
 873 002c 0196     		str	r6, [sp, #4]
 874 002e 7908     		lsrs	r1, r7, #1
 875 0030 0123     		movs	r3, #1
 876 0032 FFF7FEFF 		bl	i2cMasterTransmitTimeout
 877              	.LVL69:
 878 0036 0546     		mov	r5, r0
 879              	.LVL70:
 880              		.loc 1 564 0
 881 0038 2068     		ldr	r0, [r4]
 882              	.LVL71:
 883 003a FFF7FEFF 		bl	i2cReleaseBus
 884              	.LVL72:
 885              		.loc 1 566 0
 886 003e 65B1     		cbz	r5, .L71
 887              		.loc 1 567 0
 888 0040 2068     		ldr	r0, [r4]
 889 0042 FFF7FEFF 		bl	i2cGetErrors
 890              	.LVL73:
 891 0046 40F20003 		movw	r3, #:lower16:.LANCHOR3
 892 004a 0246     		mov	r2, r0
 893 004c C0F20003 		movt	r3, #:upper16:.LANCHOR3
 894              		.loc 1 568 0
 895 0050 0146     		mov	r1, r0
 896 0052 2846     		mov	r0, r5
 897              		.loc 1 567 0
 898 0054 1A60     		str	r2, [r3]
 899              		.loc 1 568 0
 900 0056 FFF7FEFF 		bl	vexIMEHandleErrors
 901              	.LVL74:
 902              	.L71:
ARM GAS  /tmp/cc4PNelj.s 			page 17


 903              		.loc 1 572 0
 904 005a 2846     		mov	r0, r5
 905 005c 06B0     		add	sp, sp, #24
 906              		@ sp needed
 907 005e BDE8F081 		pop	{r4, r5, r6, r7, r8, pc}
 908              		.cfi_endproc
 909              	.LFE77:
 910              		.size	vexIMEGetVendor, .-vexIMEGetVendor
 911 0062 00BFAFF3 		.section	.text.vexIMEGetDeviceId,"ax",%progbits
 911      0080AFF3 
 911      0080AFF3 
 911      0080
 912              		.align	2
 913              		.p2align 4,,15
 914              		.global	vexIMEGetDeviceId
 915              		.thumb
 916              		.thumb_func
 917              		.type	vexIMEGetDeviceId, %function
 918              	vexIMEGetDeviceId:
 919              	.LFB78:
 920              		.loc 1 587 0
 921              		.cfi_startproc
 922              		@ args = 0, pretend = 0, frame = 8
 923              		@ frame_needed = 0, uses_anonymous_args = 0
 924              	.LVL75:
 925 0000 2DE9F041 		push	{r4, r5, r6, r7, r8, lr}
 926              		.cfi_def_cfa_offset 24
 927              		.cfi_offset 4, -24
 928              		.cfi_offset 5, -20
 929              		.cfi_offset 6, -16
 930              		.cfi_offset 7, -12
 931              		.cfi_offset 8, -8
 932              		.cfi_offset 14, -4
 933              		.loc 1 591 0
 934 0004 40F20004 		movw	r4, #:lower16:.LANCHOR0
 935              		.loc 1 587 0
 936 0008 86B0     		sub	sp, sp, #24
 937              		.cfi_def_cfa_offset 48
 938              		.loc 1 591 0
 939 000a C0F20004 		movt	r4, #:upper16:.LANCHOR0
 940              		.loc 1 589 0
 941 000e 1023     		movs	r3, #16
 942 0010 06AD     		add	r5, sp, #24
 943              		.loc 1 587 0
 944 0012 0646     		mov	r6, r0
 945              		.loc 1 591 0
 946 0014 2068     		ldr	r0, [r4]
 947              	.LVL76:
 948              		.loc 1 589 0
 949 0016 05F8013D 		strb	r3, [r5, #-1]!
 950              		.loc 1 587 0
 951 001a 8846     		mov	r8, r1
 952              		.loc 1 592 0
 953 001c 0427     		movs	r7, #4
 954              		.loc 1 591 0
 955 001e FFF7FEFF 		bl	i2cAcquireBus
 956              	.LVL77:
ARM GAS  /tmp/cc4PNelj.s 			page 18


 957              		.loc 1 592 0
 958 0022 0823     		movs	r3, #8
 959 0024 2A46     		mov	r2, r5
 960 0026 0193     		str	r3, [sp, #4]
 961 0028 2068     		ldr	r0, [r4]
 962 002a CDF80080 		str	r8, [sp]
 963 002e 7108     		lsrs	r1, r6, #1
 964 0030 0297     		str	r7, [sp, #8]
 965 0032 0123     		movs	r3, #1
 966 0034 FFF7FEFF 		bl	i2cMasterTransmitTimeout
 967              	.LVL78:
 968 0038 0546     		mov	r5, r0
 969              	.LVL79:
 970              		.loc 1 593 0
 971 003a 2068     		ldr	r0, [r4]
 972              	.LVL80:
 973 003c FFF7FEFF 		bl	i2cReleaseBus
 974              	.LVL81:
 975              		.loc 1 595 0
 976 0040 65B1     		cbz	r5, .L76
 977              		.loc 1 596 0
 978 0042 2068     		ldr	r0, [r4]
 979 0044 FFF7FEFF 		bl	i2cGetErrors
 980              	.LVL82:
 981 0048 40F20003 		movw	r3, #:lower16:.LANCHOR3
 982 004c 0246     		mov	r2, r0
 983 004e C0F20003 		movt	r3, #:upper16:.LANCHOR3
 984              		.loc 1 597 0
 985 0052 0146     		mov	r1, r0
 986 0054 2846     		mov	r0, r5
 987              		.loc 1 596 0
 988 0056 1A60     		str	r2, [r3]
 989              		.loc 1 597 0
 990 0058 FFF7FEFF 		bl	vexIMEHandleErrors
 991              	.LVL83:
 992              	.L76:
 993              		.loc 1 601 0
 994 005c 2846     		mov	r0, r5
 995 005e 06B0     		add	sp, sp, #24
 996              		@ sp needed
 997 0060 BDE8F081 		pop	{r4, r5, r6, r7, r8, pc}
 998              		.cfi_endproc
 999              	.LFE78:
 1000              		.size	vexIMEGetDeviceId, .-vexIMEGetDeviceId
 1001 0064 AFF30080 		.section	.text.vexIMEGetStatus,"ax",%progbits
 1001      AFF30080 
 1001      AFF30080 
 1002              		.align	2
 1003              		.p2align 4,,15
 1004              		.global	vexIMEGetStatus
 1005              		.thumb
 1006              		.thumb_func
 1007              		.type	vexIMEGetStatus, %function
 1008              	vexIMEGetStatus:
 1009              	.LFB79:
 1010              		.loc 1 616 0
 1011              		.cfi_startproc
ARM GAS  /tmp/cc4PNelj.s 			page 19


 1012              		@ args = 0, pretend = 0, frame = 8
 1013              		@ frame_needed = 0, uses_anonymous_args = 0
 1014              	.LVL84:
 1015 0000 F0B5     		push	{r4, r5, r6, r7, lr}
 1016              		.cfi_def_cfa_offset 20
 1017              		.cfi_offset 4, -20
 1018              		.cfi_offset 5, -16
 1019              		.cfi_offset 6, -12
 1020              		.cfi_offset 7, -8
 1021              		.cfi_offset 14, -4
 1022              		.loc 1 620 0
 1023 0002 40F20004 		movw	r4, #:lower16:.LANCHOR0
 1024              		.loc 1 616 0
 1025 0006 87B0     		sub	sp, sp, #28
 1026              		.cfi_def_cfa_offset 48
 1027              		.loc 1 620 0
 1028 0008 C0F20004 		movt	r4, #:upper16:.LANCHOR0
 1029              		.loc 1 618 0
 1030 000c 2023     		movs	r3, #32
 1031 000e 06AD     		add	r5, sp, #24
 1032              		.loc 1 616 0
 1033 0010 0646     		mov	r6, r0
 1034              		.loc 1 620 0
 1035 0012 2068     		ldr	r0, [r4]
 1036              	.LVL85:
 1037              		.loc 1 618 0
 1038 0014 05F8013D 		strb	r3, [r5, #-1]!
 1039              		.loc 1 616 0
 1040 0018 0F46     		mov	r7, r1
 1041              		.loc 1 620 0
 1042 001a FFF7FEFF 		bl	i2cAcquireBus
 1043              	.LVL86:
 1044              		.loc 1 621 0
 1045 001e 0423     		movs	r3, #4
 1046 0020 2A46     		mov	r2, r5
 1047 0022 0193     		str	r3, [sp, #4]
 1048 0024 0293     		str	r3, [sp, #8]
 1049 0026 2068     		ldr	r0, [r4]
 1050 0028 0097     		str	r7, [sp]
 1051 002a 7108     		lsrs	r1, r6, #1
 1052 002c 0123     		movs	r3, #1
 1053 002e FFF7FEFF 		bl	i2cMasterTransmitTimeout
 1054              	.LVL87:
 1055 0032 0546     		mov	r5, r0
 1056              	.LVL88:
 1057              		.loc 1 622 0
 1058 0034 2068     		ldr	r0, [r4]
 1059              	.LVL89:
 1060 0036 FFF7FEFF 		bl	i2cReleaseBus
 1061              	.LVL90:
 1062              		.loc 1 624 0
 1063 003a 65B1     		cbz	r5, .L81
 1064              		.loc 1 625 0
 1065 003c 2068     		ldr	r0, [r4]
 1066 003e FFF7FEFF 		bl	i2cGetErrors
 1067              	.LVL91:
 1068 0042 40F20003 		movw	r3, #:lower16:.LANCHOR3
ARM GAS  /tmp/cc4PNelj.s 			page 20


 1069 0046 0246     		mov	r2, r0
 1070 0048 C0F20003 		movt	r3, #:upper16:.LANCHOR3
 1071              		.loc 1 626 0
 1072 004c 0146     		mov	r1, r0
 1073 004e 2846     		mov	r0, r5
 1074              		.loc 1 625 0
 1075 0050 1A60     		str	r2, [r3]
 1076              		.loc 1 626 0
 1077 0052 FFF7FEFF 		bl	vexIMEHandleErrors
 1078              	.LVL92:
 1079              	.L81:
 1080              		.loc 1 630 0
 1081 0056 2846     		mov	r0, r5
 1082 0058 07B0     		add	sp, sp, #28
 1083              		@ sp needed
 1084 005a F0BD     		pop	{r4, r5, r6, r7, pc}
 1085              		.cfi_endproc
 1086              	.LFE79:
 1087              		.size	vexIMEGetStatus, .-vexIMEGetStatus
 1088 005c AFF30080 		.section	.text.vexIMEGetData,"ax",%progbits
 1089              		.align	2
 1090              		.p2align 4,,15
 1091              		.global	vexIMEGetData
 1092              		.thumb
 1093              		.thumb_func
 1094              		.type	vexIMEGetData, %function
 1095              	vexIMEGetData:
 1096              	.LFB80:
 1097              		.loc 1 645 0
 1098              		.cfi_startproc
 1099              		@ args = 0, pretend = 0, frame = 8
 1100              		@ frame_needed = 0, uses_anonymous_args = 0
 1101              	.LVL93:
 1102 0000 2DE9F041 		push	{r4, r5, r6, r7, r8, lr}
 1103              		.cfi_def_cfa_offset 24
 1104              		.cfi_offset 4, -24
 1105              		.cfi_offset 5, -20
 1106              		.cfi_offset 6, -16
 1107              		.cfi_offset 7, -12
 1108              		.cfi_offset 8, -8
 1109              		.cfi_offset 14, -4
 1110              		.loc 1 649 0
 1111 0004 40F20004 		movw	r4, #:lower16:.LANCHOR0
 1112              		.loc 1 645 0
 1113 0008 86B0     		sub	sp, sp, #24
 1114              		.cfi_def_cfa_offset 48
 1115              		.loc 1 649 0
 1116 000a C0F20004 		movt	r4, #:upper16:.LANCHOR0
 1117              		.loc 1 647 0
 1118 000e 4023     		movs	r3, #64
 1119 0010 06AD     		add	r5, sp, #24
 1120              		.loc 1 645 0
 1121 0012 0646     		mov	r6, r0
 1122              		.loc 1 649 0
 1123 0014 2068     		ldr	r0, [r4]
 1124              	.LVL94:
 1125              		.loc 1 647 0
ARM GAS  /tmp/cc4PNelj.s 			page 21


 1126 0016 05F8013D 		strb	r3, [r5, #-1]!
 1127              		.loc 1 645 0
 1128 001a 8846     		mov	r8, r1
 1129              		.loc 1 650 0
 1130 001c 0427     		movs	r7, #4
 1131              		.loc 1 649 0
 1132 001e FFF7FEFF 		bl	i2cAcquireBus
 1133              	.LVL95:
 1134              		.loc 1 650 0
 1135 0022 0823     		movs	r3, #8
 1136 0024 2A46     		mov	r2, r5
 1137 0026 0193     		str	r3, [sp, #4]
 1138 0028 2068     		ldr	r0, [r4]
 1139 002a CDF80080 		str	r8, [sp]
 1140 002e 7108     		lsrs	r1, r6, #1
 1141 0030 0297     		str	r7, [sp, #8]
 1142 0032 0123     		movs	r3, #1
 1143 0034 FFF7FEFF 		bl	i2cMasterTransmitTimeout
 1144              	.LVL96:
 1145 0038 0546     		mov	r5, r0
 1146              	.LVL97:
 1147              		.loc 1 651 0
 1148 003a 2068     		ldr	r0, [r4]
 1149              	.LVL98:
 1150 003c FFF7FEFF 		bl	i2cReleaseBus
 1151              	.LVL99:
 1152              		.loc 1 653 0
 1153 0040 65B1     		cbz	r5, .L86
 1154              		.loc 1 654 0
 1155 0042 2068     		ldr	r0, [r4]
 1156 0044 FFF7FEFF 		bl	i2cGetErrors
 1157              	.LVL100:
 1158 0048 40F20003 		movw	r3, #:lower16:.LANCHOR3
 1159 004c 0246     		mov	r2, r0
 1160 004e C0F20003 		movt	r3, #:upper16:.LANCHOR3
 1161              		.loc 1 655 0
 1162 0052 0146     		mov	r1, r0
 1163 0054 2846     		mov	r0, r5
 1164              		.loc 1 654 0
 1165 0056 1A60     		str	r2, [r3]
 1166              		.loc 1 655 0
 1167 0058 FFF7FEFF 		bl	vexIMEHandleErrors
 1168              	.LVL101:
 1169              	.L86:
 1170              		.loc 1 659 0
 1171 005c 2846     		mov	r0, r5
 1172 005e 06B0     		add	sp, sp, #24
 1173              		@ sp needed
 1174 0060 BDE8F081 		pop	{r4, r5, r6, r7, r8, pc}
 1175              		.cfi_endproc
 1176              	.LFE80:
 1177              		.size	vexIMEGetData, .-vexIMEGetData
 1178 0064 AFF30080 		.section	.text.vexIMEUpdateCounts,"ax",%progbits
 1178      AFF30080 
 1178      AFF30080 
 1179              		.align	2
 1180              		.p2align 4,,15
ARM GAS  /tmp/cc4PNelj.s 			page 22


 1181              		.global	vexIMEUpdateCounts
 1182              		.thumb
 1183              		.thumb_func
 1184              		.type	vexIMEUpdateCounts, %function
 1185              	vexIMEUpdateCounts:
 1186              	.LFB73:
 1187              		.loc 1 359 0
 1188              		.cfi_startproc
 1189              		@ args = 0, pretend = 0, frame = 0
 1190              		@ frame_needed = 0, uses_anonymous_args = 0
 1191              	.LVL102:
 1192 0000 38B5     		push	{r3, r4, r5, lr}
 1193              		.cfi_def_cfa_offset 16
 1194              		.cfi_offset 3, -16
 1195              		.cfi_offset 4, -12
 1196              		.cfi_offset 5, -8
 1197              		.cfi_offset 14, -4
 1198              		.loc 1 362 0
 1199 0002 0446     		mov	r4, r0
 1200 0004 80B3     		cbz	r0, .L99
 1201              		.loc 1 366 0
 1202 0006 436E     		ldr	r3, [r0, #100]
 1203              		.loc 1 369 0
 1204 0008 0146     		mov	r1, r0
 1205              		.loc 1 366 0
 1206 000a 0133     		adds	r3, r3, #1
 1207              		.loc 1 369 0
 1208 000c 11F8360B 		ldrb	r0, [r1], #54	@ zero_extendqisi2
 1209              	.LVL103:
 1210              		.loc 1 366 0
 1211 0010 6366     		str	r3, [r4, #100]
 1212              		.loc 1 369 0
 1213 0012 FFF7FEFF 		bl	vexIMEGetData
 1214              	.LVL104:
 1215 0016 48BB     		cbnz	r0, .L92
 1216              		.loc 1 372 0
 1217 0018 94F83830 		ldrb	r3, [r4, #56]	@ zero_extendqisi2
 1218 001c 94F83620 		ldrb	r2, [r4, #54]	@ zero_extendqisi2
 1219 0020 94F83710 		ldrb	r1, [r4, #55]	@ zero_extendqisi2
 1220 0024 1B06     		lsls	r3, r3, #24
 1221 0026 43EA0223 		orr	r3, r3, r2, lsl #8
 1222 002a 0B43     		orrs	r3, r3, r1
 1223 002c 94F83950 		ldrb	r5, [r4, #57]	@ zero_extendqisi2
 1224              		.loc 1 373 0
 1225 0030 94F83A00 		ldrb	r0, [r4, #58]	@ zero_extendqisi2
 1226              	.LVL105:
 1227 0034 94F83B20 		ldrb	r2, [r4, #59]	@ zero_extendqisi2
 1228              		.loc 1 375 0
 1229 0038 E16D     		ldr	r1, [r4, #92]
 1230              		.loc 1 372 0
 1231 003a 43EA0543 		orr	r3, r3, r5, lsl #16
 1232              		.loc 1 373 0
 1233 003e 02EB0022 		add	r2, r2, r0, lsl #8
 1234              		.loc 1 375 0
 1235 0042 B1F1FE4F 		cmp	r1, #2130706432
 1236              		.loc 1 372 0
 1237 0046 A364     		str	r3, [r4, #72]
ARM GAS  /tmp/cc4PNelj.s 			page 23


 1238              		.loc 1 373 0
 1239 0048 2265     		str	r2, [r4, #80]
 1240              		.loc 1 375 0
 1241 004a 0CD0     		beq	.L93
 1242              		.loc 1 377 0
 1243 004c 591A     		subs	r1, r3, r1
 1244 004e 6165     		str	r1, [r4, #84]
 1245              		.loc 1 380 0
 1246 0050 82B1     		cbz	r2, .L94
 1247              		.loc 1 381 0
 1248 0052 206E     		ldr	r0, [r4, #96]
 1249 0054 44F25871 		movw	r1, #18264
 1250 0058 00FB02F2 		mul	r2, r0, r2
 1251 005c C0F6F851 		movt	r1, 3576
 1252 0060 91FBF2F1 		sdiv	r1, r1, r2
 1253 0064 A165     		str	r1, [r4, #88]
 1254              	.L93:
 1255              		.loc 1 386 0 discriminator 1
 1256 0066 E365     		str	r3, [r4, #92]
 1257              	.L99:
 1258 0068 0020     		movs	r0, #0
 1259 006a 38BD     		pop	{r3, r4, r5, pc}
 1260              	.LVL106:
 1261              	.L92:
 1262              		.loc 1 391 0
 1263 006c A36E     		ldr	r3, [r4, #104]
 1264 006e 0133     		adds	r3, r3, #1
 1265 0070 A366     		str	r3, [r4, #104]
 1266 0072 38BD     		pop	{r3, r4, r5, pc}
 1267              	.LVL107:
 1268              	.L94:
 1269              		.loc 1 383 0
 1270 0074 A265     		str	r2, [r4, #88]
 1271              		.loc 1 386 0
 1272 0076 E365     		str	r3, [r4, #92]
 1273 0078 F6E7     		b	.L99
 1274              		.cfi_endproc
 1275              	.LFE73:
 1276              		.size	vexIMEUpdateCounts, .-vexIMEUpdateCounts
 1277 007a 00BFAFF3 		.section	.text.vexIMEGetScratchpad,"ax",%progbits
 1277      0080
 1278              		.align	2
 1279              		.p2align 4,,15
 1280              		.global	vexIMEGetScratchpad
 1281              		.thumb
 1282              		.thumb_func
 1283              		.type	vexIMEGetScratchpad, %function
 1284              	vexIMEGetScratchpad:
 1285              	.LFB81:
 1286              		.loc 1 676 0
 1287              		.cfi_startproc
 1288              		@ args = 0, pretend = 0, frame = 8
 1289              		@ frame_needed = 0, uses_anonymous_args = 0
 1290              	.LVL108:
 1291 0000 2DE9F041 		push	{r4, r5, r6, r7, r8, lr}
 1292              		.cfi_def_cfa_offset 24
 1293              		.cfi_offset 4, -24
ARM GAS  /tmp/cc4PNelj.s 			page 24


 1294              		.cfi_offset 5, -20
 1295              		.cfi_offset 6, -16
 1296              		.cfi_offset 7, -12
 1297              		.cfi_offset 8, -8
 1298              		.cfi_offset 14, -4
 1299              		.loc 1 680 0
 1300 0004 40F20004 		movw	r4, #:lower16:.LANCHOR0
 1301              		.loc 1 676 0
 1302 0008 86B0     		sub	sp, sp, #24
 1303              		.cfi_def_cfa_offset 48
 1304              		.loc 1 680 0
 1305 000a C0F20004 		movt	r4, #:upper16:.LANCHOR0
 1306              		.loc 1 678 0
 1307 000e 6032     		adds	r2, r2, #96
 1308              	.LVL109:
 1309 0010 06AD     		add	r5, sp, #24
 1310              		.loc 1 676 0
 1311 0012 0646     		mov	r6, r0
 1312              		.loc 1 680 0
 1313 0014 2068     		ldr	r0, [r4]
 1314              	.LVL110:
 1315              		.loc 1 676 0
 1316 0016 8846     		mov	r8, r1
 1317 0018 1F46     		mov	r7, r3
 1318              		.loc 1 678 0
 1319 001a 05F8012D 		strb	r2, [r5, #-1]!
 1320              		.loc 1 680 0
 1321 001e FFF7FEFF 		bl	i2cAcquireBus
 1322              	.LVL111:
 1323              		.loc 1 681 0
 1324 0022 0423     		movs	r3, #4
 1325 0024 2A46     		mov	r2, r5
 1326 0026 0293     		str	r3, [sp, #8]
 1327 0028 2068     		ldr	r0, [r4]
 1328 002a CDF80080 		str	r8, [sp]
 1329 002e 0197     		str	r7, [sp, #4]
 1330 0030 7108     		lsrs	r1, r6, #1
 1331 0032 0123     		movs	r3, #1
 1332 0034 FFF7FEFF 		bl	i2cMasterTransmitTimeout
 1333              	.LVL112:
 1334 0038 0546     		mov	r5, r0
 1335              	.LVL113:
 1336              		.loc 1 682 0
 1337 003a 2068     		ldr	r0, [r4]
 1338              	.LVL114:
 1339 003c FFF7FEFF 		bl	i2cReleaseBus
 1340              	.LVL115:
 1341              		.loc 1 684 0
 1342 0040 65B1     		cbz	r5, .L101
 1343              		.loc 1 685 0
 1344 0042 2068     		ldr	r0, [r4]
 1345 0044 FFF7FEFF 		bl	i2cGetErrors
 1346              	.LVL116:
 1347 0048 40F20003 		movw	r3, #:lower16:.LANCHOR3
 1348 004c 0246     		mov	r2, r0
 1349 004e C0F20003 		movt	r3, #:upper16:.LANCHOR3
 1350              		.loc 1 686 0
ARM GAS  /tmp/cc4PNelj.s 			page 25


 1351 0052 0146     		mov	r1, r0
 1352 0054 2846     		mov	r0, r5
 1353              		.loc 1 685 0
 1354 0056 1A60     		str	r2, [r3]
 1355              		.loc 1 686 0
 1356 0058 FFF7FEFF 		bl	vexIMEHandleErrors
 1357              	.LVL117:
 1358              	.L101:
 1359              		.loc 1 690 0
 1360 005c 2846     		mov	r0, r5
 1361 005e 06B0     		add	sp, sp, #24
 1362              		@ sp needed
 1363 0060 BDE8F081 		pop	{r4, r5, r6, r7, r8, pc}
 1364              		.cfi_endproc
 1365              	.LFE81:
 1366              		.size	vexIMEGetScratchpad, .-vexIMEGetScratchpad
 1367 0064 AFF30080 		.section	.text.vexIMESetScratchpad,"ax",%progbits
 1367      AFF30080 
 1367      AFF30080 
 1368              		.align	2
 1369              		.p2align 4,,15
 1370              		.global	vexIMESetScratchpad
 1371              		.thumb
 1372              		.thumb_func
 1373              		.type	vexIMESetScratchpad, %function
 1374              	vexIMESetScratchpad:
 1375              	.LFB82:
 1376              		.loc 1 707 0
 1377              		.cfi_startproc
 1378              		@ args = 0, pretend = 0, frame = 0
 1379              		@ frame_needed = 0, uses_anonymous_args = 0
 1380              	.LVL118:
 1381 0000 2DE9F047 		push	{r4, r5, r6, r7, r8, r9, r10, lr}
 1382              		.cfi_def_cfa_offset 32
 1383              		.cfi_offset 4, -32
 1384              		.cfi_offset 5, -28
 1385              		.cfi_offset 6, -24
 1386              		.cfi_offset 7, -20
 1387              		.cfi_offset 8, -16
 1388              		.cfi_offset 9, -12
 1389              		.cfi_offset 10, -8
 1390              		.cfi_offset 14, -4
 1391 0004 8246     		mov	r10, r0
 1392 0006 84B0     		sub	sp, sp, #16
 1393              		.cfi_def_cfa_offset 48
 1394              		.loc 1 707 0
 1395 0008 8846     		mov	r8, r1
 1396              		.loc 1 716 0
 1397 000a 0020     		movs	r0, #0
 1398              	.LVL119:
 1399 000c 4021     		movs	r1, #64
 1400              	.LVL120:
 1401              		.loc 1 707 0
 1402 000e 1446     		mov	r4, r2
 1403 0010 1F46     		mov	r7, r3
 1404              		.loc 1 716 0
 1405 0012 FFF7FEFF 		bl	chHeapAlloc
ARM GAS  /tmp/cc4PNelj.s 			page 26


 1406              	.LVL121:
 1407              		.loc 1 718 0
 1408 0016 8146     		mov	r9, r0
 1409              		.loc 1 708 0
 1410 0018 0546     		mov	r5, r0
 1411              		.loc 1 718 0
 1412 001a 30B3     		cbz	r0, .L106
 1413              		.loc 1 720 0
 1414 001c 603C     		subs	r4, r4, #96
 1415 001e 0470     		strb	r4, [r0]
 1416              	.LVL122:
 1417 0020 0546     		mov	r5, r0
 1418              		.loc 1 721 0
 1419 0022 0024     		movs	r4, #0
 1420 0024 37B1     		cbz	r7, .L109
 1421              	.LVL123:
 1422              	.L110:
 1423              		.loc 1 722 0 discriminator 2
 1424 0026 18F80460 		ldrb	r6, [r8, r4]	@ zero_extendqisi2
 1425              		.loc 1 721 0 discriminator 2
 1426 002a 0134     		adds	r4, r4, #1
 1427              	.LVL124:
 1428 002c A742     		cmp	r7, r4
 1429              		.loc 1 722 0 discriminator 2
 1430 002e 05F8016F 		strb	r6, [r5, #1]!
 1431              		.loc 1 721 0 discriminator 2
 1432 0032 F8DC     		bgt	.L110
 1433              	.LVL125:
 1434              	.L109:
 1435              		.loc 1 724 0
 1436 0034 40F20004 		movw	r4, #:lower16:.LANCHOR0
 1437 0038 C0F20004 		movt	r4, #:upper16:.LANCHOR0
 1438 003c 2068     		ldr	r0, [r4]
 1439              	.LVL126:
 1440 003e FFF7FEFF 		bl	i2cAcquireBus
 1441              	.LVL127:
 1442              		.loc 1 725 0
 1443 0042 0425     		movs	r5, #4
 1444 0044 0022     		movs	r2, #0
 1445 0046 2068     		ldr	r0, [r4]
 1446 0048 4FEA5A01 		lsr	r1, r10, #1
 1447 004c 7B1C     		adds	r3, r7, #1
 1448 004e 0092     		str	r2, [sp]
 1449 0050 0192     		str	r2, [sp, #4]
 1450 0052 0295     		str	r5, [sp, #8]
 1451 0054 4A46     		mov	r2, r9
 1452 0056 FFF7FEFF 		bl	i2cMasterTransmitTimeout
 1453              	.LVL128:
 1454 005a 0546     		mov	r5, r0
 1455              	.LVL129:
 1456              		.loc 1 726 0
 1457 005c 2068     		ldr	r0, [r4]
 1458              	.LVL130:
 1459 005e FFF7FEFF 		bl	i2cReleaseBus
 1460              	.LVL131:
 1461              		.loc 1 729 0
 1462 0062 4846     		mov	r0, r9
ARM GAS  /tmp/cc4PNelj.s 			page 27


 1463 0064 FFF7FEFF 		bl	chHeapFree
 1464              	.LVL132:
 1465              		.loc 1 732 0
 1466 0068 1DB9     		cbnz	r5, .L113
 1467              	.LVL133:
 1468              	.L106:
 1469              		.loc 1 738 0
 1470 006a 2846     		mov	r0, r5
 1471 006c 04B0     		add	sp, sp, #16
 1472              		@ sp needed
 1473 006e BDE8F087 		pop	{r4, r5, r6, r7, r8, r9, r10, pc}
 1474              	.LVL134:
 1475              	.L113:
 1476              		.loc 1 733 0
 1477 0072 2068     		ldr	r0, [r4]
 1478 0074 FFF7FEFF 		bl	i2cGetErrors
 1479              	.LVL135:
 1480 0078 40F20003 		movw	r3, #:lower16:.LANCHOR3
 1481 007c 0246     		mov	r2, r0
 1482 007e C0F20003 		movt	r3, #:upper16:.LANCHOR3
 1483              		.loc 1 734 0
 1484 0082 0146     		mov	r1, r0
 1485 0084 2846     		mov	r0, r5
 1486              		.loc 1 733 0
 1487 0086 1A60     		str	r2, [r3]
 1488              		.loc 1 734 0
 1489 0088 FFF7FEFF 		bl	vexIMEHandleErrors
 1490              	.LVL136:
 1491              		.loc 1 738 0
 1492 008c 2846     		mov	r0, r5
 1493 008e 04B0     		add	sp, sp, #16
 1494              		@ sp needed
 1495 0090 BDE8F087 		pop	{r4, r5, r6, r7, r8, r9, r10, pc}
 1496              		.cfi_endproc
 1497              	.LFE82:
 1498              		.size	vexIMESetScratchpad, .-vexIMESetScratchpad
 1499 0094 AFF30080 		.section	.text.vexIMEClearCounters,"ax",%progbits
 1499      AFF30080 
 1499      AFF30080 
 1500              		.align	2
 1501              		.p2align 4,,15
 1502              		.global	vexIMEClearCounters
 1503              		.thumb
 1504              		.thumb_func
 1505              		.type	vexIMEClearCounters, %function
 1506              	vexIMEClearCounters:
 1507              	.LFB83:
 1508              		.loc 1 752 0
 1509              		.cfi_startproc
 1510              		@ args = 0, pretend = 0, frame = 8
 1511              		@ frame_needed = 0, uses_anonymous_args = 0
 1512              	.LVL137:
 1513 0000 F0B5     		push	{r4, r5, r6, r7, lr}
 1514              		.cfi_def_cfa_offset 20
 1515              		.cfi_offset 4, -20
 1516              		.cfi_offset 5, -16
 1517              		.cfi_offset 6, -12
ARM GAS  /tmp/cc4PNelj.s 			page 28


 1518              		.cfi_offset 7, -8
 1519              		.cfi_offset 14, -4
 1520              		.loc 1 756 0
 1521 0002 40F20004 		movw	r4, #:lower16:.LANCHOR0
 1522              		.loc 1 752 0
 1523 0006 87B0     		sub	sp, sp, #28
 1524              		.cfi_def_cfa_offset 48
 1525              		.loc 1 756 0
 1526 0008 C0F20004 		movt	r4, #:upper16:.LANCHOR0
 1527              		.loc 1 754 0
 1528 000c 4A23     		movs	r3, #74
 1529 000e 06AD     		add	r5, sp, #24
 1530              		.loc 1 752 0
 1531 0010 0746     		mov	r7, r0
 1532              		.loc 1 756 0
 1533 0012 2068     		ldr	r0, [r4]
 1534              	.LVL138:
 1535              		.loc 1 754 0
 1536 0014 05F8013D 		strb	r3, [r5, #-1]!
 1537              		.loc 1 757 0
 1538 0018 0426     		movs	r6, #4
 1539              		.loc 1 756 0
 1540 001a FFF7FEFF 		bl	i2cAcquireBus
 1541              	.LVL139:
 1542              		.loc 1 757 0
 1543 001e 0023     		movs	r3, #0
 1544 0020 2A46     		mov	r2, r5
 1545 0022 0093     		str	r3, [sp]
 1546 0024 0193     		str	r3, [sp, #4]
 1547 0026 2068     		ldr	r0, [r4]
 1548 0028 7908     		lsrs	r1, r7, #1
 1549 002a 0296     		str	r6, [sp, #8]
 1550 002c 0123     		movs	r3, #1
 1551 002e FFF7FEFF 		bl	i2cMasterTransmitTimeout
 1552              	.LVL140:
 1553 0032 0546     		mov	r5, r0
 1554              	.LVL141:
 1555              		.loc 1 758 0
 1556 0034 2068     		ldr	r0, [r4]
 1557              	.LVL142:
 1558 0036 FFF7FEFF 		bl	i2cReleaseBus
 1559              	.LVL143:
 1560              		.loc 1 760 0
 1561 003a 65B1     		cbz	r5, .L115
 1562              		.loc 1 761 0
 1563 003c 2068     		ldr	r0, [r4]
 1564 003e FFF7FEFF 		bl	i2cGetErrors
 1565              	.LVL144:
 1566 0042 40F20003 		movw	r3, #:lower16:.LANCHOR3
 1567 0046 0246     		mov	r2, r0
 1568 0048 C0F20003 		movt	r3, #:upper16:.LANCHOR3
 1569              		.loc 1 762 0
 1570 004c 0146     		mov	r1, r0
 1571 004e 2846     		mov	r0, r5
 1572              		.loc 1 761 0
 1573 0050 1A60     		str	r2, [r3]
 1574              		.loc 1 762 0
ARM GAS  /tmp/cc4PNelj.s 			page 29


 1575 0052 FFF7FEFF 		bl	vexIMEHandleErrors
 1576              	.LVL145:
 1577              	.L115:
 1578              		.loc 1 766 0
 1579 0056 2846     		mov	r0, r5
 1580 0058 07B0     		add	sp, sp, #28
 1581              		@ sp needed
 1582 005a F0BD     		pop	{r4, r5, r6, r7, pc}
 1583              		.cfi_endproc
 1584              	.LFE83:
 1585              		.size	vexIMEClearCounters, .-vexIMEClearCounters
 1586 005c AFF30080 		.section	.text.vexIMEDisableTermination,"ax",%progbits
 1587              		.align	2
 1588              		.p2align 4,,15
 1589              		.global	vexIMEDisableTermination
 1590              		.thumb
 1591              		.thumb_func
 1592              		.type	vexIMEDisableTermination, %function
 1593              	vexIMEDisableTermination:
 1594              	.LFB84:
 1595              		.loc 1 780 0
 1596              		.cfi_startproc
 1597              		@ args = 0, pretend = 0, frame = 8
 1598              		@ frame_needed = 0, uses_anonymous_args = 0
 1599              	.LVL146:
 1600 0000 F0B5     		push	{r4, r5, r6, r7, lr}
 1601              		.cfi_def_cfa_offset 20
 1602              		.cfi_offset 4, -20
 1603              		.cfi_offset 5, -16
 1604              		.cfi_offset 6, -12
 1605              		.cfi_offset 7, -8
 1606              		.cfi_offset 14, -4
 1607              		.loc 1 784 0
 1608 0002 40F20004 		movw	r4, #:lower16:.LANCHOR0
 1609              		.loc 1 780 0
 1610 0006 87B0     		sub	sp, sp, #28
 1611              		.cfi_def_cfa_offset 48
 1612              		.loc 1 784 0
 1613 0008 C0F20004 		movt	r4, #:upper16:.LANCHOR0
 1614              		.loc 1 782 0
 1615 000c 4B23     		movs	r3, #75
 1616 000e 06AD     		add	r5, sp, #24
 1617              		.loc 1 780 0
 1618 0010 0746     		mov	r7, r0
 1619              		.loc 1 784 0
 1620 0012 2068     		ldr	r0, [r4]
 1621              	.LVL147:
 1622              		.loc 1 782 0
 1623 0014 05F8013D 		strb	r3, [r5, #-1]!
 1624              		.loc 1 785 0
 1625 0018 0426     		movs	r6, #4
 1626              		.loc 1 784 0
 1627 001a FFF7FEFF 		bl	i2cAcquireBus
 1628              	.LVL148:
 1629              		.loc 1 785 0
 1630 001e 0023     		movs	r3, #0
 1631 0020 2A46     		mov	r2, r5
ARM GAS  /tmp/cc4PNelj.s 			page 30


 1632 0022 0093     		str	r3, [sp]
 1633 0024 0193     		str	r3, [sp, #4]
 1634 0026 2068     		ldr	r0, [r4]
 1635 0028 7908     		lsrs	r1, r7, #1
 1636 002a 0296     		str	r6, [sp, #8]
 1637 002c 0123     		movs	r3, #1
 1638 002e FFF7FEFF 		bl	i2cMasterTransmitTimeout
 1639              	.LVL149:
 1640 0032 0546     		mov	r5, r0
 1641              	.LVL150:
 1642              		.loc 1 786 0
 1643 0034 2068     		ldr	r0, [r4]
 1644              	.LVL151:
 1645 0036 FFF7FEFF 		bl	i2cReleaseBus
 1646              	.LVL152:
 1647              		.loc 1 788 0
 1648 003a 65B1     		cbz	r5, .L120
 1649              		.loc 1 789 0
 1650 003c 2068     		ldr	r0, [r4]
 1651 003e FFF7FEFF 		bl	i2cGetErrors
 1652              	.LVL153:
 1653 0042 40F20003 		movw	r3, #:lower16:.LANCHOR3
 1654 0046 0246     		mov	r2, r0
 1655 0048 C0F20003 		movt	r3, #:upper16:.LANCHOR3
 1656              		.loc 1 790 0
 1657 004c 0146     		mov	r1, r0
 1658 004e 2846     		mov	r0, r5
 1659              		.loc 1 789 0
 1660 0050 1A60     		str	r2, [r3]
 1661              		.loc 1 790 0
 1662 0052 FFF7FEFF 		bl	vexIMEHandleErrors
 1663              	.LVL154:
 1664              	.L120:
 1665              		.loc 1 794 0
 1666 0056 2846     		mov	r0, r5
 1667 0058 07B0     		add	sp, sp, #28
 1668              		@ sp needed
 1669 005a F0BD     		pop	{r4, r5, r6, r7, pc}
 1670              		.cfi_endproc
 1671              	.LFE84:
 1672              		.size	vexIMEDisableTermination, .-vexIMEDisableTermination
 1673 005c AFF30080 		.section	.text.vexIMEEnableTermination,"ax",%progbits
 1674              		.align	2
 1675              		.p2align 4,,15
 1676              		.global	vexIMEEnableTermination
 1677              		.thumb
 1678              		.thumb_func
 1679              		.type	vexIMEEnableTermination, %function
 1680              	vexIMEEnableTermination:
 1681              	.LFB85:
 1682              		.loc 1 808 0
 1683              		.cfi_startproc
 1684              		@ args = 0, pretend = 0, frame = 8
 1685              		@ frame_needed = 0, uses_anonymous_args = 0
 1686              	.LVL155:
 1687 0000 F0B5     		push	{r4, r5, r6, r7, lr}
 1688              		.cfi_def_cfa_offset 20
ARM GAS  /tmp/cc4PNelj.s 			page 31


 1689              		.cfi_offset 4, -20
 1690              		.cfi_offset 5, -16
 1691              		.cfi_offset 6, -12
 1692              		.cfi_offset 7, -8
 1693              		.cfi_offset 14, -4
 1694              		.loc 1 812 0
 1695 0002 40F20004 		movw	r4, #:lower16:.LANCHOR0
 1696              		.loc 1 808 0
 1697 0006 87B0     		sub	sp, sp, #28
 1698              		.cfi_def_cfa_offset 48
 1699              		.loc 1 812 0
 1700 0008 C0F20004 		movt	r4, #:upper16:.LANCHOR0
 1701              		.loc 1 810 0
 1702 000c 4C23     		movs	r3, #76
 1703 000e 06AD     		add	r5, sp, #24
 1704              		.loc 1 808 0
 1705 0010 0746     		mov	r7, r0
 1706              		.loc 1 812 0
 1707 0012 2068     		ldr	r0, [r4]
 1708              	.LVL156:
 1709              		.loc 1 810 0
 1710 0014 05F8013D 		strb	r3, [r5, #-1]!
 1711              		.loc 1 813 0
 1712 0018 0426     		movs	r6, #4
 1713              		.loc 1 812 0
 1714 001a FFF7FEFF 		bl	i2cAcquireBus
 1715              	.LVL157:
 1716              		.loc 1 813 0
 1717 001e 0023     		movs	r3, #0
 1718 0020 2A46     		mov	r2, r5
 1719 0022 0093     		str	r3, [sp]
 1720 0024 0193     		str	r3, [sp, #4]
 1721 0026 2068     		ldr	r0, [r4]
 1722 0028 7908     		lsrs	r1, r7, #1
 1723 002a 0296     		str	r6, [sp, #8]
 1724 002c 0123     		movs	r3, #1
 1725 002e FFF7FEFF 		bl	i2cMasterTransmitTimeout
 1726              	.LVL158:
 1727 0032 0546     		mov	r5, r0
 1728              	.LVL159:
 1729              		.loc 1 814 0
 1730 0034 2068     		ldr	r0, [r4]
 1731              	.LVL160:
 1732 0036 FFF7FEFF 		bl	i2cReleaseBus
 1733              	.LVL161:
 1734              		.loc 1 816 0
 1735 003a 65B1     		cbz	r5, .L125
 1736              		.loc 1 817 0
 1737 003c 2068     		ldr	r0, [r4]
 1738 003e FFF7FEFF 		bl	i2cGetErrors
 1739              	.LVL162:
 1740 0042 40F20003 		movw	r3, #:lower16:.LANCHOR3
 1741 0046 0246     		mov	r2, r0
 1742 0048 C0F20003 		movt	r3, #:upper16:.LANCHOR3
 1743              		.loc 1 818 0
 1744 004c 0146     		mov	r1, r0
 1745 004e 2846     		mov	r0, r5
ARM GAS  /tmp/cc4PNelj.s 			page 32


 1746              		.loc 1 817 0
 1747 0050 1A60     		str	r2, [r3]
 1748              		.loc 1 818 0
 1749 0052 FFF7FEFF 		bl	vexIMEHandleErrors
 1750              	.LVL163:
 1751              	.L125:
 1752              		.loc 1 822 0
 1753 0056 2846     		mov	r0, r5
 1754 0058 07B0     		add	sp, sp, #28
 1755              		@ sp needed
 1756 005a F0BD     		pop	{r4, r5, r6, r7, pc}
 1757              		.cfi_endproc
 1758              	.LFE85:
 1759              		.size	vexIMEEnableTermination, .-vexIMEEnableTermination
 1760 005c AFF30080 		.section	.text.vexIMESetAddr,"ax",%progbits
 1761              		.align	2
 1762              		.p2align 4,,15
 1763              		.global	vexIMESetAddr
 1764              		.thumb
 1765              		.thumb_func
 1766              		.type	vexIMESetAddr, %function
 1767              	vexIMESetAddr:
 1768              	.LFB86:
 1769              		.loc 1 837 0
 1770              		.cfi_startproc
 1771              		@ args = 0, pretend = 0, frame = 8
 1772              		@ frame_needed = 0, uses_anonymous_args = 0
 1773              	.LVL164:
 1774 0000 F0B5     		push	{r4, r5, r6, r7, lr}
 1775              		.cfi_def_cfa_offset 20
 1776              		.cfi_offset 4, -20
 1777              		.cfi_offset 5, -16
 1778              		.cfi_offset 6, -12
 1779              		.cfi_offset 7, -8
 1780              		.cfi_offset 14, -4
 1781              		.loc 1 846 0
 1782 0002 40F20004 		movw	r4, #:lower16:.LANCHOR0
 1783 0006 C0F20004 		movt	r4, #:upper16:.LANCHOR0
 1784              		.loc 1 837 0
 1785 000a 87B0     		sub	sp, sp, #28
 1786              		.cfi_def_cfa_offset 48
 1787              		.loc 1 843 0
 1788 000c 4D23     		movs	r3, #77
 1789              		.loc 1 837 0
 1790 000e 0646     		mov	r6, r0
 1791              		.loc 1 846 0
 1792 0010 2068     		ldr	r0, [r4]
 1793              	.LVL165:
 1794              		.loc 1 837 0
 1795 0012 0F46     		mov	r7, r1
 1796              		.loc 1 844 0
 1797 0014 8DF81510 		strb	r1, [sp, #21]
 1798              		.loc 1 843 0
 1799 0018 8DF81430 		strb	r3, [sp, #20]
 1800              		.loc 1 846 0
 1801 001c FFF7FEFF 		bl	i2cAcquireBus
 1802              	.LVL166:
ARM GAS  /tmp/cc4PNelj.s 			page 33


 1803              		.loc 1 847 0
 1804 0020 3178     		ldrb	r1, [r6]	@ zero_extendqisi2
 1805 0022 0023     		movs	r3, #0
 1806 0024 0422     		movs	r2, #4
 1807 0026 0093     		str	r3, [sp]
 1808 0028 0193     		str	r3, [sp, #4]
 1809 002a 0292     		str	r2, [sp, #8]
 1810 002c 2068     		ldr	r0, [r4]
 1811 002e 4908     		lsrs	r1, r1, #1
 1812 0030 05AA     		add	r2, sp, #20
 1813 0032 0223     		movs	r3, #2
 1814 0034 FFF7FEFF 		bl	i2cMasterTransmitTimeout
 1815              	.LVL167:
 1816 0038 0546     		mov	r5, r0
 1817              	.LVL168:
 1818              		.loc 1 848 0
 1819 003a 2068     		ldr	r0, [r4]
 1820              	.LVL169:
 1821 003c FFF7FEFF 		bl	i2cReleaseBus
 1822              	.LVL170:
 1823              		.loc 1 850 0
 1824 0040 65B1     		cbz	r5, .L130
 1825              		.loc 1 851 0
 1826 0042 2068     		ldr	r0, [r4]
 1827 0044 FFF7FEFF 		bl	i2cGetErrors
 1828              	.LVL171:
 1829 0048 40F20003 		movw	r3, #:lower16:.LANCHOR3
 1830 004c 0246     		mov	r2, r0
 1831 004e C0F20003 		movt	r3, #:upper16:.LANCHOR3
 1832              		.loc 1 852 0
 1833 0052 0146     		mov	r1, r0
 1834 0054 2846     		mov	r0, r5
 1835              		.loc 1 851 0
 1836 0056 1A60     		str	r2, [r3]
 1837              		.loc 1 852 0
 1838 0058 FFF7FEFF 		bl	vexIMEHandleErrors
 1839              	.LVL172:
 1840              	.L130:
 1841              		.loc 1 858 0
 1842 005c 2846     		mov	r0, r5
 1843              		.loc 1 855 0
 1844 005e 3770     		strb	r7, [r6]
 1845              		.loc 1 858 0
 1846 0060 07B0     		add	sp, sp, #28
 1847              		@ sp needed
 1848 0062 F0BD     		pop	{r4, r5, r6, r7, pc}
 1849              		.cfi_endproc
 1850              	.LFE86:
 1851              		.size	vexIMESetAddr, .-vexIMESetAddr
 1852 0064 AFF30080 		.section	.text.vexIMEFindEncoders,"ax",%progbits
 1852      AFF30080 
 1852      AFF30080 
 1853              		.align	2
 1854              		.p2align 4,,15
 1855              		.global	vexIMEFindEncoders
 1856              		.thumb
 1857              		.thumb_func
ARM GAS  /tmp/cc4PNelj.s 			page 34


 1858              		.type	vexIMEFindEncoders, %function
 1859              	vexIMEFindEncoders:
 1860              	.LFB75:
 1861              		.loc 1 428 0
 1862              		.cfi_startproc
 1863              		@ args = 0, pretend = 0, frame = 0
 1864              		@ frame_needed = 0, uses_anonymous_args = 0
 1865              	.LVL173:
 1866 0000 2DE9F84F 		push	{r3, r4, r5, r6, r7, r8, r9, r10, fp, lr}
 1867              		.cfi_def_cfa_offset 40
 1868              		.cfi_offset 3, -40
 1869              		.cfi_offset 4, -36
 1870              		.cfi_offset 5, -32
 1871              		.cfi_offset 6, -28
 1872              		.cfi_offset 7, -24
 1873              		.cfi_offset 8, -20
 1874              		.cfi_offset 9, -16
 1875              		.cfi_offset 10, -12
 1876              		.cfi_offset 11, -8
 1877              		.cfi_offset 14, -4
 1878              		.loc 1 436 0
 1879 0004 40F20005 		movw	r5, #:lower16:.LANCHOR0
 1880 0008 C0F20005 		movt	r5, #:upper16:.LANCHOR0
 1881              		.loc 1 433 0
 1882 000c FFF7FEFF 		bl	vexIMEResetAll
 1883              	.LVL174:
 1884              		.loc 1 436 0
 1885 0010 0023     		movs	r3, #0
 1886              		.loc 1 438 0
 1887 0012 2022     		movs	r2, #32
 1888 0014 6A81     		strh	r2, [r5, #10]	@ movhi
 1889              		.loc 1 436 0
 1890 0016 2B81     		strh	r3, [r5, #8]	@ movhi
 1891              		.loc 1 437 0
 1892 0018 EB82     		strh	r3, [r5, #22]	@ movhi
 1893              		.loc 1 439 0
 1894 001a 2B83     		strh	r3, [r5, #24]	@ movhi
 1895 001c 05F11C06 		add	r6, r5, #28
 1896 0020 05F12204 		add	r4, r5, #34
 1897 0024 05F28238 		addw	r8, r5, #898
 1898              		.loc 1 460 0
 1899 0028 0127     		movs	r7, #1
 1900              		.loc 1 490 0
 1901 002a 42F2486B 		movw	fp, #9800
 1902              		.loc 1 487 0
 1903 002e 41F6E77A 		movw	r10, #8167
 1904              		.loc 1 484 0
 1905 0032 42F6DA79 		movw	r9, #12250
 1906              	.LVL175:
 1907              	.L144:
 1908              		.loc 1 446 0
 1909 0036 3046     		mov	r0, r6
 1910 0038 FFF7FEFF 		bl	vexIMEDataInit
 1911              	.LVL176:
 1912              		.loc 1 450 0
 1913 003c 14F8060C 		ldrb	r0, [r4, #-6]	@ zero_extendqisi2
 1914 0040 FFF7FEFF 		bl	vexIMEEnableTermination
ARM GAS  /tmp/cc4PNelj.s 			page 35


 1915              	.LVL177:
 1916 0044 0028     		cmp	r0, #0
 1917 0046 5BD1     		bne	.L135
 1918              		.loc 1 453 0
 1919 0048 2B89     		ldrh	r3, [r5, #8]
 1920              		.loc 1 456 0
 1921 004a A97A     		ldrb	r1, [r5, #10]	@ zero_extendqisi2
 1922              		.loc 1 453 0
 1923 004c 0133     		adds	r3, r3, #1
 1924              		.loc 1 456 0
 1925 004e 3046     		mov	r0, r6
 1926              		.loc 1 453 0
 1927 0050 2B81     		strh	r3, [r5, #8]	@ movhi
 1928              		.loc 1 456 0
 1929 0052 FFF7FEFF 		bl	vexIMESetAddr
 1930              	.LVL178:
 1931              		.loc 1 457 0
 1932 0056 6B89     		ldrh	r3, [r5, #10]
 1933              		.loc 1 460 0
 1934 0058 0120     		movs	r0, #1
 1935              		.loc 1 457 0
 1936 005a 0233     		adds	r3, r3, #2
 1937 005c 6B81     		strh	r3, [r5, #10]	@ movhi
 1938              		.loc 1 460 0
 1939 005e FFF7FEFF 		bl	chThdSleep
 1940              	.LVL179:
 1941              		.loc 1 463 0
 1942 0062 2146     		mov	r1, r4
 1943 0064 14F8060C 		ldrb	r0, [r4, #-6]	@ zero_extendqisi2
 1944 0068 FFF7FEFF 		bl	vexIMEGetVersion
 1945              	.LVL180:
 1946              		.loc 1 464 0
 1947 006c 04F11001 		add	r1, r4, #16
 1948 0070 14F8060C 		ldrb	r0, [r4, #-6]	@ zero_extendqisi2
 1949 0074 FFF7FEFF 		bl	vexIMEGetVendor
 1950              	.LVL181:
 1951              		.loc 1 465 0
 1952 0078 04F12001 		add	r1, r4, #32
 1953 007c 14F8060C 		ldrb	r0, [r4, #-6]	@ zero_extendqisi2
 1954 0080 FFF7FEFF 		bl	vexIMEGetDeviceId
 1955              	.LVL182:
 1956              		.loc 1 468 0
 1957 0084 14F8060C 		ldrb	r0, [r4, #-6]	@ zero_extendqisi2
 1958 0088 FFF7FEFF 		bl	vexIMEClearCounters
 1959              	.LVL183:
 1960              		.loc 1 475 0
 1961 008c 14F8053C 		ldrb	r3, [r4, #-5]	@ zero_extendqisi2
 1962 0090 032B     		cmp	r3, #3
 1963 0092 32D8     		bhi	.L136
 1964 0094 DFE803F0 		tbb	[pc, r3]
 1965              	.L138:
 1966 0098 27       		.byte	(.L137-.L138)/2
 1967 0099 2C       		.byte	(.L139-.L138)/2
 1968 009a 24       		.byte	(.L140-.L138)/2
 1969 009b 02       		.byte	(.L141-.L138)/2
 1970              		.align	1
 1971              	.L141:
ARM GAS  /tmp/cc4PNelj.s 			page 36


 1972              		.loc 1 487 0
 1973 009c C4F85AA0 		str	r10, [r4, #90]
 1974              	.L142:
 1975              		.loc 1 498 0
 1976 00a0 14F8060C 		ldrb	r0, [r4, #-6]	@ zero_extendqisi2
 1977              		.loc 1 495 0
 1978 00a4 24F8047C 		strh	r7, [r4, #-4]	@ movhi
 1979              		.loc 1 498 0
 1980 00a8 FFF7FEFF 		bl	vexIMEDisableTermination
 1981              	.LVL184:
 1982 00ac 6C34     		adds	r4, r4, #108
 1983              		.loc 1 499 0
 1984 00ae 0120     		movs	r0, #1
 1985 00b0 FFF7FEFF 		bl	chThdSleep
 1986              	.LVL185:
 1987              		.loc 1 442 0
 1988 00b4 4445     		cmp	r4, r8
 1989 00b6 06F16C06 		add	r6, r6, #108
 1990              	.LVL186:
 1991 00ba BCD1     		bne	.L144
 1992              	.LVL187:
 1993              	.L143:
 1994              		.loc 1 510 0
 1995 00bc 2889     		ldrh	r0, [r5, #8]
 1996 00be 40F20004 		movw	r4, #:lower16:.LANCHOR0
 1997 00c2 03B2     		sxth	r3, r0
 1998 00c4 002B     		cmp	r3, #0
 1999 00c6 C0F20004 		movt	r4, #:upper16:.LANCHOR0
 2000 00ca 07DD     		ble	.L145
 2001              		.loc 1 511 0
 2002 00cc 6C22     		movs	r2, #108
 2003 00ce 013B     		subs	r3, r3, #1
 2004 00d0 02FB0343 		mla	r3, r2, r3, r4
 2005 00d4 187F     		ldrb	r0, [r3, #28]	@ zero_extendqisi2
 2006 00d6 FFF7FEFF 		bl	vexIMEEnableTermination
 2007              	.LVL188:
 2008 00da 2089     		ldrh	r0, [r4, #8]
 2009              	.L145:
 2010              		.loc 1 514 0
 2011 00dc BDE8F88F 		pop	{r3, r4, r5, r6, r7, r8, r9, r10, fp, pc}
 2012              	.LVL189:
 2013              	.L140:
 2014              		.loc 1 484 0
 2015 00e0 C4F85A90 		str	r9, [r4, #90]
 2016              		.loc 1 485 0
 2017 00e4 DCE7     		b	.L142
 2018              	.L137:
 2019              		.loc 1 478 0
 2020 00e6 41F65A53 		movw	r3, #7514
 2021 00ea C4F85A30 		str	r3, [r4, #90]
 2022              		.loc 1 479 0
 2023 00ee D7E7     		b	.L142
 2024              	.L139:
 2025              		.loc 1 481 0
 2026 00f0 44F69042 		movw	r2, #19600
 2027 00f4 C4F85A20 		str	r2, [r4, #90]
 2028              		.loc 1 482 0
ARM GAS  /tmp/cc4PNelj.s 			page 37


 2029 00f8 D2E7     		b	.L142
 2030              	.L136:
 2031              		.loc 1 490 0
 2032 00fa C4F85AB0 		str	fp, [r4, #90]
 2033              		.loc 1 491 0
 2034 00fe CFE7     		b	.L142
 2035              	.L135:
 2036              		.loc 1 504 0
 2037 0100 0023     		movs	r3, #0
 2038 0102 3370     		strb	r3, [r6]
 2039              		.loc 1 505 0
 2040 0104 DAE7     		b	.L143
 2041              		.cfi_endproc
 2042              	.LFE75:
 2043              		.size	vexIMEFindEncoders, .-vexIMEFindEncoders
 2044 0106 00BFAFF3 		.section	.text.vexIMEPrintBuf,"ax",%progbits
 2044      0080AFF3 
 2044      0080
 2045              		.align	2
 2046              		.p2align 4,,15
 2047              		.global	vexIMEPrintBuf
 2048              		.thumb
 2049              		.thumb_func
 2050              		.type	vexIMEPrintBuf, %function
 2051              	vexIMEPrintBuf:
 2052              	.LFB89:
 2053              		.loc 1 952 0
 2054              		.cfi_startproc
 2055              		@ args = 0, pretend = 0, frame = 0
 2056              		@ frame_needed = 0, uses_anonymous_args = 0
 2057              	.LVL190:
 2058 0000 F8B5     		push	{r3, r4, r5, r6, r7, lr}
 2059              		.cfi_def_cfa_offset 24
 2060              		.cfi_offset 3, -24
 2061              		.cfi_offset 4, -20
 2062              		.cfi_offset 5, -16
 2063              		.cfi_offset 6, -12
 2064              		.cfi_offset 7, -8
 2065              		.cfi_offset 14, -4
 2066              		.loc 1 955 0
 2067 0002 1646     		mov	r6, r2
 2068              		.loc 1 952 0
 2069 0004 0F46     		mov	r7, r1
 2070 0006 0546     		mov	r5, r0
 2071              		.loc 1 955 0
 2072 0008 B2B3     		cbz	r2, .L148
 2073 000a 0024     		movs	r4, #0
 2074              	.LVL191:
 2075              	.L150:
 2076              		.loc 1 956 0 discriminator 2
 2077 000c 40F20001 		movw	r1, #:lower16:.LC0
 2078 0010 3A5D     		ldrb	r2, [r7, r4]	@ zero_extendqisi2
 2079 0012 C0F20001 		movt	r1, #:upper16:.LC0
 2080 0016 2846     		mov	r0, r5
 2081              		.loc 1 955 0 discriminator 2
 2082 0018 0134     		adds	r4, r4, #1
 2083              	.LVL192:
ARM GAS  /tmp/cc4PNelj.s 			page 38


 2084              		.loc 1 956 0 discriminator 2
 2085 001a FFF7FEFF 		bl	vex_chprintf
 2086              	.LVL193:
 2087              		.loc 1 955 0 discriminator 2
 2088 001e B442     		cmp	r4, r6
 2089 0020 F4DB     		blt	.L150
 2090              		.loc 1 958 0
 2091 0022 40F20001 		movw	r1, #:lower16:.LC4
 2092 0026 C0F20001 		movt	r1, #:upper16:.LC4
 2093 002a 2846     		mov	r0, r5
 2094 002c FFF7FEFF 		bl	vex_chprintf
 2095              	.LVL194:
 2096              		.loc 1 960 0
 2097 0030 0024     		movs	r4, #0
 2098 0032 08E0     		b	.L155
 2099              	.LVL195:
 2100              	.L156:
 2101              		.loc 1 963 0
 2102 0034 40F20001 		movw	r1, #:lower16:.LC1
 2103 0038 C0F20001 		movt	r1, #:upper16:.LC1
 2104              		.loc 1 960 0
 2105 003c 0134     		adds	r4, r4, #1
 2106              	.LVL196:
 2107              		.loc 1 963 0
 2108 003e FFF7FEFF 		bl	vex_chprintf
 2109              	.LVL197:
 2110              		.loc 1 960 0
 2111 0042 B442     		cmp	r4, r6
 2112 0044 0FDA     		bge	.L154
 2113              	.LVL198:
 2114              	.L155:
 2115              		.loc 1 962 0
 2116 0046 3A5D     		ldrb	r2, [r7, r4]	@ zero_extendqisi2
 2117              		.loc 1 965 0
 2118 0048 40F20001 		movw	r1, #:lower16:.LC2
 2119              		.loc 1 962 0
 2120 004c A2F12003 		sub	r3, r2, #32
 2121 0050 DBB2     		uxtb	r3, r3
 2122 0052 5E2B     		cmp	r3, #94
 2123              		.loc 1 965 0
 2124 0054 2846     		mov	r0, r5
 2125 0056 C0F20001 		movt	r1, #:upper16:.LC2
 2126              		.loc 1 962 0
 2127 005a EBD9     		bls	.L156
 2128              	.LVL199:
 2129              		.loc 1 960 0
 2130 005c 0134     		adds	r4, r4, #1
 2131              	.LVL200:
 2132              		.loc 1 965 0
 2133 005e FFF7FEFF 		bl	vex_chprintf
 2134              	.LVL201:
 2135              		.loc 1 960 0
 2136 0062 B442     		cmp	r4, r6
 2137 0064 EFDB     		blt	.L155
 2138              	.LVL202:
 2139              	.L154:
 2140              		.loc 1 968 0
ARM GAS  /tmp/cc4PNelj.s 			page 39


 2141 0066 40F20001 		movw	r1, #:lower16:.LC3
 2142 006a 2846     		mov	r0, r5
 2143 006c C0F20001 		movt	r1, #:upper16:.LC3
 2144              		.loc 1 969 0
 2145 0070 BDE8F840 		pop	{r3, r4, r5, r6, r7, lr}
 2146              	.LVL203:
 2147              		.loc 1 968 0
 2148 0074 FFF7FEBF 		b	vex_chprintf
 2149              	.LVL204:
 2150              	.L148:
 2151              		.loc 1 958 0
 2152 0078 40F20001 		movw	r1, #:lower16:.LC4
 2153              	.LVL205:
 2154 007c C0F20001 		movt	r1, #:upper16:.LC4
 2155 0080 FFF7FEFF 		bl	vex_chprintf
 2156              	.LVL206:
 2157 0084 EFE7     		b	.L154
 2158              		.cfi_endproc
 2159              	.LFE89:
 2160              		.size	vexIMEPrintBuf, .-vexIMEPrintBuf
 2161 0086 00BFAFF3 		.section	.text.vexImeTask,"ax",%progbits
 2161      0080AFF3 
 2161      0080
 2162              		.align	2
 2163              		.p2align 4,,15
 2164              		.thumb
 2165              		.thumb_func
 2166              		.type	vexImeTask, %function
 2167              	vexImeTask:
 2168              	.LFB71:
 2169              		.loc 1 244 0
 2170              		.cfi_startproc
 2171              		@ args = 0, pretend = 0, frame = 0
 2172              		@ frame_needed = 0, uses_anonymous_args = 0
 2173              	.LVL207:
 2174 0000 2DE9F041 		push	{r4, r5, r6, r7, r8, lr}
 2175              		.cfi_def_cfa_offset 24
 2176              		.cfi_offset 4, -24
 2177              		.cfi_offset 5, -20
 2178              		.cfi_offset 6, -16
 2179              		.cfi_offset 7, -12
 2180              		.cfi_offset 8, -8
 2181              		.cfi_offset 14, -4
 2182              		.loc 1 248 0
 2183 0004 40F20007 		movw	r7, #:lower16:rlist
 2184 0008 C0F20007 		movt	r7, #:upper16:rlist
 2185 000c BB69     		ldr	r3, [r7, #24]
 2186 000e 40F20002 		movw	r2, #:lower16:.LC5
 2187 0012 C0F20002 		movt	r2, #:upper16:.LC5
 2188 0016 9A61     		str	r2, [r3, #24]
 2189              		.loc 1 253 0
 2190 0018 5B7F     		ldrb	r3, [r3, #29]	@ zero_extendqisi2
 2191              		.loc 1 251 0
 2192 001a 40F20006 		movw	r6, #:lower16:.LANCHOR0
 2193 001e C0F20006 		movt	r6, #:upper16:.LANCHOR0
 2194 0022 0121     		movs	r1, #1
 2195              		.loc 1 253 0
ARM GAS  /tmp/cc4PNelj.s 			page 40


 2196 0024 03F00403 		and	r3, r3, #4
 2197              		.loc 1 255 0
 2198 0028 B046     		mov	r8, r6
 2199              		.loc 1 251 0
 2200 002a 3183     		strh	r1, [r6, #24]	@ movhi
 2201              		.loc 1 253 0
 2202 002c 03F0FF05 		and	r5, r3, #255
 2203 0030 03BB     		cbnz	r3, .L170
 2204              	.LVL208:
 2205              	.L167:
 2206              		.loc 1 255 0
 2207 0032 338B     		ldrh	r3, [r6, #24]
 2208 0034 012B     		cmp	r3, #1
 2209 0036 20D0     		beq	.L159
 2210              	.L169:
 2211 0038 B8F80830 		ldrh	r3, [r8, #8]
 2212              		.loc 1 280 0
 2213 003c 1BB2     		sxth	r3, r3
 2214 003e 002B     		cmp	r3, #0
 2215 0040 5EDD     		ble	.L162
 2216              	.L171:
 2217              	.LVL209:
 2218 0042 334D     		ldr	r5, .L173
 2219 0044 0024     		movs	r4, #0
 2220              	.LVL210:
 2221              	.L166:
 2222              		.loc 1 285 0
 2223 0046 2846     		mov	r0, r5
 2224 0048 FFF7FEFF 		bl	vexIMEUpdateCounts
 2225              	.LVL211:
 2226 004c 0346     		mov	r3, r0
 2227              		.loc 1 282 0
 2228 004e 0134     		adds	r4, r4, #1
 2229              	.LVL212:
 2230 0050 6C35     		adds	r5, r5, #108
 2231              		.loc 1 289 0
 2232 0052 0120     		movs	r0, #1
 2233              		.loc 1 285 0
 2234 0054 03B9     		cbnz	r3, .L164
 2235              		.loc 1 286 0
 2236 0056 F382     		strh	r3, [r6, #22]	@ movhi
 2237              	.L164:
 2238              		.loc 1 289 0
 2239 0058 FFF7FEFF 		bl	chThdSleep
 2240              	.LVL213:
 2241              		.loc 1 282 0
 2242 005c B6F90830 		ldrsh	r3, [r6, #8]
 2243 0060 A342     		cmp	r3, r4
 2244 0062 F0DC     		bgt	.L166
 2245 0064 BB69     		ldr	r3, [r7, #24]
 2246              	.LVL214:
 2247              	.L172:
 2248              		.loc 1 253 0
 2249 0066 5B7F     		ldrb	r3, [r3, #29]	@ zero_extendqisi2
 2250 0068 03F00403 		and	r3, r3, #4
 2251 006c 03F0FF05 		and	r5, r3, #255
 2252 0070 002B     		cmp	r3, #0
ARM GAS  /tmp/cc4PNelj.s 			page 41


 2253 0072 DED0     		beq	.L167
 2254              	.L170:
 2255              		.loc 1 302 0
 2256 0074 0020     		movs	r0, #0
 2257 0076 BDE8F081 		pop	{r4, r5, r6, r7, r8, pc}
 2258              	.L159:
 2259              		.loc 1 258 0
 2260 007a FFF7FEFF 		bl	vexIMEFindEncoders
 2261              	.LVL215:
 2262              		.loc 1 261 0
 2263 007e B8F81A30 		ldrh	r3, [r8, #26]
 2264 0082 002B     		cmp	r3, #0
 2265 0084 D8D0     		beq	.L169
 2266              	.LVL216:
 2267              		.loc 1 263 0 discriminator 1
 2268 0086 B8F90830 		ldrsh	r3, [r8, #8]
 2269 008a 002B     		cmp	r3, #0
 2270 008c 38DD     		ble	.L162
 2271 008e 214C     		ldr	r4, .L173+4
 2272              	.LVL217:
 2273              	.L163:
 2274              		.loc 1 266 0 discriminator 2
 2275 0090 40F20001 		movw	r1, #:lower16:.LC6
 2276 0094 2A46     		mov	r2, r5
 2277 0096 C0F20001 		movt	r1, #:upper16:.LC6
 2278 009a 7068     		ldr	r0, [r6, #4]
 2279 009c FFF7FEFF 		bl	vex_chprintf
 2280              	.LVL218:
 2281              		.loc 1 267 0 discriminator 2
 2282 00a0 40F20001 		movw	r1, #:lower16:.LC7
 2283 00a4 C0F20001 		movt	r1, #:upper16:.LC7
 2284 00a8 7068     		ldr	r0, [r6, #4]
 2285 00aa FFF7FEFF 		bl	vex_chprintf
 2286              	.LVL219:
 2287              		.loc 1 268 0 discriminator 2
 2288 00ae 2146     		mov	r1, r4
 2289 00b0 0822     		movs	r2, #8
 2290 00b2 7068     		ldr	r0, [r6, #4]
 2291 00b4 FFF7FEFF 		bl	vexIMEPrintBuf
 2292              	.LVL220:
 2293              		.loc 1 270 0 discriminator 2
 2294 00b8 40F20001 		movw	r1, #:lower16:.LC8
 2295 00bc C0F20001 		movt	r1, #:upper16:.LC8
 2296 00c0 7068     		ldr	r0, [r6, #4]
 2297 00c2 FFF7FEFF 		bl	vex_chprintf
 2298              	.LVL221:
 2299              		.loc 1 271 0 discriminator 2
 2300 00c6 04F11001 		add	r1, r4, #16
 2301 00ca 0822     		movs	r2, #8
 2302 00cc 7068     		ldr	r0, [r6, #4]
 2303 00ce FFF7FEFF 		bl	vexIMEPrintBuf
 2304              	.LVL222:
 2305              		.loc 1 273 0 discriminator 2
 2306 00d2 40F20001 		movw	r1, #:lower16:.LC9
 2307 00d6 C0F20001 		movt	r1, #:upper16:.LC9
 2308 00da 7068     		ldr	r0, [r6, #4]
 2309 00dc FFF7FEFF 		bl	vex_chprintf
ARM GAS  /tmp/cc4PNelj.s 			page 42


 2310              	.LVL223:
 2311              		.loc 1 274 0 discriminator 2
 2312 00e0 04F12001 		add	r1, r4, #32
 2313 00e4 0822     		movs	r2, #8
 2314 00e6 7068     		ldr	r0, [r6, #4]
 2315 00e8 FFF7FEFF 		bl	vexIMEPrintBuf
 2316              	.LVL224:
 2317              		.loc 1 263 0 discriminator 2
 2318 00ec 3389     		ldrh	r3, [r6, #8]
 2319 00ee 0135     		adds	r5, r5, #1
 2320              	.LVL225:
 2321 00f0 1AB2     		sxth	r2, r3
 2322 00f2 AA42     		cmp	r2, r5
 2323 00f4 04F16C04 		add	r4, r4, #108
 2324 00f8 CADC     		bgt	.L163
 2325              		.loc 1 280 0
 2326 00fa 1BB2     		sxth	r3, r3
 2327 00fc 002B     		cmp	r3, #0
 2328 00fe A0DC     		bgt	.L171
 2329              	.LVL226:
 2330              	.L162:
 2331              		.loc 1 295 0
 2332 0100 0123     		movs	r3, #1
 2333              		.loc 1 297 0
 2334 0102 0A20     		movs	r0, #10
 2335              		.loc 1 295 0
 2336 0104 3383     		strh	r3, [r6, #24]	@ movhi
 2337              		.loc 1 297 0
 2338 0106 FFF7FEFF 		bl	chThdSleep
 2339              	.LVL227:
 2340 010a BB69     		ldr	r3, [r7, #24]
 2341 010c ABE7     		b	.L172
 2342              	.L174:
 2343 010e 00BF     		.align	2
 2344              	.L173:
 2345 0110 1C000000 		.word	.LANCHOR0+28
 2346 0114 22000000 		.word	.LANCHOR0+34
 2347              		.cfi_endproc
 2348              	.LFE71:
 2349              		.size	vexImeTask, .-vexImeTask
 2350 0118 AFF30080 		.section	.text.vexIMEDebug,"ax",%progbits
 2350      AFF30080 
 2351              		.align	2
 2352              		.p2align 4,,15
 2353              		.global	vexIMEDebug
 2354              		.thumb
 2355              		.thumb_func
 2356              		.type	vexIMEDebug, %function
 2357              	vexIMEDebug:
 2358              	.LFB90:
 2359              		.loc 1 980 0
 2360              		.cfi_startproc
 2361              		@ args = 0, pretend = 0, frame = 0
 2362              		@ frame_needed = 0, uses_anonymous_args = 0
 2363              	.LVL228:
 2364 0000 F0B5     		push	{r4, r5, r6, r7, lr}
 2365              		.cfi_def_cfa_offset 20
ARM GAS  /tmp/cc4PNelj.s 			page 43


 2366              		.cfi_offset 4, -20
 2367              		.cfi_offset 5, -16
 2368              		.cfi_offset 6, -12
 2369              		.cfi_offset 7, -8
 2370              		.cfi_offset 14, -4
 2371              		.loc 1 986 0
 2372 0002 40F20007 		movw	r7, #:lower16:.LANCHOR0
 2373 0006 C0F20007 		movt	r7, #:upper16:.LANCHOR0
 2374 000a 40F20001 		movw	r1, #:lower16:.LC10
 2375              	.LVL229:
 2376              		.loc 1 980 0
 2377 000e 85B0     		sub	sp, sp, #20
 2378              		.cfi_def_cfa_offset 40
 2379              		.loc 1 986 0
 2380 0010 B7F90820 		ldrsh	r2, [r7, #8]
 2381              	.LVL230:
 2382 0014 C0F20001 		movt	r1, #:upper16:.LC10
 2383              		.loc 1 980 0
 2384 0018 0546     		mov	r5, r0
 2385              		.loc 1 986 0
 2386 001a FFF7FEFF 		bl	vex_chprintf
 2387              	.LVL231:
 2388              		.loc 1 987 0
 2389 001e B88A     		ldrh	r0, [r7, #20]
 2390 0020 3E8A     		ldrh	r6, [r7, #16]
 2391 0022 7C8A     		ldrh	r4, [r7, #18]
 2392 0024 40F20001 		movw	r1, #:lower16:.LC11
 2393 0028 FB89     		ldrh	r3, [r7, #14]
 2394 002a BA89     		ldrh	r2, [r7, #12]
 2395 002c C0F20001 		movt	r1, #:upper16:.LC11
 2396 0030 0290     		str	r0, [sp, #8]
 2397 0032 0096     		str	r6, [sp]
 2398 0034 0194     		str	r4, [sp, #4]
 2399 0036 2846     		mov	r0, r5
 2400 0038 FFF7FEFF 		bl	vex_chprintf
 2401              	.LVL232:
 2402              		.loc 1 990 0
 2403 003c B7F90830 		ldrsh	r3, [r7, #8]
 2404 0040 002B     		cmp	r3, #0
 2405 0042 5EDD     		ble	.L175
 2406 0044 07F14204 		add	r4, r7, #66
 2407 0048 0026     		movs	r6, #0
 2408              	.LVL233:
 2409              	.L185:
 2410              		.loc 1 992 0
 2411 004a 0136     		adds	r6, r6, #1
 2412              	.LVL234:
 2413 004c 40F20001 		movw	r1, #:lower16:.LC12
 2414 0050 3246     		mov	r2, r6
 2415 0052 C0F20001 		movt	r1, #:upper16:.LC12
 2416 0056 2846     		mov	r0, r5
 2417 0058 FFF7FEFF 		bl	vex_chprintf
 2418              	.LVL235:
 2419              		.loc 1 994 0
 2420 005c 14F8253C 		ldrb	r3, [r4, #-37]	@ zero_extendqisi2
 2421 0060 032B     		cmp	r3, #3
 2422 0062 68D8     		bhi	.L177
ARM GAS  /tmp/cc4PNelj.s 			page 44


 2423 0064 DFE803F0 		tbb	[pc, r3]
 2424              	.L179:
 2425 0068 5F       		.byte	(.L178-.L179)/2
 2426 0069 57       		.byte	(.L180-.L179)/2
 2427 006a 4F       		.byte	(.L181-.L179)/2
 2428 006b 02       		.byte	(.L182-.L179)/2
 2429              		.align	1
 2430              	.L182:
 2431              		.loc 1 1006 0
 2432 006c 40F20001 		movw	r1, #:lower16:.LC16
 2433 0070 C0F20001 		movt	r1, #:upper16:.LC16
 2434 0074 2846     		mov	r0, r5
 2435 0076 FFF7FEFF 		bl	vex_chprintf
 2436              	.LVL236:
 2437              	.L183:
 2438              		.loc 1 1013 0
 2439 007a 34F8223C 		ldrh	r3, [r4, #-34]
 2440 007e 40F20001 		movw	r1, #:lower16:.LC18
 2441 0082 0133     		adds	r3, r3, #1
 2442 0084 2246     		mov	r2, r4
 2443 0086 C0F20001 		movt	r1, #:upper16:.LC18
 2444 008a 2846     		mov	r0, r5
 2445 008c FFF7FEFF 		bl	vex_chprintf
 2446              	.LVL237:
 2447              		.loc 1 1014 0
 2448 0090 40F20001 		movw	r1, #:lower16:.LC19
 2449 0094 D4F83E20 		ldr	r2, [r4, #62]
 2450 0098 C0F20001 		movt	r1, #:upper16:.LC19
 2451 009c 2846     		mov	r0, r5
 2452 009e FFF7FEFF 		bl	vex_chprintf
 2453              	.LVL238:
 2454              		.loc 1 1015 0
 2455 00a2 40F20001 		movw	r1, #:lower16:.LC20
 2456 00a6 D4F84220 		ldr	r2, [r4, #66]
 2457 00aa C0F20001 		movt	r1, #:upper16:.LC20
 2458 00ae 2846     		mov	r0, r5
 2459 00b0 FFF7FEFF 		bl	vex_chprintf
 2460              	.LVL239:
 2461              		.loc 1 1016 0
 2462 00b4 40F20001 		movw	r1, #:lower16:.LC21
 2463 00b8 D4F82220 		ldr	r2, [r4, #34]
 2464 00bc C0F20001 		movt	r1, #:upper16:.LC21
 2465 00c0 2846     		mov	r0, r5
 2466 00c2 FFF7FEFF 		bl	vex_chprintf
 2467              	.LVL240:
 2468              		.loc 1 1017 0
 2469 00c6 40F20001 		movw	r1, #:lower16:.LC22
 2470 00ca D4F82A20 		ldr	r2, [r4, #42]
 2471 00ce C0F20001 		movt	r1, #:upper16:.LC22
 2472 00d2 2846     		mov	r0, r5
 2473 00d4 FFF7FEFF 		bl	vex_chprintf
 2474              	.LVL241:
 2475              		.loc 1 1018 0
 2476 00d8 40F20001 		movw	r1, #:lower16:.LC23
 2477 00dc D4F83220 		ldr	r2, [r4, #50]
 2478 00e0 C0F20001 		movt	r1, #:upper16:.LC23
 2479 00e4 2846     		mov	r0, r5
ARM GAS  /tmp/cc4PNelj.s 			page 45


 2480 00e6 FFF7FEFF 		bl	vex_chprintf
 2481              	.LVL242:
 2482              		.loc 1 1019 0
 2483 00ea 40F20001 		movw	r1, #:lower16:.LC3
 2484 00ee 2846     		mov	r0, r5
 2485 00f0 C0F20001 		movt	r1, #:upper16:.LC3
 2486 00f4 FFF7FEFF 		bl	vex_chprintf
 2487              	.LVL243:
 2488              		.loc 1 990 0
 2489 00f8 B7F90830 		ldrsh	r3, [r7, #8]
 2490 00fc 6C34     		adds	r4, r4, #108
 2491 00fe B342     		cmp	r3, r6
 2492 0100 A3DC     		bgt	.L185
 2493              	.LVL244:
 2494              	.L175:
 2495              		.loc 1 1021 0
 2496 0102 05B0     		add	sp, sp, #20
 2497              		@ sp needed
 2498 0104 F0BD     		pop	{r4, r5, r6, r7, pc}
 2499              	.LVL245:
 2500              	.L181:
 2501              		.loc 1 1003 0
 2502 0106 40F20001 		movw	r1, #:lower16:.LC15
 2503 010a C0F20001 		movt	r1, #:upper16:.LC15
 2504 010e 2846     		mov	r0, r5
 2505 0110 FFF7FEFF 		bl	vex_chprintf
 2506              	.LVL246:
 2507              		.loc 1 1004 0
 2508 0114 B1E7     		b	.L183
 2509              	.L180:
 2510              		.loc 1 1000 0
 2511 0116 40F20001 		movw	r1, #:lower16:.LC14
 2512 011a C0F20001 		movt	r1, #:upper16:.LC14
 2513 011e 2846     		mov	r0, r5
 2514 0120 FFF7FEFF 		bl	vex_chprintf
 2515              	.LVL247:
 2516              		.loc 1 1001 0
 2517 0124 A9E7     		b	.L183
 2518              	.L178:
 2519              		.loc 1 997 0
 2520 0126 40F20001 		movw	r1, #:lower16:.LC13
 2521 012a C0F20001 		movt	r1, #:upper16:.LC13
 2522 012e 2846     		mov	r0, r5
 2523 0130 FFF7FEFF 		bl	vex_chprintf
 2524              	.LVL248:
 2525              		.loc 1 998 0
 2526 0134 A1E7     		b	.L183
 2527              	.L177:
 2528              		.loc 1 1009 0
 2529 0136 40F20001 		movw	r1, #:lower16:.LC17
 2530 013a C0F20001 		movt	r1, #:upper16:.LC17
 2531 013e 2846     		mov	r0, r5
 2532 0140 FFF7FEFF 		bl	vex_chprintf
 2533              	.LVL249:
 2534              		.loc 1 1010 0
 2535 0144 99E7     		b	.L183
 2536              		.cfi_endproc
ARM GAS  /tmp/cc4PNelj.s 			page 46


 2537              	.LFE90:
 2538              		.size	vexIMEDebug, .-vexIMEDebug
 2539 0146 00BFAFF3 		.section	.bss.errors,"aw",%nobits
 2539      0080AFF3 
 2539      0080
 2540              		.align	2
 2541              		.set	.LANCHOR3,. + 0
 2542              		.type	errors, %object
 2543              		.size	errors, 4
 2544              	errors:
 2545 0000 00000000 		.space	4
 2546              		.section	.bss.waVexImeTask,"aw",%nobits
 2547              		.align	3
 2548              		.set	.LANCHOR2,. + 0
 2549              		.type	waVexImeTask, %object
 2550              		.size	waVexImeTask, 640
 2551              	waVexImeTask:
 2552 0000 00000000 		.space	640
 2552      00000000 
 2552      00000000 
 2552      00000000 
 2552      00000000 
 2553              		.section	.rodata.str1.4,"aMS",%progbits,1
 2554              		.align	2
 2555              	.LC0:
 2556 0000 25303258 		.ascii	"%02X \000"
 2556      2000
 2557 0006 0000     		.space	2
 2558              	.LC1:
 2559 0008 256300   		.ascii	"%c\000"
 2560 000b 00       		.space	1
 2561              	.LC2:
 2562 000c 2E00     		.ascii	".\000"
 2563 000e 0000     		.space	2
 2564              	.LC3:
 2565 0010 0D0A00   		.ascii	"\015\012\000"
 2566 0013 00       		.space	1
 2567              	.LC4:
 2568 0014 3A2000   		.ascii	": \000"
 2569 0017 00       		.space	1
 2570              	.LC5:
 2571 0018 696D6500 		.ascii	"ime\000"
 2572              	.LC6:
 2573 001c 456E636F 		.ascii	"Encoder:%d\015\012\000"
 2573      6465723A 
 2573      25640D0A 
 2573      00
 2574 0029 000000   		.space	3
 2575              	.LC7:
 2576 002c 56657273 		.ascii	"Version:   \000"
 2576      696F6E3A 
 2576      20202000 
 2577              	.LC8:
 2578 0038 56656E64 		.ascii	"Vendor:    \000"
 2578      6F723A20 
 2578      20202000 
 2579              	.LC9:
ARM GAS  /tmp/cc4PNelj.s 			page 47


 2580 0044 44657669 		.ascii	"Device ID: \000"
 2580      63652049 
 2580      443A2000 
 2581              	.LC10:
 2582 0050 25642049 		.ascii	"%d IME's found\015\012\000"
 2582      4D452773 
 2582      20666F75 
 2582      6E640D0A 
 2582      00
 2583 0061 000000   		.space	3
 2584              	.LC11:
 2585 0064 4572726F 		.ascii	"Errors Lock(%d) Ack(%d) Bus(%d) Arb(%d) Tim(%d)\015"
 2585      7273204C 
 2585      6F636B28 
 2585      25642920 
 2585      41636B28 
 2586 0094 0A00     		.ascii	"\012\000"
 2587 0096 0000     		.space	2
 2588              	.LC12:
 2589 0098 494D455F 		.ascii	"IME_%d \000"
 2589      25642000 
 2590              	.LC13:
 2591 00a0 32363920 		.ascii	"269  \000"
 2591      2000
 2592 00a6 0000     		.space	2
 2593              	.LC14:
 2594 00a8 33393354 		.ascii	"393T \000"
 2594      2000
 2595 00ae 0000     		.space	2
 2596              	.LC15:
 2597 00b0 33393353 		.ascii	"393S \000"
 2597      2000
 2598 00b6 0000     		.space	2
 2599              	.LC16:
 2600 00b8 33393352 		.ascii	"393R \000"
 2600      2000
 2601 00be 0000     		.space	2
 2602              	.LC17:
 2603 00c0 2D2D2D2D 		.ascii	"---- \000"
 2603      2000
 2604 00c6 0000     		.space	2
 2605              	.LC18:
 2606 00c8 28252D38 		.ascii	"(%-8s) M_%-2d \000"
 2606      7329204D 
 2606      5F252D32 
 2606      642000
 2607 00d7 00       		.space	1
 2608              	.LC19:
 2609 00d8 2538642F 		.ascii	"%8d/\000"
 2609      00
 2610 00dd 000000   		.space	3
 2611              	.LC20:
 2612 00e0 252D3564 		.ascii	"%-5d \000"
 2612      2000
 2613 00e6 0000     		.space	2
 2614              	.LC21:
 2615 00e8 636F756E 		.ascii	"count %6d \000"
ARM GAS  /tmp/cc4PNelj.s 			page 48


 2615      74202536 
 2615      642000
 2616 00f3 00       		.space	1
 2617              	.LC22:
 2618 00f4 76656C20 		.ascii	"vel   %5d \000"
 2618      20202535 
 2618      642000
 2619 00ff 00       		.space	1
 2620              	.LC23:
 2621 0100 72706D20 		.ascii	"rpm   %3d \000"
 2621      20202533 
 2621      642000
 2622 010b 00       		.section	.rodata.imeI2cConfig,"a",%progbits
 2623              		.align	2
 2624              		.set	.LANCHOR1,. + 0
 2625              		.type	imeI2cConfig, %object
 2626              		.size	imeI2cConfig, 12
 2627              	imeI2cConfig:
 2628 0000 01       		.byte	1
 2629 0001 000000   		.space	3
 2630 0004 A0860100 		.word	100000
 2631 0008 02       		.byte	2
 2632 0009 000000   		.space	3
 2633              		.section	.bss.vexImes,"aw",%nobits
 2634              		.align	2
 2635              		.set	.LANCHOR0,. + 0
 2636              		.type	vexImes, %object
 2637              		.size	vexImes, 892
 2638              	vexImes:
 2639 0000 00000000 		.space	892
 2639      00000000 
 2639      00000000 
 2639      00000000 
 2639      00000000 
 2640              		.text
 2641              	.Letext0:
 2642              		.file 2 "/usr/lib/gcc/arm-none-eabi/4.8.2/include/stddef.h"
 2643              		.file 3 "/usr/include/newlib/machine/_default_types.h"
 2644              		.file 4 "/usr/include/newlib/stdint.h"
 2645              		.file 5 "../../../../ChibiOS_2.6.2/os/ports/GCC/ARMCMx/chtypes.h"
 2646              		.file 6 "../../../../ChibiOS_2.6.2/os/kernel/include/chlists.h"
 2647              		.file 7 "../../../../ChibiOS_2.6.2/os/kernel/include/chthreads.h"
 2648              		.file 8 "../../../../ChibiOS_2.6.2/os/ports/GCC/ARMCMx/chcore_v7m.h"
 2649              		.file 9 "../../../../ChibiOS_2.6.2/os/kernel/include/chschd.h"
 2650              		.file 10 "../../../../ChibiOS_2.6.2/os/kernel/include/chmtx.h"
 2651              		.file 11 "../../../../ChibiOS_2.6.2/os/kernel/include/chmemcore.h"
 2652              		.file 12 "../../../../ChibiOS_2.6.2/os/kernel/include/chheap.h"
 2653              		.file 13 "../../../../ChibiOS_2.6.2/os/kernel/include/chstreams.h"
 2654              		.file 14 "../../../../ChibiOS_2.6.2/os/hal/platforms/STM32F1xx/stm32f10x.h"
 2655              		.file 15 "../../../../ChibiOS_2.6.2/os/hal/platforms/STM32F1xx/stm32_dma.h"
 2656              		.file 16 "../../../../ChibiOS_2.6.2/os/hal/include/i2c.h"
 2657              		.file 17 "../../../../ChibiOS_2.6.2/os/hal/platforms/STM32/I2Cv1/i2c_lld.h"
 2658              		.file 18 "../../fw/vexcompat.h"
 2659              		.file 19 "../../fw/vexdigital.h"
 2660              		.file 20 "../../fw/vexmotor.h"
 2661              		.file 21 "../../fw/vexime.h"
 2662              		.file 22 "../../../../ChibiOS_2.6.2/os/ports/common/ARMCMx/CMSIS/include/core_cm3.h"
ARM GAS  /tmp/cc4PNelj.s 			page 49


 2663              		.file 23 "../../fw/vexprintf.h"
 2664              		.section	.debug_info,"",%progbits
 2665              	.Ldebug_info0:
 2666 0000 AB1F0000 		.4byte	0x1fab
 2667 0004 0400     		.2byte	0x4
 2668 0006 00000000 		.4byte	.Ldebug_abbrev0
 2669 000a 04       		.byte	0x4
 2670 000b 01       		.uleb128 0x1
 2671 000c 11030000 		.4byte	.LASF273
 2672 0010 01       		.byte	0x1
 2673 0011 38090000 		.4byte	.LASF274
 2674 0015 A5080000 		.4byte	.LASF275
 2675 0019 00000000 		.4byte	.Ldebug_ranges0+0
 2676 001d 00000000 		.4byte	0
 2677 0021 00000000 		.4byte	.Ldebug_line0
 2678 0025 02       		.uleb128 0x2
 2679 0026 6C040000 		.4byte	.LASF2
 2680 002a 02       		.byte	0x2
 2681 002b D4       		.byte	0xd4
 2682 002c 30000000 		.4byte	0x30
 2683 0030 03       		.uleb128 0x3
 2684 0031 04       		.byte	0x4
 2685 0032 07       		.byte	0x7
 2686 0033 E00A0000 		.4byte	.LASF0
 2687 0037 04       		.uleb128 0x4
 2688 0038 04       		.byte	0x4
 2689 0039 05       		.uleb128 0x5
 2690 003a 04       		.byte	0x4
 2691 003b 05       		.byte	0x5
 2692 003c 696E7400 		.ascii	"int\000"
 2693 0040 03       		.uleb128 0x3
 2694 0041 01       		.byte	0x1
 2695 0042 06       		.byte	0x6
 2696 0043 E5010000 		.4byte	.LASF1
 2697 0047 02       		.uleb128 0x2
 2698 0048 A90A0000 		.4byte	.LASF3
 2699 004c 03       		.byte	0x3
 2700 004d 1C       		.byte	0x1c
 2701 004e 52000000 		.4byte	0x52
 2702 0052 03       		.uleb128 0x3
 2703 0053 01       		.byte	0x1
 2704 0054 08       		.byte	0x8
 2705 0055 7D0B0000 		.4byte	.LASF4
 2706 0059 02       		.uleb128 0x2
 2707 005a 55070000 		.4byte	.LASF5
 2708 005e 03       		.byte	0x3
 2709 005f 25       		.byte	0x25
 2710 0060 64000000 		.4byte	0x64
 2711 0064 03       		.uleb128 0x3
 2712 0065 02       		.byte	0x2
 2713 0066 05       		.byte	0x5
 2714 0067 1D000000 		.4byte	.LASF6
 2715 006b 02       		.uleb128 0x2
 2716 006c B9030000 		.4byte	.LASF7
 2717 0070 03       		.byte	0x3
 2718 0071 26       		.byte	0x26
 2719 0072 76000000 		.4byte	0x76
ARM GAS  /tmp/cc4PNelj.s 			page 50


 2720 0076 03       		.uleb128 0x3
 2721 0077 02       		.byte	0x2
 2722 0078 07       		.byte	0x7
 2723 0079 2F0C0000 		.4byte	.LASF8
 2724 007d 02       		.uleb128 0x2
 2725 007e 02010000 		.4byte	.LASF9
 2726 0082 03       		.byte	0x3
 2727 0083 37       		.byte	0x37
 2728 0084 88000000 		.4byte	0x88
 2729 0088 03       		.uleb128 0x3
 2730 0089 04       		.byte	0x4
 2731 008a 05       		.byte	0x5
 2732 008b 2E0A0000 		.4byte	.LASF10
 2733 008f 02       		.uleb128 0x2
 2734 0090 970B0000 		.4byte	.LASF11
 2735 0094 03       		.byte	0x3
 2736 0095 38       		.byte	0x38
 2737 0096 9A000000 		.4byte	0x9a
 2738 009a 03       		.uleb128 0x3
 2739 009b 04       		.byte	0x4
 2740 009c 07       		.byte	0x7
 2741 009d 0E0B0000 		.4byte	.LASF12
 2742 00a1 03       		.uleb128 0x3
 2743 00a2 08       		.byte	0x8
 2744 00a3 05       		.byte	0x5
 2745 00a4 C8060000 		.4byte	.LASF13
 2746 00a8 02       		.uleb128 0x2
 2747 00a9 C8040000 		.4byte	.LASF14
 2748 00ad 03       		.byte	0x3
 2749 00ae 4E       		.byte	0x4e
 2750 00af B3000000 		.4byte	0xb3
 2751 00b3 03       		.uleb128 0x3
 2752 00b4 08       		.byte	0x8
 2753 00b5 07       		.byte	0x7
 2754 00b6 B6020000 		.4byte	.LASF15
 2755 00ba 03       		.uleb128 0x3
 2756 00bb 04       		.byte	0x4
 2757 00bc 07       		.byte	0x7
 2758 00bd FD0A0000 		.4byte	.LASF16
 2759 00c1 06       		.uleb128 0x6
 2760 00c2 04       		.byte	0x4
 2761 00c3 C7000000 		.4byte	0xc7
 2762 00c7 03       		.uleb128 0x3
 2763 00c8 01       		.byte	0x1
 2764 00c9 08       		.byte	0x8
 2765 00ca 78050000 		.4byte	.LASF17
 2766 00ce 06       		.uleb128 0x6
 2767 00cf 04       		.byte	0x4
 2768 00d0 D4000000 		.4byte	0xd4
 2769 00d4 07       		.uleb128 0x7
 2770 00d5 C7000000 		.4byte	0xc7
 2771 00d9 02       		.uleb128 0x2
 2772 00da F5050000 		.4byte	.LASF18
 2773 00de 04       		.byte	0x4
 2774 00df 2A       		.byte	0x2a
 2775 00e0 47000000 		.4byte	0x47
 2776 00e4 02       		.uleb128 0x2
ARM GAS  /tmp/cc4PNelj.s 			page 51


 2777 00e5 780A0000 		.4byte	.LASF19
 2778 00e9 04       		.byte	0x4
 2779 00ea 35       		.byte	0x35
 2780 00eb 59000000 		.4byte	0x59
 2781 00ef 02       		.uleb128 0x2
 2782 00f0 9C080000 		.4byte	.LASF20
 2783 00f4 04       		.byte	0x4
 2784 00f5 36       		.byte	0x36
 2785 00f6 6B000000 		.4byte	0x6b
 2786 00fa 02       		.uleb128 0x2
 2787 00fb 3F0B0000 		.4byte	.LASF21
 2788 00ff 04       		.byte	0x4
 2789 0100 41       		.byte	0x41
 2790 0101 7D000000 		.4byte	0x7d
 2791 0105 02       		.uleb128 0x2
 2792 0106 0D020000 		.4byte	.LASF22
 2793 010a 04       		.byte	0x4
 2794 010b 42       		.byte	0x42
 2795 010c 8F000000 		.4byte	0x8f
 2796 0110 02       		.uleb128 0x2
 2797 0111 8D0A0000 		.4byte	.LASF23
 2798 0115 04       		.byte	0x4
 2799 0116 4E       		.byte	0x4e
 2800 0117 A8000000 		.4byte	0xa8
 2801 011b 03       		.uleb128 0x3
 2802 011c 01       		.byte	0x1
 2803 011d 02       		.byte	0x2
 2804 011e A4040000 		.4byte	.LASF24
 2805 0122 02       		.uleb128 0x2
 2806 0123 7A080000 		.4byte	.LASF25
 2807 0127 05       		.byte	0x5
 2808 0128 2C       		.byte	0x2c
 2809 0129 D9000000 		.4byte	0xd9
 2810 012d 02       		.uleb128 0x2
 2811 012e A8050000 		.4byte	.LASF26
 2812 0132 05       		.byte	0x5
 2813 0133 2D       		.byte	0x2d
 2814 0134 D9000000 		.4byte	0xd9
 2815 0138 02       		.uleb128 0x2
 2816 0139 060B0000 		.4byte	.LASF27
 2817 013d 05       		.byte	0x5
 2818 013e 2E       		.byte	0x2e
 2819 013f D9000000 		.4byte	0xd9
 2820 0143 02       		.uleb128 0x2
 2821 0144 A0070000 		.4byte	.LASF28
 2822 0148 05       		.byte	0x5
 2823 0149 2F       		.byte	0x2f
 2824 014a D9000000 		.4byte	0xd9
 2825 014e 02       		.uleb128 0x2
 2826 014f 85020000 		.4byte	.LASF29
 2827 0153 05       		.byte	0x5
 2828 0154 30       		.byte	0x30
 2829 0155 05010000 		.4byte	0x105
 2830 0159 02       		.uleb128 0x2
 2831 015a 33070000 		.4byte	.LASF30
 2832 015e 05       		.byte	0x5
 2833 015f 31       		.byte	0x31
ARM GAS  /tmp/cc4PNelj.s 			page 52


 2834 0160 FA000000 		.4byte	0xfa
 2835 0164 02       		.uleb128 0x2
 2836 0165 4A020000 		.4byte	.LASF31
 2837 0169 05       		.byte	0x5
 2838 016a 33       		.byte	0x33
 2839 016b 05010000 		.4byte	0x105
 2840 016f 02       		.uleb128 0x2
 2841 0170 20050000 		.4byte	.LASF32
 2842 0174 05       		.byte	0x5
 2843 0175 35       		.byte	0x35
 2844 0176 05010000 		.4byte	0x105
 2845 017a 02       		.uleb128 0x2
 2846 017b A1050000 		.4byte	.LASF33
 2847 017f 06       		.byte	0x6
 2848 0180 2A       		.byte	0x2a
 2849 0181 85010000 		.4byte	0x185
 2850 0185 08       		.uleb128 0x8
 2851 0186 A1050000 		.4byte	.LASF33
 2852 018a 48       		.byte	0x48
 2853 018b 07       		.byte	0x7
 2854 018c 5E       		.byte	0x5e
 2855 018d 82020000 		.4byte	0x282
 2856 0191 09       		.uleb128 0x9
 2857 0192 800A0000 		.4byte	.LASF34
 2858 0196 07       		.byte	0x7
 2859 0197 5F       		.byte	0x5f
 2860 0198 A3020000 		.4byte	0x2a3
 2861 019c 00       		.byte	0
 2862 019d 09       		.uleb128 0x9
 2863 019e F60A0000 		.4byte	.LASF35
 2864 01a2 07       		.byte	0x7
 2865 01a3 61       		.byte	0x61
 2866 01a4 A3020000 		.4byte	0x2a3
 2867 01a8 04       		.byte	0x4
 2868 01a9 09       		.uleb128 0x9
 2869 01aa 37000000 		.4byte	.LASF36
 2870 01ae 07       		.byte	0x7
 2871 01af 63       		.byte	0x63
 2872 01b0 4E010000 		.4byte	0x14e
 2873 01b4 08       		.byte	0x8
 2874 01b5 09       		.uleb128 0x9
 2875 01b6 960A0000 		.4byte	.LASF37
 2876 01ba 07       		.byte	0x7
 2877 01bb 64       		.byte	0x64
 2878 01bc 66030000 		.4byte	0x366
 2879 01c0 0C       		.byte	0xc
 2880 01c1 09       		.uleb128 0x9
 2881 01c2 01040000 		.4byte	.LASF38
 2882 01c6 07       		.byte	0x7
 2883 01c7 66       		.byte	0x66
 2884 01c8 A3020000 		.4byte	0x2a3
 2885 01cc 10       		.byte	0x10
 2886 01cd 09       		.uleb128 0x9
 2887 01ce C4050000 		.4byte	.LASF39
 2888 01d2 07       		.byte	0x7
 2889 01d3 67       		.byte	0x67
 2890 01d4 A3020000 		.4byte	0x2a3
ARM GAS  /tmp/cc4PNelj.s 			page 53


 2891 01d8 14       		.byte	0x14
 2892 01d9 09       		.uleb128 0x9
 2893 01da 3A050000 		.4byte	.LASF40
 2894 01de 07       		.byte	0x7
 2895 01df 6E       		.byte	0x6e
 2896 01e0 CE000000 		.4byte	0xce
 2897 01e4 18       		.byte	0x18
 2898 01e5 09       		.uleb128 0x9
 2899 01e6 C0060000 		.4byte	.LASF41
 2900 01ea 07       		.byte	0x7
 2901 01eb 79       		.byte	0x79
 2902 01ec 2D010000 		.4byte	0x12d
 2903 01f0 1C       		.byte	0x1c
 2904 01f1 09       		.uleb128 0x9
 2905 01f2 4D070000 		.4byte	.LASF42
 2906 01f6 07       		.byte	0x7
 2907 01f7 7D       		.byte	0x7d
 2908 01f8 22010000 		.4byte	0x122
 2909 01fc 1D       		.byte	0x1d
 2910 01fd 09       		.uleb128 0x9
 2911 01fe B00B0000 		.4byte	.LASF43
 2912 0202 07       		.byte	0x7
 2913 0203 82       		.byte	0x82
 2914 0204 38010000 		.4byte	0x138
 2915 0208 1E       		.byte	0x1e
 2916 0209 09       		.uleb128 0x9
 2917 020a ED0B0000 		.4byte	.LASF44
 2918 020e 07       		.byte	0x7
 2919 020f 88       		.byte	0x88
 2920 0210 43010000 		.4byte	0x143
 2921 0214 1F       		.byte	0x1f
 2922 0215 09       		.uleb128 0x9
 2923 0216 27000000 		.4byte	.LASF45
 2924 021a 07       		.byte	0x7
 2925 021b 8F       		.byte	0x8f
 2926 021c 8C030000 		.4byte	0x38c
 2927 0220 20       		.byte	0x20
 2928 0221 0A       		.uleb128 0xa
 2929 0222 705F7500 		.ascii	"p_u\000"
 2930 0226 07       		.byte	0x7
 2931 0227 B4       		.byte	0xb4
 2932 0228 F6040000 		.4byte	0x4f6
 2933 022c 24       		.byte	0x24
 2934 022d 09       		.uleb128 0x9
 2935 022e EB000000 		.4byte	.LASF46
 2936 0232 07       		.byte	0x7
 2937 0233 B9       		.byte	0xb9
 2938 0234 C9020000 		.4byte	0x2c9
 2939 0238 28       		.byte	0x28
 2940 0239 09       		.uleb128 0x9
 2941 023a 750C0000 		.4byte	.LASF47
 2942 023e 07       		.byte	0x7
 2943 023f BF       		.byte	0xbf
 2944 0240 A9020000 		.4byte	0x2a9
 2945 0244 2C       		.byte	0x2c
 2946 0245 09       		.uleb128 0x9
 2947 0246 74080000 		.4byte	.LASF48
ARM GAS  /tmp/cc4PNelj.s 			page 54


 2948 024a 07       		.byte	0x7
 2949 024b C3       		.byte	0xc3
 2950 024c 59010000 		.4byte	0x159
 2951 0250 34       		.byte	0x34
 2952 0251 09       		.uleb128 0x9
 2953 0252 160A0000 		.4byte	.LASF49
 2954 0256 07       		.byte	0x7
 2955 0257 C9       		.byte	0xc9
 2956 0258 64010000 		.4byte	0x164
 2957 025c 38       		.byte	0x38
 2958 025d 09       		.uleb128 0x9
 2959 025e 23060000 		.4byte	.LASF50
 2960 0262 07       		.byte	0x7
 2961 0263 D0       		.byte	0xd0
 2962 0264 2B050000 		.4byte	0x52b
 2963 0268 3C       		.byte	0x3c
 2964 0269 09       		.uleb128 0x9
 2965 026a 82080000 		.4byte	.LASF51
 2966 026e 07       		.byte	0x7
 2967 026f D4       		.byte	0xd4
 2968 0270 4E010000 		.4byte	0x14e
 2969 0274 40       		.byte	0x40
 2970 0275 09       		.uleb128 0x9
 2971 0276 1B060000 		.4byte	.LASF52
 2972 027a 07       		.byte	0x7
 2973 027b DA       		.byte	0xda
 2974 027c 37000000 		.4byte	0x37
 2975 0280 44       		.byte	0x44
 2976 0281 00       		.byte	0
 2977 0282 0B       		.uleb128 0xb
 2978 0283 08       		.byte	0x8
 2979 0284 06       		.byte	0x6
 2980 0285 61       		.byte	0x61
 2981 0286 A3020000 		.4byte	0x2a3
 2982 028a 09       		.uleb128 0x9
 2983 028b 800A0000 		.4byte	.LASF34
 2984 028f 06       		.byte	0x6
 2985 0290 62       		.byte	0x62
 2986 0291 A3020000 		.4byte	0x2a3
 2987 0295 00       		.byte	0
 2988 0296 09       		.uleb128 0x9
 2989 0297 F60A0000 		.4byte	.LASF35
 2990 029b 06       		.byte	0x6
 2991 029c 64       		.byte	0x64
 2992 029d A3020000 		.4byte	0x2a3
 2993 02a1 04       		.byte	0x4
 2994 02a2 00       		.byte	0
 2995 02a3 06       		.uleb128 0x6
 2996 02a4 04       		.byte	0x4
 2997 02a5 7A010000 		.4byte	0x17a
 2998 02a9 02       		.uleb128 0x2
 2999 02aa 6B050000 		.4byte	.LASF53
 3000 02ae 06       		.byte	0x6
 3001 02af 66       		.byte	0x66
 3002 02b0 82020000 		.4byte	0x282
 3003 02b4 0B       		.uleb128 0xb
 3004 02b5 04       		.byte	0x4
ARM GAS  /tmp/cc4PNelj.s 			page 55


 3005 02b6 06       		.byte	0x6
 3006 02b7 6B       		.byte	0x6b
 3007 02b8 C9020000 		.4byte	0x2c9
 3008 02bc 09       		.uleb128 0x9
 3009 02bd 800A0000 		.4byte	.LASF34
 3010 02c1 06       		.byte	0x6
 3011 02c2 6D       		.byte	0x6d
 3012 02c3 A3020000 		.4byte	0x2a3
 3013 02c7 00       		.byte	0
 3014 02c8 00       		.byte	0
 3015 02c9 02       		.uleb128 0x2
 3016 02ca 00000000 		.4byte	.LASF54
 3017 02ce 06       		.byte	0x6
 3018 02cf 70       		.byte	0x70
 3019 02d0 B4020000 		.4byte	0x2b4
 3020 02d4 02       		.uleb128 0x2
 3021 02d5 2E000000 		.4byte	.LASF55
 3022 02d9 08       		.byte	0x8
 3023 02da E5       		.byte	0xe5
 3024 02db 37000000 		.4byte	0x37
 3025 02df 02       		.uleb128 0x2
 3026 02e0 590C0000 		.4byte	.LASF56
 3027 02e4 08       		.byte	0x8
 3028 02e5 EB       		.byte	0xeb
 3029 02e6 10010000 		.4byte	0x110
 3030 02ea 0C       		.uleb128 0xc
 3031 02eb FA080000 		.4byte	.LASF57
 3032 02ef 24       		.byte	0x24
 3033 02f0 08       		.byte	0x8
 3034 02f1 0C01     		.2byte	0x10c
 3035 02f3 66030000 		.4byte	0x366
 3036 02f7 0D       		.uleb128 0xd
 3037 02f8 723400   		.ascii	"r4\000"
 3038 02fb 08       		.byte	0x8
 3039 02fc 1F01     		.2byte	0x11f
 3040 02fe D4020000 		.4byte	0x2d4
 3041 0302 00       		.byte	0
 3042 0303 0D       		.uleb128 0xd
 3043 0304 723500   		.ascii	"r5\000"
 3044 0307 08       		.byte	0x8
 3045 0308 2001     		.2byte	0x120
 3046 030a D4020000 		.4byte	0x2d4
 3047 030e 04       		.byte	0x4
 3048 030f 0D       		.uleb128 0xd
 3049 0310 723600   		.ascii	"r6\000"
 3050 0313 08       		.byte	0x8
 3051 0314 2101     		.2byte	0x121
 3052 0316 D4020000 		.4byte	0x2d4
 3053 031a 08       		.byte	0x8
 3054 031b 0D       		.uleb128 0xd
 3055 031c 723700   		.ascii	"r7\000"
 3056 031f 08       		.byte	0x8
 3057 0320 2201     		.2byte	0x122
 3058 0322 D4020000 		.4byte	0x2d4
 3059 0326 0C       		.byte	0xc
 3060 0327 0D       		.uleb128 0xd
 3061 0328 723800   		.ascii	"r8\000"
ARM GAS  /tmp/cc4PNelj.s 			page 56


 3062 032b 08       		.byte	0x8
 3063 032c 2301     		.2byte	0x123
 3064 032e D4020000 		.4byte	0x2d4
 3065 0332 10       		.byte	0x10
 3066 0333 0D       		.uleb128 0xd
 3067 0334 723900   		.ascii	"r9\000"
 3068 0337 08       		.byte	0x8
 3069 0338 2401     		.2byte	0x124
 3070 033a D4020000 		.4byte	0x2d4
 3071 033e 14       		.byte	0x14
 3072 033f 0D       		.uleb128 0xd
 3073 0340 72313000 		.ascii	"r10\000"
 3074 0344 08       		.byte	0x8
 3075 0345 2501     		.2byte	0x125
 3076 0347 D4020000 		.4byte	0x2d4
 3077 034b 18       		.byte	0x18
 3078 034c 0D       		.uleb128 0xd
 3079 034d 72313100 		.ascii	"r11\000"
 3080 0351 08       		.byte	0x8
 3081 0352 2601     		.2byte	0x126
 3082 0354 D4020000 		.4byte	0x2d4
 3083 0358 1C       		.byte	0x1c
 3084 0359 0D       		.uleb128 0xd
 3085 035a 6C7200   		.ascii	"lr\000"
 3086 035d 08       		.byte	0x8
 3087 035e 2701     		.2byte	0x127
 3088 0360 D4020000 		.4byte	0x2d4
 3089 0364 20       		.byte	0x20
 3090 0365 00       		.byte	0
 3091 0366 0C       		.uleb128 0xc
 3092 0367 39070000 		.4byte	.LASF58
 3093 036b 04       		.byte	0x4
 3094 036c 08       		.byte	0x8
 3095 036d 3101     		.2byte	0x131
 3096 036f 81030000 		.4byte	0x381
 3097 0373 0D       		.uleb128 0xd
 3098 0374 72313300 		.ascii	"r13\000"
 3099 0378 08       		.byte	0x8
 3100 0379 3201     		.2byte	0x132
 3101 037b 81030000 		.4byte	0x381
 3102 037f 00       		.byte	0
 3103 0380 00       		.byte	0
 3104 0381 06       		.uleb128 0x6
 3105 0382 04       		.byte	0x4
 3106 0383 EA020000 		.4byte	0x2ea
 3107 0387 0E       		.uleb128 0xe
 3108 0388 05010000 		.4byte	0x105
 3109 038c 0E       		.uleb128 0xe
 3110 038d 6F010000 		.4byte	0x16f
 3111 0391 0B       		.uleb128 0xb
 3112 0392 1C       		.byte	0x1c
 3113 0393 09       		.byte	0x9
 3114 0394 5E       		.byte	0x5e
 3115 0395 E2030000 		.4byte	0x3e2
 3116 0399 09       		.uleb128 0x9
 3117 039a 0B070000 		.4byte	.LASF59
 3118 039e 09       		.byte	0x9
ARM GAS  /tmp/cc4PNelj.s 			page 57


 3119 039f 5F       		.byte	0x5f
 3120 03a0 A9020000 		.4byte	0x2a9
 3121 03a4 00       		.byte	0
 3122 03a5 09       		.uleb128 0x9
 3123 03a6 56020000 		.4byte	.LASF60
 3124 03aa 09       		.byte	0x9
 3125 03ab 60       		.byte	0x60
 3126 03ac 4E010000 		.4byte	0x14e
 3127 03b0 08       		.byte	0x8
 3128 03b1 09       		.uleb128 0x9
 3129 03b2 420C0000 		.4byte	.LASF61
 3130 03b6 09       		.byte	0x9
 3131 03b7 62       		.byte	0x62
 3132 03b8 66030000 		.4byte	0x366
 3133 03bc 0C       		.byte	0xc
 3134 03bd 09       		.uleb128 0x9
 3135 03be 88050000 		.4byte	.LASF62
 3136 03c2 09       		.byte	0x9
 3137 03c3 65       		.byte	0x65
 3138 03c4 A3020000 		.4byte	0x2a3
 3139 03c8 10       		.byte	0x10
 3140 03c9 09       		.uleb128 0x9
 3141 03ca AA070000 		.4byte	.LASF63
 3142 03ce 09       		.byte	0x9
 3143 03cf 66       		.byte	0x66
 3144 03d0 A3020000 		.4byte	0x2a3
 3145 03d4 14       		.byte	0x14
 3146 03d5 09       		.uleb128 0x9
 3147 03d6 0C0A0000 		.4byte	.LASF64
 3148 03da 09       		.byte	0x9
 3149 03db 69       		.byte	0x69
 3150 03dc A3020000 		.4byte	0x2a3
 3151 03e0 18       		.byte	0x18
 3152 03e1 00       		.byte	0
 3153 03e2 02       		.uleb128 0x2
 3154 03e3 B70B0000 		.4byte	.LASF65
 3155 03e7 09       		.byte	0x9
 3156 03e8 6B       		.byte	0x6b
 3157 03e9 91030000 		.4byte	0x391
 3158 03ed 08       		.uleb128 0x8
 3159 03ee 01050000 		.4byte	.LASF66
 3160 03f2 10       		.byte	0x10
 3161 03f3 0A       		.byte	0xa
 3162 03f4 2C       		.byte	0x2c
 3163 03f5 1E040000 		.4byte	0x41e
 3164 03f9 09       		.uleb128 0x9
 3165 03fa 260A0000 		.4byte	.LASF67
 3166 03fe 0A       		.byte	0xa
 3167 03ff 2D       		.byte	0x2d
 3168 0400 A9020000 		.4byte	0x2a9
 3169 0404 00       		.byte	0
 3170 0405 09       		.uleb128 0x9
 3171 0406 53000000 		.4byte	.LASF68
 3172 040a 0A       		.byte	0xa
 3173 040b 2F       		.byte	0x2f
 3174 040c A3020000 		.4byte	0x2a3
 3175 0410 08       		.byte	0x8
ARM GAS  /tmp/cc4PNelj.s 			page 58


 3176 0411 09       		.uleb128 0x9
 3177 0412 110C0000 		.4byte	.LASF69
 3178 0416 0A       		.byte	0xa
 3179 0417 31       		.byte	0x31
 3180 0418 1E040000 		.4byte	0x41e
 3181 041c 0C       		.byte	0xc
 3182 041d 00       		.byte	0
 3183 041e 06       		.uleb128 0x6
 3184 041f 04       		.byte	0x4
 3185 0420 ED030000 		.4byte	0x3ed
 3186 0424 02       		.uleb128 0x2
 3187 0425 01050000 		.4byte	.LASF66
 3188 0429 0A       		.byte	0xa
 3189 042a 33       		.byte	0x33
 3190 042b ED030000 		.4byte	0x3ed
 3191 042f 02       		.uleb128 0x2
 3192 0430 C40A0000 		.4byte	.LASF70
 3193 0434 0B       		.byte	0xb
 3194 0435 2C       		.byte	0x2c
 3195 0436 3A040000 		.4byte	0x43a
 3196 043a 06       		.uleb128 0x6
 3197 043b 04       		.byte	0x4
 3198 043c 40040000 		.4byte	0x440
 3199 0440 0F       		.uleb128 0xf
 3200 0441 37000000 		.4byte	0x37
 3201 0445 4F040000 		.4byte	0x44f
 3202 0449 10       		.uleb128 0x10
 3203 044a 25000000 		.4byte	0x25
 3204 044e 00       		.byte	0
 3205 044f 02       		.uleb128 0x2
 3206 0450 640C0000 		.4byte	.LASF71
 3207 0454 0C       		.byte	0xc
 3208 0455 34       		.byte	0x34
 3209 0456 5A040000 		.4byte	0x45a
 3210 045a 08       		.uleb128 0x8
 3211 045b 940C0000 		.4byte	.LASF72
 3212 045f 20       		.byte	0x20
 3213 0460 0C       		.byte	0xc
 3214 0461 47       		.byte	0x47
 3215 0462 8B040000 		.4byte	0x48b
 3216 0466 09       		.uleb128 0x9
 3217 0467 60050000 		.4byte	.LASF73
 3218 046b 0C       		.byte	0xc
 3219 046c 48       		.byte	0x48
 3220 046d 2F040000 		.4byte	0x42f
 3221 0471 00       		.byte	0
 3222 0472 09       		.uleb128 0x9
 3223 0473 88010000 		.4byte	.LASF74
 3224 0477 0C       		.byte	0xc
 3225 0478 4A       		.byte	0x4a
 3226 0479 AA040000 		.4byte	0x4aa
 3227 047d 08       		.byte	0x8
 3228 047e 09       		.uleb128 0x9
 3229 047f 83060000 		.4byte	.LASF75
 3230 0483 0C       		.byte	0xc
 3231 0484 4C       		.byte	0x4c
 3232 0485 24040000 		.4byte	0x424
ARM GAS  /tmp/cc4PNelj.s 			page 59


 3233 0489 10       		.byte	0x10
 3234 048a 00       		.byte	0
 3235 048b 11       		.uleb128 0x11
 3236 048c 04       		.byte	0x4
 3237 048d 0C       		.byte	0xc
 3238 048e 3C       		.byte	0x3c
 3239 048f AA040000 		.4byte	0x4aa
 3240 0493 12       		.uleb128 0x12
 3241 0494 96000000 		.4byte	.LASF76
 3242 0498 0C       		.byte	0xc
 3243 0499 3D       		.byte	0x3d
 3244 049a CB040000 		.4byte	0x4cb
 3245 049e 12       		.uleb128 0x12
 3246 049f 0C010000 		.4byte	.LASF77
 3247 04a3 0C       		.byte	0xc
 3248 04a4 3E       		.byte	0x3e
 3249 04a5 D1040000 		.4byte	0x4d1
 3250 04a9 00       		.byte	0
 3251 04aa 13       		.uleb128 0x13
 3252 04ab 60040000 		.4byte	.LASF276
 3253 04af 08       		.byte	0x8
 3254 04b0 0C       		.byte	0xc
 3255 04b1 39       		.byte	0x39
 3256 04b2 CB040000 		.4byte	0x4cb
 3257 04b6 12       		.uleb128 0x12
 3258 04b7 B40C0000 		.4byte	.LASF78
 3259 04bb 0C       		.byte	0xc
 3260 04bc 3A       		.byte	0x3a
 3261 04bd DF020000 		.4byte	0x2df
 3262 04c1 14       		.uleb128 0x14
 3263 04c2 6800     		.ascii	"h\000"
 3264 04c4 0C       		.byte	0xc
 3265 04c5 41       		.byte	0x41
 3266 04c6 D7040000 		.4byte	0x4d7
 3267 04ca 00       		.byte	0
 3268 04cb 06       		.uleb128 0x6
 3269 04cc 04       		.byte	0x4
 3270 04cd AA040000 		.4byte	0x4aa
 3271 04d1 06       		.uleb128 0x6
 3272 04d2 04       		.byte	0x4
 3273 04d3 4F040000 		.4byte	0x44f
 3274 04d7 0B       		.uleb128 0xb
 3275 04d8 08       		.byte	0x8
 3276 04d9 0C       		.byte	0xc
 3277 04da 3B       		.byte	0x3b
 3278 04db F6040000 		.4byte	0x4f6
 3279 04df 0A       		.uleb128 0xa
 3280 04e0 7500     		.ascii	"u\000"
 3281 04e2 0C       		.byte	0xc
 3282 04e3 3F       		.byte	0x3f
 3283 04e4 8B040000 		.4byte	0x48b
 3284 04e8 00       		.byte	0
 3285 04e9 09       		.uleb128 0x9
 3286 04ea 86070000 		.4byte	.LASF79
 3287 04ee 0C       		.byte	0xc
 3288 04ef 40       		.byte	0x40
 3289 04f0 25000000 		.4byte	0x25
ARM GAS  /tmp/cc4PNelj.s 			page 60


 3290 04f4 04       		.byte	0x4
 3291 04f5 00       		.byte	0
 3292 04f6 11       		.uleb128 0x11
 3293 04f7 04       		.byte	0x4
 3294 04f8 07       		.byte	0x7
 3295 04f9 96       		.byte	0x96
 3296 04fa 2B050000 		.4byte	0x52b
 3297 04fe 12       		.uleb128 0x12
 3298 04ff 73040000 		.4byte	.LASF80
 3299 0503 07       		.byte	0x7
 3300 0504 9D       		.byte	0x9d
 3301 0505 59010000 		.4byte	0x159
 3302 0509 12       		.uleb128 0x12
 3303 050a C30C0000 		.4byte	.LASF81
 3304 050e 07       		.byte	0x7
 3305 050f A4       		.byte	0xa4
 3306 0510 59010000 		.4byte	0x159
 3307 0514 12       		.uleb128 0x12
 3308 0515 34010000 		.4byte	.LASF82
 3309 0519 07       		.byte	0x7
 3310 051a AB       		.byte	0xab
 3311 051b 37000000 		.4byte	0x37
 3312 051f 12       		.uleb128 0x12
 3313 0520 020C0000 		.4byte	.LASF83
 3314 0524 07       		.byte	0x7
 3315 0525 B2       		.byte	0xb2
 3316 0526 64010000 		.4byte	0x164
 3317 052a 00       		.byte	0
 3318 052b 06       		.uleb128 0x6
 3319 052c 04       		.byte	0x4
 3320 052d 24040000 		.4byte	0x424
 3321 0531 02       		.uleb128 0x2
 3322 0532 AE020000 		.4byte	.LASF84
 3323 0536 07       		.byte	0x7
 3324 0537 E5       		.byte	0xe5
 3325 0538 3C050000 		.4byte	0x53c
 3326 053c 06       		.uleb128 0x6
 3327 053d 04       		.byte	0x4
 3328 053e 42050000 		.4byte	0x542
 3329 0542 0F       		.uleb128 0xf
 3330 0543 59010000 		.4byte	0x159
 3331 0547 51050000 		.4byte	0x551
 3332 054b 10       		.uleb128 0x10
 3333 054c 37000000 		.4byte	0x37
 3334 0550 00       		.byte	0
 3335 0551 06       		.uleb128 0x6
 3336 0552 04       		.byte	0x4
 3337 0553 D9000000 		.4byte	0xd9
 3338 0557 08       		.uleb128 0x8
 3339 0558 C9000000 		.4byte	.LASF85
 3340 055c 10       		.byte	0x10
 3341 055d 0D       		.byte	0xd
 3342 055e 48       		.byte	0x48
 3343 055f 94050000 		.4byte	0x594
 3344 0563 09       		.uleb128 0x9
 3345 0564 6F0C0000 		.4byte	.LASF86
 3346 0568 0D       		.byte	0xd
ARM GAS  /tmp/cc4PNelj.s 			page 61


 3347 0569 49       		.byte	0x49
 3348 056a B8050000 		.4byte	0x5b8
 3349 056e 00       		.byte	0
 3350 056f 09       		.uleb128 0x9
 3351 0570 D10A0000 		.4byte	.LASF87
 3352 0574 0D       		.byte	0xd
 3353 0575 49       		.byte	0x49
 3354 0576 D7050000 		.4byte	0x5d7
 3355 057a 04       		.byte	0x4
 3356 057b 0A       		.uleb128 0xa
 3357 057c 70757400 		.ascii	"put\000"
 3358 0580 0D       		.byte	0xd
 3359 0581 49       		.byte	0x49
 3360 0582 F1050000 		.4byte	0x5f1
 3361 0586 08       		.byte	0x8
 3362 0587 0A       		.uleb128 0xa
 3363 0588 67657400 		.ascii	"get\000"
 3364 058c 0D       		.byte	0xd
 3365 058d 49       		.byte	0x49
 3366 058e 3C050000 		.4byte	0x53c
 3367 0592 0C       		.byte	0xc
 3368 0593 00       		.byte	0
 3369 0594 0F       		.uleb128 0xf
 3370 0595 25000000 		.4byte	0x25
 3371 0599 AD050000 		.4byte	0x5ad
 3372 059d 10       		.uleb128 0x10
 3373 059e 37000000 		.4byte	0x37
 3374 05a2 10       		.uleb128 0x10
 3375 05a3 AD050000 		.4byte	0x5ad
 3376 05a7 10       		.uleb128 0x10
 3377 05a8 25000000 		.4byte	0x25
 3378 05ac 00       		.byte	0
 3379 05ad 06       		.uleb128 0x6
 3380 05ae 04       		.byte	0x4
 3381 05af B3050000 		.4byte	0x5b3
 3382 05b3 07       		.uleb128 0x7
 3383 05b4 D9000000 		.4byte	0xd9
 3384 05b8 06       		.uleb128 0x6
 3385 05b9 04       		.byte	0x4
 3386 05ba 94050000 		.4byte	0x594
 3387 05be 0F       		.uleb128 0xf
 3388 05bf 25000000 		.4byte	0x25
 3389 05c3 D7050000 		.4byte	0x5d7
 3390 05c7 10       		.uleb128 0x10
 3391 05c8 37000000 		.4byte	0x37
 3392 05cc 10       		.uleb128 0x10
 3393 05cd 51050000 		.4byte	0x551
 3394 05d1 10       		.uleb128 0x10
 3395 05d2 25000000 		.4byte	0x25
 3396 05d6 00       		.byte	0
 3397 05d7 06       		.uleb128 0x6
 3398 05d8 04       		.byte	0x4
 3399 05d9 BE050000 		.4byte	0x5be
 3400 05dd 0F       		.uleb128 0xf
 3401 05de 59010000 		.4byte	0x159
 3402 05e2 F1050000 		.4byte	0x5f1
 3403 05e6 10       		.uleb128 0x10
ARM GAS  /tmp/cc4PNelj.s 			page 62


 3404 05e7 37000000 		.4byte	0x37
 3405 05eb 10       		.uleb128 0x10
 3406 05ec D9000000 		.4byte	0xd9
 3407 05f0 00       		.byte	0
 3408 05f1 06       		.uleb128 0x6
 3409 05f2 04       		.byte	0x4
 3410 05f3 DD050000 		.4byte	0x5dd
 3411 05f7 0B       		.uleb128 0xb
 3412 05f8 04       		.byte	0x4
 3413 05f9 0D       		.byte	0xd
 3414 05fa 51       		.byte	0x51
 3415 05fb 0C060000 		.4byte	0x60c
 3416 05ff 0A       		.uleb128 0xa
 3417 0600 766D7400 		.ascii	"vmt\000"
 3418 0604 0D       		.byte	0xd
 3419 0605 53       		.byte	0x53
 3420 0606 0C060000 		.4byte	0x60c
 3421 060a 00       		.byte	0
 3422 060b 00       		.byte	0
 3423 060c 06       		.uleb128 0x6
 3424 060d 04       		.byte	0x4
 3425 060e 12060000 		.4byte	0x612
 3426 0612 07       		.uleb128 0x7
 3427 0613 57050000 		.4byte	0x557
 3428 0617 02       		.uleb128 0x2
 3429 0618 41050000 		.4byte	.LASF88
 3430 061c 0D       		.byte	0xd
 3431 061d 55       		.byte	0x55
 3432 061e F7050000 		.4byte	0x5f7
 3433 0622 0E       		.uleb128 0xe
 3434 0623 EF000000 		.4byte	0xef
 3435 0627 0E       		.uleb128 0xe
 3436 0628 FA000000 		.4byte	0xfa
 3437 062c 15       		.uleb128 0x15
 3438 062d 10       		.byte	0x10
 3439 062e 0E       		.byte	0xe
 3440 062f 2D03     		.2byte	0x32d
 3441 0631 6A060000 		.4byte	0x66a
 3442 0635 0D       		.uleb128 0xd
 3443 0636 43435200 		.ascii	"CCR\000"
 3444 063a 0E       		.byte	0xe
 3445 063b 2F03     		.2byte	0x32f
 3446 063d 87030000 		.4byte	0x387
 3447 0641 00       		.byte	0
 3448 0642 16       		.uleb128 0x16
 3449 0643 BD010000 		.4byte	.LASF89
 3450 0647 0E       		.byte	0xe
 3451 0648 3003     		.2byte	0x330
 3452 064a 87030000 		.4byte	0x387
 3453 064e 04       		.byte	0x4
 3454 064f 16       		.uleb128 0x16
 3455 0650 28040000 		.4byte	.LASF90
 3456 0654 0E       		.byte	0xe
 3457 0655 3103     		.2byte	0x331
 3458 0657 87030000 		.4byte	0x387
 3459 065b 08       		.byte	0x8
 3460 065c 16       		.uleb128 0x16
ARM GAS  /tmp/cc4PNelj.s 			page 63


 3461 065d 2F010000 		.4byte	.LASF91
 3462 0661 0E       		.byte	0xe
 3463 0662 3203     		.2byte	0x332
 3464 0664 87030000 		.4byte	0x387
 3465 0668 0C       		.byte	0xc
 3466 0669 00       		.byte	0
 3467 066a 17       		.uleb128 0x17
 3468 066b 58010000 		.4byte	.LASF92
 3469 066f 0E       		.byte	0xe
 3470 0670 3303     		.2byte	0x333
 3471 0672 2C060000 		.4byte	0x62c
 3472 0676 15       		.uleb128 0x15
 3473 0677 24       		.byte	0x24
 3474 0678 0E       		.byte	0xe
 3475 0679 1304     		.2byte	0x413
 3476 067b 69070000 		.4byte	0x769
 3477 067f 0D       		.uleb128 0xd
 3478 0680 43523100 		.ascii	"CR1\000"
 3479 0684 0E       		.byte	0xe
 3480 0685 1504     		.2byte	0x415
 3481 0687 22060000 		.4byte	0x622
 3482 068b 00       		.byte	0
 3483 068c 16       		.uleb128 0x16
 3484 068d 8A0C0000 		.4byte	.LASF93
 3485 0691 0E       		.byte	0xe
 3486 0692 1604     		.2byte	0x416
 3487 0694 EF000000 		.4byte	0xef
 3488 0698 02       		.byte	0x2
 3489 0699 0D       		.uleb128 0xd
 3490 069a 43523200 		.ascii	"CR2\000"
 3491 069e 0E       		.byte	0xe
 3492 069f 1704     		.2byte	0x417
 3493 06a1 22060000 		.4byte	0x622
 3494 06a5 04       		.byte	0x4
 3495 06a6 16       		.uleb128 0x16
 3496 06a7 A00C0000 		.4byte	.LASF94
 3497 06ab 0E       		.byte	0xe
 3498 06ac 1804     		.2byte	0x418
 3499 06ae EF000000 		.4byte	0xef
 3500 06b2 06       		.byte	0x6
 3501 06b3 16       		.uleb128 0x16
 3502 06b4 210A0000 		.4byte	.LASF95
 3503 06b8 0E       		.byte	0xe
 3504 06b9 1904     		.2byte	0x419
 3505 06bb 22060000 		.4byte	0x622
 3506 06bf 08       		.byte	0x8
 3507 06c0 16       		.uleb128 0x16
 3508 06c1 C1090000 		.4byte	.LASF96
 3509 06c5 0E       		.byte	0xe
 3510 06c6 1A04     		.2byte	0x41a
 3511 06c8 EF000000 		.4byte	0xef
 3512 06cc 0A       		.byte	0xa
 3513 06cd 16       		.uleb128 0x16
 3514 06ce AA040000 		.4byte	.LASF97
 3515 06d2 0E       		.byte	0xe
 3516 06d3 1B04     		.2byte	0x41b
 3517 06d5 22060000 		.4byte	0x622
ARM GAS  /tmp/cc4PNelj.s 			page 64


 3518 06d9 0C       		.byte	0xc
 3519 06da 16       		.uleb128 0x16
 3520 06db CB090000 		.4byte	.LASF98
 3521 06df 0E       		.byte	0xe
 3522 06e0 1C04     		.2byte	0x41c
 3523 06e2 EF000000 		.4byte	0xef
 3524 06e6 0E       		.byte	0xe
 3525 06e7 0D       		.uleb128 0xd
 3526 06e8 445200   		.ascii	"DR\000"
 3527 06eb 0E       		.byte	0xe
 3528 06ec 1D04     		.2byte	0x41d
 3529 06ee 22060000 		.4byte	0x622
 3530 06f2 10       		.byte	0x10
 3531 06f3 16       		.uleb128 0x16
 3532 06f4 D5090000 		.4byte	.LASF99
 3533 06f8 0E       		.byte	0xe
 3534 06f9 1E04     		.2byte	0x41e
 3535 06fb EF000000 		.4byte	0xef
 3536 06ff 12       		.byte	0x12
 3537 0700 0D       		.uleb128 0xd
 3538 0701 53523100 		.ascii	"SR1\000"
 3539 0705 0E       		.byte	0xe
 3540 0706 1F04     		.2byte	0x41f
 3541 0708 22060000 		.4byte	0x622
 3542 070c 14       		.byte	0x14
 3543 070d 16       		.uleb128 0x16
 3544 070e DF090000 		.4byte	.LASF100
 3545 0712 0E       		.byte	0xe
 3546 0713 2004     		.2byte	0x420
 3547 0715 EF000000 		.4byte	0xef
 3548 0719 16       		.byte	0x16
 3549 071a 0D       		.uleb128 0xd
 3550 071b 53523200 		.ascii	"SR2\000"
 3551 071f 0E       		.byte	0xe
 3552 0720 2104     		.2byte	0x421
 3553 0722 22060000 		.4byte	0x622
 3554 0726 18       		.byte	0x18
 3555 0727 16       		.uleb128 0x16
 3556 0728 E9090000 		.4byte	.LASF101
 3557 072c 0E       		.byte	0xe
 3558 072d 2204     		.2byte	0x422
 3559 072f EF000000 		.4byte	0xef
 3560 0733 1A       		.byte	0x1a
 3561 0734 0D       		.uleb128 0xd
 3562 0735 43435200 		.ascii	"CCR\000"
 3563 0739 0E       		.byte	0xe
 3564 073a 2304     		.2byte	0x423
 3565 073c 22060000 		.4byte	0x622
 3566 0740 1C       		.byte	0x1c
 3567 0741 16       		.uleb128 0x16
 3568 0742 E0020000 		.4byte	.LASF102
 3569 0746 0E       		.byte	0xe
 3570 0747 2404     		.2byte	0x424
 3571 0749 EF000000 		.4byte	0xef
 3572 074d 1E       		.byte	0x1e
 3573 074e 16       		.uleb128 0x16
 3574 074f 09060000 		.4byte	.LASF103
ARM GAS  /tmp/cc4PNelj.s 			page 65


 3575 0753 0E       		.byte	0xe
 3576 0754 2504     		.2byte	0x425
 3577 0756 22060000 		.4byte	0x622
 3578 075a 20       		.byte	0x20
 3579 075b 16       		.uleb128 0x16
 3580 075c AA0C0000 		.4byte	.LASF104
 3581 0760 0E       		.byte	0xe
 3582 0761 2604     		.2byte	0x426
 3583 0763 EF000000 		.4byte	0xef
 3584 0767 22       		.byte	0x22
 3585 0768 00       		.byte	0
 3586 0769 17       		.uleb128 0x17
 3587 076a CB0B0000 		.4byte	.LASF105
 3588 076e 0E       		.byte	0xe
 3589 076f 2704     		.2byte	0x427
 3590 0771 76060000 		.4byte	0x676
 3591 0775 0B       		.uleb128 0xb
 3592 0776 0C       		.byte	0xc
 3593 0777 0F       		.byte	0xf
 3594 0778 C1       		.byte	0xc1
 3595 0779 BA070000 		.4byte	0x7ba
 3596 077d 09       		.uleb128 0x9
 3597 077e 01090000 		.4byte	.LASF106
 3598 0782 0F       		.byte	0xf
 3599 0783 C2       		.byte	0xc2
 3600 0784 BA070000 		.4byte	0x7ba
 3601 0788 00       		.byte	0
 3602 0789 09       		.uleb128 0x9
 3603 078a 5D020000 		.4byte	.LASF107
 3604 078e 0F       		.byte	0xf
 3605 078f C3       		.byte	0xc3
 3606 0790 C0070000 		.4byte	0x7c0
 3607 0794 04       		.byte	0x4
 3608 0795 09       		.uleb128 0x9
 3609 0796 9A050000 		.4byte	.LASF108
 3610 079a 0F       		.byte	0xf
 3611 079b C4       		.byte	0xc4
 3612 079c D9000000 		.4byte	0xd9
 3613 07a0 08       		.byte	0x8
 3614 07a1 09       		.uleb128 0x9
 3615 07a2 CC0C0000 		.4byte	.LASF109
 3616 07a6 0F       		.byte	0xf
 3617 07a7 C6       		.byte	0xc6
 3618 07a8 D9000000 		.4byte	0xd9
 3619 07ac 09       		.byte	0x9
 3620 07ad 09       		.uleb128 0x9
 3621 07ae FB020000 		.4byte	.LASF110
 3622 07b2 0F       		.byte	0xf
 3623 07b3 C7       		.byte	0xc7
 3624 07b4 D9000000 		.4byte	0xd9
 3625 07b8 0A       		.byte	0xa
 3626 07b9 00       		.byte	0
 3627 07ba 06       		.uleb128 0x6
 3628 07bb 04       		.byte	0x4
 3629 07bc 6A060000 		.4byte	0x66a
 3630 07c0 06       		.uleb128 0x6
 3631 07c1 04       		.byte	0x4
ARM GAS  /tmp/cc4PNelj.s 			page 66


 3632 07c2 87030000 		.4byte	0x387
 3633 07c6 02       		.uleb128 0x2
 3634 07c7 B1050000 		.4byte	.LASF111
 3635 07cb 0F       		.byte	0xf
 3636 07cc C8       		.byte	0xc8
 3637 07cd 75070000 		.4byte	0x775
 3638 07d1 06       		.uleb128 0x6
 3639 07d2 04       		.byte	0x4
 3640 07d3 D7070000 		.4byte	0x7d7
 3641 07d7 07       		.uleb128 0x7
 3642 07d8 C6070000 		.4byte	0x7c6
 3643 07dc 18       		.uleb128 0x18
 3644 07dd 01       		.byte	0x1
 3645 07de 10       		.byte	0x10
 3646 07df 5A       		.byte	0x5a
 3647 07e0 09080000 		.4byte	0x809
 3648 07e4 19       		.uleb128 0x19
 3649 07e5 19070000 		.4byte	.LASF112
 3650 07e9 00       		.sleb128 0
 3651 07ea 19       		.uleb128 0x19
 3652 07eb 6F0B0000 		.4byte	.LASF113
 3653 07ef 01       		.sleb128 1
 3654 07f0 19       		.uleb128 0x19
 3655 07f1 11090000 		.4byte	.LASF114
 3656 07f5 02       		.sleb128 2
 3657 07f6 19       		.uleb128 0x19
 3658 07f7 34020000 		.4byte	.LASF115
 3659 07fb 03       		.sleb128 3
 3660 07fc 19       		.uleb128 0x19
 3661 07fd 6F000000 		.4byte	.LASF116
 3662 0801 04       		.sleb128 4
 3663 0802 19       		.uleb128 0x19
 3664 0803 660A0000 		.4byte	.LASF117
 3665 0807 05       		.sleb128 5
 3666 0808 00       		.byte	0
 3667 0809 02       		.uleb128 0x2
 3668 080a AE030000 		.4byte	.LASF118
 3669 080e 10       		.byte	0x10
 3670 080f 61       		.byte	0x61
 3671 0810 DC070000 		.4byte	0x7dc
 3672 0814 17       		.uleb128 0x17
 3673 0815 470A0000 		.4byte	.LASF119
 3674 0819 11       		.byte	0x11
 3675 081a 3501     		.2byte	0x135
 3676 081c EF000000 		.4byte	0xef
 3677 0820 17       		.uleb128 0x17
 3678 0821 2D040000 		.4byte	.LASF120
 3679 0825 11       		.byte	0x11
 3680 0826 3A01     		.2byte	0x13a
 3681 0828 05010000 		.4byte	0x105
 3682 082c 1A       		.uleb128 0x1a
 3683 082d 01       		.byte	0x1
 3684 082e 11       		.byte	0x11
 3685 082f 3F01     		.2byte	0x13f
 3686 0831 48080000 		.4byte	0x848
 3687 0835 19       		.uleb128 0x19
 3688 0836 16020000 		.4byte	.LASF121
ARM GAS  /tmp/cc4PNelj.s 			page 67


 3689 083a 01       		.sleb128 1
 3690 083b 19       		.uleb128 0x19
 3691 083c 470B0000 		.4byte	.LASF122
 3692 0840 02       		.sleb128 2
 3693 0841 19       		.uleb128 0x19
 3694 0842 F1060000 		.4byte	.LASF123
 3695 0846 03       		.sleb128 3
 3696 0847 00       		.byte	0
 3697 0848 17       		.uleb128 0x17
 3698 0849 A5000000 		.4byte	.LASF124
 3699 084d 11       		.byte	0x11
 3700 084e 4301     		.2byte	0x143
 3701 0850 2C080000 		.4byte	0x82c
 3702 0854 1A       		.uleb128 0x1a
 3703 0855 01       		.byte	0x1
 3704 0856 11       		.byte	0x11
 3705 0857 4801     		.2byte	0x148
 3706 0859 70080000 		.4byte	0x870
 3707 085d 19       		.uleb128 0x19
 3708 085e D3040000 		.4byte	.LASF125
 3709 0862 01       		.sleb128 1
 3710 0863 19       		.uleb128 0x19
 3711 0864 41080000 		.4byte	.LASF126
 3712 0868 02       		.sleb128 2
 3713 0869 19       		.uleb128 0x19
 3714 086a CC050000 		.4byte	.LASF127
 3715 086e 03       		.sleb128 3
 3716 086f 00       		.byte	0
 3717 0870 17       		.uleb128 0x17
 3718 0871 19040000 		.4byte	.LASF128
 3719 0875 11       		.byte	0x11
 3720 0876 4C01     		.2byte	0x14c
 3721 0878 54080000 		.4byte	0x854
 3722 087c 15       		.uleb128 0x15
 3723 087d 0C       		.byte	0xc
 3724 087e 11       		.byte	0x11
 3725 087f 5101     		.2byte	0x151
 3726 0881 AD080000 		.4byte	0x8ad
 3727 0885 16       		.uleb128 0x16
 3728 0886 09090000 		.4byte	.LASF129
 3729 088a 11       		.byte	0x11
 3730 088b 5201     		.2byte	0x152
 3731 088d 48080000 		.4byte	0x848
 3732 0891 00       		.byte	0
 3733 0892 16       		.uleb128 0x16
 3734 0893 94070000 		.4byte	.LASF130
 3735 0897 11       		.byte	0x11
 3736 0898 5301     		.2byte	0x153
 3737 089a 05010000 		.4byte	0x105
 3738 089e 04       		.byte	0x4
 3739 089f 16       		.uleb128 0x16
 3740 08a0 E2040000 		.4byte	.LASF131
 3741 08a4 11       		.byte	0x11
 3742 08a5 5601     		.2byte	0x156
 3743 08a7 70080000 		.4byte	0x870
 3744 08ab 08       		.byte	0x8
 3745 08ac 00       		.byte	0
ARM GAS  /tmp/cc4PNelj.s 			page 68


 3746 08ad 17       		.uleb128 0x17
 3747 08ae D8030000 		.4byte	.LASF132
 3748 08b2 11       		.byte	0x11
 3749 08b3 5801     		.2byte	0x158
 3750 08b5 7C080000 		.4byte	0x87c
 3751 08b9 17       		.uleb128 0x17
 3752 08ba 9B000000 		.4byte	.LASF133
 3753 08be 11       		.byte	0x11
 3754 08bf 5D01     		.2byte	0x15d
 3755 08c1 C5080000 		.4byte	0x8c5
 3756 08c5 0C       		.uleb128 0xc
 3757 08c6 9B000000 		.4byte	.LASF133
 3758 08ca 38       		.byte	0x38
 3759 08cb 11       		.byte	0x11
 3760 08cc 6201     		.2byte	0x162
 3761 08ce 62090000 		.4byte	0x962
 3762 08d2 16       		.uleb128 0x16
 3763 08d3 FC0B0000 		.4byte	.LASF134
 3764 08d7 11       		.byte	0x11
 3765 08d8 6601     		.2byte	0x166
 3766 08da 09080000 		.4byte	0x809
 3767 08de 00       		.byte	0
 3768 08df 16       		.uleb128 0x16
 3769 08e0 4A090000 		.4byte	.LASF135
 3770 08e4 11       		.byte	0x11
 3771 08e5 6A01     		.2byte	0x16a
 3772 08e7 62090000 		.4byte	0x962
 3773 08eb 04       		.byte	0x4
 3774 08ec 16       		.uleb128 0x16
 3775 08ed CA070000 		.4byte	.LASF136
 3776 08f1 11       		.byte	0x11
 3777 08f2 6E01     		.2byte	0x16e
 3778 08f4 20080000 		.4byte	0x820
 3779 08f8 08       		.byte	0x8
 3780 08f9 16       		.uleb128 0x16
 3781 08fa 6F020000 		.4byte	.LASF137
 3782 08fe 11       		.byte	0x11
 3783 08ff 7401     		.2byte	0x174
 3784 0901 24040000 		.4byte	0x424
 3785 0905 0C       		.byte	0xc
 3786 0906 16       		.uleb128 0x16
 3787 0907 5B0B0000 		.4byte	.LASF138
 3788 090b 11       		.byte	0x11
 3789 090c 8001     		.2byte	0x180
 3790 090e A3020000 		.4byte	0x2a3
 3791 0912 1C       		.byte	0x1c
 3792 0913 16       		.uleb128 0x16
 3793 0914 F70B0000 		.4byte	.LASF139
 3794 0918 11       		.byte	0x11
 3795 0919 8401     		.2byte	0x184
 3796 091b 14080000 		.4byte	0x814
 3797 091f 20       		.byte	0x20
 3798 0920 16       		.uleb128 0x16
 3799 0921 C10B0000 		.4byte	.LASF140
 3800 0925 11       		.byte	0x11
 3801 0926 8801     		.2byte	0x188
 3802 0928 05010000 		.4byte	0x105
ARM GAS  /tmp/cc4PNelj.s 			page 69


 3803 092c 24       		.byte	0x24
 3804 092d 16       		.uleb128 0x16
 3805 092e 90050000 		.4byte	.LASF141
 3806 0932 11       		.byte	0x11
 3807 0933 8C01     		.2byte	0x18c
 3808 0935 05010000 		.4byte	0x105
 3809 0939 28       		.byte	0x28
 3810 093a 16       		.uleb128 0x16
 3811 093b 4D000000 		.4byte	.LASF142
 3812 093f 11       		.byte	0x11
 3813 0940 9001     		.2byte	0x190
 3814 0942 D1070000 		.4byte	0x7d1
 3815 0946 2C       		.byte	0x2c
 3816 0947 16       		.uleb128 0x16
 3817 0948 00020000 		.4byte	.LASF143
 3818 094c 11       		.byte	0x11
 3819 094d 9401     		.2byte	0x194
 3820 094f D1070000 		.4byte	0x7d1
 3821 0953 30       		.byte	0x30
 3822 0954 0D       		.uleb128 0xd
 3823 0955 69326300 		.ascii	"i2c\000"
 3824 0959 11       		.byte	0x11
 3825 095a 9801     		.2byte	0x198
 3826 095c 6D090000 		.4byte	0x96d
 3827 0960 34       		.byte	0x34
 3828 0961 00       		.byte	0
 3829 0962 06       		.uleb128 0x6
 3830 0963 04       		.byte	0x4
 3831 0964 68090000 		.4byte	0x968
 3832 0968 07       		.uleb128 0x7
 3833 0969 AD080000 		.4byte	0x8ad
 3834 096d 06       		.uleb128 0x6
 3835 096e 04       		.byte	0x4
 3836 096f 69070000 		.4byte	0x769
 3837 0973 02       		.uleb128 0x2
 3838 0974 E1000000 		.4byte	.LASF144
 3839 0978 12       		.byte	0x12
 3840 0979 39       		.byte	0x39
 3841 097a 17060000 		.4byte	0x617
 3842 097e 18       		.uleb128 0x18
 3843 097f 01       		.byte	0x1
 3844 0980 13       		.byte	0x13
 3845 0981 8D       		.byte	0x8d
 3846 0982 DB090000 		.4byte	0x9db
 3847 0986 19       		.uleb128 0x19
 3848 0987 B30A0000 		.4byte	.LASF145
 3849 098b 7F       		.sleb128 -1
 3850 098c 19       		.uleb128 0x19
 3851 098d 42040000 		.4byte	.LASF146
 3852 0991 00       		.sleb128 0
 3853 0992 19       		.uleb128 0x19
 3854 0993 D1070000 		.4byte	.LASF147
 3855 0997 01       		.sleb128 1
 3856 0998 19       		.uleb128 0x19
 3857 0999 DF070000 		.4byte	.LASF148
 3858 099d 02       		.sleb128 2
 3859 099e 19       		.uleb128 0x19
ARM GAS  /tmp/cc4PNelj.s 			page 70


 3860 099f ED070000 		.4byte	.LASF149
 3861 09a3 03       		.sleb128 3
 3862 09a4 19       		.uleb128 0x19
 3863 09a5 FB070000 		.4byte	.LASF150
 3864 09a9 04       		.sleb128 4
 3865 09aa 19       		.uleb128 0x19
 3866 09ab 09080000 		.4byte	.LASF151
 3867 09af 05       		.sleb128 5
 3868 09b0 19       		.uleb128 0x19
 3869 09b1 17080000 		.4byte	.LASF152
 3870 09b5 06       		.sleb128 6
 3871 09b6 19       		.uleb128 0x19
 3872 09b7 25080000 		.4byte	.LASF153
 3873 09bb 07       		.sleb128 7
 3874 09bc 19       		.uleb128 0x19
 3875 09bd 33080000 		.4byte	.LASF154
 3876 09c1 08       		.sleb128 8
 3877 09c2 19       		.uleb128 0x19
 3878 09c3 D6010000 		.4byte	.LASF155
 3879 09c7 09       		.sleb128 9
 3880 09c8 19       		.uleb128 0x19
 3881 09c9 24070000 		.4byte	.LASF156
 3882 09cd 0A       		.sleb128 10
 3883 09ce 19       		.uleb128 0x19
 3884 09cf F1010000 		.4byte	.LASF157
 3885 09d3 0B       		.sleb128 11
 3886 09d4 19       		.uleb128 0x19
 3887 09d5 75020000 		.4byte	.LASF158
 3888 09d9 0C       		.sleb128 12
 3889 09da 00       		.byte	0
 3890 09db 18       		.uleb128 0x18
 3891 09dc 01       		.byte	0x1
 3892 09dd 13       		.byte	0x13
 3893 09de A2       		.byte	0xa2
 3894 09df F0090000 		.4byte	0x9f0
 3895 09e3 19       		.uleb128 0x19
 3896 09e4 480C0000 		.4byte	.LASF159
 3897 09e8 00       		.sleb128 0
 3898 09e9 19       		.uleb128 0x19
 3899 09ea 5F070000 		.4byte	.LASF160
 3900 09ee 01       		.sleb128 1
 3901 09ef 00       		.byte	0
 3902 09f0 18       		.uleb128 0x18
 3903 09f1 01       		.byte	0x1
 3904 09f2 14       		.byte	0x14
 3905 09f3 63       		.byte	0x63
 3906 09f4 170A0000 		.4byte	0xa17
 3907 09f8 19       		.uleb128 0x19
 3908 09f9 E2030000 		.4byte	.LASF161
 3909 09fd 00       		.sleb128 0
 3910 09fe 19       		.uleb128 0x19
 3911 09ff 620B0000 		.4byte	.LASF162
 3912 0a03 01       		.sleb128 1
 3913 0a04 19       		.uleb128 0x19
 3914 0a05 96040000 		.4byte	.LASF163
 3915 0a09 02       		.sleb128 2
 3916 0a0a 19       		.uleb128 0x19
ARM GAS  /tmp/cc4PNelj.s 			page 71


 3917 0a0b 88040000 		.4byte	.LASF164
 3918 0a0f 03       		.sleb128 3
 3919 0a10 19       		.uleb128 0x19
 3920 0a11 7A040000 		.4byte	.LASF165
 3921 0a15 04       		.sleb128 4
 3922 0a16 00       		.byte	0
 3923 0a17 02       		.uleb128 0x2
 3924 0a18 A0020000 		.4byte	.LASF166
 3925 0a1c 14       		.byte	0x14
 3926 0a1d 69       		.byte	0x69
 3927 0a1e F0090000 		.4byte	0x9f0
 3928 0a22 18       		.uleb128 0x18
 3929 0a23 01       		.byte	0x1
 3930 0a24 14       		.byte	0x14
 3931 0a25 6E       		.byte	0x6e
 3932 0a26 730A0000 		.4byte	0xa73
 3933 0a2a 19       		.uleb128 0x19
 3934 0a2b 3E000000 		.4byte	.LASF167
 3935 0a2f 7F       		.sleb128 -1
 3936 0a30 19       		.uleb128 0x19
 3937 0a31 3B060000 		.4byte	.LASF168
 3938 0a35 00       		.sleb128 0
 3939 0a36 19       		.uleb128 0x19
 3940 0a37 47060000 		.4byte	.LASF169
 3941 0a3b 01       		.sleb128 1
 3942 0a3c 19       		.uleb128 0x19
 3943 0a3d 53060000 		.4byte	.LASF170
 3944 0a41 02       		.sleb128 2
 3945 0a42 19       		.uleb128 0x19
 3946 0a43 5F060000 		.4byte	.LASF171
 3947 0a47 03       		.sleb128 3
 3948 0a48 19       		.uleb128 0x19
 3949 0a49 6B060000 		.4byte	.LASF172
 3950 0a4d 04       		.sleb128 4
 3951 0a4e 19       		.uleb128 0x19
 3952 0a4f 77060000 		.4byte	.LASF173
 3953 0a53 05       		.sleb128 5
 3954 0a54 19       		.uleb128 0x19
 3955 0a55 F5030000 		.4byte	.LASF174
 3956 0a59 06       		.sleb128 6
 3957 0a5a 19       		.uleb128 0x19
 3958 0a5b 89060000 		.4byte	.LASF175
 3959 0a5f 07       		.sleb128 7
 3960 0a60 19       		.uleb128 0x19
 3961 0a61 95060000 		.4byte	.LASF176
 3962 0a65 08       		.sleb128 8
 3963 0a66 19       		.uleb128 0x19
 3964 0a67 93020000 		.4byte	.LASF177
 3965 0a6b 09       		.sleb128 9
 3966 0a6c 19       		.uleb128 0x19
 3967 0a6d 11010000 		.4byte	.LASF178
 3968 0a71 0A       		.sleb128 10
 3969 0a72 00       		.byte	0
 3970 0a73 02       		.uleb128 0x2
 3971 0a74 D60A0000 		.4byte	.LASF179
 3972 0a78 14       		.byte	0x14
 3973 0a79 7C       		.byte	0x7c
ARM GAS  /tmp/cc4PNelj.s 			page 72


 3974 0a7a 220A0000 		.4byte	0xa22
 3975 0a7e 18       		.uleb128 0x18
 3976 0a7f 01       		.byte	0x1
 3977 0a80 15       		.byte	0x15
 3978 0a81 46       		.byte	0x46
 3979 0a82 C40A0000 		.4byte	0xac4
 3980 0a86 19       		.uleb128 0x19
 3981 0a87 51090000 		.4byte	.LASF180
 3982 0a8b 00       		.sleb128 0
 3983 0a8c 19       		.uleb128 0x19
 3984 0a8d 5F090000 		.4byte	.LASF181
 3985 0a91 01       		.sleb128 1
 3986 0a92 19       		.uleb128 0x19
 3987 0a93 6D090000 		.4byte	.LASF182
 3988 0a97 02       		.sleb128 2
 3989 0a98 19       		.uleb128 0x19
 3990 0a99 7B090000 		.4byte	.LASF183
 3991 0a9d 03       		.sleb128 3
 3992 0a9e 19       		.uleb128 0x19
 3993 0a9f 89090000 		.4byte	.LASF184
 3994 0aa3 04       		.sleb128 4
 3995 0aa4 19       		.uleb128 0x19
 3996 0aa5 97090000 		.4byte	.LASF185
 3997 0aa9 05       		.sleb128 5
 3998 0aaa 19       		.uleb128 0x19
 3999 0aab A5090000 		.4byte	.LASF186
 4000 0aaf 06       		.sleb128 6
 4001 0ab0 19       		.uleb128 0x19
 4002 0ab1 B3090000 		.4byte	.LASF187
 4003 0ab5 07       		.sleb128 7
 4004 0ab6 19       		.uleb128 0x19
 4005 0ab7 56050000 		.4byte	.LASF188
 4006 0abb 08       		.sleb128 8
 4007 0abc 19       		.uleb128 0x19
 4008 0abd 370A0000 		.4byte	.LASF189
 4009 0ac1 E300     		.sleb128 99
 4010 0ac3 00       		.byte	0
 4011 0ac4 02       		.uleb128 0x2
 4012 0ac5 50040000 		.4byte	.LASF190
 4013 0ac9 15       		.byte	0x15
 4014 0aca 53       		.byte	0x53
 4015 0acb 7E0A0000 		.4byte	0xa7e
 4016 0acf 08       		.uleb128 0x8
 4017 0ad0 BA0C0000 		.4byte	.LASF191
 4018 0ad4 6C       		.byte	0x6c
 4019 0ad5 15       		.byte	0x15
 4020 0ad6 71       		.byte	0x71
 4021 0ad7 A80B0000 		.4byte	0xba8
 4022 0adb 09       		.uleb128 0x9
 4023 0adc 200B0000 		.4byte	.LASF192
 4024 0ae0 15       		.byte	0x15
 4025 0ae1 72       		.byte	0x72
 4026 0ae2 D9000000 		.4byte	0xd9
 4027 0ae6 00       		.byte	0
 4028 0ae7 09       		.uleb128 0x9
 4029 0ae8 780B0000 		.4byte	.LASF193
 4030 0aec 15       		.byte	0x15
ARM GAS  /tmp/cc4PNelj.s 			page 73


 4031 0aed 73       		.byte	0x73
 4032 0aee D9000000 		.4byte	0xd9
 4033 0af2 01       		.byte	0x1
 4034 0af3 09       		.uleb128 0x9
 4035 0af4 13070000 		.4byte	.LASF194
 4036 0af8 15       		.byte	0x15
 4037 0af9 74       		.byte	0x74
 4038 0afa EF000000 		.4byte	0xef
 4039 0afe 02       		.byte	0x2
 4040 0aff 09       		.uleb128 0x9
 4041 0b00 A2010000 		.4byte	.LASF195
 4042 0b04 15       		.byte	0x15
 4043 0b05 75       		.byte	0x75
 4044 0b06 EF000000 		.4byte	0xef
 4045 0b0a 04       		.byte	0x4
 4046 0b0b 09       		.uleb128 0x9
 4047 0b0c 090C0000 		.4byte	.LASF196
 4048 0b10 15       		.byte	0x15
 4049 0b11 78       		.byte	0x78
 4050 0b12 A80B0000 		.4byte	0xba8
 4051 0b16 06       		.byte	0x6
 4052 0b17 09       		.uleb128 0x9
 4053 0b18 F4020000 		.4byte	.LASF197
 4054 0b1c 15       		.byte	0x15
 4055 0b1d 7A       		.byte	0x7a
 4056 0b1e A80B0000 		.4byte	0xba8
 4057 0b22 16       		.byte	0x16
 4058 0b23 09       		.uleb128 0x9
 4059 0b24 66000000 		.4byte	.LASF198
 4060 0b28 15       		.byte	0x15
 4061 0b29 7C       		.byte	0x7c
 4062 0b2a A80B0000 		.4byte	0xba8
 4063 0b2e 26       		.byte	0x26
 4064 0b2f 09       		.uleb128 0x9
 4065 0b30 8B070000 		.4byte	.LASF199
 4066 0b34 15       		.byte	0x15
 4067 0b35 7E       		.byte	0x7e
 4068 0b36 A80B0000 		.4byte	0xba8
 4069 0b3a 36       		.byte	0x36
 4070 0b3b 09       		.uleb128 0x9
 4071 0b3c 8D020000 		.4byte	.LASF200
 4072 0b40 15       		.byte	0x15
 4073 0b41 81       		.byte	0x81
 4074 0b42 FA000000 		.4byte	0xfa
 4075 0b46 48       		.byte	0x48
 4076 0b47 09       		.uleb128 0x9
 4077 0b48 D9020000 		.4byte	.LASF201
 4078 0b4c 15       		.byte	0x15
 4079 0b4d 82       		.byte	0x82
 4080 0b4e FA000000 		.4byte	0xfa
 4081 0b52 4C       		.byte	0x4c
 4082 0b53 09       		.uleb128 0x9
 4083 0b54 ED0A0000 		.4byte	.LASF202
 4084 0b58 15       		.byte	0x15
 4085 0b59 83       		.byte	0x83
 4086 0b5a FA000000 		.4byte	0xfa
 4087 0b5e 50       		.byte	0x50
ARM GAS  /tmp/cc4PNelj.s 			page 74


 4088 0b5f 09       		.uleb128 0x9
 4089 0b60 FD050000 		.4byte	.LASF203
 4090 0b64 15       		.byte	0x15
 4091 0b65 84       		.byte	0x84
 4092 0b66 FA000000 		.4byte	0xfa
 4093 0b6a 54       		.byte	0x54
 4094 0b6b 0A       		.uleb128 0xa
 4095 0b6c 72706D00 		.ascii	"rpm\000"
 4096 0b70 15       		.byte	0x15
 4097 0b71 85       		.byte	0x85
 4098 0b72 FA000000 		.4byte	0xfa
 4099 0b76 58       		.byte	0x58
 4100 0b77 09       		.uleb128 0x9
 4101 0b78 AE010000 		.4byte	.LASF204
 4102 0b7c 15       		.byte	0x15
 4103 0b7d 87       		.byte	0x87
 4104 0b7e FA000000 		.4byte	0xfa
 4105 0b82 5C       		.byte	0x5c
 4106 0b83 09       		.uleb128 0x9
 4107 0b84 220C0000 		.4byte	.LASF205
 4108 0b88 15       		.byte	0x15
 4109 0b89 89       		.byte	0x89
 4110 0b8a FA000000 		.4byte	0xfa
 4111 0b8e 60       		.byte	0x60
 4112 0b8f 09       		.uleb128 0x9
 4113 0b90 7D050000 		.4byte	.LASF206
 4114 0b94 15       		.byte	0x15
 4115 0b95 8C       		.byte	0x8c
 4116 0b96 05010000 		.4byte	0x105
 4117 0b9a 64       		.byte	0x64
 4118 0b9b 09       		.uleb128 0x9
 4119 0b9c 330B0000 		.4byte	.LASF207
 4120 0ba0 15       		.byte	0x15
 4121 0ba1 8D       		.byte	0x8d
 4122 0ba2 05010000 		.4byte	0x105
 4123 0ba6 68       		.byte	0x68
 4124 0ba7 00       		.byte	0
 4125 0ba8 1B       		.uleb128 0x1b
 4126 0ba9 D9000000 		.4byte	0xd9
 4127 0bad B80B0000 		.4byte	0xbb8
 4128 0bb1 1C       		.uleb128 0x1c
 4129 0bb2 BA000000 		.4byte	0xba
 4130 0bb6 0F       		.byte	0xf
 4131 0bb7 00       		.byte	0
 4132 0bb8 02       		.uleb128 0x2
 4133 0bb9 42020000 		.4byte	.LASF208
 4134 0bbd 15       		.byte	0x15
 4135 0bbe 8E       		.byte	0x8e
 4136 0bbf CF0A0000 		.4byte	0xacf
 4137 0bc3 1D       		.uleb128 0x1d
 4138 0bc4 8B0B0000 		.4byte	.LASF209
 4139 0bc8 7C03     		.2byte	0x37c
 4140 0bca 15       		.byte	0x15
 4141 0bcb 93       		.byte	0x93
 4142 0bcc 6D0C0000 		.4byte	0xc6d
 4143 0bd0 09       		.uleb128 0x9
 4144 0bd1 B8010000 		.4byte	.LASF210
ARM GAS  /tmp/cc4PNelj.s 			page 75


 4145 0bd5 15       		.byte	0x15
 4146 0bd6 94       		.byte	0x94
 4147 0bd7 6D0C0000 		.4byte	0xc6d
 4148 0bdb 00       		.byte	0
 4149 0bdc 0A       		.uleb128 0xa
 4150 0bdd 63687000 		.ascii	"chp\000"
 4151 0be1 15       		.byte	0x15
 4152 0be2 95       		.byte	0x95
 4153 0be3 730C0000 		.4byte	0xc73
 4154 0be7 04       		.byte	0x4
 4155 0be8 0A       		.uleb128 0xa
 4156 0be9 6E756D00 		.ascii	"num\000"
 4157 0bed 15       		.byte	0x15
 4158 0bee 96       		.byte	0x96
 4159 0bef E4000000 		.4byte	0xe4
 4160 0bf3 08       		.byte	0x8
 4161 0bf4 09       		.uleb128 0x9
 4162 0bf5 F3090000 		.4byte	.LASF211
 4163 0bf9 15       		.byte	0x15
 4164 0bfa 97       		.byte	0x97
 4165 0bfb EF000000 		.4byte	0xef
 4166 0bff 0A       		.byte	0xa
 4167 0c00 09       		.uleb128 0x9
 4168 0c01 F5000000 		.4byte	.LASF212
 4169 0c05 15       		.byte	0x15
 4170 0c06 98       		.byte	0x98
 4171 0c07 EF000000 		.4byte	0xef
 4172 0c0b 0C       		.byte	0xc
 4173 0c0c 09       		.uleb128 0x9
 4174 0c0d 38040000 		.4byte	.LASF213
 4175 0c11 15       		.byte	0x15
 4176 0c12 99       		.byte	0x99
 4177 0c13 EF000000 		.4byte	0xef
 4178 0c17 0E       		.byte	0xe
 4179 0c18 09       		.uleb128 0x9
 4180 0c19 180C0000 		.4byte	.LASF214
 4181 0c1d 15       		.byte	0x15
 4182 0c1e 9A       		.byte	0x9a
 4183 0c1f EF000000 		.4byte	0xef
 4184 0c23 10       		.byte	0x10
 4185 0c24 09       		.uleb128 0x9
 4186 0c25 0F040000 		.4byte	.LASF215
 4187 0c29 15       		.byte	0x15
 4188 0c2a 9B       		.byte	0x9b
 4189 0c2b EF000000 		.4byte	0xef
 4190 0c2f 12       		.byte	0x12
 4191 0c30 09       		.uleb128 0x9
 4192 0c31 EA020000 		.4byte	.LASF216
 4193 0c35 15       		.byte	0x15
 4194 0c36 9C       		.byte	0x9c
 4195 0c37 EF000000 		.4byte	0xef
 4196 0c3b 14       		.byte	0x14
 4197 0c3c 09       		.uleb128 0x9
 4198 0c3d 53080000 		.4byte	.LASF217
 4199 0c41 15       		.byte	0x15
 4200 0c42 9D       		.byte	0x9d
 4201 0c43 EF000000 		.4byte	0xef
ARM GAS  /tmp/cc4PNelj.s 			page 76


 4202 0c47 16       		.byte	0x16
 4203 0c48 09       		.uleb128 0x9
 4204 0c49 9C0A0000 		.4byte	.LASF218
 4205 0c4d 15       		.byte	0x15
 4206 0c4e 9E       		.byte	0x9e
 4207 0c4f EF000000 		.4byte	0xef
 4208 0c53 18       		.byte	0x18
 4209 0c54 09       		.uleb128 0x9
 4210 0c55 17000000 		.4byte	.LASF219
 4211 0c59 15       		.byte	0x15
 4212 0c5a 9F       		.byte	0x9f
 4213 0c5b EF000000 		.4byte	0xef
 4214 0c5f 1A       		.byte	0x1a
 4215 0c60 09       		.uleb128 0x9
 4216 0c61 41010000 		.4byte	.LASF220
 4217 0c65 15       		.byte	0x15
 4218 0c66 A0       		.byte	0xa0
 4219 0c67 790C0000 		.4byte	0xc79
 4220 0c6b 1C       		.byte	0x1c
 4221 0c6c 00       		.byte	0
 4222 0c6d 06       		.uleb128 0x6
 4223 0c6e 04       		.byte	0x4
 4224 0c6f B9080000 		.4byte	0x8b9
 4225 0c73 06       		.uleb128 0x6
 4226 0c74 04       		.byte	0x4
 4227 0c75 73090000 		.4byte	0x973
 4228 0c79 1B       		.uleb128 0x1b
 4229 0c7a B80B0000 		.4byte	0xbb8
 4230 0c7e 890C0000 		.4byte	0xc89
 4231 0c82 1C       		.uleb128 0x1c
 4232 0c83 BA000000 		.4byte	0xba
 4233 0c87 07       		.byte	0x7
 4234 0c88 00       		.byte	0
 4235 0c89 02       		.uleb128 0x2
 4236 0c8a 280B0000 		.4byte	.LASF221
 4237 0c8e 15       		.byte	0x15
 4238 0c8f A1       		.byte	0xa1
 4239 0c90 C30B0000 		.4byte	0xbc3
 4240 0c94 06       		.uleb128 0x6
 4241 0c95 04       		.byte	0x4
 4242 0c96 C1000000 		.4byte	0xc1
 4243 0c9a 1E       		.uleb128 0x1e
 4244 0c9b 02030000 		.4byte	.LASF260
 4245 0c9f 01       		.byte	0x1
 4246 0ca0 54       		.byte	0x54
 4247 0ca1 FA000000 		.4byte	0xfa
 4248 0ca5 01       		.byte	0x1
 4249 0ca6 B60C0000 		.4byte	0xcb6
 4250 0caa 1F       		.uleb128 0x1f
 4251 0cab 01090000 		.4byte	.LASF106
 4252 0caf 01       		.byte	0x1
 4253 0cb0 54       		.byte	0x54
 4254 0cb1 E4000000 		.4byte	0xe4
 4255 0cb5 00       		.byte	0
 4256 0cb6 20       		.uleb128 0x20
 4257 0cb7 9A0C0000 		.4byte	0xc9a
 4258 0cbb 00000000 		.4byte	.LFB63
ARM GAS  /tmp/cc4PNelj.s 			page 77


 4259 0cbf 24000000 		.4byte	.LFE63-.LFB63
 4260 0cc3 01       		.uleb128 0x1
 4261 0cc4 9C       		.byte	0x9c
 4262 0cc5 D30C0000 		.4byte	0xcd3
 4263 0cc9 21       		.uleb128 0x21
 4264 0cca AA0C0000 		.4byte	0xcaa
 4265 0cce 00000000 		.4byte	.LLST0
 4266 0cd2 00       		.byte	0
 4267 0cd3 22       		.uleb128 0x22
 4268 0cd4 1B090000 		.4byte	.LASF225
 4269 0cd8 01       		.byte	0x1
 4270 0cd9 67       		.byte	0x67
 4271 0cda 00000000 		.4byte	.LFB64
 4272 0cde 20000000 		.4byte	.LFE64-.LFB64
 4273 0ce2 01       		.uleb128 0x1
 4274 0ce3 9C       		.byte	0x9c
 4275 0ce4 070D0000 		.4byte	0xd07
 4276 0ce8 23       		.uleb128 0x23
 4277 0ce9 01090000 		.4byte	.LASF106
 4278 0ced 01       		.byte	0x1
 4279 0cee 67       		.byte	0x67
 4280 0cef E4000000 		.4byte	0xe4
 4281 0cf3 3A000000 		.4byte	.LLST1
 4282 0cf7 23       		.uleb128 0x23
 4283 0cf8 09040000 		.4byte	.LASF222
 4284 0cfc 01       		.byte	0x1
 4285 0cfd 67       		.byte	0x67
 4286 0cfe FA000000 		.4byte	0xfa
 4287 0d02 5B000000 		.4byte	.LLST2
 4288 0d06 00       		.byte	0
 4289 0d07 24       		.uleb128 0x24
 4290 0d08 41070000 		.4byte	.LASF223
 4291 0d0c 01       		.byte	0x1
 4292 0d0d 7A       		.byte	0x7a
 4293 0d0e E4000000 		.4byte	0xe4
 4294 0d12 00000000 		.4byte	.LFB65
 4295 0d16 20000000 		.4byte	.LFE65-.LFB65
 4296 0d1a 01       		.uleb128 0x1
 4297 0d1b 9C       		.byte	0x9c
 4298 0d1c 300D0000 		.4byte	0xd30
 4299 0d20 23       		.uleb128 0x23
 4300 0d21 01090000 		.4byte	.LASF106
 4301 0d25 01       		.byte	0x1
 4302 0d26 7A       		.byte	0x7a
 4303 0d27 E4000000 		.4byte	0xe4
 4304 0d2b 7C000000 		.4byte	.LLST3
 4305 0d2f 00       		.byte	0
 4306 0d30 24       		.uleb128 0x24
 4307 0d31 E4060000 		.4byte	.LASF224
 4308 0d35 01       		.byte	0x1
 4309 0d36 8A       		.byte	0x8a
 4310 0d37 590D0000 		.4byte	0xd59
 4311 0d3b 00000000 		.4byte	.LFB66
 4312 0d3f 1A000000 		.4byte	.LFE66-.LFB66
 4313 0d43 01       		.uleb128 0x1
 4314 0d44 9C       		.byte	0x9c
 4315 0d45 590D0000 		.4byte	0xd59
ARM GAS  /tmp/cc4PNelj.s 			page 78


 4316 0d49 23       		.uleb128 0x23
 4317 0d4a 01090000 		.4byte	.LASF106
 4318 0d4e 01       		.byte	0x1
 4319 0d4f 8A       		.byte	0x8a
 4320 0d50 C40A0000 		.4byte	0xac4
 4321 0d54 9D000000 		.4byte	.LLST4
 4322 0d58 00       		.byte	0
 4323 0d59 06       		.uleb128 0x6
 4324 0d5a 04       		.byte	0x4
 4325 0d5b B80B0000 		.4byte	0xbb8
 4326 0d5f 25       		.uleb128 0x25
 4327 0d60 D60C0000 		.4byte	.LASF277
 4328 0d64 01       		.byte	0x1
 4329 0d65 99       		.byte	0x99
 4330 0d66 E4000000 		.4byte	0xe4
 4331 0d6a 00000000 		.4byte	.LFB67
 4332 0d6e 0E000000 		.4byte	.LFE67-.LFB67
 4333 0d72 01       		.uleb128 0x1
 4334 0d73 9C       		.byte	0x9c
 4335 0d74 22       		.uleb128 0x22
 4336 0d75 D6060000 		.4byte	.LASF226
 4337 0d79 01       		.byte	0x1
 4338 0d7a A8       		.byte	0xa8
 4339 0d7b 00000000 		.4byte	.LFB68
 4340 0d7f 76000000 		.4byte	.LFE68-.LFB68
 4341 0d83 01       		.uleb128 0x1
 4342 0d84 9C       		.byte	0x9c
 4343 0d85 A80D0000 		.4byte	0xda8
 4344 0d89 23       		.uleb128 0x23
 4345 0d8a 01090000 		.4byte	.LASF106
 4346 0d8e 01       		.byte	0x1
 4347 0d8f A8       		.byte	0xa8
 4348 0d90 C40A0000 		.4byte	0xac4
 4349 0d94 BE000000 		.4byte	.LLST5
 4350 0d98 23       		.uleb128 0x23
 4351 0d99 780B0000 		.4byte	.LASF193
 4352 0d9d 01       		.byte	0x1
 4353 0d9e A8       		.byte	0xa8
 4354 0d9f 170A0000 		.4byte	0xa17
 4355 0da3 2A010000 		.4byte	.LLST6
 4356 0da7 00       		.byte	0
 4357 0da8 22       		.uleb128 0x22
 4358 0da9 8D080000 		.4byte	.LASF227
 4359 0dad 01       		.byte	0x1
 4360 0dae C9       		.byte	0xc9
 4361 0daf 00000000 		.4byte	.LFB69
 4362 0db3 1C000000 		.4byte	.LFE69-.LFB69
 4363 0db7 01       		.uleb128 0x1
 4364 0db8 9C       		.byte	0x9c
 4365 0db9 DA0D0000 		.4byte	0xdda
 4366 0dbd 23       		.uleb128 0x23
 4367 0dbe 01090000 		.4byte	.LASF106
 4368 0dc2 01       		.byte	0x1
 4369 0dc3 C9       		.byte	0xc9
 4370 0dc4 C40A0000 		.4byte	0xac4
 4371 0dc8 4B010000 		.4byte	.LLST7
 4372 0dcc 26       		.uleb128 0x26
ARM GAS  /tmp/cc4PNelj.s 			page 79


 4373 0dcd 3B010000 		.4byte	.LASF228
 4374 0dd1 01       		.byte	0x1
 4375 0dd2 C9       		.byte	0xc9
 4376 0dd3 730A0000 		.4byte	0xa73
 4377 0dd7 01       		.uleb128 0x1
 4378 0dd8 51       		.byte	0x51
 4379 0dd9 00       		.byte	0
 4380 0dda 24       		.uleb128 0x24
 4381 0ddb C4030000 		.4byte	.LASF229
 4382 0ddf 01       		.byte	0x1
 4383 0de0 DC       		.byte	0xdc
 4384 0de1 FA000000 		.4byte	0xfa
 4385 0de5 00000000 		.4byte	.LFB70
 4386 0de9 3C000000 		.4byte	.LFE70-.LFB70
 4387 0ded 01       		.uleb128 0x1
 4388 0dee 9C       		.byte	0x9c
 4389 0def 2B0E0000 		.4byte	0xe2b
 4390 0df3 23       		.uleb128 0x23
 4391 0df4 3B010000 		.4byte	.LASF228
 4392 0df8 01       		.byte	0x1
 4393 0df9 DC       		.byte	0xdc
 4394 0dfa 730A0000 		.4byte	0xa73
 4395 0dfe 6C010000 		.4byte	.LLST8
 4396 0e02 27       		.uleb128 0x27
 4397 0e03 01090000 		.4byte	.LASF106
 4398 0e07 01       		.byte	0x1
 4399 0e08 DE       		.byte	0xde
 4400 0e09 E4000000 		.4byte	0xe4
 4401 0e0d A6010000 		.4byte	.LLST9
 4402 0e11 28       		.uleb128 0x28
 4403 0e12 9A0C0000 		.4byte	0xc9a
 4404 0e16 28000000 		.4byte	.LBB4
 4405 0e1a 14000000 		.4byte	.LBE4-.LBB4
 4406 0e1e 01       		.byte	0x1
 4407 0e1f E7       		.byte	0xe7
 4408 0e20 21       		.uleb128 0x21
 4409 0e21 AA0C0000 		.4byte	0xcaa
 4410 0e25 D3010000 		.4byte	.LLST10
 4411 0e29 00       		.byte	0
 4412 0e2a 00       		.byte	0
 4413 0e2b 29       		.uleb128 0x29
 4414 0e2c 0C000000 		.4byte	.LASF230
 4415 0e30 01       		.byte	0x1
 4416 0e31 3801     		.2byte	0x138
 4417 0e33 00000000 		.4byte	.LFB72
 4418 0e37 6A000000 		.4byte	.LFE72-.LFB72
 4419 0e3b 01       		.uleb128 0x1
 4420 0e3c 9C       		.byte	0x9c
 4421 0e3d BC0E0000 		.4byte	0xebc
 4422 0e41 2A       		.uleb128 0x2a
 4423 0e42 B8010000 		.4byte	.LASF210
 4424 0e46 01       		.byte	0x1
 4425 0e47 3801     		.2byte	0x138
 4426 0e49 6D0C0000 		.4byte	0xc6d
 4427 0e4d E6010000 		.4byte	.LLST11
 4428 0e51 2B       		.uleb128 0x2b
 4429 0e52 63687000 		.ascii	"chp\000"
ARM GAS  /tmp/cc4PNelj.s 			page 80


 4430 0e56 01       		.byte	0x1
 4431 0e57 3801     		.2byte	0x138
 4432 0e59 730C0000 		.4byte	0xc73
 4433 0e5d 21020000 		.4byte	.LLST12
 4434 0e61 2C       		.uleb128 0x2c
 4435 0e62 6900     		.ascii	"i\000"
 4436 0e64 01       		.byte	0x1
 4437 0e65 3A01     		.2byte	0x13a
 4438 0e67 E4000000 		.4byte	0xe4
 4439 0e6b 3F020000 		.4byte	.LLST13
 4440 0e6f 2D       		.uleb128 0x2d
 4441 0e70 1C000000 		.4byte	.LVL32
 4442 0e74 821E0000 		.4byte	0x1e82
 4443 0e78 8C0E0000 		.4byte	0xe8c
 4444 0e7c 2E       		.uleb128 0x2e
 4445 0e7d 01       		.uleb128 0x1
 4446 0e7e 51       		.byte	0x51
 4447 0e7f 05       		.uleb128 0x5
 4448 0e80 03       		.byte	0x3
 4449 0e81 00000000 		.4byte	.LANCHOR1
 4450 0e85 2E       		.uleb128 0x2e
 4451 0e86 01       		.uleb128 0x1
 4452 0e87 50       		.byte	0x50
 4453 0e88 02       		.uleb128 0x2
 4454 0e89 75       		.byte	0x75
 4455 0e8a 00       		.sleb128 0
 4456 0e8b 00       		.byte	0
 4457 0e8c 2F       		.uleb128 0x2f
 4458 0e8d 66000000 		.4byte	.LVL36
 4459 0e91 981E0000 		.4byte	0x1e98
 4460 0e95 2E       		.uleb128 0x2e
 4461 0e96 01       		.uleb128 0x1
 4462 0e97 53       		.byte	0x53
 4463 0e98 05       		.uleb128 0x5
 4464 0e99 03       		.byte	0x3
 4465 0e9a 00000000 		.4byte	vexImeTask
 4466 0e9e 2E       		.uleb128 0x2e
 4467 0e9f 01       		.uleb128 0x1
 4468 0ea0 52       		.byte	0x52
 4469 0ea1 02       		.uleb128 0x2
 4470 0ea2 08       		.byte	0x8
 4471 0ea3 49       		.byte	0x49
 4472 0ea4 2E       		.uleb128 0x2e
 4473 0ea5 01       		.uleb128 0x1
 4474 0ea6 51       		.byte	0x51
 4475 0ea7 03       		.uleb128 0x3
 4476 0ea8 0A       		.byte	0xa
 4477 0ea9 8002     		.2byte	0x280
 4478 0eab 2E       		.uleb128 0x2e
 4479 0eac 01       		.uleb128 0x1
 4480 0ead 50       		.byte	0x50
 4481 0eae 05       		.uleb128 0x5
 4482 0eaf 03       		.byte	0x3
 4483 0eb0 00000000 		.4byte	.LANCHOR2
 4484 0eb4 2E       		.uleb128 0x2e
 4485 0eb5 02       		.uleb128 0x2
 4486 0eb6 7D       		.byte	0x7d
ARM GAS  /tmp/cc4PNelj.s 			page 81


 4487 0eb7 00       		.sleb128 0
 4488 0eb8 01       		.uleb128 0x1
 4489 0eb9 30       		.byte	0x30
 4490 0eba 00       		.byte	0
 4491 0ebb 00       		.byte	0
 4492 0ebc 29       		.uleb128 0x29
 4493 0ebd BB070000 		.4byte	.LASF231
 4494 0ec1 01       		.byte	0x1
 4495 0ec2 9401     		.2byte	0x194
 4496 0ec4 00000000 		.4byte	.LFB74
 4497 0ec8 4A000000 		.4byte	.LFE74-.LFB74
 4498 0ecc 01       		.uleb128 0x1
 4499 0ecd 9C       		.byte	0x9c
 4500 0ece 5F0F0000 		.4byte	0xf5f
 4501 0ed2 2B       		.uleb128 0x2b
 4502 0ed3 696D6500 		.ascii	"ime\000"
 4503 0ed7 01       		.byte	0x1
 4504 0ed8 9401     		.2byte	0x194
 4505 0eda 590D0000 		.4byte	0xd59
 4506 0ede 53020000 		.4byte	.LLST14
 4507 0ee2 2D       		.uleb128 0x2d
 4508 0ee3 18000000 		.4byte	.LVL39
 4509 0ee7 C21E0000 		.4byte	0x1ec2
 4510 0eeb 020F0000 		.4byte	0xf02
 4511 0eef 2E       		.uleb128 0x2e
 4512 0ef0 01       		.uleb128 0x1
 4513 0ef1 52       		.byte	0x52
 4514 0ef2 02       		.uleb128 0x2
 4515 0ef3 76       		.byte	0x76
 4516 0ef4 00       		.sleb128 0
 4517 0ef5 2E       		.uleb128 0x2e
 4518 0ef6 01       		.uleb128 0x1
 4519 0ef7 51       		.byte	0x51
 4520 0ef8 02       		.uleb128 0x2
 4521 0ef9 75       		.byte	0x75
 4522 0efa 00       		.sleb128 0
 4523 0efb 2E       		.uleb128 0x2e
 4524 0efc 01       		.uleb128 0x1
 4525 0efd 50       		.byte	0x50
 4526 0efe 02       		.uleb128 0x2
 4527 0eff 74       		.byte	0x74
 4528 0f00 06       		.sleb128 6
 4529 0f01 00       		.byte	0
 4530 0f02 2D       		.uleb128 0x2d
 4531 0f03 24000000 		.4byte	.LVL40
 4532 0f07 C21E0000 		.4byte	0x1ec2
 4533 0f0b 220F0000 		.4byte	0xf22
 4534 0f0f 2E       		.uleb128 0x2e
 4535 0f10 01       		.uleb128 0x1
 4536 0f11 52       		.byte	0x52
 4537 0f12 02       		.uleb128 0x2
 4538 0f13 76       		.byte	0x76
 4539 0f14 00       		.sleb128 0
 4540 0f15 2E       		.uleb128 0x2e
 4541 0f16 01       		.uleb128 0x1
 4542 0f17 51       		.byte	0x51
 4543 0f18 02       		.uleb128 0x2
ARM GAS  /tmp/cc4PNelj.s 			page 82


 4544 0f19 75       		.byte	0x75
 4545 0f1a 00       		.sleb128 0
 4546 0f1b 2E       		.uleb128 0x2e
 4547 0f1c 01       		.uleb128 0x1
 4548 0f1d 50       		.byte	0x50
 4549 0f1e 02       		.uleb128 0x2
 4550 0f1f 74       		.byte	0x74
 4551 0f20 16       		.sleb128 22
 4552 0f21 00       		.byte	0
 4553 0f22 2D       		.uleb128 0x2d
 4554 0f23 30000000 		.4byte	.LVL41
 4555 0f27 C21E0000 		.4byte	0x1ec2
 4556 0f2b 420F0000 		.4byte	0xf42
 4557 0f2f 2E       		.uleb128 0x2e
 4558 0f30 01       		.uleb128 0x1
 4559 0f31 52       		.byte	0x52
 4560 0f32 02       		.uleb128 0x2
 4561 0f33 76       		.byte	0x76
 4562 0f34 00       		.sleb128 0
 4563 0f35 2E       		.uleb128 0x2e
 4564 0f36 01       		.uleb128 0x1
 4565 0f37 51       		.byte	0x51
 4566 0f38 02       		.uleb128 0x2
 4567 0f39 75       		.byte	0x75
 4568 0f3a 00       		.sleb128 0
 4569 0f3b 2E       		.uleb128 0x2e
 4570 0f3c 01       		.uleb128 0x1
 4571 0f3d 50       		.byte	0x50
 4572 0f3e 02       		.uleb128 0x2
 4573 0f3f 74       		.byte	0x74
 4574 0f40 26       		.sleb128 38
 4575 0f41 00       		.byte	0
 4576 0f42 2F       		.uleb128 0x2f
 4577 0f43 3C000000 		.4byte	.LVL42
 4578 0f47 C21E0000 		.4byte	0x1ec2
 4579 0f4b 2E       		.uleb128 0x2e
 4580 0f4c 01       		.uleb128 0x1
 4581 0f4d 52       		.byte	0x52
 4582 0f4e 02       		.uleb128 0x2
 4583 0f4f 76       		.byte	0x76
 4584 0f50 00       		.sleb128 0
 4585 0f51 2E       		.uleb128 0x2e
 4586 0f52 01       		.uleb128 0x1
 4587 0f53 51       		.byte	0x51
 4588 0f54 02       		.uleb128 0x2
 4589 0f55 75       		.byte	0x75
 4590 0f56 00       		.sleb128 0
 4591 0f57 2E       		.uleb128 0x2e
 4592 0f58 01       		.uleb128 0x1
 4593 0f59 50       		.byte	0x50
 4594 0f5a 02       		.uleb128 0x2
 4595 0f5b 74       		.byte	0x74
 4596 0f5c 36       		.sleb128 54
 4597 0f5d 00       		.byte	0
 4598 0f5e 00       		.byte	0
 4599 0f5f 30       		.uleb128 0x30
 4600 0f60 6C010000 		.4byte	.LASF232
ARM GAS  /tmp/cc4PNelj.s 			page 83


 4601 0f64 01       		.byte	0x1
 4602 0f65 6603     		.2byte	0x366
 4603 0f67 59010000 		.4byte	0x159
 4604 0f6b 00000000 		.4byte	.LFB87
 4605 0f6f 4C000000 		.4byte	.LFE87-.LFB87
 4606 0f73 01       		.uleb128 0x1
 4607 0f74 9C       		.byte	0x9c
 4608 0f75 EC0F0000 		.4byte	0xfec
 4609 0f79 31       		.uleb128 0x31
 4610 0f7a 710A0000 		.4byte	.LASF233
 4611 0f7e 01       		.byte	0x1
 4612 0f7f 6803     		.2byte	0x368
 4613 0f81 59010000 		.4byte	0x159
 4614 0f85 71020000 		.4byte	.LLST15
 4615 0f89 32       		.uleb128 0x32
 4616 0f8a 62756600 		.ascii	"buf\000"
 4617 0f8e 01       		.byte	0x1
 4618 0f8f 6903     		.2byte	0x369
 4619 0f91 EC0F0000 		.4byte	0xfec
 4620 0f95 02       		.uleb128 0x2
 4621 0f96 91       		.byte	0x91
 4622 0f97 6C       		.sleb128 -20
 4623 0f98 33       		.uleb128 0x33
 4624 0f99 24000000 		.4byte	.LVL44
 4625 0f9d DF1E0000 		.4byte	0x1edf
 4626 0fa1 2D       		.uleb128 0x2d
 4627 0fa2 38000000 		.4byte	.LVL45
 4628 0fa6 F01E0000 		.4byte	0x1ef0
 4629 0faa D20F0000 		.4byte	0xfd2
 4630 0fae 2E       		.uleb128 0x2e
 4631 0faf 01       		.uleb128 0x1
 4632 0fb0 53       		.byte	0x53
 4633 0fb1 02       		.uleb128 0x2
 4634 0fb2 75       		.byte	0x75
 4635 0fb3 00       		.sleb128 0
 4636 0fb4 2E       		.uleb128 0x2e
 4637 0fb5 01       		.uleb128 0x1
 4638 0fb6 52       		.byte	0x52
 4639 0fb7 02       		.uleb128 0x2
 4640 0fb8 91       		.byte	0x91
 4641 0fb9 6C       		.sleb128 -20
 4642 0fba 2E       		.uleb128 0x2e
 4643 0fbb 01       		.uleb128 0x1
 4644 0fbc 51       		.byte	0x51
 4645 0fbd 01       		.uleb128 0x1
 4646 0fbe 30       		.byte	0x30
 4647 0fbf 2E       		.uleb128 0x2e
 4648 0fc0 02       		.uleb128 0x2
 4649 0fc1 7D       		.byte	0x7d
 4650 0fc2 08       		.sleb128 8
 4651 0fc3 01       		.uleb128 0x1
 4652 0fc4 34       		.byte	0x34
 4653 0fc5 2E       		.uleb128 0x2e
 4654 0fc6 02       		.uleb128 0x2
 4655 0fc7 7D       		.byte	0x7d
 4656 0fc8 04       		.sleb128 4
 4657 0fc9 01       		.uleb128 0x1
ARM GAS  /tmp/cc4PNelj.s 			page 84


 4658 0fca 30       		.byte	0x30
 4659 0fcb 2E       		.uleb128 0x2e
 4660 0fcc 02       		.uleb128 0x2
 4661 0fcd 7D       		.byte	0x7d
 4662 0fce 00       		.sleb128 0
 4663 0fcf 01       		.uleb128 0x1
 4664 0fd0 30       		.byte	0x30
 4665 0fd1 00       		.byte	0
 4666 0fd2 33       		.uleb128 0x33
 4667 0fd3 40000000 		.4byte	.LVL48
 4668 0fd7 231F0000 		.4byte	0x1f23
 4669 0fdb 2F       		.uleb128 0x2f
 4670 0fdc 46000000 		.4byte	.LVL49
 4671 0fe0 341F0000 		.4byte	0x1f34
 4672 0fe4 2E       		.uleb128 0x2e
 4673 0fe5 01       		.uleb128 0x1
 4674 0fe6 50       		.byte	0x50
 4675 0fe7 02       		.uleb128 0x2
 4676 0fe8 08       		.byte	0x8
 4677 0fe9 64       		.byte	0x64
 4678 0fea 00       		.byte	0
 4679 0feb 00       		.byte	0
 4680 0fec 1B       		.uleb128 0x1b
 4681 0fed D9000000 		.4byte	0xd9
 4682 0ff1 FC0F0000 		.4byte	0xffc
 4683 0ff5 1C       		.uleb128 0x1c
 4684 0ff6 BA000000 		.4byte	0xba
 4685 0ffa 03       		.byte	0x3
 4686 0ffb 00       		.byte	0
 4687 0ffc 29       		.uleb128 0x29
 4688 0ffd 21020000 		.4byte	.LASF234
 4689 1001 01       		.byte	0x1
 4690 1002 8303     		.2byte	0x383
 4691 1004 00000000 		.4byte	.LFB88
 4692 1008 98000000 		.4byte	.LFE88-.LFB88
 4693 100c 01       		.uleb128 0x1
 4694 100d 9C       		.byte	0x9c
 4695 100e 63100000 		.4byte	0x1063
 4696 1012 2A       		.uleb128 0x2a
 4697 1013 710A0000 		.4byte	.LASF233
 4698 1017 01       		.byte	0x1
 4699 1018 8303     		.2byte	0x383
 4700 101a 59010000 		.4byte	0x159
 4701 101e 9B020000 		.4byte	.LLST16
 4702 1022 2A       		.uleb128 0x2a
 4703 1023 CA070000 		.4byte	.LASF136
 4704 1027 01       		.byte	0x1
 4705 1028 8303     		.2byte	0x383
 4706 102a 20080000 		.4byte	0x820
 4707 102e C9020000 		.4byte	.LLST17
 4708 1032 33       		.uleb128 0x33
 4709 1033 7E000000 		.4byte	.LVL54
 4710 1037 461F0000 		.4byte	0x1f46
 4711 103b 2D       		.uleb128 0x2d
 4712 103c 84000000 		.4byte	.LVL55
 4713 1040 341F0000 		.4byte	0x1f34
 4714 1044 4F100000 		.4byte	0x104f
ARM GAS  /tmp/cc4PNelj.s 			page 85


 4715 1048 2E       		.uleb128 0x2e
 4716 1049 01       		.uleb128 0x1
 4717 104a 50       		.byte	0x50
 4718 104b 02       		.uleb128 0x2
 4719 104c 08       		.byte	0x8
 4720 104d 64       		.byte	0x64
 4721 104e 00       		.byte	0
 4722 104f 2F       		.uleb128 0x2f
 4723 1050 92000000 		.4byte	.LVL56
 4724 1054 821E0000 		.4byte	0x1e82
 4725 1058 2E       		.uleb128 0x2e
 4726 1059 01       		.uleb128 0x1
 4727 105a 51       		.byte	0x51
 4728 105b 05       		.uleb128 0x5
 4729 105c 03       		.byte	0x3
 4730 105d 00000000 		.4byte	.LANCHOR1
 4731 1061 00       		.byte	0
 4732 1062 00       		.byte	0
 4733 1063 30       		.uleb128 0x30
 4734 1064 1E010000 		.4byte	.LASF235
 4735 1068 01       		.byte	0x1
 4736 1069 1002     		.2byte	0x210
 4737 106b 59010000 		.4byte	0x159
 4738 106f 00000000 		.4byte	.LFB76
 4739 1073 64000000 		.4byte	.LFE76-.LFB76
 4740 1077 01       		.uleb128 0x1
 4741 1078 9C       		.byte	0x9c
 4742 1079 1D110000 		.4byte	0x111d
 4743 107d 2A       		.uleb128 0x2a
 4744 107e 06020000 		.4byte	.LASF236
 4745 1082 01       		.byte	0x1
 4746 1083 1002     		.2byte	0x210
 4747 1085 D9000000 		.4byte	0xd9
 4748 1089 FD020000 		.4byte	.LLST18
 4749 108d 2B       		.uleb128 0x2b
 4750 108e 62756600 		.ascii	"buf\000"
 4751 1092 01       		.byte	0x1
 4752 1093 1002     		.2byte	0x210
 4753 1095 51050000 		.4byte	0x551
 4754 1099 1E030000 		.4byte	.LLST19
 4755 109d 31       		.uleb128 0x31
 4756 109e 710A0000 		.4byte	.LASF233
 4757 10a2 01       		.byte	0x1
 4758 10a3 1202     		.2byte	0x212
 4759 10a5 59010000 		.4byte	0x159
 4760 10a9 3C030000 		.4byte	.LLST20
 4761 10ad 34       		.uleb128 0x34
 4762 10ae 870A0000 		.4byte	.LASF237
 4763 10b2 01       		.byte	0x1
 4764 10b3 1302     		.2byte	0x213
 4765 10b5 D9000000 		.4byte	0xd9
 4766 10b9 02       		.uleb128 0x2
 4767 10ba 91       		.byte	0x91
 4768 10bb 67       		.sleb128 -25
 4769 10bc 33       		.uleb128 0x33
 4770 10bd 22000000 		.4byte	.LVL59
 4771 10c1 DF1E0000 		.4byte	0x1edf
ARM GAS  /tmp/cc4PNelj.s 			page 86


 4772 10c5 2D       		.uleb128 0x2d
 4773 10c6 38000000 		.4byte	.LVL60
 4774 10ca F01E0000 		.4byte	0x1ef0
 4775 10ce FA100000 		.4byte	0x10fa
 4776 10d2 2E       		.uleb128 0x2e
 4777 10d3 01       		.uleb128 0x1
 4778 10d4 53       		.byte	0x53
 4779 10d5 01       		.uleb128 0x1
 4780 10d6 31       		.byte	0x31
 4781 10d7 2E       		.uleb128 0x2e
 4782 10d8 01       		.uleb128 0x1
 4783 10d9 52       		.byte	0x52
 4784 10da 02       		.uleb128 0x2
 4785 10db 75       		.byte	0x75
 4786 10dc 00       		.sleb128 0
 4787 10dd 2E       		.uleb128 0x2e
 4788 10de 01       		.uleb128 0x1
 4789 10df 51       		.byte	0x51
 4790 10e0 04       		.uleb128 0x4
 4791 10e1 76       		.byte	0x76
 4792 10e2 00       		.sleb128 0
 4793 10e3 31       		.byte	0x31
 4794 10e4 25       		.byte	0x25
 4795 10e5 2E       		.uleb128 0x2e
 4796 10e6 02       		.uleb128 0x2
 4797 10e7 7D       		.byte	0x7d
 4798 10e8 08       		.sleb128 8
 4799 10e9 02       		.uleb128 0x2
 4800 10ea 77       		.byte	0x77
 4801 10eb 00       		.sleb128 0
 4802 10ec 2E       		.uleb128 0x2e
 4803 10ed 02       		.uleb128 0x2
 4804 10ee 7D       		.byte	0x7d
 4805 10ef 04       		.sleb128 4
 4806 10f0 01       		.uleb128 0x1
 4807 10f1 38       		.byte	0x38
 4808 10f2 2E       		.uleb128 0x2e
 4809 10f3 02       		.uleb128 0x2
 4810 10f4 7D       		.byte	0x7d
 4811 10f5 00       		.sleb128 0
 4812 10f6 02       		.uleb128 0x2
 4813 10f7 78       		.byte	0x78
 4814 10f8 00       		.sleb128 0
 4815 10f9 00       		.byte	0
 4816 10fa 33       		.uleb128 0x33
 4817 10fb 40000000 		.4byte	.LVL63
 4818 10ff 231F0000 		.4byte	0x1f23
 4819 1103 33       		.uleb128 0x33
 4820 1104 48000000 		.4byte	.LVL64
 4821 1108 571F0000 		.4byte	0x1f57
 4822 110c 2F       		.uleb128 0x2f
 4823 110d 5C000000 		.4byte	.LVL65
 4824 1111 FC0F0000 		.4byte	0xffc
 4825 1115 2E       		.uleb128 0x2e
 4826 1116 01       		.uleb128 0x1
 4827 1117 50       		.byte	0x50
 4828 1118 02       		.uleb128 0x2
ARM GAS  /tmp/cc4PNelj.s 			page 87


 4829 1119 75       		.byte	0x75
 4830 111a 00       		.sleb128 0
 4831 111b 00       		.byte	0
 4832 111c 00       		.byte	0
 4833 111d 30       		.uleb128 0x30
 4834 111e 2A050000 		.4byte	.LASF238
 4835 1122 01       		.byte	0x1
 4836 1123 2D02     		.2byte	0x22d
 4837 1125 59010000 		.4byte	0x159
 4838 1129 00000000 		.4byte	.LFB77
 4839 112d 62000000 		.4byte	.LFE77-.LFB77
 4840 1131 01       		.uleb128 0x1
 4841 1132 9C       		.byte	0x9c
 4842 1133 D7110000 		.4byte	0x11d7
 4843 1137 2A       		.uleb128 0x2a
 4844 1138 06020000 		.4byte	.LASF236
 4845 113c 01       		.byte	0x1
 4846 113d 2D02     		.2byte	0x22d
 4847 113f D9000000 		.4byte	0xd9
 4848 1143 66030000 		.4byte	.LLST21
 4849 1147 2B       		.uleb128 0x2b
 4850 1148 62756600 		.ascii	"buf\000"
 4851 114c 01       		.byte	0x1
 4852 114d 2D02     		.2byte	0x22d
 4853 114f 51050000 		.4byte	0x551
 4854 1153 87030000 		.4byte	.LLST22
 4855 1157 31       		.uleb128 0x31
 4856 1158 710A0000 		.4byte	.LASF233
 4857 115c 01       		.byte	0x1
 4858 115d 2F02     		.2byte	0x22f
 4859 115f 59010000 		.4byte	0x159
 4860 1163 A5030000 		.4byte	.LLST23
 4861 1167 34       		.uleb128 0x34
 4862 1168 870A0000 		.4byte	.LASF237
 4863 116c 01       		.byte	0x1
 4864 116d 3002     		.2byte	0x230
 4865 116f D9000000 		.4byte	0xd9
 4866 1173 02       		.uleb128 0x2
 4867 1174 91       		.byte	0x91
 4868 1175 67       		.sleb128 -25
 4869 1176 33       		.uleb128 0x33
 4870 1177 20000000 		.4byte	.LVL68
 4871 117b DF1E0000 		.4byte	0x1edf
 4872 117f 2D       		.uleb128 0x2d
 4873 1180 36000000 		.4byte	.LVL69
 4874 1184 F01E0000 		.4byte	0x1ef0
 4875 1188 B4110000 		.4byte	0x11b4
 4876 118c 2E       		.uleb128 0x2e
 4877 118d 01       		.uleb128 0x1
 4878 118e 53       		.byte	0x53
 4879 118f 01       		.uleb128 0x1
 4880 1190 31       		.byte	0x31
 4881 1191 2E       		.uleb128 0x2e
 4882 1192 01       		.uleb128 0x1
 4883 1193 52       		.byte	0x52
 4884 1194 02       		.uleb128 0x2
 4885 1195 75       		.byte	0x75
ARM GAS  /tmp/cc4PNelj.s 			page 88


 4886 1196 00       		.sleb128 0
 4887 1197 2E       		.uleb128 0x2e
 4888 1198 01       		.uleb128 0x1
 4889 1199 51       		.byte	0x51
 4890 119a 04       		.uleb128 0x4
 4891 119b 77       		.byte	0x77
 4892 119c 00       		.sleb128 0
 4893 119d 31       		.byte	0x31
 4894 119e 25       		.byte	0x25
 4895 119f 2E       		.uleb128 0x2e
 4896 11a0 02       		.uleb128 0x2
 4897 11a1 7D       		.byte	0x7d
 4898 11a2 08       		.sleb128 8
 4899 11a3 01       		.uleb128 0x1
 4900 11a4 34       		.byte	0x34
 4901 11a5 2E       		.uleb128 0x2e
 4902 11a6 02       		.uleb128 0x2
 4903 11a7 7D       		.byte	0x7d
 4904 11a8 04       		.sleb128 4
 4905 11a9 02       		.uleb128 0x2
 4906 11aa 76       		.byte	0x76
 4907 11ab 00       		.sleb128 0
 4908 11ac 2E       		.uleb128 0x2e
 4909 11ad 02       		.uleb128 0x2
 4910 11ae 7D       		.byte	0x7d
 4911 11af 00       		.sleb128 0
 4912 11b0 02       		.uleb128 0x2
 4913 11b1 78       		.byte	0x78
 4914 11b2 00       		.sleb128 0
 4915 11b3 00       		.byte	0
 4916 11b4 33       		.uleb128 0x33
 4917 11b5 3E000000 		.4byte	.LVL72
 4918 11b9 231F0000 		.4byte	0x1f23
 4919 11bd 33       		.uleb128 0x33
 4920 11be 46000000 		.4byte	.LVL73
 4921 11c2 571F0000 		.4byte	0x1f57
 4922 11c6 2F       		.uleb128 0x2f
 4923 11c7 5A000000 		.4byte	.LVL74
 4924 11cb FC0F0000 		.4byte	0xffc
 4925 11cf 2E       		.uleb128 0x2e
 4926 11d0 01       		.uleb128 0x1
 4927 11d1 50       		.byte	0x50
 4928 11d2 02       		.uleb128 0x2
 4929 11d3 75       		.byte	0x75
 4930 11d4 00       		.sleb128 0
 4931 11d5 00       		.byte	0
 4932 11d6 00       		.byte	0
 4933 11d7 30       		.uleb128 0x30
 4934 11d8 46010000 		.4byte	.LASF239
 4935 11dc 01       		.byte	0x1
 4936 11dd 4A02     		.2byte	0x24a
 4937 11df 59010000 		.4byte	0x159
 4938 11e3 00000000 		.4byte	.LFB78
 4939 11e7 64000000 		.4byte	.LFE78-.LFB78
 4940 11eb 01       		.uleb128 0x1
 4941 11ec 9C       		.byte	0x9c
 4942 11ed 91120000 		.4byte	0x1291
ARM GAS  /tmp/cc4PNelj.s 			page 89


 4943 11f1 2A       		.uleb128 0x2a
 4944 11f2 06020000 		.4byte	.LASF236
 4945 11f6 01       		.byte	0x1
 4946 11f7 4A02     		.2byte	0x24a
 4947 11f9 D9000000 		.4byte	0xd9
 4948 11fd CF030000 		.4byte	.LLST24
 4949 1201 2B       		.uleb128 0x2b
 4950 1202 62756600 		.ascii	"buf\000"
 4951 1206 01       		.byte	0x1
 4952 1207 4A02     		.2byte	0x24a
 4953 1209 51050000 		.4byte	0x551
 4954 120d F0030000 		.4byte	.LLST25
 4955 1211 31       		.uleb128 0x31
 4956 1212 710A0000 		.4byte	.LASF233
 4957 1216 01       		.byte	0x1
 4958 1217 4C02     		.2byte	0x24c
 4959 1219 59010000 		.4byte	0x159
 4960 121d 0E040000 		.4byte	.LLST26
 4961 1221 34       		.uleb128 0x34
 4962 1222 870A0000 		.4byte	.LASF237
 4963 1226 01       		.byte	0x1
 4964 1227 4D02     		.2byte	0x24d
 4965 1229 D9000000 		.4byte	0xd9
 4966 122d 02       		.uleb128 0x2
 4967 122e 91       		.byte	0x91
 4968 122f 67       		.sleb128 -25
 4969 1230 33       		.uleb128 0x33
 4970 1231 22000000 		.4byte	.LVL77
 4971 1235 DF1E0000 		.4byte	0x1edf
 4972 1239 2D       		.uleb128 0x2d
 4973 123a 38000000 		.4byte	.LVL78
 4974 123e F01E0000 		.4byte	0x1ef0
 4975 1242 6E120000 		.4byte	0x126e
 4976 1246 2E       		.uleb128 0x2e
 4977 1247 01       		.uleb128 0x1
 4978 1248 53       		.byte	0x53
 4979 1249 01       		.uleb128 0x1
 4980 124a 31       		.byte	0x31
 4981 124b 2E       		.uleb128 0x2e
 4982 124c 01       		.uleb128 0x1
 4983 124d 52       		.byte	0x52
 4984 124e 02       		.uleb128 0x2
 4985 124f 75       		.byte	0x75
 4986 1250 00       		.sleb128 0
 4987 1251 2E       		.uleb128 0x2e
 4988 1252 01       		.uleb128 0x1
 4989 1253 51       		.byte	0x51
 4990 1254 04       		.uleb128 0x4
 4991 1255 76       		.byte	0x76
 4992 1256 00       		.sleb128 0
 4993 1257 31       		.byte	0x31
 4994 1258 25       		.byte	0x25
 4995 1259 2E       		.uleb128 0x2e
 4996 125a 02       		.uleb128 0x2
 4997 125b 7D       		.byte	0x7d
 4998 125c 08       		.sleb128 8
 4999 125d 02       		.uleb128 0x2
ARM GAS  /tmp/cc4PNelj.s 			page 90


 5000 125e 77       		.byte	0x77
 5001 125f 00       		.sleb128 0
 5002 1260 2E       		.uleb128 0x2e
 5003 1261 02       		.uleb128 0x2
 5004 1262 7D       		.byte	0x7d
 5005 1263 04       		.sleb128 4
 5006 1264 01       		.uleb128 0x1
 5007 1265 38       		.byte	0x38
 5008 1266 2E       		.uleb128 0x2e
 5009 1267 02       		.uleb128 0x2
 5010 1268 7D       		.byte	0x7d
 5011 1269 00       		.sleb128 0
 5012 126a 02       		.uleb128 0x2
 5013 126b 78       		.byte	0x78
 5014 126c 00       		.sleb128 0
 5015 126d 00       		.byte	0
 5016 126e 33       		.uleb128 0x33
 5017 126f 40000000 		.4byte	.LVL81
 5018 1273 231F0000 		.4byte	0x1f23
 5019 1277 33       		.uleb128 0x33
 5020 1278 48000000 		.4byte	.LVL82
 5021 127c 571F0000 		.4byte	0x1f57
 5022 1280 2F       		.uleb128 0x2f
 5023 1281 5C000000 		.4byte	.LVL83
 5024 1285 FC0F0000 		.4byte	0xffc
 5025 1289 2E       		.uleb128 0x2e
 5026 128a 01       		.uleb128 0x1
 5027 128b 50       		.byte	0x50
 5028 128c 02       		.uleb128 0x2
 5029 128d 75       		.byte	0x75
 5030 128e 00       		.sleb128 0
 5031 128f 00       		.byte	0
 5032 1290 00       		.byte	0
 5033 1291 30       		.uleb128 0x30
 5034 1292 A1060000 		.4byte	.LASF240
 5035 1296 01       		.byte	0x1
 5036 1297 6702     		.2byte	0x267
 5037 1299 59010000 		.4byte	0x159
 5038 129d 00000000 		.4byte	.LFB79
 5039 12a1 5C000000 		.4byte	.LFE79-.LFB79
 5040 12a5 01       		.uleb128 0x1
 5041 12a6 9C       		.byte	0x9c
 5042 12a7 4A130000 		.4byte	0x134a
 5043 12ab 2A       		.uleb128 0x2a
 5044 12ac 06020000 		.4byte	.LASF236
 5045 12b0 01       		.byte	0x1
 5046 12b1 6702     		.2byte	0x267
 5047 12b3 D9000000 		.4byte	0xd9
 5048 12b7 38040000 		.4byte	.LLST27
 5049 12bb 2B       		.uleb128 0x2b
 5050 12bc 62756600 		.ascii	"buf\000"
 5051 12c0 01       		.byte	0x1
 5052 12c1 6702     		.2byte	0x267
 5053 12c3 51050000 		.4byte	0x551
 5054 12c7 59040000 		.4byte	.LLST28
 5055 12cb 31       		.uleb128 0x31
 5056 12cc 710A0000 		.4byte	.LASF233
ARM GAS  /tmp/cc4PNelj.s 			page 91


 5057 12d0 01       		.byte	0x1
 5058 12d1 6902     		.2byte	0x269
 5059 12d3 59010000 		.4byte	0x159
 5060 12d7 77040000 		.4byte	.LLST29
 5061 12db 34       		.uleb128 0x34
 5062 12dc 870A0000 		.4byte	.LASF237
 5063 12e0 01       		.byte	0x1
 5064 12e1 6A02     		.2byte	0x26a
 5065 12e3 D9000000 		.4byte	0xd9
 5066 12e7 02       		.uleb128 0x2
 5067 12e8 91       		.byte	0x91
 5068 12e9 67       		.sleb128 -25
 5069 12ea 33       		.uleb128 0x33
 5070 12eb 1E000000 		.4byte	.LVL86
 5071 12ef DF1E0000 		.4byte	0x1edf
 5072 12f3 2D       		.uleb128 0x2d
 5073 12f4 32000000 		.4byte	.LVL87
 5074 12f8 F01E0000 		.4byte	0x1ef0
 5075 12fc 27130000 		.4byte	0x1327
 5076 1300 2E       		.uleb128 0x2e
 5077 1301 01       		.uleb128 0x1
 5078 1302 53       		.byte	0x53
 5079 1303 01       		.uleb128 0x1
 5080 1304 31       		.byte	0x31
 5081 1305 2E       		.uleb128 0x2e
 5082 1306 01       		.uleb128 0x1
 5083 1307 52       		.byte	0x52
 5084 1308 02       		.uleb128 0x2
 5085 1309 75       		.byte	0x75
 5086 130a 00       		.sleb128 0
 5087 130b 2E       		.uleb128 0x2e
 5088 130c 01       		.uleb128 0x1
 5089 130d 51       		.byte	0x51
 5090 130e 04       		.uleb128 0x4
 5091 130f 76       		.byte	0x76
 5092 1310 00       		.sleb128 0
 5093 1311 31       		.byte	0x31
 5094 1312 25       		.byte	0x25
 5095 1313 2E       		.uleb128 0x2e
 5096 1314 02       		.uleb128 0x2
 5097 1315 7D       		.byte	0x7d
 5098 1316 08       		.sleb128 8
 5099 1317 01       		.uleb128 0x1
 5100 1318 34       		.byte	0x34
 5101 1319 2E       		.uleb128 0x2e
 5102 131a 02       		.uleb128 0x2
 5103 131b 7D       		.byte	0x7d
 5104 131c 04       		.sleb128 4
 5105 131d 01       		.uleb128 0x1
 5106 131e 34       		.byte	0x34
 5107 131f 2E       		.uleb128 0x2e
 5108 1320 02       		.uleb128 0x2
 5109 1321 7D       		.byte	0x7d
 5110 1322 00       		.sleb128 0
 5111 1323 02       		.uleb128 0x2
 5112 1324 77       		.byte	0x77
 5113 1325 00       		.sleb128 0
ARM GAS  /tmp/cc4PNelj.s 			page 92


 5114 1326 00       		.byte	0
 5115 1327 33       		.uleb128 0x33
 5116 1328 3A000000 		.4byte	.LVL90
 5117 132c 231F0000 		.4byte	0x1f23
 5118 1330 33       		.uleb128 0x33
 5119 1331 42000000 		.4byte	.LVL91
 5120 1335 571F0000 		.4byte	0x1f57
 5121 1339 2F       		.uleb128 0x2f
 5122 133a 56000000 		.4byte	.LVL92
 5123 133e FC0F0000 		.4byte	0xffc
 5124 1342 2E       		.uleb128 0x2e
 5125 1343 01       		.uleb128 0x1
 5126 1344 50       		.byte	0x50
 5127 1345 02       		.uleb128 0x2
 5128 1346 75       		.byte	0x75
 5129 1347 00       		.sleb128 0
 5130 1348 00       		.byte	0
 5131 1349 00       		.byte	0
 5132 134a 30       		.uleb128 0x30
 5133 134b 2D060000 		.4byte	.LASF241
 5134 134f 01       		.byte	0x1
 5135 1350 8402     		.2byte	0x284
 5136 1352 59010000 		.4byte	0x159
 5137 1356 00000000 		.4byte	.LFB80
 5138 135a 64000000 		.4byte	.LFE80-.LFB80
 5139 135e 01       		.uleb128 0x1
 5140 135f 9C       		.byte	0x9c
 5141 1360 04140000 		.4byte	0x1404
 5142 1364 2A       		.uleb128 0x2a
 5143 1365 06020000 		.4byte	.LASF236
 5144 1369 01       		.byte	0x1
 5145 136a 8402     		.2byte	0x284
 5146 136c D9000000 		.4byte	0xd9
 5147 1370 A1040000 		.4byte	.LLST30
 5148 1374 2B       		.uleb128 0x2b
 5149 1375 62756600 		.ascii	"buf\000"
 5150 1379 01       		.byte	0x1
 5151 137a 8402     		.2byte	0x284
 5152 137c 51050000 		.4byte	0x551
 5153 1380 C2040000 		.4byte	.LLST31
 5154 1384 31       		.uleb128 0x31
 5155 1385 710A0000 		.4byte	.LASF233
 5156 1389 01       		.byte	0x1
 5157 138a 8602     		.2byte	0x286
 5158 138c 59010000 		.4byte	0x159
 5159 1390 E0040000 		.4byte	.LLST32
 5160 1394 34       		.uleb128 0x34
 5161 1395 870A0000 		.4byte	.LASF237
 5162 1399 01       		.byte	0x1
 5163 139a 8702     		.2byte	0x287
 5164 139c D9000000 		.4byte	0xd9
 5165 13a0 02       		.uleb128 0x2
 5166 13a1 91       		.byte	0x91
 5167 13a2 67       		.sleb128 -25
 5168 13a3 33       		.uleb128 0x33
 5169 13a4 22000000 		.4byte	.LVL95
 5170 13a8 DF1E0000 		.4byte	0x1edf
ARM GAS  /tmp/cc4PNelj.s 			page 93


 5171 13ac 2D       		.uleb128 0x2d
 5172 13ad 38000000 		.4byte	.LVL96
 5173 13b1 F01E0000 		.4byte	0x1ef0
 5174 13b5 E1130000 		.4byte	0x13e1
 5175 13b9 2E       		.uleb128 0x2e
 5176 13ba 01       		.uleb128 0x1
 5177 13bb 53       		.byte	0x53
 5178 13bc 01       		.uleb128 0x1
 5179 13bd 31       		.byte	0x31
 5180 13be 2E       		.uleb128 0x2e
 5181 13bf 01       		.uleb128 0x1
 5182 13c0 52       		.byte	0x52
 5183 13c1 02       		.uleb128 0x2
 5184 13c2 75       		.byte	0x75
 5185 13c3 00       		.sleb128 0
 5186 13c4 2E       		.uleb128 0x2e
 5187 13c5 01       		.uleb128 0x1
 5188 13c6 51       		.byte	0x51
 5189 13c7 04       		.uleb128 0x4
 5190 13c8 76       		.byte	0x76
 5191 13c9 00       		.sleb128 0
 5192 13ca 31       		.byte	0x31
 5193 13cb 25       		.byte	0x25
 5194 13cc 2E       		.uleb128 0x2e
 5195 13cd 02       		.uleb128 0x2
 5196 13ce 7D       		.byte	0x7d
 5197 13cf 08       		.sleb128 8
 5198 13d0 02       		.uleb128 0x2
 5199 13d1 77       		.byte	0x77
 5200 13d2 00       		.sleb128 0
 5201 13d3 2E       		.uleb128 0x2e
 5202 13d4 02       		.uleb128 0x2
 5203 13d5 7D       		.byte	0x7d
 5204 13d6 04       		.sleb128 4
 5205 13d7 01       		.uleb128 0x1
 5206 13d8 38       		.byte	0x38
 5207 13d9 2E       		.uleb128 0x2e
 5208 13da 02       		.uleb128 0x2
 5209 13db 7D       		.byte	0x7d
 5210 13dc 00       		.sleb128 0
 5211 13dd 02       		.uleb128 0x2
 5212 13de 78       		.byte	0x78
 5213 13df 00       		.sleb128 0
 5214 13e0 00       		.byte	0
 5215 13e1 33       		.uleb128 0x33
 5216 13e2 40000000 		.4byte	.LVL99
 5217 13e6 231F0000 		.4byte	0x1f23
 5218 13ea 33       		.uleb128 0x33
 5219 13eb 48000000 		.4byte	.LVL100
 5220 13ef 571F0000 		.4byte	0x1f57
 5221 13f3 2F       		.uleb128 0x2f
 5222 13f4 5C000000 		.4byte	.LVL101
 5223 13f8 FC0F0000 		.4byte	0xffc
 5224 13fc 2E       		.uleb128 0x2e
 5225 13fd 01       		.uleb128 0x1
 5226 13fe 50       		.byte	0x50
 5227 13ff 02       		.uleb128 0x2
ARM GAS  /tmp/cc4PNelj.s 			page 94


 5228 1400 75       		.byte	0x75
 5229 1401 00       		.sleb128 0
 5230 1402 00       		.byte	0
 5231 1403 00       		.byte	0
 5232 1404 30       		.uleb128 0x30
 5233 1405 8F010000 		.4byte	.LASF242
 5234 1409 01       		.byte	0x1
 5235 140a 6601     		.2byte	0x166
 5236 140c 59010000 		.4byte	0x159
 5237 1410 00000000 		.4byte	.LFB73
 5238 1414 7A000000 		.4byte	.LFE73-.LFB73
 5239 1418 01       		.uleb128 0x1
 5240 1419 9C       		.byte	0x9c
 5241 141a 4F140000 		.4byte	0x144f
 5242 141e 2B       		.uleb128 0x2b
 5243 141f 696D6500 		.ascii	"ime\000"
 5244 1423 01       		.byte	0x1
 5245 1424 6601     		.2byte	0x166
 5246 1426 590D0000 		.4byte	0xd59
 5247 142a 0A050000 		.4byte	.LLST33
 5248 142e 31       		.uleb128 0x31
 5249 142f 710A0000 		.4byte	.LASF233
 5250 1433 01       		.byte	0x1
 5251 1434 6801     		.2byte	0x168
 5252 1436 59010000 		.4byte	0x159
 5253 143a 28050000 		.4byte	.LLST34
 5254 143e 2F       		.uleb128 0x2f
 5255 143f 16000000 		.4byte	.LVL104
 5256 1443 4A130000 		.4byte	0x134a
 5257 1447 2E       		.uleb128 0x2e
 5258 1448 01       		.uleb128 0x1
 5259 1449 51       		.byte	0x51
 5260 144a 02       		.uleb128 0x2
 5261 144b 74       		.byte	0x74
 5262 144c 36       		.sleb128 54
 5263 144d 00       		.byte	0
 5264 144e 00       		.byte	0
 5265 144f 30       		.uleb128 0x30
 5266 1450 E1050000 		.4byte	.LASF243
 5267 1454 01       		.byte	0x1
 5268 1455 A302     		.2byte	0x2a3
 5269 1457 59010000 		.4byte	0x159
 5270 145b 00000000 		.4byte	.LFB81
 5271 145f 64000000 		.4byte	.LFE81-.LFB81
 5272 1463 01       		.uleb128 0x1
 5273 1464 9C       		.byte	0x9c
 5274 1465 29150000 		.4byte	0x1529
 5275 1469 2A       		.uleb128 0x2a
 5276 146a 06020000 		.4byte	.LASF236
 5277 146e 01       		.byte	0x1
 5278 146f A302     		.2byte	0x2a3
 5279 1471 D9000000 		.4byte	0xd9
 5280 1475 52050000 		.4byte	.LLST35
 5281 1479 2B       		.uleb128 0x2b
 5282 147a 62756600 		.ascii	"buf\000"
 5283 147e 01       		.byte	0x1
 5284 147f A302     		.2byte	0x2a3
ARM GAS  /tmp/cc4PNelj.s 			page 95


 5285 1481 51050000 		.4byte	0x551
 5286 1485 73050000 		.4byte	.LLST36
 5287 1489 2A       		.uleb128 0x2a
 5288 148a D9020000 		.4byte	.LASF201
 5289 148e 01       		.byte	0x1
 5290 148f A302     		.2byte	0x2a3
 5291 1491 D9000000 		.4byte	0xd9
 5292 1495 91050000 		.4byte	.LLST37
 5293 1499 2B       		.uleb128 0x2b
 5294 149a 6C656E00 		.ascii	"len\000"
 5295 149e 01       		.byte	0x1
 5296 149f A302     		.2byte	0x2a3
 5297 14a1 D9000000 		.4byte	0xd9
 5298 14a5 B2050000 		.4byte	.LLST38
 5299 14a9 31       		.uleb128 0x31
 5300 14aa 710A0000 		.4byte	.LASF233
 5301 14ae 01       		.byte	0x1
 5302 14af A502     		.2byte	0x2a5
 5303 14b1 59010000 		.4byte	0x159
 5304 14b5 D3050000 		.4byte	.LLST39
 5305 14b9 34       		.uleb128 0x34
 5306 14ba 870A0000 		.4byte	.LASF237
 5307 14be 01       		.byte	0x1
 5308 14bf A602     		.2byte	0x2a6
 5309 14c1 D9000000 		.4byte	0xd9
 5310 14c5 02       		.uleb128 0x2
 5311 14c6 91       		.byte	0x91
 5312 14c7 67       		.sleb128 -25
 5313 14c8 33       		.uleb128 0x33
 5314 14c9 22000000 		.4byte	.LVL111
 5315 14cd DF1E0000 		.4byte	0x1edf
 5316 14d1 2D       		.uleb128 0x2d
 5317 14d2 38000000 		.4byte	.LVL112
 5318 14d6 F01E0000 		.4byte	0x1ef0
 5319 14da 06150000 		.4byte	0x1506
 5320 14de 2E       		.uleb128 0x2e
 5321 14df 01       		.uleb128 0x1
 5322 14e0 53       		.byte	0x53
 5323 14e1 01       		.uleb128 0x1
 5324 14e2 31       		.byte	0x31
 5325 14e3 2E       		.uleb128 0x2e
 5326 14e4 01       		.uleb128 0x1
 5327 14e5 52       		.byte	0x52
 5328 14e6 02       		.uleb128 0x2
 5329 14e7 75       		.byte	0x75
 5330 14e8 00       		.sleb128 0
 5331 14e9 2E       		.uleb128 0x2e
 5332 14ea 01       		.uleb128 0x1
 5333 14eb 51       		.byte	0x51
 5334 14ec 04       		.uleb128 0x4
 5335 14ed 76       		.byte	0x76
 5336 14ee 00       		.sleb128 0
 5337 14ef 31       		.byte	0x31
 5338 14f0 25       		.byte	0x25
 5339 14f1 2E       		.uleb128 0x2e
 5340 14f2 02       		.uleb128 0x2
 5341 14f3 7D       		.byte	0x7d
ARM GAS  /tmp/cc4PNelj.s 			page 96


 5342 14f4 08       		.sleb128 8
 5343 14f5 01       		.uleb128 0x1
 5344 14f6 34       		.byte	0x34
 5345 14f7 2E       		.uleb128 0x2e
 5346 14f8 02       		.uleb128 0x2
 5347 14f9 7D       		.byte	0x7d
 5348 14fa 04       		.sleb128 4
 5349 14fb 02       		.uleb128 0x2
 5350 14fc 77       		.byte	0x77
 5351 14fd 00       		.sleb128 0
 5352 14fe 2E       		.uleb128 0x2e
 5353 14ff 02       		.uleb128 0x2
 5354 1500 7D       		.byte	0x7d
 5355 1501 00       		.sleb128 0
 5356 1502 02       		.uleb128 0x2
 5357 1503 78       		.byte	0x78
 5358 1504 00       		.sleb128 0
 5359 1505 00       		.byte	0
 5360 1506 33       		.uleb128 0x33
 5361 1507 40000000 		.4byte	.LVL115
 5362 150b 231F0000 		.4byte	0x1f23
 5363 150f 33       		.uleb128 0x33
 5364 1510 48000000 		.4byte	.LVL116
 5365 1514 571F0000 		.4byte	0x1f57
 5366 1518 2F       		.uleb128 0x2f
 5367 1519 5C000000 		.4byte	.LVL117
 5368 151d FC0F0000 		.4byte	0xffc
 5369 1521 2E       		.uleb128 0x2e
 5370 1522 01       		.uleb128 0x1
 5371 1523 50       		.byte	0x50
 5372 1524 02       		.uleb128 0x2
 5373 1525 75       		.byte	0x75
 5374 1526 00       		.sleb128 0
 5375 1527 00       		.byte	0
 5376 1528 00       		.byte	0
 5377 1529 30       		.uleb128 0x30
 5378 152a 0C050000 		.4byte	.LASF244
 5379 152e 01       		.byte	0x1
 5380 152f C202     		.2byte	0x2c2
 5381 1531 59010000 		.4byte	0x159
 5382 1535 00000000 		.4byte	.LFB82
 5383 1539 94000000 		.4byte	.LFE82-.LFB82
 5384 153d 01       		.uleb128 0x1
 5385 153e 9C       		.byte	0x9c
 5386 153f 3F160000 		.4byte	0x163f
 5387 1543 2A       		.uleb128 0x2a
 5388 1544 06020000 		.4byte	.LASF236
 5389 1548 01       		.byte	0x1
 5390 1549 C202     		.2byte	0x2c2
 5391 154b D9000000 		.4byte	0xd9
 5392 154f FD050000 		.4byte	.LLST40
 5393 1553 2B       		.uleb128 0x2b
 5394 1554 62756600 		.ascii	"buf\000"
 5395 1558 01       		.byte	0x1
 5396 1559 C202     		.2byte	0x2c2
 5397 155b 51050000 		.4byte	0x551
 5398 155f 1E060000 		.4byte	.LLST41
ARM GAS  /tmp/cc4PNelj.s 			page 97


 5399 1563 2A       		.uleb128 0x2a
 5400 1564 D9020000 		.4byte	.LASF201
 5401 1568 01       		.byte	0x1
 5402 1569 C202     		.2byte	0x2c2
 5403 156b D9000000 		.4byte	0xd9
 5404 156f 3C060000 		.4byte	.LLST42
 5405 1573 2B       		.uleb128 0x2b
 5406 1574 6C656E00 		.ascii	"len\000"
 5407 1578 01       		.byte	0x1
 5408 1579 C202     		.2byte	0x2c2
 5409 157b D9000000 		.4byte	0xd9
 5410 157f 5D060000 		.4byte	.LLST43
 5411 1583 31       		.uleb128 0x31
 5412 1584 710A0000 		.4byte	.LASF233
 5413 1588 01       		.byte	0x1
 5414 1589 C402     		.2byte	0x2c4
 5415 158b 59010000 		.4byte	0x159
 5416 158f 7E060000 		.4byte	.LLST44
 5417 1593 31       		.uleb128 0x31
 5418 1594 870A0000 		.4byte	.LASF237
 5419 1598 01       		.byte	0x1
 5420 1599 C502     		.2byte	0x2c5
 5421 159b 51050000 		.4byte	0x551
 5422 159f B3060000 		.4byte	.LLST45
 5423 15a3 2C       		.uleb128 0x2c
 5424 15a4 6900     		.ascii	"i\000"
 5425 15a6 01       		.byte	0x1
 5426 15a7 C602     		.2byte	0x2c6
 5427 15a9 39000000 		.4byte	0x39
 5428 15ad D1060000 		.4byte	.LLST46
 5429 15b1 2D       		.uleb128 0x2d
 5430 15b2 16000000 		.4byte	.LVL121
 5431 15b6 6C1F0000 		.4byte	0x1f6c
 5432 15ba CA150000 		.4byte	0x15ca
 5433 15be 2E       		.uleb128 0x2e
 5434 15bf 01       		.uleb128 0x1
 5435 15c0 51       		.byte	0x51
 5436 15c1 02       		.uleb128 0x2
 5437 15c2 08       		.byte	0x8
 5438 15c3 40       		.byte	0x40
 5439 15c4 2E       		.uleb128 0x2e
 5440 15c5 01       		.uleb128 0x1
 5441 15c6 50       		.byte	0x50
 5442 15c7 01       		.uleb128 0x1
 5443 15c8 30       		.byte	0x30
 5444 15c9 00       		.byte	0
 5445 15ca 33       		.uleb128 0x33
 5446 15cb 42000000 		.4byte	.LVL127
 5447 15cf DF1E0000 		.4byte	0x1edf
 5448 15d3 2D       		.uleb128 0x2d
 5449 15d4 5A000000 		.4byte	.LVL128
 5450 15d8 F01E0000 		.4byte	0x1ef0
 5451 15dc 08160000 		.4byte	0x1608
 5452 15e0 2E       		.uleb128 0x2e
 5453 15e1 01       		.uleb128 0x1
 5454 15e2 53       		.byte	0x53
 5455 15e3 02       		.uleb128 0x2
ARM GAS  /tmp/cc4PNelj.s 			page 98


 5456 15e4 77       		.byte	0x77
 5457 15e5 01       		.sleb128 1
 5458 15e6 2E       		.uleb128 0x2e
 5459 15e7 01       		.uleb128 0x1
 5460 15e8 52       		.byte	0x52
 5461 15e9 02       		.uleb128 0x2
 5462 15ea 79       		.byte	0x79
 5463 15eb 00       		.sleb128 0
 5464 15ec 2E       		.uleb128 0x2e
 5465 15ed 01       		.uleb128 0x1
 5466 15ee 51       		.byte	0x51
 5467 15ef 04       		.uleb128 0x4
 5468 15f0 7A       		.byte	0x7a
 5469 15f1 00       		.sleb128 0
 5470 15f2 31       		.byte	0x31
 5471 15f3 25       		.byte	0x25
 5472 15f4 2E       		.uleb128 0x2e
 5473 15f5 02       		.uleb128 0x2
 5474 15f6 7D       		.byte	0x7d
 5475 15f7 08       		.sleb128 8
 5476 15f8 02       		.uleb128 0x2
 5477 15f9 75       		.byte	0x75
 5478 15fa 00       		.sleb128 0
 5479 15fb 2E       		.uleb128 0x2e
 5480 15fc 02       		.uleb128 0x2
 5481 15fd 7D       		.byte	0x7d
 5482 15fe 04       		.sleb128 4
 5483 15ff 01       		.uleb128 0x1
 5484 1600 30       		.byte	0x30
 5485 1601 2E       		.uleb128 0x2e
 5486 1602 02       		.uleb128 0x2
 5487 1603 7D       		.byte	0x7d
 5488 1604 00       		.sleb128 0
 5489 1605 01       		.uleb128 0x1
 5490 1606 30       		.byte	0x30
 5491 1607 00       		.byte	0
 5492 1608 33       		.uleb128 0x33
 5493 1609 62000000 		.4byte	.LVL131
 5494 160d 231F0000 		.4byte	0x1f23
 5495 1611 2D       		.uleb128 0x2d
 5496 1612 68000000 		.4byte	.LVL132
 5497 1616 861F0000 		.4byte	0x1f86
 5498 161a 25160000 		.4byte	0x1625
 5499 161e 2E       		.uleb128 0x2e
 5500 161f 01       		.uleb128 0x1
 5501 1620 50       		.byte	0x50
 5502 1621 02       		.uleb128 0x2
 5503 1622 79       		.byte	0x79
 5504 1623 00       		.sleb128 0
 5505 1624 00       		.byte	0
 5506 1625 33       		.uleb128 0x33
 5507 1626 78000000 		.4byte	.LVL135
 5508 162a 571F0000 		.4byte	0x1f57
 5509 162e 2F       		.uleb128 0x2f
 5510 162f 8C000000 		.4byte	.LVL136
 5511 1633 FC0F0000 		.4byte	0xffc
 5512 1637 2E       		.uleb128 0x2e
ARM GAS  /tmp/cc4PNelj.s 			page 99


 5513 1638 01       		.uleb128 0x1
 5514 1639 50       		.byte	0x50
 5515 163a 02       		.uleb128 0x2
 5516 163b 75       		.byte	0x75
 5517 163c 00       		.sleb128 0
 5518 163d 00       		.byte	0
 5519 163e 00       		.byte	0
 5520 163f 30       		.uleb128 0x30
 5521 1640 ED040000 		.4byte	.LASF245
 5522 1644 01       		.byte	0x1
 5523 1645 EF02     		.2byte	0x2ef
 5524 1647 59010000 		.4byte	0x159
 5525 164b 00000000 		.4byte	.LFB83
 5526 164f 5C000000 		.4byte	.LFE83-.LFB83
 5527 1653 01       		.uleb128 0x1
 5528 1654 9C       		.byte	0x9c
 5529 1655 E8160000 		.4byte	0x16e8
 5530 1659 2A       		.uleb128 0x2a
 5531 165a 06020000 		.4byte	.LASF236
 5532 165e 01       		.byte	0x1
 5533 165f EF02     		.2byte	0x2ef
 5534 1661 D9000000 		.4byte	0xd9
 5535 1665 F0060000 		.4byte	.LLST47
 5536 1669 31       		.uleb128 0x31
 5537 166a 710A0000 		.4byte	.LASF233
 5538 166e 01       		.byte	0x1
 5539 166f F102     		.2byte	0x2f1
 5540 1671 59010000 		.4byte	0x159
 5541 1675 11070000 		.4byte	.LLST48
 5542 1679 34       		.uleb128 0x34
 5543 167a 870A0000 		.4byte	.LASF237
 5544 167e 01       		.byte	0x1
 5545 167f F202     		.2byte	0x2f2
 5546 1681 D9000000 		.4byte	0xd9
 5547 1685 02       		.uleb128 0x2
 5548 1686 91       		.byte	0x91
 5549 1687 67       		.sleb128 -25
 5550 1688 33       		.uleb128 0x33
 5551 1689 1E000000 		.4byte	.LVL139
 5552 168d DF1E0000 		.4byte	0x1edf
 5553 1691 2D       		.uleb128 0x2d
 5554 1692 32000000 		.4byte	.LVL140
 5555 1696 F01E0000 		.4byte	0x1ef0
 5556 169a C5160000 		.4byte	0x16c5
 5557 169e 2E       		.uleb128 0x2e
 5558 169f 01       		.uleb128 0x1
 5559 16a0 53       		.byte	0x53
 5560 16a1 01       		.uleb128 0x1
 5561 16a2 31       		.byte	0x31
 5562 16a3 2E       		.uleb128 0x2e
 5563 16a4 01       		.uleb128 0x1
 5564 16a5 52       		.byte	0x52
 5565 16a6 02       		.uleb128 0x2
 5566 16a7 75       		.byte	0x75
 5567 16a8 00       		.sleb128 0
 5568 16a9 2E       		.uleb128 0x2e
 5569 16aa 01       		.uleb128 0x1
ARM GAS  /tmp/cc4PNelj.s 			page 100


 5570 16ab 51       		.byte	0x51
 5571 16ac 04       		.uleb128 0x4
 5572 16ad 77       		.byte	0x77
 5573 16ae 00       		.sleb128 0
 5574 16af 31       		.byte	0x31
 5575 16b0 25       		.byte	0x25
 5576 16b1 2E       		.uleb128 0x2e
 5577 16b2 02       		.uleb128 0x2
 5578 16b3 7D       		.byte	0x7d
 5579 16b4 08       		.sleb128 8
 5580 16b5 02       		.uleb128 0x2
 5581 16b6 76       		.byte	0x76
 5582 16b7 00       		.sleb128 0
 5583 16b8 2E       		.uleb128 0x2e
 5584 16b9 02       		.uleb128 0x2
 5585 16ba 7D       		.byte	0x7d
 5586 16bb 04       		.sleb128 4
 5587 16bc 01       		.uleb128 0x1
 5588 16bd 30       		.byte	0x30
 5589 16be 2E       		.uleb128 0x2e
 5590 16bf 02       		.uleb128 0x2
 5591 16c0 7D       		.byte	0x7d
 5592 16c1 00       		.sleb128 0
 5593 16c2 01       		.uleb128 0x1
 5594 16c3 30       		.byte	0x30
 5595 16c4 00       		.byte	0
 5596 16c5 33       		.uleb128 0x33
 5597 16c6 3A000000 		.4byte	.LVL143
 5598 16ca 231F0000 		.4byte	0x1f23
 5599 16ce 33       		.uleb128 0x33
 5600 16cf 42000000 		.4byte	.LVL144
 5601 16d3 571F0000 		.4byte	0x1f57
 5602 16d7 2F       		.uleb128 0x2f
 5603 16d8 56000000 		.4byte	.LVL145
 5604 16dc FC0F0000 		.4byte	0xffc
 5605 16e0 2E       		.uleb128 0x2e
 5606 16e1 01       		.uleb128 0x1
 5607 16e2 50       		.byte	0x50
 5608 16e3 02       		.uleb128 0x2
 5609 16e4 75       		.byte	0x75
 5610 16e5 00       		.sleb128 0
 5611 16e6 00       		.byte	0
 5612 16e7 00       		.byte	0
 5613 16e8 30       		.uleb128 0x30
 5614 16e9 AF040000 		.4byte	.LASF246
 5615 16ed 01       		.byte	0x1
 5616 16ee 0B03     		.2byte	0x30b
 5617 16f0 59010000 		.4byte	0x159
 5618 16f4 00000000 		.4byte	.LFB84
 5619 16f8 5C000000 		.4byte	.LFE84-.LFB84
 5620 16fc 01       		.uleb128 0x1
 5621 16fd 9C       		.byte	0x9c
 5622 16fe 91170000 		.4byte	0x1791
 5623 1702 2A       		.uleb128 0x2a
 5624 1703 06020000 		.4byte	.LASF236
 5625 1707 01       		.byte	0x1
 5626 1708 0B03     		.2byte	0x30b
ARM GAS  /tmp/cc4PNelj.s 			page 101


 5627 170a D9000000 		.4byte	0xd9
 5628 170e 3B070000 		.4byte	.LLST49
 5629 1712 31       		.uleb128 0x31
 5630 1713 710A0000 		.4byte	.LASF233
 5631 1717 01       		.byte	0x1
 5632 1718 0D03     		.2byte	0x30d
 5633 171a 59010000 		.4byte	0x159
 5634 171e 5C070000 		.4byte	.LLST50
 5635 1722 34       		.uleb128 0x34
 5636 1723 870A0000 		.4byte	.LASF237
 5637 1727 01       		.byte	0x1
 5638 1728 0E03     		.2byte	0x30e
 5639 172a D9000000 		.4byte	0xd9
 5640 172e 02       		.uleb128 0x2
 5641 172f 91       		.byte	0x91
 5642 1730 67       		.sleb128 -25
 5643 1731 33       		.uleb128 0x33
 5644 1732 1E000000 		.4byte	.LVL148
 5645 1736 DF1E0000 		.4byte	0x1edf
 5646 173a 2D       		.uleb128 0x2d
 5647 173b 32000000 		.4byte	.LVL149
 5648 173f F01E0000 		.4byte	0x1ef0
 5649 1743 6E170000 		.4byte	0x176e
 5650 1747 2E       		.uleb128 0x2e
 5651 1748 01       		.uleb128 0x1
 5652 1749 53       		.byte	0x53
 5653 174a 01       		.uleb128 0x1
 5654 174b 31       		.byte	0x31
 5655 174c 2E       		.uleb128 0x2e
 5656 174d 01       		.uleb128 0x1
 5657 174e 52       		.byte	0x52
 5658 174f 02       		.uleb128 0x2
 5659 1750 75       		.byte	0x75
 5660 1751 00       		.sleb128 0
 5661 1752 2E       		.uleb128 0x2e
 5662 1753 01       		.uleb128 0x1
 5663 1754 51       		.byte	0x51
 5664 1755 04       		.uleb128 0x4
 5665 1756 77       		.byte	0x77
 5666 1757 00       		.sleb128 0
 5667 1758 31       		.byte	0x31
 5668 1759 25       		.byte	0x25
 5669 175a 2E       		.uleb128 0x2e
 5670 175b 02       		.uleb128 0x2
 5671 175c 7D       		.byte	0x7d
 5672 175d 08       		.sleb128 8
 5673 175e 02       		.uleb128 0x2
 5674 175f 76       		.byte	0x76
 5675 1760 00       		.sleb128 0
 5676 1761 2E       		.uleb128 0x2e
 5677 1762 02       		.uleb128 0x2
 5678 1763 7D       		.byte	0x7d
 5679 1764 04       		.sleb128 4
 5680 1765 01       		.uleb128 0x1
 5681 1766 30       		.byte	0x30
 5682 1767 2E       		.uleb128 0x2e
 5683 1768 02       		.uleb128 0x2
ARM GAS  /tmp/cc4PNelj.s 			page 102


 5684 1769 7D       		.byte	0x7d
 5685 176a 00       		.sleb128 0
 5686 176b 01       		.uleb128 0x1
 5687 176c 30       		.byte	0x30
 5688 176d 00       		.byte	0
 5689 176e 33       		.uleb128 0x33
 5690 176f 3A000000 		.4byte	.LVL152
 5691 1773 231F0000 		.4byte	0x1f23
 5692 1777 33       		.uleb128 0x33
 5693 1778 42000000 		.4byte	.LVL153
 5694 177c 571F0000 		.4byte	0x1f57
 5695 1780 2F       		.uleb128 0x2f
 5696 1781 56000000 		.4byte	.LVL154
 5697 1785 FC0F0000 		.4byte	0xffc
 5698 1789 2E       		.uleb128 0x2e
 5699 178a 01       		.uleb128 0x1
 5700 178b 50       		.byte	0x50
 5701 178c 02       		.uleb128 0x2
 5702 178d 75       		.byte	0x75
 5703 178e 00       		.sleb128 0
 5704 178f 00       		.byte	0
 5705 1790 00       		.byte	0
 5706 1791 30       		.uleb128 0x30
 5707 1792 B1000000 		.4byte	.LASF247
 5708 1796 01       		.byte	0x1
 5709 1797 2703     		.2byte	0x327
 5710 1799 59010000 		.4byte	0x159
 5711 179d 00000000 		.4byte	.LFB85
 5712 17a1 5C000000 		.4byte	.LFE85-.LFB85
 5713 17a5 01       		.uleb128 0x1
 5714 17a6 9C       		.byte	0x9c
 5715 17a7 3A180000 		.4byte	0x183a
 5716 17ab 2A       		.uleb128 0x2a
 5717 17ac 06020000 		.4byte	.LASF236
 5718 17b0 01       		.byte	0x1
 5719 17b1 2703     		.2byte	0x327
 5720 17b3 D9000000 		.4byte	0xd9
 5721 17b7 86070000 		.4byte	.LLST51
 5722 17bb 31       		.uleb128 0x31
 5723 17bc 710A0000 		.4byte	.LASF233
 5724 17c0 01       		.byte	0x1
 5725 17c1 2903     		.2byte	0x329
 5726 17c3 59010000 		.4byte	0x159
 5727 17c7 A7070000 		.4byte	.LLST52
 5728 17cb 34       		.uleb128 0x34
 5729 17cc 870A0000 		.4byte	.LASF237
 5730 17d0 01       		.byte	0x1
 5731 17d1 2A03     		.2byte	0x32a
 5732 17d3 D9000000 		.4byte	0xd9
 5733 17d7 02       		.uleb128 0x2
 5734 17d8 91       		.byte	0x91
 5735 17d9 67       		.sleb128 -25
 5736 17da 33       		.uleb128 0x33
 5737 17db 1E000000 		.4byte	.LVL157
 5738 17df DF1E0000 		.4byte	0x1edf
 5739 17e3 2D       		.uleb128 0x2d
 5740 17e4 32000000 		.4byte	.LVL158
ARM GAS  /tmp/cc4PNelj.s 			page 103


 5741 17e8 F01E0000 		.4byte	0x1ef0
 5742 17ec 17180000 		.4byte	0x1817
 5743 17f0 2E       		.uleb128 0x2e
 5744 17f1 01       		.uleb128 0x1
 5745 17f2 53       		.byte	0x53
 5746 17f3 01       		.uleb128 0x1
 5747 17f4 31       		.byte	0x31
 5748 17f5 2E       		.uleb128 0x2e
 5749 17f6 01       		.uleb128 0x1
 5750 17f7 52       		.byte	0x52
 5751 17f8 02       		.uleb128 0x2
 5752 17f9 75       		.byte	0x75
 5753 17fa 00       		.sleb128 0
 5754 17fb 2E       		.uleb128 0x2e
 5755 17fc 01       		.uleb128 0x1
 5756 17fd 51       		.byte	0x51
 5757 17fe 04       		.uleb128 0x4
 5758 17ff 77       		.byte	0x77
 5759 1800 00       		.sleb128 0
 5760 1801 31       		.byte	0x31
 5761 1802 25       		.byte	0x25
 5762 1803 2E       		.uleb128 0x2e
 5763 1804 02       		.uleb128 0x2
 5764 1805 7D       		.byte	0x7d
 5765 1806 08       		.sleb128 8
 5766 1807 02       		.uleb128 0x2
 5767 1808 76       		.byte	0x76
 5768 1809 00       		.sleb128 0
 5769 180a 2E       		.uleb128 0x2e
 5770 180b 02       		.uleb128 0x2
 5771 180c 7D       		.byte	0x7d
 5772 180d 04       		.sleb128 4
 5773 180e 01       		.uleb128 0x1
 5774 180f 30       		.byte	0x30
 5775 1810 2E       		.uleb128 0x2e
 5776 1811 02       		.uleb128 0x2
 5777 1812 7D       		.byte	0x7d
 5778 1813 00       		.sleb128 0
 5779 1814 01       		.uleb128 0x1
 5780 1815 30       		.byte	0x30
 5781 1816 00       		.byte	0
 5782 1817 33       		.uleb128 0x33
 5783 1818 3A000000 		.4byte	.LVL161
 5784 181c 231F0000 		.4byte	0x1f23
 5785 1820 33       		.uleb128 0x33
 5786 1821 42000000 		.4byte	.LVL162
 5787 1825 571F0000 		.4byte	0x1f57
 5788 1829 2F       		.uleb128 0x2f
 5789 182a 56000000 		.4byte	.LVL163
 5790 182e FC0F0000 		.4byte	0xffc
 5791 1832 2E       		.uleb128 0x2e
 5792 1833 01       		.uleb128 0x1
 5793 1834 50       		.byte	0x50
 5794 1835 02       		.uleb128 0x2
 5795 1836 75       		.byte	0x75
 5796 1837 00       		.sleb128 0
 5797 1838 00       		.byte	0
ARM GAS  /tmp/cc4PNelj.s 			page 104


 5798 1839 00       		.byte	0
 5799 183a 30       		.uleb128 0x30
 5800 183b 2A090000 		.4byte	.LASF248
 5801 183f 01       		.byte	0x1
 5802 1840 4403     		.2byte	0x344
 5803 1842 59010000 		.4byte	0x159
 5804 1846 00000000 		.4byte	.LFB86
 5805 184a 64000000 		.4byte	.LFE86-.LFB86
 5806 184e 01       		.uleb128 0x1
 5807 184f 9C       		.byte	0x9c
 5808 1850 EA180000 		.4byte	0x18ea
 5809 1854 2A       		.uleb128 0x2a
 5810 1855 06020000 		.4byte	.LASF236
 5811 1859 01       		.byte	0x1
 5812 185a 4403     		.2byte	0x344
 5813 185c 51050000 		.4byte	0x551
 5814 1860 D1070000 		.4byte	.LLST53
 5815 1864 2A       		.uleb128 0x2a
 5816 1865 800C0000 		.4byte	.LASF249
 5817 1869 01       		.byte	0x1
 5818 186a 4403     		.2byte	0x344
 5819 186c 52000000 		.4byte	0x52
 5820 1870 EF070000 		.4byte	.LLST54
 5821 1874 31       		.uleb128 0x31
 5822 1875 710A0000 		.4byte	.LASF233
 5823 1879 01       		.byte	0x1
 5824 187a 4603     		.2byte	0x346
 5825 187c 59010000 		.4byte	0x159
 5826 1880 10080000 		.4byte	.LLST55
 5827 1884 32       		.uleb128 0x32
 5828 1885 62756600 		.ascii	"buf\000"
 5829 1889 01       		.byte	0x1
 5830 188a 4703     		.2byte	0x347
 5831 188c EC0F0000 		.4byte	0xfec
 5832 1890 02       		.uleb128 0x2
 5833 1891 91       		.byte	0x91
 5834 1892 64       		.sleb128 -28
 5835 1893 33       		.uleb128 0x33
 5836 1894 20000000 		.4byte	.LVL166
 5837 1898 DF1E0000 		.4byte	0x1edf
 5838 189c 2D       		.uleb128 0x2d
 5839 189d 38000000 		.4byte	.LVL167
 5840 18a1 F01E0000 		.4byte	0x1ef0
 5841 18a5 C7180000 		.4byte	0x18c7
 5842 18a9 2E       		.uleb128 0x2e
 5843 18aa 01       		.uleb128 0x1
 5844 18ab 53       		.byte	0x53
 5845 18ac 01       		.uleb128 0x1
 5846 18ad 32       		.byte	0x32
 5847 18ae 2E       		.uleb128 0x2e
 5848 18af 01       		.uleb128 0x1
 5849 18b0 52       		.byte	0x52
 5850 18b1 02       		.uleb128 0x2
 5851 18b2 91       		.byte	0x91
 5852 18b3 64       		.sleb128 -28
 5853 18b4 2E       		.uleb128 0x2e
 5854 18b5 02       		.uleb128 0x2
ARM GAS  /tmp/cc4PNelj.s 			page 105


 5855 18b6 7D       		.byte	0x7d
 5856 18b7 08       		.sleb128 8
 5857 18b8 01       		.uleb128 0x1
 5858 18b9 34       		.byte	0x34
 5859 18ba 2E       		.uleb128 0x2e
 5860 18bb 02       		.uleb128 0x2
 5861 18bc 7D       		.byte	0x7d
 5862 18bd 04       		.sleb128 4
 5863 18be 01       		.uleb128 0x1
 5864 18bf 30       		.byte	0x30
 5865 18c0 2E       		.uleb128 0x2e
 5866 18c1 02       		.uleb128 0x2
 5867 18c2 7D       		.byte	0x7d
 5868 18c3 00       		.sleb128 0
 5869 18c4 01       		.uleb128 0x1
 5870 18c5 30       		.byte	0x30
 5871 18c6 00       		.byte	0
 5872 18c7 33       		.uleb128 0x33
 5873 18c8 40000000 		.4byte	.LVL170
 5874 18cc 231F0000 		.4byte	0x1f23
 5875 18d0 33       		.uleb128 0x33
 5876 18d1 48000000 		.4byte	.LVL171
 5877 18d5 571F0000 		.4byte	0x1f57
 5878 18d9 2F       		.uleb128 0x2f
 5879 18da 5C000000 		.4byte	.LVL172
 5880 18de FC0F0000 		.4byte	0xffc
 5881 18e2 2E       		.uleb128 0x2e
 5882 18e3 01       		.uleb128 0x1
 5883 18e4 50       		.byte	0x50
 5884 18e5 02       		.uleb128 0x2
 5885 18e6 75       		.byte	0x75
 5886 18e7 00       		.sleb128 0
 5887 18e8 00       		.byte	0
 5888 18e9 00       		.byte	0
 5889 18ea 30       		.uleb128 0x30
 5890 18eb C3010000 		.4byte	.LASF250
 5891 18ef 01       		.byte	0x1
 5892 18f0 AB01     		.2byte	0x1ab
 5893 18f2 EF000000 		.4byte	0xef
 5894 18f6 00000000 		.4byte	.LFB75
 5895 18fa 06010000 		.4byte	.LFE75-.LFB75
 5896 18fe 01       		.uleb128 0x1
 5897 18ff 9C       		.byte	0x9c
 5898 1900 DC190000 		.4byte	0x19dc
 5899 1904 2C       		.uleb128 0x2c
 5900 1905 6900     		.ascii	"i\000"
 5901 1907 01       		.byte	0x1
 5902 1908 AD01     		.2byte	0x1ad
 5903 190a E4000000 		.4byte	0xe4
 5904 190e 3A080000 		.4byte	.LLST56
 5905 1912 2C       		.uleb128 0x2c
 5906 1913 696D6500 		.ascii	"ime\000"
 5907 1917 01       		.byte	0x1
 5908 1918 AE01     		.2byte	0x1ae
 5909 191a 590D0000 		.4byte	0xd59
 5910 191e 4E080000 		.4byte	.LLST57
 5911 1922 33       		.uleb128 0x33
ARM GAS  /tmp/cc4PNelj.s 			page 106


 5912 1923 10000000 		.4byte	.LVL174
 5913 1927 5F0F0000 		.4byte	0xf5f
 5914 192b 2D       		.uleb128 0x2d
 5915 192c 3C000000 		.4byte	.LVL176
 5916 1930 BC0E0000 		.4byte	0xebc
 5917 1934 3F190000 		.4byte	0x193f
 5918 1938 2E       		.uleb128 0x2e
 5919 1939 01       		.uleb128 0x1
 5920 193a 50       		.byte	0x50
 5921 193b 02       		.uleb128 0x2
 5922 193c 76       		.byte	0x76
 5923 193d 00       		.sleb128 0
 5924 193e 00       		.byte	0
 5925 193f 33       		.uleb128 0x33
 5926 1940 44000000 		.4byte	.LVL177
 5927 1944 91170000 		.4byte	0x1791
 5928 1948 2D       		.uleb128 0x2d
 5929 1949 56000000 		.4byte	.LVL178
 5930 194d 3A180000 		.4byte	0x183a
 5931 1951 5C190000 		.4byte	0x195c
 5932 1955 2E       		.uleb128 0x2e
 5933 1956 01       		.uleb128 0x1
 5934 1957 50       		.byte	0x50
 5935 1958 02       		.uleb128 0x2
 5936 1959 76       		.byte	0x76
 5937 195a 00       		.sleb128 0
 5938 195b 00       		.byte	0
 5939 195c 2D       		.uleb128 0x2d
 5940 195d 62000000 		.4byte	.LVL179
 5941 1961 341F0000 		.4byte	0x1f34
 5942 1965 70190000 		.4byte	0x1970
 5943 1969 2E       		.uleb128 0x2e
 5944 196a 01       		.uleb128 0x1
 5945 196b 50       		.byte	0x50
 5946 196c 02       		.uleb128 0x2
 5947 196d 77       		.byte	0x77
 5948 196e 00       		.sleb128 0
 5949 196f 00       		.byte	0
 5950 1970 2D       		.uleb128 0x2d
 5951 1971 6C000000 		.4byte	.LVL180
 5952 1975 63100000 		.4byte	0x1063
 5953 1979 84190000 		.4byte	0x1984
 5954 197d 2E       		.uleb128 0x2e
 5955 197e 01       		.uleb128 0x1
 5956 197f 51       		.byte	0x51
 5957 1980 02       		.uleb128 0x2
 5958 1981 74       		.byte	0x74
 5959 1982 00       		.sleb128 0
 5960 1983 00       		.byte	0
 5961 1984 2D       		.uleb128 0x2d
 5962 1985 78000000 		.4byte	.LVL181
 5963 1989 1D110000 		.4byte	0x111d
 5964 198d 98190000 		.4byte	0x1998
 5965 1991 2E       		.uleb128 0x2e
 5966 1992 01       		.uleb128 0x1
 5967 1993 51       		.byte	0x51
 5968 1994 02       		.uleb128 0x2
ARM GAS  /tmp/cc4PNelj.s 			page 107


 5969 1995 74       		.byte	0x74
 5970 1996 10       		.sleb128 16
 5971 1997 00       		.byte	0
 5972 1998 2D       		.uleb128 0x2d
 5973 1999 84000000 		.4byte	.LVL182
 5974 199d D7110000 		.4byte	0x11d7
 5975 19a1 AC190000 		.4byte	0x19ac
 5976 19a5 2E       		.uleb128 0x2e
 5977 19a6 01       		.uleb128 0x1
 5978 19a7 51       		.byte	0x51
 5979 19a8 02       		.uleb128 0x2
 5980 19a9 74       		.byte	0x74
 5981 19aa 20       		.sleb128 32
 5982 19ab 00       		.byte	0
 5983 19ac 33       		.uleb128 0x33
 5984 19ad 8C000000 		.4byte	.LVL183
 5985 19b1 3F160000 		.4byte	0x163f
 5986 19b5 33       		.uleb128 0x33
 5987 19b6 AC000000 		.4byte	.LVL184
 5988 19ba E8160000 		.4byte	0x16e8
 5989 19be 2D       		.uleb128 0x2d
 5990 19bf B4000000 		.4byte	.LVL185
 5991 19c3 341F0000 		.4byte	0x1f34
 5992 19c7 D2190000 		.4byte	0x19d2
 5993 19cb 2E       		.uleb128 0x2e
 5994 19cc 01       		.uleb128 0x1
 5995 19cd 50       		.byte	0x50
 5996 19ce 02       		.uleb128 0x2
 5997 19cf 77       		.byte	0x77
 5998 19d0 00       		.sleb128 0
 5999 19d1 00       		.byte	0
 6000 19d2 33       		.uleb128 0x33
 6001 19d3 DA000000 		.4byte	.LVL188
 6002 19d7 91170000 		.4byte	0x1791
 6003 19db 00       		.byte	0
 6004 19dc 29       		.uleb128 0x29
 6005 19dd B1060000 		.4byte	.LASF251
 6006 19e1 01       		.byte	0x1
 6007 19e2 B703     		.2byte	0x3b7
 6008 19e4 00000000 		.4byte	.LFB89
 6009 19e8 86000000 		.4byte	.LFE89-.LFB89
 6010 19ec 01       		.uleb128 0x1
 6011 19ed 9C       		.byte	0x9c
 6012 19ee D01A0000 		.4byte	0x1ad0
 6013 19f2 2B       		.uleb128 0x2b
 6014 19f3 63687000 		.ascii	"chp\000"
 6015 19f7 01       		.byte	0x1
 6016 19f8 B703     		.2byte	0x3b7
 6017 19fa 730C0000 		.4byte	0xc73
 6018 19fe 7A080000 		.4byte	.LLST58
 6019 1a02 2B       		.uleb128 0x2b
 6020 1a03 62756600 		.ascii	"buf\000"
 6021 1a07 01       		.byte	0x1
 6022 1a08 B703     		.2byte	0x3b7
 6023 1a0a 51050000 		.4byte	0x551
 6024 1a0e F3080000 		.4byte	.LLST59
 6025 1a12 2B       		.uleb128 0x2b
ARM GAS  /tmp/cc4PNelj.s 			page 108


 6026 1a13 6C656E00 		.ascii	"len\000"
 6027 1a17 01       		.byte	0x1
 6028 1a18 B703     		.2byte	0x3b7
 6029 1a1a D9000000 		.4byte	0xd9
 6030 1a1e 35090000 		.4byte	.LLST60
 6031 1a22 2C       		.uleb128 0x2c
 6032 1a23 6900     		.ascii	"i\000"
 6033 1a25 01       		.byte	0x1
 6034 1a26 B903     		.2byte	0x3b9
 6035 1a28 39000000 		.4byte	0x39
 6036 1a2c 6F090000 		.4byte	.LLST61
 6037 1a30 2D       		.uleb128 0x2d
 6038 1a31 1E000000 		.4byte	.LVL193
 6039 1a35 971F0000 		.4byte	0x1f97
 6040 1a39 4D1A0000 		.4byte	0x1a4d
 6041 1a3d 2E       		.uleb128 0x2e
 6042 1a3e 01       		.uleb128 0x1
 6043 1a3f 51       		.byte	0x51
 6044 1a40 05       		.uleb128 0x5
 6045 1a41 03       		.byte	0x3
 6046 1a42 00000000 		.4byte	.LC0
 6047 1a46 2E       		.uleb128 0x2e
 6048 1a47 01       		.uleb128 0x1
 6049 1a48 50       		.byte	0x50
 6050 1a49 02       		.uleb128 0x2
 6051 1a4a 75       		.byte	0x75
 6052 1a4b 00       		.sleb128 0
 6053 1a4c 00       		.byte	0
 6054 1a4d 2D       		.uleb128 0x2d
 6055 1a4e 30000000 		.4byte	.LVL194
 6056 1a52 971F0000 		.4byte	0x1f97
 6057 1a56 6A1A0000 		.4byte	0x1a6a
 6058 1a5a 2E       		.uleb128 0x2e
 6059 1a5b 01       		.uleb128 0x1
 6060 1a5c 51       		.byte	0x51
 6061 1a5d 05       		.uleb128 0x5
 6062 1a5e 03       		.byte	0x3
 6063 1a5f 14000000 		.4byte	.LC4
 6064 1a63 2E       		.uleb128 0x2e
 6065 1a64 01       		.uleb128 0x1
 6066 1a65 50       		.byte	0x50
 6067 1a66 02       		.uleb128 0x2
 6068 1a67 75       		.byte	0x75
 6069 1a68 00       		.sleb128 0
 6070 1a69 00       		.byte	0
 6071 1a6a 2D       		.uleb128 0x2d
 6072 1a6b 42000000 		.4byte	.LVL197
 6073 1a6f 971F0000 		.4byte	0x1f97
 6074 1a73 811A0000 		.4byte	0x1a81
 6075 1a77 2E       		.uleb128 0x2e
 6076 1a78 01       		.uleb128 0x1
 6077 1a79 51       		.byte	0x51
 6078 1a7a 05       		.uleb128 0x5
 6079 1a7b 03       		.byte	0x3
 6080 1a7c 08000000 		.4byte	.LC1
 6081 1a80 00       		.byte	0
 6082 1a81 2D       		.uleb128 0x2d
ARM GAS  /tmp/cc4PNelj.s 			page 109


 6083 1a82 62000000 		.4byte	.LVL201
 6084 1a86 971F0000 		.4byte	0x1f97
 6085 1a8a 9E1A0000 		.4byte	0x1a9e
 6086 1a8e 2E       		.uleb128 0x2e
 6087 1a8f 01       		.uleb128 0x1
 6088 1a90 51       		.byte	0x51
 6089 1a91 05       		.uleb128 0x5
 6090 1a92 03       		.byte	0x3
 6091 1a93 0C000000 		.4byte	.LC2
 6092 1a97 2E       		.uleb128 0x2e
 6093 1a98 01       		.uleb128 0x1
 6094 1a99 50       		.byte	0x50
 6095 1a9a 02       		.uleb128 0x2
 6096 1a9b 75       		.byte	0x75
 6097 1a9c 00       		.sleb128 0
 6098 1a9d 00       		.byte	0
 6099 1a9e 35       		.uleb128 0x35
 6100 1a9f 78000000 		.4byte	.LVL204
 6101 1aa3 971F0000 		.4byte	0x1f97
 6102 1aa7 BC1A0000 		.4byte	0x1abc
 6103 1aab 2E       		.uleb128 0x2e
 6104 1aac 01       		.uleb128 0x1
 6105 1aad 51       		.byte	0x51
 6106 1aae 05       		.uleb128 0x5
 6107 1aaf 03       		.byte	0x3
 6108 1ab0 10000000 		.4byte	.LC3
 6109 1ab4 2E       		.uleb128 0x2e
 6110 1ab5 01       		.uleb128 0x1
 6111 1ab6 50       		.byte	0x50
 6112 1ab7 03       		.uleb128 0x3
 6113 1ab8 F3       		.byte	0xf3
 6114 1ab9 01       		.uleb128 0x1
 6115 1aba 50       		.byte	0x50
 6116 1abb 00       		.byte	0
 6117 1abc 2F       		.uleb128 0x2f
 6118 1abd 84000000 		.4byte	.LVL206
 6119 1ac1 971F0000 		.4byte	0x1f97
 6120 1ac5 2E       		.uleb128 0x2e
 6121 1ac6 01       		.uleb128 0x1
 6122 1ac7 51       		.byte	0x51
 6123 1ac8 05       		.uleb128 0x5
 6124 1ac9 03       		.byte	0x3
 6125 1aca 14000000 		.4byte	.LC4
 6126 1ace 00       		.byte	0
 6127 1acf 00       		.byte	0
 6128 1ad0 36       		.uleb128 0x36
 6129 1ad1 E20B0000 		.4byte	.LASF278
 6130 1ad5 01       		.byte	0x1
 6131 1ad6 F3       		.byte	0xf3
 6132 1ad7 59010000 		.4byte	0x159
 6133 1adb 00000000 		.4byte	.LFB71
 6134 1adf 18010000 		.4byte	.LFE71-.LFB71
 6135 1ae3 01       		.uleb128 0x1
 6136 1ae4 9C       		.byte	0x9c
 6137 1ae5 E81B0000 		.4byte	0x1be8
 6138 1ae9 37       		.uleb128 0x37
 6139 1aea 61726700 		.ascii	"arg\000"
ARM GAS  /tmp/cc4PNelj.s 			page 110


 6140 1aee 01       		.byte	0x1
 6141 1aef F3       		.byte	0xf3
 6142 1af0 37000000 		.4byte	0x37
 6143 1af4 F9090000 		.4byte	.LLST62
 6144 1af8 38       		.uleb128 0x38
 6145 1af9 6900     		.ascii	"i\000"
 6146 1afb 01       		.byte	0x1
 6147 1afc F5       		.byte	0xf5
 6148 1afd 39000000 		.4byte	0x39
 6149 1b01 1A0A0000 		.4byte	.LLST63
 6150 1b05 2D       		.uleb128 0x2d
 6151 1b06 4C000000 		.4byte	.LVL211
 6152 1b0a 04140000 		.4byte	0x1404
 6153 1b0e 191B0000 		.4byte	0x1b19
 6154 1b12 2E       		.uleb128 0x2e
 6155 1b13 01       		.uleb128 0x1
 6156 1b14 50       		.byte	0x50
 6157 1b15 02       		.uleb128 0x2
 6158 1b16 75       		.byte	0x75
 6159 1b17 00       		.sleb128 0
 6160 1b18 00       		.byte	0
 6161 1b19 33       		.uleb128 0x33
 6162 1b1a 5C000000 		.4byte	.LVL213
 6163 1b1e 341F0000 		.4byte	0x1f34
 6164 1b22 33       		.uleb128 0x33
 6165 1b23 7E000000 		.4byte	.LVL215
 6166 1b27 EA180000 		.4byte	0x18ea
 6167 1b2b 2D       		.uleb128 0x2d
 6168 1b2c A0000000 		.4byte	.LVL218
 6169 1b30 971F0000 		.4byte	0x1f97
 6170 1b34 481B0000 		.4byte	0x1b48
 6171 1b38 2E       		.uleb128 0x2e
 6172 1b39 01       		.uleb128 0x1
 6173 1b3a 52       		.byte	0x52
 6174 1b3b 02       		.uleb128 0x2
 6175 1b3c 75       		.byte	0x75
 6176 1b3d 00       		.sleb128 0
 6177 1b3e 2E       		.uleb128 0x2e
 6178 1b3f 01       		.uleb128 0x1
 6179 1b40 51       		.byte	0x51
 6180 1b41 05       		.uleb128 0x5
 6181 1b42 03       		.byte	0x3
 6182 1b43 1C000000 		.4byte	.LC6
 6183 1b47 00       		.byte	0
 6184 1b48 2D       		.uleb128 0x2d
 6185 1b49 AE000000 		.4byte	.LVL219
 6186 1b4d 971F0000 		.4byte	0x1f97
 6187 1b51 5F1B0000 		.4byte	0x1b5f
 6188 1b55 2E       		.uleb128 0x2e
 6189 1b56 01       		.uleb128 0x1
 6190 1b57 51       		.byte	0x51
 6191 1b58 05       		.uleb128 0x5
 6192 1b59 03       		.byte	0x3
 6193 1b5a 2C000000 		.4byte	.LC7
 6194 1b5e 00       		.byte	0
 6195 1b5f 2D       		.uleb128 0x2d
 6196 1b60 B8000000 		.4byte	.LVL220
ARM GAS  /tmp/cc4PNelj.s 			page 111


 6197 1b64 DC190000 		.4byte	0x19dc
 6198 1b68 781B0000 		.4byte	0x1b78
 6199 1b6c 2E       		.uleb128 0x2e
 6200 1b6d 01       		.uleb128 0x1
 6201 1b6e 52       		.byte	0x52
 6202 1b6f 01       		.uleb128 0x1
 6203 1b70 38       		.byte	0x38
 6204 1b71 2E       		.uleb128 0x2e
 6205 1b72 01       		.uleb128 0x1
 6206 1b73 51       		.byte	0x51
 6207 1b74 02       		.uleb128 0x2
 6208 1b75 74       		.byte	0x74
 6209 1b76 00       		.sleb128 0
 6210 1b77 00       		.byte	0
 6211 1b78 2D       		.uleb128 0x2d
 6212 1b79 C6000000 		.4byte	.LVL221
 6213 1b7d 971F0000 		.4byte	0x1f97
 6214 1b81 8F1B0000 		.4byte	0x1b8f
 6215 1b85 2E       		.uleb128 0x2e
 6216 1b86 01       		.uleb128 0x1
 6217 1b87 51       		.byte	0x51
 6218 1b88 05       		.uleb128 0x5
 6219 1b89 03       		.byte	0x3
 6220 1b8a 38000000 		.4byte	.LC8
 6221 1b8e 00       		.byte	0
 6222 1b8f 2D       		.uleb128 0x2d
 6223 1b90 D2000000 		.4byte	.LVL222
 6224 1b94 DC190000 		.4byte	0x19dc
 6225 1b98 A81B0000 		.4byte	0x1ba8
 6226 1b9c 2E       		.uleb128 0x2e
 6227 1b9d 01       		.uleb128 0x1
 6228 1b9e 52       		.byte	0x52
 6229 1b9f 01       		.uleb128 0x1
 6230 1ba0 38       		.byte	0x38
 6231 1ba1 2E       		.uleb128 0x2e
 6232 1ba2 01       		.uleb128 0x1
 6233 1ba3 51       		.byte	0x51
 6234 1ba4 02       		.uleb128 0x2
 6235 1ba5 74       		.byte	0x74
 6236 1ba6 10       		.sleb128 16
 6237 1ba7 00       		.byte	0
 6238 1ba8 2D       		.uleb128 0x2d
 6239 1ba9 E0000000 		.4byte	.LVL223
 6240 1bad 971F0000 		.4byte	0x1f97
 6241 1bb1 BF1B0000 		.4byte	0x1bbf
 6242 1bb5 2E       		.uleb128 0x2e
 6243 1bb6 01       		.uleb128 0x1
 6244 1bb7 51       		.byte	0x51
 6245 1bb8 05       		.uleb128 0x5
 6246 1bb9 03       		.byte	0x3
 6247 1bba 44000000 		.4byte	.LC9
 6248 1bbe 00       		.byte	0
 6249 1bbf 2D       		.uleb128 0x2d
 6250 1bc0 EC000000 		.4byte	.LVL224
 6251 1bc4 DC190000 		.4byte	0x19dc
 6252 1bc8 D81B0000 		.4byte	0x1bd8
 6253 1bcc 2E       		.uleb128 0x2e
ARM GAS  /tmp/cc4PNelj.s 			page 112


 6254 1bcd 01       		.uleb128 0x1
 6255 1bce 52       		.byte	0x52
 6256 1bcf 01       		.uleb128 0x1
 6257 1bd0 38       		.byte	0x38
 6258 1bd1 2E       		.uleb128 0x2e
 6259 1bd2 01       		.uleb128 0x1
 6260 1bd3 51       		.byte	0x51
 6261 1bd4 02       		.uleb128 0x2
 6262 1bd5 74       		.byte	0x74
 6263 1bd6 20       		.sleb128 32
 6264 1bd7 00       		.byte	0
 6265 1bd8 2F       		.uleb128 0x2f
 6266 1bd9 0A010000 		.4byte	.LVL227
 6267 1bdd 341F0000 		.4byte	0x1f34
 6268 1be1 2E       		.uleb128 0x2e
 6269 1be2 01       		.uleb128 0x1
 6270 1be3 50       		.byte	0x50
 6271 1be4 01       		.uleb128 0x1
 6272 1be5 3A       		.byte	0x3a
 6273 1be6 00       		.byte	0
 6274 1be7 00       		.byte	0
 6275 1be8 29       		.uleb128 0x29
 6276 1be9 CD020000 		.4byte	.LASF252
 6277 1bed 01       		.byte	0x1
 6278 1bee D303     		.2byte	0x3d3
 6279 1bf0 00000000 		.4byte	.LFB90
 6280 1bf4 46010000 		.4byte	.LFE90-.LFB90
 6281 1bf8 01       		.uleb128 0x1
 6282 1bf9 9C       		.byte	0x9c
 6283 1bfa 061E0000 		.4byte	0x1e06
 6284 1bfe 2B       		.uleb128 0x2b
 6285 1bff 63687000 		.ascii	"chp\000"
 6286 1c03 01       		.byte	0x1
 6287 1c04 D303     		.2byte	0x3d3
 6288 1c06 730C0000 		.4byte	0xc73
 6289 1c0a 680A0000 		.4byte	.LLST64
 6290 1c0e 2A       		.uleb128 0x2a
 6291 1c0f 6F080000 		.4byte	.LASF253
 6292 1c13 01       		.byte	0x1
 6293 1c14 D303     		.2byte	0x3d3
 6294 1c16 39000000 		.4byte	0x39
 6295 1c1a 860A0000 		.4byte	.LLST65
 6296 1c1e 2A       		.uleb128 0x2a
 6297 1c1f 07050000 		.4byte	.LASF254
 6298 1c23 01       		.byte	0x1
 6299 1c24 D303     		.2byte	0x3d3
 6300 1c26 940C0000 		.4byte	0xc94
 6301 1c2a A70A0000 		.4byte	.LLST66
 6302 1c2e 2C       		.uleb128 0x2c
 6303 1c2f 6900     		.ascii	"i\000"
 6304 1c31 01       		.byte	0x1
 6305 1c32 D503     		.2byte	0x3d5
 6306 1c34 39000000 		.4byte	0x39
 6307 1c38 C80A0000 		.4byte	.LLST67
 6308 1c3c 2D       		.uleb128 0x2d
 6309 1c3d 1E000000 		.4byte	.LVL231
 6310 1c41 971F0000 		.4byte	0x1f97
ARM GAS  /tmp/cc4PNelj.s 			page 113


 6311 1c45 591C0000 		.4byte	0x1c59
 6312 1c49 2E       		.uleb128 0x2e
 6313 1c4a 01       		.uleb128 0x1
 6314 1c4b 51       		.byte	0x51
 6315 1c4c 05       		.uleb128 0x5
 6316 1c4d 03       		.byte	0x3
 6317 1c4e 50000000 		.4byte	.LC10
 6318 1c52 2E       		.uleb128 0x2e
 6319 1c53 01       		.uleb128 0x1
 6320 1c54 50       		.byte	0x50
 6321 1c55 02       		.uleb128 0x2
 6322 1c56 75       		.byte	0x75
 6323 1c57 00       		.sleb128 0
 6324 1c58 00       		.byte	0
 6325 1c59 2D       		.uleb128 0x2d
 6326 1c5a 3C000000 		.4byte	.LVL232
 6327 1c5e 971F0000 		.4byte	0x1f97
 6328 1c62 841C0000 		.4byte	0x1c84
 6329 1c66 2E       		.uleb128 0x2e
 6330 1c67 01       		.uleb128 0x1
 6331 1c68 51       		.byte	0x51
 6332 1c69 05       		.uleb128 0x5
 6333 1c6a 03       		.byte	0x3
 6334 1c6b 64000000 		.4byte	.LC11
 6335 1c6f 2E       		.uleb128 0x2e
 6336 1c70 01       		.uleb128 0x1
 6337 1c71 50       		.byte	0x50
 6338 1c72 02       		.uleb128 0x2
 6339 1c73 75       		.byte	0x75
 6340 1c74 00       		.sleb128 0
 6341 1c75 2E       		.uleb128 0x2e
 6342 1c76 02       		.uleb128 0x2
 6343 1c77 7D       		.byte	0x7d
 6344 1c78 04       		.sleb128 4
 6345 1c79 02       		.uleb128 0x2
 6346 1c7a 74       		.byte	0x74
 6347 1c7b 00       		.sleb128 0
 6348 1c7c 2E       		.uleb128 0x2e
 6349 1c7d 02       		.uleb128 0x2
 6350 1c7e 7D       		.byte	0x7d
 6351 1c7f 00       		.sleb128 0
 6352 1c80 02       		.uleb128 0x2
 6353 1c81 76       		.byte	0x76
 6354 1c82 00       		.sleb128 0
 6355 1c83 00       		.byte	0
 6356 1c84 2D       		.uleb128 0x2d
 6357 1c85 5C000000 		.4byte	.LVL235
 6358 1c89 971F0000 		.4byte	0x1f97
 6359 1c8d A71C0000 		.4byte	0x1ca7
 6360 1c91 2E       		.uleb128 0x2e
 6361 1c92 01       		.uleb128 0x1
 6362 1c93 52       		.byte	0x52
 6363 1c94 02       		.uleb128 0x2
 6364 1c95 76       		.byte	0x76
 6365 1c96 00       		.sleb128 0
 6366 1c97 2E       		.uleb128 0x2e
 6367 1c98 01       		.uleb128 0x1
ARM GAS  /tmp/cc4PNelj.s 			page 114


 6368 1c99 51       		.byte	0x51
 6369 1c9a 05       		.uleb128 0x5
 6370 1c9b 03       		.byte	0x3
 6371 1c9c 98000000 		.4byte	.LC12
 6372 1ca0 2E       		.uleb128 0x2e
 6373 1ca1 01       		.uleb128 0x1
 6374 1ca2 50       		.byte	0x50
 6375 1ca3 02       		.uleb128 0x2
 6376 1ca4 75       		.byte	0x75
 6377 1ca5 00       		.sleb128 0
 6378 1ca6 00       		.byte	0
 6379 1ca7 2D       		.uleb128 0x2d
 6380 1ca8 7A000000 		.4byte	.LVL236
 6381 1cac 971F0000 		.4byte	0x1f97
 6382 1cb0 C41C0000 		.4byte	0x1cc4
 6383 1cb4 2E       		.uleb128 0x2e
 6384 1cb5 01       		.uleb128 0x1
 6385 1cb6 51       		.byte	0x51
 6386 1cb7 05       		.uleb128 0x5
 6387 1cb8 03       		.byte	0x3
 6388 1cb9 B8000000 		.4byte	.LC16
 6389 1cbd 2E       		.uleb128 0x2e
 6390 1cbe 01       		.uleb128 0x1
 6391 1cbf 50       		.byte	0x50
 6392 1cc0 02       		.uleb128 0x2
 6393 1cc1 75       		.byte	0x75
 6394 1cc2 00       		.sleb128 0
 6395 1cc3 00       		.byte	0
 6396 1cc4 2D       		.uleb128 0x2d
 6397 1cc5 90000000 		.4byte	.LVL237
 6398 1cc9 971F0000 		.4byte	0x1f97
 6399 1ccd E71C0000 		.4byte	0x1ce7
 6400 1cd1 2E       		.uleb128 0x2e
 6401 1cd2 01       		.uleb128 0x1
 6402 1cd3 52       		.byte	0x52
 6403 1cd4 02       		.uleb128 0x2
 6404 1cd5 74       		.byte	0x74
 6405 1cd6 00       		.sleb128 0
 6406 1cd7 2E       		.uleb128 0x2e
 6407 1cd8 01       		.uleb128 0x1
 6408 1cd9 51       		.byte	0x51
 6409 1cda 05       		.uleb128 0x5
 6410 1cdb 03       		.byte	0x3
 6411 1cdc C8000000 		.4byte	.LC18
 6412 1ce0 2E       		.uleb128 0x2e
 6413 1ce1 01       		.uleb128 0x1
 6414 1ce2 50       		.byte	0x50
 6415 1ce3 02       		.uleb128 0x2
 6416 1ce4 75       		.byte	0x75
 6417 1ce5 00       		.sleb128 0
 6418 1ce6 00       		.byte	0
 6419 1ce7 2D       		.uleb128 0x2d
 6420 1ce8 A2000000 		.4byte	.LVL238
 6421 1cec 971F0000 		.4byte	0x1f97
 6422 1cf0 041D0000 		.4byte	0x1d04
 6423 1cf4 2E       		.uleb128 0x2e
 6424 1cf5 01       		.uleb128 0x1
ARM GAS  /tmp/cc4PNelj.s 			page 115


 6425 1cf6 51       		.byte	0x51
 6426 1cf7 05       		.uleb128 0x5
 6427 1cf8 03       		.byte	0x3
 6428 1cf9 D8000000 		.4byte	.LC19
 6429 1cfd 2E       		.uleb128 0x2e
 6430 1cfe 01       		.uleb128 0x1
 6431 1cff 50       		.byte	0x50
 6432 1d00 02       		.uleb128 0x2
 6433 1d01 75       		.byte	0x75
 6434 1d02 00       		.sleb128 0
 6435 1d03 00       		.byte	0
 6436 1d04 2D       		.uleb128 0x2d
 6437 1d05 B4000000 		.4byte	.LVL239
 6438 1d09 971F0000 		.4byte	0x1f97
 6439 1d0d 211D0000 		.4byte	0x1d21
 6440 1d11 2E       		.uleb128 0x2e
 6441 1d12 01       		.uleb128 0x1
 6442 1d13 51       		.byte	0x51
 6443 1d14 05       		.uleb128 0x5
 6444 1d15 03       		.byte	0x3
 6445 1d16 E0000000 		.4byte	.LC20
 6446 1d1a 2E       		.uleb128 0x2e
 6447 1d1b 01       		.uleb128 0x1
 6448 1d1c 50       		.byte	0x50
 6449 1d1d 02       		.uleb128 0x2
 6450 1d1e 75       		.byte	0x75
 6451 1d1f 00       		.sleb128 0
 6452 1d20 00       		.byte	0
 6453 1d21 2D       		.uleb128 0x2d
 6454 1d22 C6000000 		.4byte	.LVL240
 6455 1d26 971F0000 		.4byte	0x1f97
 6456 1d2a 3E1D0000 		.4byte	0x1d3e
 6457 1d2e 2E       		.uleb128 0x2e
 6458 1d2f 01       		.uleb128 0x1
 6459 1d30 51       		.byte	0x51
 6460 1d31 05       		.uleb128 0x5
 6461 1d32 03       		.byte	0x3
 6462 1d33 E8000000 		.4byte	.LC21
 6463 1d37 2E       		.uleb128 0x2e
 6464 1d38 01       		.uleb128 0x1
 6465 1d39 50       		.byte	0x50
 6466 1d3a 02       		.uleb128 0x2
 6467 1d3b 75       		.byte	0x75
 6468 1d3c 00       		.sleb128 0
 6469 1d3d 00       		.byte	0
 6470 1d3e 2D       		.uleb128 0x2d
 6471 1d3f D8000000 		.4byte	.LVL241
 6472 1d43 971F0000 		.4byte	0x1f97
 6473 1d47 5B1D0000 		.4byte	0x1d5b
 6474 1d4b 2E       		.uleb128 0x2e
 6475 1d4c 01       		.uleb128 0x1
 6476 1d4d 51       		.byte	0x51
 6477 1d4e 05       		.uleb128 0x5
 6478 1d4f 03       		.byte	0x3
 6479 1d50 F4000000 		.4byte	.LC22
 6480 1d54 2E       		.uleb128 0x2e
 6481 1d55 01       		.uleb128 0x1
ARM GAS  /tmp/cc4PNelj.s 			page 116


 6482 1d56 50       		.byte	0x50
 6483 1d57 02       		.uleb128 0x2
 6484 1d58 75       		.byte	0x75
 6485 1d59 00       		.sleb128 0
 6486 1d5a 00       		.byte	0
 6487 1d5b 2D       		.uleb128 0x2d
 6488 1d5c EA000000 		.4byte	.LVL242
 6489 1d60 971F0000 		.4byte	0x1f97
 6490 1d64 781D0000 		.4byte	0x1d78
 6491 1d68 2E       		.uleb128 0x2e
 6492 1d69 01       		.uleb128 0x1
 6493 1d6a 51       		.byte	0x51
 6494 1d6b 05       		.uleb128 0x5
 6495 1d6c 03       		.byte	0x3
 6496 1d6d 00010000 		.4byte	.LC23
 6497 1d71 2E       		.uleb128 0x2e
 6498 1d72 01       		.uleb128 0x1
 6499 1d73 50       		.byte	0x50
 6500 1d74 02       		.uleb128 0x2
 6501 1d75 75       		.byte	0x75
 6502 1d76 00       		.sleb128 0
 6503 1d77 00       		.byte	0
 6504 1d78 2D       		.uleb128 0x2d
 6505 1d79 F8000000 		.4byte	.LVL243
 6506 1d7d 971F0000 		.4byte	0x1f97
 6507 1d81 951D0000 		.4byte	0x1d95
 6508 1d85 2E       		.uleb128 0x2e
 6509 1d86 01       		.uleb128 0x1
 6510 1d87 51       		.byte	0x51
 6511 1d88 05       		.uleb128 0x5
 6512 1d89 03       		.byte	0x3
 6513 1d8a 10000000 		.4byte	.LC3
 6514 1d8e 2E       		.uleb128 0x2e
 6515 1d8f 01       		.uleb128 0x1
 6516 1d90 50       		.byte	0x50
 6517 1d91 02       		.uleb128 0x2
 6518 1d92 75       		.byte	0x75
 6519 1d93 00       		.sleb128 0
 6520 1d94 00       		.byte	0
 6521 1d95 2D       		.uleb128 0x2d
 6522 1d96 14010000 		.4byte	.LVL246
 6523 1d9a 971F0000 		.4byte	0x1f97
 6524 1d9e B21D0000 		.4byte	0x1db2
 6525 1da2 2E       		.uleb128 0x2e
 6526 1da3 01       		.uleb128 0x1
 6527 1da4 51       		.byte	0x51
 6528 1da5 05       		.uleb128 0x5
 6529 1da6 03       		.byte	0x3
 6530 1da7 B0000000 		.4byte	.LC15
 6531 1dab 2E       		.uleb128 0x2e
 6532 1dac 01       		.uleb128 0x1
 6533 1dad 50       		.byte	0x50
 6534 1dae 02       		.uleb128 0x2
 6535 1daf 75       		.byte	0x75
 6536 1db0 00       		.sleb128 0
 6537 1db1 00       		.byte	0
 6538 1db2 2D       		.uleb128 0x2d
ARM GAS  /tmp/cc4PNelj.s 			page 117


 6539 1db3 24010000 		.4byte	.LVL247
 6540 1db7 971F0000 		.4byte	0x1f97
 6541 1dbb CF1D0000 		.4byte	0x1dcf
 6542 1dbf 2E       		.uleb128 0x2e
 6543 1dc0 01       		.uleb128 0x1
 6544 1dc1 51       		.byte	0x51
 6545 1dc2 05       		.uleb128 0x5
 6546 1dc3 03       		.byte	0x3
 6547 1dc4 A8000000 		.4byte	.LC14
 6548 1dc8 2E       		.uleb128 0x2e
 6549 1dc9 01       		.uleb128 0x1
 6550 1dca 50       		.byte	0x50
 6551 1dcb 02       		.uleb128 0x2
 6552 1dcc 75       		.byte	0x75
 6553 1dcd 00       		.sleb128 0
 6554 1dce 00       		.byte	0
 6555 1dcf 2D       		.uleb128 0x2d
 6556 1dd0 34010000 		.4byte	.LVL248
 6557 1dd4 971F0000 		.4byte	0x1f97
 6558 1dd8 EC1D0000 		.4byte	0x1dec
 6559 1ddc 2E       		.uleb128 0x2e
 6560 1ddd 01       		.uleb128 0x1
 6561 1dde 51       		.byte	0x51
 6562 1ddf 05       		.uleb128 0x5
 6563 1de0 03       		.byte	0x3
 6564 1de1 A0000000 		.4byte	.LC13
 6565 1de5 2E       		.uleb128 0x2e
 6566 1de6 01       		.uleb128 0x1
 6567 1de7 50       		.byte	0x50
 6568 1de8 02       		.uleb128 0x2
 6569 1de9 75       		.byte	0x75
 6570 1dea 00       		.sleb128 0
 6571 1deb 00       		.byte	0
 6572 1dec 2F       		.uleb128 0x2f
 6573 1ded 44010000 		.4byte	.LVL249
 6574 1df1 971F0000 		.4byte	0x1f97
 6575 1df5 2E       		.uleb128 0x2e
 6576 1df6 01       		.uleb128 0x1
 6577 1df7 51       		.byte	0x51
 6578 1df8 05       		.uleb128 0x5
 6579 1df9 03       		.byte	0x3
 6580 1dfa C0000000 		.4byte	.LC17
 6581 1dfe 2E       		.uleb128 0x2e
 6582 1dff 01       		.uleb128 0x1
 6583 1e00 50       		.byte	0x50
 6584 1e01 02       		.uleb128 0x2
 6585 1e02 75       		.byte	0x75
 6586 1e03 00       		.sleb128 0
 6587 1e04 00       		.byte	0
 6588 1e05 00       		.byte	0
 6589 1e06 39       		.uleb128 0x39
 6590 1e07 62020000 		.4byte	.LASF255
 6591 1e0b 01       		.byte	0x1
 6592 1e0c 3D       		.byte	0x3d
 6593 1e0d 68090000 		.4byte	0x968
 6594 1e11 05       		.uleb128 0x5
 6595 1e12 03       		.byte	0x3
ARM GAS  /tmp/cc4PNelj.s 			page 118


 6596 1e13 00000000 		.4byte	imeI2cConfig
 6597 1e17 39       		.uleb128 0x39
 6598 1e18 CA070000 		.4byte	.LASF136
 6599 1e1c 01       		.byte	0x1
 6600 1e1d 44       		.byte	0x44
 6601 1e1e 20080000 		.4byte	0x820
 6602 1e22 05       		.uleb128 0x5
 6603 1e23 03       		.byte	0x3
 6604 1e24 00000000 		.4byte	errors
 6605 1e28 3A       		.uleb128 0x3a
 6606 1e29 746D6F00 		.ascii	"tmo\000"
 6607 1e2d 01       		.byte	0x1
 6608 1e2e 47       		.byte	0x47
 6609 1e2f 341E0000 		.4byte	0x1e34
 6610 1e33 04       		.byte	0x4
 6611 1e34 07       		.uleb128 0x7
 6612 1e35 6F010000 		.4byte	0x16f
 6613 1e39 39       		.uleb128 0x39
 6614 1e3a 5E0A0000 		.4byte	.LASF256
 6615 1e3e 01       		.byte	0x1
 6616 1e3f 4A       		.byte	0x4a
 6617 1e40 890C0000 		.4byte	0xc89
 6618 1e44 05       		.uleb128 0x5
 6619 1e45 03       		.byte	0x3
 6620 1e46 00000000 		.4byte	vexImes
 6621 1e4a 1B       		.uleb128 0x1b
 6622 1e4b DF020000 		.4byte	0x2df
 6623 1e4f 5A1E0000 		.4byte	0x1e5a
 6624 1e53 1C       		.uleb128 0x1c
 6625 1e54 BA000000 		.4byte	0xba
 6626 1e58 4F       		.byte	0x4f
 6627 1e59 00       		.byte	0
 6628 1e5a 39       		.uleb128 0x39
 6629 1e5b 7B010000 		.4byte	.LASF257
 6630 1e5f 01       		.byte	0x1
 6631 1e60 F1       		.byte	0xf1
 6632 1e61 4A1E0000 		.4byte	0x1e4a
 6633 1e65 05       		.uleb128 0x5
 6634 1e66 03       		.byte	0x3
 6635 1e67 00000000 		.4byte	waVexImeTask
 6636 1e6b 3B       		.uleb128 0x3b
 6637 1e6c A30A0000 		.4byte	.LASF258
 6638 1e70 09       		.byte	0x9
 6639 1e71 6F       		.byte	0x6f
 6640 1e72 E2030000 		.4byte	0x3e2
 6641 1e76 3C       		.uleb128 0x3c
 6642 1e77 510A0000 		.4byte	.LASF259
 6643 1e7b 16       		.byte	0x16
 6644 1e7c 0706     		.2byte	0x607
 6645 1e7e 27060000 		.4byte	0x627
 6646 1e82 3D       		.uleb128 0x3d
 6647 1e83 B2070000 		.4byte	.LASF262
 6648 1e87 10       		.byte	0x10
 6649 1e88 81       		.byte	0x81
 6650 1e89 981E0000 		.4byte	0x1e98
 6651 1e8d 10       		.uleb128 0x10
 6652 1e8e 6D0C0000 		.4byte	0xc6d
ARM GAS  /tmp/cc4PNelj.s 			page 119


 6653 1e92 10       		.uleb128 0x10
 6654 1e93 62090000 		.4byte	0x962
 6655 1e97 00       		.byte	0
 6656 1e98 3E       		.uleb128 0x3e
 6657 1e99 5D080000 		.4byte	.LASF261
 6658 1e9d 07       		.byte	0x7
 6659 1e9e 7001     		.2byte	0x170
 6660 1ea0 A3020000 		.4byte	0x2a3
 6661 1ea4 C21E0000 		.4byte	0x1ec2
 6662 1ea8 10       		.uleb128 0x10
 6663 1ea9 37000000 		.4byte	0x37
 6664 1ead 10       		.uleb128 0x10
 6665 1eae 25000000 		.4byte	0x25
 6666 1eb2 10       		.uleb128 0x10
 6667 1eb3 4E010000 		.4byte	0x14e
 6668 1eb7 10       		.uleb128 0x10
 6669 1eb8 31050000 		.4byte	0x531
 6670 1ebc 10       		.uleb128 0x10
 6671 1ebd 37000000 		.4byte	0x37
 6672 1ec1 00       		.byte	0
 6673 1ec2 3F       		.uleb128 0x3f
 6674 1ec3 71070000 		.4byte	.LASF263
 6675 1ec7 37000000 		.4byte	0x37
 6676 1ecb DF1E0000 		.4byte	0x1edf
 6677 1ecf 10       		.uleb128 0x10
 6678 1ed0 37000000 		.4byte	0x37
 6679 1ed4 10       		.uleb128 0x10
 6680 1ed5 39000000 		.4byte	0x39
 6681 1ed9 10       		.uleb128 0x10
 6682 1eda BA000000 		.4byte	0xba
 6683 1ede 00       		.byte	0
 6684 1edf 3D       		.uleb128 0x3d
 6685 1ee0 A20B0000 		.4byte	.LASF264
 6686 1ee4 10       		.byte	0x10
 6687 1ee5 8E       		.byte	0x8e
 6688 1ee6 F01E0000 		.4byte	0x1ef0
 6689 1eea 10       		.uleb128 0x10
 6690 1eeb 6D0C0000 		.4byte	0xc6d
 6691 1eef 00       		.byte	0
 6692 1ef0 40       		.uleb128 0x40
 6693 1ef1 7D000000 		.4byte	.LASF265
 6694 1ef5 10       		.byte	0x10
 6695 1ef6 84       		.byte	0x84
 6696 1ef7 59010000 		.4byte	0x159
 6697 1efb 231F0000 		.4byte	0x1f23
 6698 1eff 10       		.uleb128 0x10
 6699 1f00 6D0C0000 		.4byte	0xc6d
 6700 1f04 10       		.uleb128 0x10
 6701 1f05 14080000 		.4byte	0x814
 6702 1f09 10       		.uleb128 0x10
 6703 1f0a AD050000 		.4byte	0x5ad
 6704 1f0e 10       		.uleb128 0x10
 6705 1f0f 25000000 		.4byte	0x25
 6706 1f13 10       		.uleb128 0x10
 6707 1f14 51050000 		.4byte	0x551
 6708 1f18 10       		.uleb128 0x10
 6709 1f19 25000000 		.4byte	0x25
ARM GAS  /tmp/cc4PNelj.s 			page 120


 6710 1f1d 10       		.uleb128 0x10
 6711 1f1e 6F010000 		.4byte	0x16f
 6712 1f22 00       		.byte	0
 6713 1f23 3D       		.uleb128 0x3d
 6714 1f24 78070000 		.4byte	.LASF266
 6715 1f28 10       		.byte	0x10
 6716 1f29 8F       		.byte	0x8f
 6717 1f2a 341F0000 		.4byte	0x1f34
 6718 1f2e 10       		.uleb128 0x10
 6719 1f2f 6D0C0000 		.4byte	0xc6d
 6720 1f33 00       		.byte	0
 6721 1f34 41       		.uleb128 0x41
 6722 1f35 D70B0000 		.4byte	.LASF267
 6723 1f39 07       		.byte	0x7
 6724 1f3a 7501     		.2byte	0x175
 6725 1f3c 461F0000 		.4byte	0x1f46
 6726 1f40 10       		.uleb128 0x10
 6727 1f41 6F010000 		.4byte	0x16f
 6728 1f45 00       		.byte	0
 6729 1f46 3D       		.uleb128 0x3d
 6730 1f47 03070000 		.4byte	.LASF268
 6731 1f4b 10       		.byte	0x10
 6732 1f4c 82       		.byte	0x82
 6733 1f4d 571F0000 		.4byte	0x1f57
 6734 1f51 10       		.uleb128 0x10
 6735 1f52 6D0C0000 		.4byte	0xc6d
 6736 1f56 00       		.byte	0
 6737 1f57 40       		.uleb128 0x40
 6738 1f58 EA0C0000 		.4byte	.LASF269
 6739 1f5c 10       		.byte	0x10
 6740 1f5d 83       		.byte	0x83
 6741 1f5e 20080000 		.4byte	0x820
 6742 1f62 6C1F0000 		.4byte	0x1f6c
 6743 1f66 10       		.uleb128 0x10
 6744 1f67 6D0C0000 		.4byte	0xc6d
 6745 1f6b 00       		.byte	0
 6746 1f6c 40       		.uleb128 0x40
 6747 1f6d 0F060000 		.4byte	.LASF270
 6748 1f71 0C       		.byte	0xc
 6749 1f72 59       		.byte	0x59
 6750 1f73 37000000 		.4byte	0x37
 6751 1f77 861F0000 		.4byte	0x1f86
 6752 1f7b 10       		.uleb128 0x10
 6753 1f7c D1040000 		.4byte	0x4d1
 6754 1f80 10       		.uleb128 0x10
 6755 1f81 25000000 		.4byte	0x25
 6756 1f85 00       		.byte	0
 6757 1f86 3D       		.uleb128 0x3d
 6758 1f87 5B000000 		.4byte	.LASF271
 6759 1f8b 0C       		.byte	0xc
 6760 1f8c 5A       		.byte	0x5a
 6761 1f8d 971F0000 		.4byte	0x1f97
 6762 1f91 10       		.uleb128 0x10
 6763 1f92 37000000 		.4byte	0x37
 6764 1f96 00       		.byte	0
 6765 1f97 42       		.uleb128 0x42
 6766 1f98 FF090000 		.4byte	.LASF272
ARM GAS  /tmp/cc4PNelj.s 			page 121


 6767 1f9c 17       		.byte	0x17
 6768 1f9d 3B       		.byte	0x3b
 6769 1f9e 39000000 		.4byte	0x39
 6770 1fa2 10       		.uleb128 0x10
 6771 1fa3 730C0000 		.4byte	0xc73
 6772 1fa7 10       		.uleb128 0x10
 6773 1fa8 CE000000 		.4byte	0xce
 6774 1fac 43       		.uleb128 0x43
 6775 1fad 00       		.byte	0
 6776 1fae 00       		.byte	0
 6777              		.section	.debug_abbrev,"",%progbits
 6778              	.Ldebug_abbrev0:
 6779 0000 01       		.uleb128 0x1
 6780 0001 11       		.uleb128 0x11
 6781 0002 01       		.byte	0x1
 6782 0003 25       		.uleb128 0x25
 6783 0004 0E       		.uleb128 0xe
 6784 0005 13       		.uleb128 0x13
 6785 0006 0B       		.uleb128 0xb
 6786 0007 03       		.uleb128 0x3
 6787 0008 0E       		.uleb128 0xe
 6788 0009 1B       		.uleb128 0x1b
 6789 000a 0E       		.uleb128 0xe
 6790 000b 55       		.uleb128 0x55
 6791 000c 17       		.uleb128 0x17
 6792 000d 11       		.uleb128 0x11
 6793 000e 01       		.uleb128 0x1
 6794 000f 10       		.uleb128 0x10
 6795 0010 17       		.uleb128 0x17
 6796 0011 00       		.byte	0
 6797 0012 00       		.byte	0
 6798 0013 02       		.uleb128 0x2
 6799 0014 16       		.uleb128 0x16
 6800 0015 00       		.byte	0
 6801 0016 03       		.uleb128 0x3
 6802 0017 0E       		.uleb128 0xe
 6803 0018 3A       		.uleb128 0x3a
 6804 0019 0B       		.uleb128 0xb
 6805 001a 3B       		.uleb128 0x3b
 6806 001b 0B       		.uleb128 0xb
 6807 001c 49       		.uleb128 0x49
 6808 001d 13       		.uleb128 0x13
 6809 001e 00       		.byte	0
 6810 001f 00       		.byte	0
 6811 0020 03       		.uleb128 0x3
 6812 0021 24       		.uleb128 0x24
 6813 0022 00       		.byte	0
 6814 0023 0B       		.uleb128 0xb
 6815 0024 0B       		.uleb128 0xb
 6816 0025 3E       		.uleb128 0x3e
 6817 0026 0B       		.uleb128 0xb
 6818 0027 03       		.uleb128 0x3
 6819 0028 0E       		.uleb128 0xe
 6820 0029 00       		.byte	0
 6821 002a 00       		.byte	0
 6822 002b 04       		.uleb128 0x4
 6823 002c 0F       		.uleb128 0xf
ARM GAS  /tmp/cc4PNelj.s 			page 122


 6824 002d 00       		.byte	0
 6825 002e 0B       		.uleb128 0xb
 6826 002f 0B       		.uleb128 0xb
 6827 0030 00       		.byte	0
 6828 0031 00       		.byte	0
 6829 0032 05       		.uleb128 0x5
 6830 0033 24       		.uleb128 0x24
 6831 0034 00       		.byte	0
 6832 0035 0B       		.uleb128 0xb
 6833 0036 0B       		.uleb128 0xb
 6834 0037 3E       		.uleb128 0x3e
 6835 0038 0B       		.uleb128 0xb
 6836 0039 03       		.uleb128 0x3
 6837 003a 08       		.uleb128 0x8
 6838 003b 00       		.byte	0
 6839 003c 00       		.byte	0
 6840 003d 06       		.uleb128 0x6
 6841 003e 0F       		.uleb128 0xf
 6842 003f 00       		.byte	0
 6843 0040 0B       		.uleb128 0xb
 6844 0041 0B       		.uleb128 0xb
 6845 0042 49       		.uleb128 0x49
 6846 0043 13       		.uleb128 0x13
 6847 0044 00       		.byte	0
 6848 0045 00       		.byte	0
 6849 0046 07       		.uleb128 0x7
 6850 0047 26       		.uleb128 0x26
 6851 0048 00       		.byte	0
 6852 0049 49       		.uleb128 0x49
 6853 004a 13       		.uleb128 0x13
 6854 004b 00       		.byte	0
 6855 004c 00       		.byte	0
 6856 004d 08       		.uleb128 0x8
 6857 004e 13       		.uleb128 0x13
 6858 004f 01       		.byte	0x1
 6859 0050 03       		.uleb128 0x3
 6860 0051 0E       		.uleb128 0xe
 6861 0052 0B       		.uleb128 0xb
 6862 0053 0B       		.uleb128 0xb
 6863 0054 3A       		.uleb128 0x3a
 6864 0055 0B       		.uleb128 0xb
 6865 0056 3B       		.uleb128 0x3b
 6866 0057 0B       		.uleb128 0xb
 6867 0058 01       		.uleb128 0x1
 6868 0059 13       		.uleb128 0x13
 6869 005a 00       		.byte	0
 6870 005b 00       		.byte	0
 6871 005c 09       		.uleb128 0x9
 6872 005d 0D       		.uleb128 0xd
 6873 005e 00       		.byte	0
 6874 005f 03       		.uleb128 0x3
 6875 0060 0E       		.uleb128 0xe
 6876 0061 3A       		.uleb128 0x3a
 6877 0062 0B       		.uleb128 0xb
 6878 0063 3B       		.uleb128 0x3b
 6879 0064 0B       		.uleb128 0xb
 6880 0065 49       		.uleb128 0x49
ARM GAS  /tmp/cc4PNelj.s 			page 123


 6881 0066 13       		.uleb128 0x13
 6882 0067 38       		.uleb128 0x38
 6883 0068 0B       		.uleb128 0xb
 6884 0069 00       		.byte	0
 6885 006a 00       		.byte	0
 6886 006b 0A       		.uleb128 0xa
 6887 006c 0D       		.uleb128 0xd
 6888 006d 00       		.byte	0
 6889 006e 03       		.uleb128 0x3
 6890 006f 08       		.uleb128 0x8
 6891 0070 3A       		.uleb128 0x3a
 6892 0071 0B       		.uleb128 0xb
 6893 0072 3B       		.uleb128 0x3b
 6894 0073 0B       		.uleb128 0xb
 6895 0074 49       		.uleb128 0x49
 6896 0075 13       		.uleb128 0x13
 6897 0076 38       		.uleb128 0x38
 6898 0077 0B       		.uleb128 0xb
 6899 0078 00       		.byte	0
 6900 0079 00       		.byte	0
 6901 007a 0B       		.uleb128 0xb
 6902 007b 13       		.uleb128 0x13
 6903 007c 01       		.byte	0x1
 6904 007d 0B       		.uleb128 0xb
 6905 007e 0B       		.uleb128 0xb
 6906 007f 3A       		.uleb128 0x3a
 6907 0080 0B       		.uleb128 0xb
 6908 0081 3B       		.uleb128 0x3b
 6909 0082 0B       		.uleb128 0xb
 6910 0083 01       		.uleb128 0x1
 6911 0084 13       		.uleb128 0x13
 6912 0085 00       		.byte	0
 6913 0086 00       		.byte	0
 6914 0087 0C       		.uleb128 0xc
 6915 0088 13       		.uleb128 0x13
 6916 0089 01       		.byte	0x1
 6917 008a 03       		.uleb128 0x3
 6918 008b 0E       		.uleb128 0xe
 6919 008c 0B       		.uleb128 0xb
 6920 008d 0B       		.uleb128 0xb
 6921 008e 3A       		.uleb128 0x3a
 6922 008f 0B       		.uleb128 0xb
 6923 0090 3B       		.uleb128 0x3b
 6924 0091 05       		.uleb128 0x5
 6925 0092 01       		.uleb128 0x1
 6926 0093 13       		.uleb128 0x13
 6927 0094 00       		.byte	0
 6928 0095 00       		.byte	0
 6929 0096 0D       		.uleb128 0xd
 6930 0097 0D       		.uleb128 0xd
 6931 0098 00       		.byte	0
 6932 0099 03       		.uleb128 0x3
 6933 009a 08       		.uleb128 0x8
 6934 009b 3A       		.uleb128 0x3a
 6935 009c 0B       		.uleb128 0xb
 6936 009d 3B       		.uleb128 0x3b
 6937 009e 05       		.uleb128 0x5
ARM GAS  /tmp/cc4PNelj.s 			page 124


 6938 009f 49       		.uleb128 0x49
 6939 00a0 13       		.uleb128 0x13
 6940 00a1 38       		.uleb128 0x38
 6941 00a2 0B       		.uleb128 0xb
 6942 00a3 00       		.byte	0
 6943 00a4 00       		.byte	0
 6944 00a5 0E       		.uleb128 0xe
 6945 00a6 35       		.uleb128 0x35
 6946 00a7 00       		.byte	0
 6947 00a8 49       		.uleb128 0x49
 6948 00a9 13       		.uleb128 0x13
 6949 00aa 00       		.byte	0
 6950 00ab 00       		.byte	0
 6951 00ac 0F       		.uleb128 0xf
 6952 00ad 15       		.uleb128 0x15
 6953 00ae 01       		.byte	0x1
 6954 00af 27       		.uleb128 0x27
 6955 00b0 19       		.uleb128 0x19
 6956 00b1 49       		.uleb128 0x49
 6957 00b2 13       		.uleb128 0x13
 6958 00b3 01       		.uleb128 0x1
 6959 00b4 13       		.uleb128 0x13
 6960 00b5 00       		.byte	0
 6961 00b6 00       		.byte	0
 6962 00b7 10       		.uleb128 0x10
 6963 00b8 05       		.uleb128 0x5
 6964 00b9 00       		.byte	0
 6965 00ba 49       		.uleb128 0x49
 6966 00bb 13       		.uleb128 0x13
 6967 00bc 00       		.byte	0
 6968 00bd 00       		.byte	0
 6969 00be 11       		.uleb128 0x11
 6970 00bf 17       		.uleb128 0x17
 6971 00c0 01       		.byte	0x1
 6972 00c1 0B       		.uleb128 0xb
 6973 00c2 0B       		.uleb128 0xb
 6974 00c3 3A       		.uleb128 0x3a
 6975 00c4 0B       		.uleb128 0xb
 6976 00c5 3B       		.uleb128 0x3b
 6977 00c6 0B       		.uleb128 0xb
 6978 00c7 01       		.uleb128 0x1
 6979 00c8 13       		.uleb128 0x13
 6980 00c9 00       		.byte	0
 6981 00ca 00       		.byte	0
 6982 00cb 12       		.uleb128 0x12
 6983 00cc 0D       		.uleb128 0xd
 6984 00cd 00       		.byte	0
 6985 00ce 03       		.uleb128 0x3
 6986 00cf 0E       		.uleb128 0xe
 6987 00d0 3A       		.uleb128 0x3a
 6988 00d1 0B       		.uleb128 0xb
 6989 00d2 3B       		.uleb128 0x3b
 6990 00d3 0B       		.uleb128 0xb
 6991 00d4 49       		.uleb128 0x49
 6992 00d5 13       		.uleb128 0x13
 6993 00d6 00       		.byte	0
 6994 00d7 00       		.byte	0
ARM GAS  /tmp/cc4PNelj.s 			page 125


 6995 00d8 13       		.uleb128 0x13
 6996 00d9 17       		.uleb128 0x17
 6997 00da 01       		.byte	0x1
 6998 00db 03       		.uleb128 0x3
 6999 00dc 0E       		.uleb128 0xe
 7000 00dd 0B       		.uleb128 0xb
 7001 00de 0B       		.uleb128 0xb
 7002 00df 3A       		.uleb128 0x3a
 7003 00e0 0B       		.uleb128 0xb
 7004 00e1 3B       		.uleb128 0x3b
 7005 00e2 0B       		.uleb128 0xb
 7006 00e3 01       		.uleb128 0x1
 7007 00e4 13       		.uleb128 0x13
 7008 00e5 00       		.byte	0
 7009 00e6 00       		.byte	0
 7010 00e7 14       		.uleb128 0x14
 7011 00e8 0D       		.uleb128 0xd
 7012 00e9 00       		.byte	0
 7013 00ea 03       		.uleb128 0x3
 7014 00eb 08       		.uleb128 0x8
 7015 00ec 3A       		.uleb128 0x3a
 7016 00ed 0B       		.uleb128 0xb
 7017 00ee 3B       		.uleb128 0x3b
 7018 00ef 0B       		.uleb128 0xb
 7019 00f0 49       		.uleb128 0x49
 7020 00f1 13       		.uleb128 0x13
 7021 00f2 00       		.byte	0
 7022 00f3 00       		.byte	0
 7023 00f4 15       		.uleb128 0x15
 7024 00f5 13       		.uleb128 0x13
 7025 00f6 01       		.byte	0x1
 7026 00f7 0B       		.uleb128 0xb
 7027 00f8 0B       		.uleb128 0xb
 7028 00f9 3A       		.uleb128 0x3a
 7029 00fa 0B       		.uleb128 0xb
 7030 00fb 3B       		.uleb128 0x3b
 7031 00fc 05       		.uleb128 0x5
 7032 00fd 01       		.uleb128 0x1
 7033 00fe 13       		.uleb128 0x13
 7034 00ff 00       		.byte	0
 7035 0100 00       		.byte	0
 7036 0101 16       		.uleb128 0x16
 7037 0102 0D       		.uleb128 0xd
 7038 0103 00       		.byte	0
 7039 0104 03       		.uleb128 0x3
 7040 0105 0E       		.uleb128 0xe
 7041 0106 3A       		.uleb128 0x3a
 7042 0107 0B       		.uleb128 0xb
 7043 0108 3B       		.uleb128 0x3b
 7044 0109 05       		.uleb128 0x5
 7045 010a 49       		.uleb128 0x49
 7046 010b 13       		.uleb128 0x13
 7047 010c 38       		.uleb128 0x38
 7048 010d 0B       		.uleb128 0xb
 7049 010e 00       		.byte	0
 7050 010f 00       		.byte	0
 7051 0110 17       		.uleb128 0x17
ARM GAS  /tmp/cc4PNelj.s 			page 126


 7052 0111 16       		.uleb128 0x16
 7053 0112 00       		.byte	0
 7054 0113 03       		.uleb128 0x3
 7055 0114 0E       		.uleb128 0xe
 7056 0115 3A       		.uleb128 0x3a
 7057 0116 0B       		.uleb128 0xb
 7058 0117 3B       		.uleb128 0x3b
 7059 0118 05       		.uleb128 0x5
 7060 0119 49       		.uleb128 0x49
 7061 011a 13       		.uleb128 0x13
 7062 011b 00       		.byte	0
 7063 011c 00       		.byte	0
 7064 011d 18       		.uleb128 0x18
 7065 011e 04       		.uleb128 0x4
 7066 011f 01       		.byte	0x1
 7067 0120 0B       		.uleb128 0xb
 7068 0121 0B       		.uleb128 0xb
 7069 0122 3A       		.uleb128 0x3a
 7070 0123 0B       		.uleb128 0xb
 7071 0124 3B       		.uleb128 0x3b
 7072 0125 0B       		.uleb128 0xb
 7073 0126 01       		.uleb128 0x1
 7074 0127 13       		.uleb128 0x13
 7075 0128 00       		.byte	0
 7076 0129 00       		.byte	0
 7077 012a 19       		.uleb128 0x19
 7078 012b 28       		.uleb128 0x28
 7079 012c 00       		.byte	0
 7080 012d 03       		.uleb128 0x3
 7081 012e 0E       		.uleb128 0xe
 7082 012f 1C       		.uleb128 0x1c
 7083 0130 0D       		.uleb128 0xd
 7084 0131 00       		.byte	0
 7085 0132 00       		.byte	0
 7086 0133 1A       		.uleb128 0x1a
 7087 0134 04       		.uleb128 0x4
 7088 0135 01       		.byte	0x1
 7089 0136 0B       		.uleb128 0xb
 7090 0137 0B       		.uleb128 0xb
 7091 0138 3A       		.uleb128 0x3a
 7092 0139 0B       		.uleb128 0xb
 7093 013a 3B       		.uleb128 0x3b
 7094 013b 05       		.uleb128 0x5
 7095 013c 01       		.uleb128 0x1
 7096 013d 13       		.uleb128 0x13
 7097 013e 00       		.byte	0
 7098 013f 00       		.byte	0
 7099 0140 1B       		.uleb128 0x1b
 7100 0141 01       		.uleb128 0x1
 7101 0142 01       		.byte	0x1
 7102 0143 49       		.uleb128 0x49
 7103 0144 13       		.uleb128 0x13
 7104 0145 01       		.uleb128 0x1
 7105 0146 13       		.uleb128 0x13
 7106 0147 00       		.byte	0
 7107 0148 00       		.byte	0
 7108 0149 1C       		.uleb128 0x1c
ARM GAS  /tmp/cc4PNelj.s 			page 127


 7109 014a 21       		.uleb128 0x21
 7110 014b 00       		.byte	0
 7111 014c 49       		.uleb128 0x49
 7112 014d 13       		.uleb128 0x13
 7113 014e 2F       		.uleb128 0x2f
 7114 014f 0B       		.uleb128 0xb
 7115 0150 00       		.byte	0
 7116 0151 00       		.byte	0
 7117 0152 1D       		.uleb128 0x1d
 7118 0153 13       		.uleb128 0x13
 7119 0154 01       		.byte	0x1
 7120 0155 03       		.uleb128 0x3
 7121 0156 0E       		.uleb128 0xe
 7122 0157 0B       		.uleb128 0xb
 7123 0158 05       		.uleb128 0x5
 7124 0159 3A       		.uleb128 0x3a
 7125 015a 0B       		.uleb128 0xb
 7126 015b 3B       		.uleb128 0x3b
 7127 015c 0B       		.uleb128 0xb
 7128 015d 01       		.uleb128 0x1
 7129 015e 13       		.uleb128 0x13
 7130 015f 00       		.byte	0
 7131 0160 00       		.byte	0
 7132 0161 1E       		.uleb128 0x1e
 7133 0162 2E       		.uleb128 0x2e
 7134 0163 01       		.byte	0x1
 7135 0164 3F       		.uleb128 0x3f
 7136 0165 19       		.uleb128 0x19
 7137 0166 03       		.uleb128 0x3
 7138 0167 0E       		.uleb128 0xe
 7139 0168 3A       		.uleb128 0x3a
 7140 0169 0B       		.uleb128 0xb
 7141 016a 3B       		.uleb128 0x3b
 7142 016b 0B       		.uleb128 0xb
 7143 016c 27       		.uleb128 0x27
 7144 016d 19       		.uleb128 0x19
 7145 016e 49       		.uleb128 0x49
 7146 016f 13       		.uleb128 0x13
 7147 0170 20       		.uleb128 0x20
 7148 0171 0B       		.uleb128 0xb
 7149 0172 01       		.uleb128 0x1
 7150 0173 13       		.uleb128 0x13
 7151 0174 00       		.byte	0
 7152 0175 00       		.byte	0
 7153 0176 1F       		.uleb128 0x1f
 7154 0177 05       		.uleb128 0x5
 7155 0178 00       		.byte	0
 7156 0179 03       		.uleb128 0x3
 7157 017a 0E       		.uleb128 0xe
 7158 017b 3A       		.uleb128 0x3a
 7159 017c 0B       		.uleb128 0xb
 7160 017d 3B       		.uleb128 0x3b
 7161 017e 0B       		.uleb128 0xb
 7162 017f 49       		.uleb128 0x49
 7163 0180 13       		.uleb128 0x13
 7164 0181 00       		.byte	0
 7165 0182 00       		.byte	0
ARM GAS  /tmp/cc4PNelj.s 			page 128


 7166 0183 20       		.uleb128 0x20
 7167 0184 2E       		.uleb128 0x2e
 7168 0185 01       		.byte	0x1
 7169 0186 31       		.uleb128 0x31
 7170 0187 13       		.uleb128 0x13
 7171 0188 11       		.uleb128 0x11
 7172 0189 01       		.uleb128 0x1
 7173 018a 12       		.uleb128 0x12
 7174 018b 06       		.uleb128 0x6
 7175 018c 40       		.uleb128 0x40
 7176 018d 18       		.uleb128 0x18
 7177 018e 9742     		.uleb128 0x2117
 7178 0190 19       		.uleb128 0x19
 7179 0191 01       		.uleb128 0x1
 7180 0192 13       		.uleb128 0x13
 7181 0193 00       		.byte	0
 7182 0194 00       		.byte	0
 7183 0195 21       		.uleb128 0x21
 7184 0196 05       		.uleb128 0x5
 7185 0197 00       		.byte	0
 7186 0198 31       		.uleb128 0x31
 7187 0199 13       		.uleb128 0x13
 7188 019a 02       		.uleb128 0x2
 7189 019b 17       		.uleb128 0x17
 7190 019c 00       		.byte	0
 7191 019d 00       		.byte	0
 7192 019e 22       		.uleb128 0x22
 7193 019f 2E       		.uleb128 0x2e
 7194 01a0 01       		.byte	0x1
 7195 01a1 3F       		.uleb128 0x3f
 7196 01a2 19       		.uleb128 0x19
 7197 01a3 03       		.uleb128 0x3
 7198 01a4 0E       		.uleb128 0xe
 7199 01a5 3A       		.uleb128 0x3a
 7200 01a6 0B       		.uleb128 0xb
 7201 01a7 3B       		.uleb128 0x3b
 7202 01a8 0B       		.uleb128 0xb
 7203 01a9 27       		.uleb128 0x27
 7204 01aa 19       		.uleb128 0x19
 7205 01ab 11       		.uleb128 0x11
 7206 01ac 01       		.uleb128 0x1
 7207 01ad 12       		.uleb128 0x12
 7208 01ae 06       		.uleb128 0x6
 7209 01af 40       		.uleb128 0x40
 7210 01b0 18       		.uleb128 0x18
 7211 01b1 9742     		.uleb128 0x2117
 7212 01b3 19       		.uleb128 0x19
 7213 01b4 01       		.uleb128 0x1
 7214 01b5 13       		.uleb128 0x13
 7215 01b6 00       		.byte	0
 7216 01b7 00       		.byte	0
 7217 01b8 23       		.uleb128 0x23
 7218 01b9 05       		.uleb128 0x5
 7219 01ba 00       		.byte	0
 7220 01bb 03       		.uleb128 0x3
 7221 01bc 0E       		.uleb128 0xe
 7222 01bd 3A       		.uleb128 0x3a
ARM GAS  /tmp/cc4PNelj.s 			page 129


 7223 01be 0B       		.uleb128 0xb
 7224 01bf 3B       		.uleb128 0x3b
 7225 01c0 0B       		.uleb128 0xb
 7226 01c1 49       		.uleb128 0x49
 7227 01c2 13       		.uleb128 0x13
 7228 01c3 02       		.uleb128 0x2
 7229 01c4 17       		.uleb128 0x17
 7230 01c5 00       		.byte	0
 7231 01c6 00       		.byte	0
 7232 01c7 24       		.uleb128 0x24
 7233 01c8 2E       		.uleb128 0x2e
 7234 01c9 01       		.byte	0x1
 7235 01ca 3F       		.uleb128 0x3f
 7236 01cb 19       		.uleb128 0x19
 7237 01cc 03       		.uleb128 0x3
 7238 01cd 0E       		.uleb128 0xe
 7239 01ce 3A       		.uleb128 0x3a
 7240 01cf 0B       		.uleb128 0xb
 7241 01d0 3B       		.uleb128 0x3b
 7242 01d1 0B       		.uleb128 0xb
 7243 01d2 27       		.uleb128 0x27
 7244 01d3 19       		.uleb128 0x19
 7245 01d4 49       		.uleb128 0x49
 7246 01d5 13       		.uleb128 0x13
 7247 01d6 11       		.uleb128 0x11
 7248 01d7 01       		.uleb128 0x1
 7249 01d8 12       		.uleb128 0x12
 7250 01d9 06       		.uleb128 0x6
 7251 01da 40       		.uleb128 0x40
 7252 01db 18       		.uleb128 0x18
 7253 01dc 9742     		.uleb128 0x2117
 7254 01de 19       		.uleb128 0x19
 7255 01df 01       		.uleb128 0x1
 7256 01e0 13       		.uleb128 0x13
 7257 01e1 00       		.byte	0
 7258 01e2 00       		.byte	0
 7259 01e3 25       		.uleb128 0x25
 7260 01e4 2E       		.uleb128 0x2e
 7261 01e5 00       		.byte	0
 7262 01e6 3F       		.uleb128 0x3f
 7263 01e7 19       		.uleb128 0x19
 7264 01e8 03       		.uleb128 0x3
 7265 01e9 0E       		.uleb128 0xe
 7266 01ea 3A       		.uleb128 0x3a
 7267 01eb 0B       		.uleb128 0xb
 7268 01ec 3B       		.uleb128 0x3b
 7269 01ed 0B       		.uleb128 0xb
 7270 01ee 27       		.uleb128 0x27
 7271 01ef 19       		.uleb128 0x19
 7272 01f0 49       		.uleb128 0x49
 7273 01f1 13       		.uleb128 0x13
 7274 01f2 11       		.uleb128 0x11
 7275 01f3 01       		.uleb128 0x1
 7276 01f4 12       		.uleb128 0x12
 7277 01f5 06       		.uleb128 0x6
 7278 01f6 40       		.uleb128 0x40
 7279 01f7 18       		.uleb128 0x18
ARM GAS  /tmp/cc4PNelj.s 			page 130


 7280 01f8 9742     		.uleb128 0x2117
 7281 01fa 19       		.uleb128 0x19
 7282 01fb 00       		.byte	0
 7283 01fc 00       		.byte	0
 7284 01fd 26       		.uleb128 0x26
 7285 01fe 05       		.uleb128 0x5
 7286 01ff 00       		.byte	0
 7287 0200 03       		.uleb128 0x3
 7288 0201 0E       		.uleb128 0xe
 7289 0202 3A       		.uleb128 0x3a
 7290 0203 0B       		.uleb128 0xb
 7291 0204 3B       		.uleb128 0x3b
 7292 0205 0B       		.uleb128 0xb
 7293 0206 49       		.uleb128 0x49
 7294 0207 13       		.uleb128 0x13
 7295 0208 02       		.uleb128 0x2
 7296 0209 18       		.uleb128 0x18
 7297 020a 00       		.byte	0
 7298 020b 00       		.byte	0
 7299 020c 27       		.uleb128 0x27
 7300 020d 34       		.uleb128 0x34
 7301 020e 00       		.byte	0
 7302 020f 03       		.uleb128 0x3
 7303 0210 0E       		.uleb128 0xe
 7304 0211 3A       		.uleb128 0x3a
 7305 0212 0B       		.uleb128 0xb
 7306 0213 3B       		.uleb128 0x3b
 7307 0214 0B       		.uleb128 0xb
 7308 0215 49       		.uleb128 0x49
 7309 0216 13       		.uleb128 0x13
 7310 0217 02       		.uleb128 0x2
 7311 0218 17       		.uleb128 0x17
 7312 0219 00       		.byte	0
 7313 021a 00       		.byte	0
 7314 021b 28       		.uleb128 0x28
 7315 021c 1D       		.uleb128 0x1d
 7316 021d 01       		.byte	0x1
 7317 021e 31       		.uleb128 0x31
 7318 021f 13       		.uleb128 0x13
 7319 0220 11       		.uleb128 0x11
 7320 0221 01       		.uleb128 0x1
 7321 0222 12       		.uleb128 0x12
 7322 0223 06       		.uleb128 0x6
 7323 0224 58       		.uleb128 0x58
 7324 0225 0B       		.uleb128 0xb
 7325 0226 59       		.uleb128 0x59
 7326 0227 0B       		.uleb128 0xb
 7327 0228 00       		.byte	0
 7328 0229 00       		.byte	0
 7329 022a 29       		.uleb128 0x29
 7330 022b 2E       		.uleb128 0x2e
 7331 022c 01       		.byte	0x1
 7332 022d 3F       		.uleb128 0x3f
 7333 022e 19       		.uleb128 0x19
 7334 022f 03       		.uleb128 0x3
 7335 0230 0E       		.uleb128 0xe
 7336 0231 3A       		.uleb128 0x3a
ARM GAS  /tmp/cc4PNelj.s 			page 131


 7337 0232 0B       		.uleb128 0xb
 7338 0233 3B       		.uleb128 0x3b
 7339 0234 05       		.uleb128 0x5
 7340 0235 27       		.uleb128 0x27
 7341 0236 19       		.uleb128 0x19
 7342 0237 11       		.uleb128 0x11
 7343 0238 01       		.uleb128 0x1
 7344 0239 12       		.uleb128 0x12
 7345 023a 06       		.uleb128 0x6
 7346 023b 40       		.uleb128 0x40
 7347 023c 18       		.uleb128 0x18
 7348 023d 9742     		.uleb128 0x2117
 7349 023f 19       		.uleb128 0x19
 7350 0240 01       		.uleb128 0x1
 7351 0241 13       		.uleb128 0x13
 7352 0242 00       		.byte	0
 7353 0243 00       		.byte	0
 7354 0244 2A       		.uleb128 0x2a
 7355 0245 05       		.uleb128 0x5
 7356 0246 00       		.byte	0
 7357 0247 03       		.uleb128 0x3
 7358 0248 0E       		.uleb128 0xe
 7359 0249 3A       		.uleb128 0x3a
 7360 024a 0B       		.uleb128 0xb
 7361 024b 3B       		.uleb128 0x3b
 7362 024c 05       		.uleb128 0x5
 7363 024d 49       		.uleb128 0x49
 7364 024e 13       		.uleb128 0x13
 7365 024f 02       		.uleb128 0x2
 7366 0250 17       		.uleb128 0x17
 7367 0251 00       		.byte	0
 7368 0252 00       		.byte	0
 7369 0253 2B       		.uleb128 0x2b
 7370 0254 05       		.uleb128 0x5
 7371 0255 00       		.byte	0
 7372 0256 03       		.uleb128 0x3
 7373 0257 08       		.uleb128 0x8
 7374 0258 3A       		.uleb128 0x3a
 7375 0259 0B       		.uleb128 0xb
 7376 025a 3B       		.uleb128 0x3b
 7377 025b 05       		.uleb128 0x5
 7378 025c 49       		.uleb128 0x49
 7379 025d 13       		.uleb128 0x13
 7380 025e 02       		.uleb128 0x2
 7381 025f 17       		.uleb128 0x17
 7382 0260 00       		.byte	0
 7383 0261 00       		.byte	0
 7384 0262 2C       		.uleb128 0x2c
 7385 0263 34       		.uleb128 0x34
 7386 0264 00       		.byte	0
 7387 0265 03       		.uleb128 0x3
 7388 0266 08       		.uleb128 0x8
 7389 0267 3A       		.uleb128 0x3a
 7390 0268 0B       		.uleb128 0xb
 7391 0269 3B       		.uleb128 0x3b
 7392 026a 05       		.uleb128 0x5
 7393 026b 49       		.uleb128 0x49
ARM GAS  /tmp/cc4PNelj.s 			page 132


 7394 026c 13       		.uleb128 0x13
 7395 026d 02       		.uleb128 0x2
 7396 026e 17       		.uleb128 0x17
 7397 026f 00       		.byte	0
 7398 0270 00       		.byte	0
 7399 0271 2D       		.uleb128 0x2d
 7400 0272 898201   		.uleb128 0x4109
 7401 0275 01       		.byte	0x1
 7402 0276 11       		.uleb128 0x11
 7403 0277 01       		.uleb128 0x1
 7404 0278 31       		.uleb128 0x31
 7405 0279 13       		.uleb128 0x13
 7406 027a 01       		.uleb128 0x1
 7407 027b 13       		.uleb128 0x13
 7408 027c 00       		.byte	0
 7409 027d 00       		.byte	0
 7410 027e 2E       		.uleb128 0x2e
 7411 027f 8A8201   		.uleb128 0x410a
 7412 0282 00       		.byte	0
 7413 0283 02       		.uleb128 0x2
 7414 0284 18       		.uleb128 0x18
 7415 0285 9142     		.uleb128 0x2111
 7416 0287 18       		.uleb128 0x18
 7417 0288 00       		.byte	0
 7418 0289 00       		.byte	0
 7419 028a 2F       		.uleb128 0x2f
 7420 028b 898201   		.uleb128 0x4109
 7421 028e 01       		.byte	0x1
 7422 028f 11       		.uleb128 0x11
 7423 0290 01       		.uleb128 0x1
 7424 0291 31       		.uleb128 0x31
 7425 0292 13       		.uleb128 0x13
 7426 0293 00       		.byte	0
 7427 0294 00       		.byte	0
 7428 0295 30       		.uleb128 0x30
 7429 0296 2E       		.uleb128 0x2e
 7430 0297 01       		.byte	0x1
 7431 0298 3F       		.uleb128 0x3f
 7432 0299 19       		.uleb128 0x19
 7433 029a 03       		.uleb128 0x3
 7434 029b 0E       		.uleb128 0xe
 7435 029c 3A       		.uleb128 0x3a
 7436 029d 0B       		.uleb128 0xb
 7437 029e 3B       		.uleb128 0x3b
 7438 029f 05       		.uleb128 0x5
 7439 02a0 27       		.uleb128 0x27
 7440 02a1 19       		.uleb128 0x19
 7441 02a2 49       		.uleb128 0x49
 7442 02a3 13       		.uleb128 0x13
 7443 02a4 11       		.uleb128 0x11
 7444 02a5 01       		.uleb128 0x1
 7445 02a6 12       		.uleb128 0x12
 7446 02a7 06       		.uleb128 0x6
 7447 02a8 40       		.uleb128 0x40
 7448 02a9 18       		.uleb128 0x18
 7449 02aa 9742     		.uleb128 0x2117
 7450 02ac 19       		.uleb128 0x19
ARM GAS  /tmp/cc4PNelj.s 			page 133


 7451 02ad 01       		.uleb128 0x1
 7452 02ae 13       		.uleb128 0x13
 7453 02af 00       		.byte	0
 7454 02b0 00       		.byte	0
 7455 02b1 31       		.uleb128 0x31
 7456 02b2 34       		.uleb128 0x34
 7457 02b3 00       		.byte	0
 7458 02b4 03       		.uleb128 0x3
 7459 02b5 0E       		.uleb128 0xe
 7460 02b6 3A       		.uleb128 0x3a
 7461 02b7 0B       		.uleb128 0xb
 7462 02b8 3B       		.uleb128 0x3b
 7463 02b9 05       		.uleb128 0x5
 7464 02ba 49       		.uleb128 0x49
 7465 02bb 13       		.uleb128 0x13
 7466 02bc 02       		.uleb128 0x2
 7467 02bd 17       		.uleb128 0x17
 7468 02be 00       		.byte	0
 7469 02bf 00       		.byte	0
 7470 02c0 32       		.uleb128 0x32
 7471 02c1 34       		.uleb128 0x34
 7472 02c2 00       		.byte	0
 7473 02c3 03       		.uleb128 0x3
 7474 02c4 08       		.uleb128 0x8
 7475 02c5 3A       		.uleb128 0x3a
 7476 02c6 0B       		.uleb128 0xb
 7477 02c7 3B       		.uleb128 0x3b
 7478 02c8 05       		.uleb128 0x5
 7479 02c9 49       		.uleb128 0x49
 7480 02ca 13       		.uleb128 0x13
 7481 02cb 02       		.uleb128 0x2
 7482 02cc 18       		.uleb128 0x18
 7483 02cd 00       		.byte	0
 7484 02ce 00       		.byte	0
 7485 02cf 33       		.uleb128 0x33
 7486 02d0 898201   		.uleb128 0x4109
 7487 02d3 00       		.byte	0
 7488 02d4 11       		.uleb128 0x11
 7489 02d5 01       		.uleb128 0x1
 7490 02d6 31       		.uleb128 0x31
 7491 02d7 13       		.uleb128 0x13
 7492 02d8 00       		.byte	0
 7493 02d9 00       		.byte	0
 7494 02da 34       		.uleb128 0x34
 7495 02db 34       		.uleb128 0x34
 7496 02dc 00       		.byte	0
 7497 02dd 03       		.uleb128 0x3
 7498 02de 0E       		.uleb128 0xe
 7499 02df 3A       		.uleb128 0x3a
 7500 02e0 0B       		.uleb128 0xb
 7501 02e1 3B       		.uleb128 0x3b
 7502 02e2 05       		.uleb128 0x5
 7503 02e3 49       		.uleb128 0x49
 7504 02e4 13       		.uleb128 0x13
 7505 02e5 02       		.uleb128 0x2
 7506 02e6 18       		.uleb128 0x18
 7507 02e7 00       		.byte	0
ARM GAS  /tmp/cc4PNelj.s 			page 134


 7508 02e8 00       		.byte	0
 7509 02e9 35       		.uleb128 0x35
 7510 02ea 898201   		.uleb128 0x4109
 7511 02ed 01       		.byte	0x1
 7512 02ee 11       		.uleb128 0x11
 7513 02ef 01       		.uleb128 0x1
 7514 02f0 9542     		.uleb128 0x2115
 7515 02f2 19       		.uleb128 0x19
 7516 02f3 31       		.uleb128 0x31
 7517 02f4 13       		.uleb128 0x13
 7518 02f5 01       		.uleb128 0x1
 7519 02f6 13       		.uleb128 0x13
 7520 02f7 00       		.byte	0
 7521 02f8 00       		.byte	0
 7522 02f9 36       		.uleb128 0x36
 7523 02fa 2E       		.uleb128 0x2e
 7524 02fb 01       		.byte	0x1
 7525 02fc 03       		.uleb128 0x3
 7526 02fd 0E       		.uleb128 0xe
 7527 02fe 3A       		.uleb128 0x3a
 7528 02ff 0B       		.uleb128 0xb
 7529 0300 3B       		.uleb128 0x3b
 7530 0301 0B       		.uleb128 0xb
 7531 0302 27       		.uleb128 0x27
 7532 0303 19       		.uleb128 0x19
 7533 0304 49       		.uleb128 0x49
 7534 0305 13       		.uleb128 0x13
 7535 0306 11       		.uleb128 0x11
 7536 0307 01       		.uleb128 0x1
 7537 0308 12       		.uleb128 0x12
 7538 0309 06       		.uleb128 0x6
 7539 030a 40       		.uleb128 0x40
 7540 030b 18       		.uleb128 0x18
 7541 030c 9742     		.uleb128 0x2117
 7542 030e 19       		.uleb128 0x19
 7543 030f 01       		.uleb128 0x1
 7544 0310 13       		.uleb128 0x13
 7545 0311 00       		.byte	0
 7546 0312 00       		.byte	0
 7547 0313 37       		.uleb128 0x37
 7548 0314 05       		.uleb128 0x5
 7549 0315 00       		.byte	0
 7550 0316 03       		.uleb128 0x3
 7551 0317 08       		.uleb128 0x8
 7552 0318 3A       		.uleb128 0x3a
 7553 0319 0B       		.uleb128 0xb
 7554 031a 3B       		.uleb128 0x3b
 7555 031b 0B       		.uleb128 0xb
 7556 031c 49       		.uleb128 0x49
 7557 031d 13       		.uleb128 0x13
 7558 031e 02       		.uleb128 0x2
 7559 031f 17       		.uleb128 0x17
 7560 0320 00       		.byte	0
 7561 0321 00       		.byte	0
 7562 0322 38       		.uleb128 0x38
 7563 0323 34       		.uleb128 0x34
 7564 0324 00       		.byte	0
ARM GAS  /tmp/cc4PNelj.s 			page 135


 7565 0325 03       		.uleb128 0x3
 7566 0326 08       		.uleb128 0x8
 7567 0327 3A       		.uleb128 0x3a
 7568 0328 0B       		.uleb128 0xb
 7569 0329 3B       		.uleb128 0x3b
 7570 032a 0B       		.uleb128 0xb
 7571 032b 49       		.uleb128 0x49
 7572 032c 13       		.uleb128 0x13
 7573 032d 02       		.uleb128 0x2
 7574 032e 17       		.uleb128 0x17
 7575 032f 00       		.byte	0
 7576 0330 00       		.byte	0
 7577 0331 39       		.uleb128 0x39
 7578 0332 34       		.uleb128 0x34
 7579 0333 00       		.byte	0
 7580 0334 03       		.uleb128 0x3
 7581 0335 0E       		.uleb128 0xe
 7582 0336 3A       		.uleb128 0x3a
 7583 0337 0B       		.uleb128 0xb
 7584 0338 3B       		.uleb128 0x3b
 7585 0339 0B       		.uleb128 0xb
 7586 033a 49       		.uleb128 0x49
 7587 033b 13       		.uleb128 0x13
 7588 033c 02       		.uleb128 0x2
 7589 033d 18       		.uleb128 0x18
 7590 033e 00       		.byte	0
 7591 033f 00       		.byte	0
 7592 0340 3A       		.uleb128 0x3a
 7593 0341 34       		.uleb128 0x34
 7594 0342 00       		.byte	0
 7595 0343 03       		.uleb128 0x3
 7596 0344 08       		.uleb128 0x8
 7597 0345 3A       		.uleb128 0x3a
 7598 0346 0B       		.uleb128 0xb
 7599 0347 3B       		.uleb128 0x3b
 7600 0348 0B       		.uleb128 0xb
 7601 0349 49       		.uleb128 0x49
 7602 034a 13       		.uleb128 0x13
 7603 034b 1C       		.uleb128 0x1c
 7604 034c 0B       		.uleb128 0xb
 7605 034d 00       		.byte	0
 7606 034e 00       		.byte	0
 7607 034f 3B       		.uleb128 0x3b
 7608 0350 34       		.uleb128 0x34
 7609 0351 00       		.byte	0
 7610 0352 03       		.uleb128 0x3
 7611 0353 0E       		.uleb128 0xe
 7612 0354 3A       		.uleb128 0x3a
 7613 0355 0B       		.uleb128 0xb
 7614 0356 3B       		.uleb128 0x3b
 7615 0357 0B       		.uleb128 0xb
 7616 0358 49       		.uleb128 0x49
 7617 0359 13       		.uleb128 0x13
 7618 035a 3F       		.uleb128 0x3f
 7619 035b 19       		.uleb128 0x19
 7620 035c 3C       		.uleb128 0x3c
 7621 035d 19       		.uleb128 0x19
ARM GAS  /tmp/cc4PNelj.s 			page 136


 7622 035e 00       		.byte	0
 7623 035f 00       		.byte	0
 7624 0360 3C       		.uleb128 0x3c
 7625 0361 34       		.uleb128 0x34
 7626 0362 00       		.byte	0
 7627 0363 03       		.uleb128 0x3
 7628 0364 0E       		.uleb128 0xe
 7629 0365 3A       		.uleb128 0x3a
 7630 0366 0B       		.uleb128 0xb
 7631 0367 3B       		.uleb128 0x3b
 7632 0368 05       		.uleb128 0x5
 7633 0369 49       		.uleb128 0x49
 7634 036a 13       		.uleb128 0x13
 7635 036b 3F       		.uleb128 0x3f
 7636 036c 19       		.uleb128 0x19
 7637 036d 3C       		.uleb128 0x3c
 7638 036e 19       		.uleb128 0x19
 7639 036f 00       		.byte	0
 7640 0370 00       		.byte	0
 7641 0371 3D       		.uleb128 0x3d
 7642 0372 2E       		.uleb128 0x2e
 7643 0373 01       		.byte	0x1
 7644 0374 3F       		.uleb128 0x3f
 7645 0375 19       		.uleb128 0x19
 7646 0376 03       		.uleb128 0x3
 7647 0377 0E       		.uleb128 0xe
 7648 0378 3A       		.uleb128 0x3a
 7649 0379 0B       		.uleb128 0xb
 7650 037a 3B       		.uleb128 0x3b
 7651 037b 0B       		.uleb128 0xb
 7652 037c 27       		.uleb128 0x27
 7653 037d 19       		.uleb128 0x19
 7654 037e 3C       		.uleb128 0x3c
 7655 037f 19       		.uleb128 0x19
 7656 0380 01       		.uleb128 0x1
 7657 0381 13       		.uleb128 0x13
 7658 0382 00       		.byte	0
 7659 0383 00       		.byte	0
 7660 0384 3E       		.uleb128 0x3e
 7661 0385 2E       		.uleb128 0x2e
 7662 0386 01       		.byte	0x1
 7663 0387 3F       		.uleb128 0x3f
 7664 0388 19       		.uleb128 0x19
 7665 0389 03       		.uleb128 0x3
 7666 038a 0E       		.uleb128 0xe
 7667 038b 3A       		.uleb128 0x3a
 7668 038c 0B       		.uleb128 0xb
 7669 038d 3B       		.uleb128 0x3b
 7670 038e 05       		.uleb128 0x5
 7671 038f 27       		.uleb128 0x27
 7672 0390 19       		.uleb128 0x19
 7673 0391 49       		.uleb128 0x49
 7674 0392 13       		.uleb128 0x13
 7675 0393 3C       		.uleb128 0x3c
 7676 0394 19       		.uleb128 0x19
 7677 0395 01       		.uleb128 0x1
 7678 0396 13       		.uleb128 0x13
ARM GAS  /tmp/cc4PNelj.s 			page 137


 7679 0397 00       		.byte	0
 7680 0398 00       		.byte	0
 7681 0399 3F       		.uleb128 0x3f
 7682 039a 2E       		.uleb128 0x2e
 7683 039b 01       		.byte	0x1
 7684 039c 3F       		.uleb128 0x3f
 7685 039d 19       		.uleb128 0x19
 7686 039e 03       		.uleb128 0x3
 7687 039f 0E       		.uleb128 0xe
 7688 03a0 27       		.uleb128 0x27
 7689 03a1 19       		.uleb128 0x19
 7690 03a2 49       		.uleb128 0x49
 7691 03a3 13       		.uleb128 0x13
 7692 03a4 34       		.uleb128 0x34
 7693 03a5 19       		.uleb128 0x19
 7694 03a6 3C       		.uleb128 0x3c
 7695 03a7 19       		.uleb128 0x19
 7696 03a8 01       		.uleb128 0x1
 7697 03a9 13       		.uleb128 0x13
 7698 03aa 00       		.byte	0
 7699 03ab 00       		.byte	0
 7700 03ac 40       		.uleb128 0x40
 7701 03ad 2E       		.uleb128 0x2e
 7702 03ae 01       		.byte	0x1
 7703 03af 3F       		.uleb128 0x3f
 7704 03b0 19       		.uleb128 0x19
 7705 03b1 03       		.uleb128 0x3
 7706 03b2 0E       		.uleb128 0xe
 7707 03b3 3A       		.uleb128 0x3a
 7708 03b4 0B       		.uleb128 0xb
 7709 03b5 3B       		.uleb128 0x3b
 7710 03b6 0B       		.uleb128 0xb
 7711 03b7 27       		.uleb128 0x27
 7712 03b8 19       		.uleb128 0x19
 7713 03b9 49       		.uleb128 0x49
 7714 03ba 13       		.uleb128 0x13
 7715 03bb 3C       		.uleb128 0x3c
 7716 03bc 19       		.uleb128 0x19
 7717 03bd 01       		.uleb128 0x1
 7718 03be 13       		.uleb128 0x13
 7719 03bf 00       		.byte	0
 7720 03c0 00       		.byte	0
 7721 03c1 41       		.uleb128 0x41
 7722 03c2 2E       		.uleb128 0x2e
 7723 03c3 01       		.byte	0x1
 7724 03c4 3F       		.uleb128 0x3f
 7725 03c5 19       		.uleb128 0x19
 7726 03c6 03       		.uleb128 0x3
 7727 03c7 0E       		.uleb128 0xe
 7728 03c8 3A       		.uleb128 0x3a
 7729 03c9 0B       		.uleb128 0xb
 7730 03ca 3B       		.uleb128 0x3b
 7731 03cb 05       		.uleb128 0x5
 7732 03cc 27       		.uleb128 0x27
 7733 03cd 19       		.uleb128 0x19
 7734 03ce 3C       		.uleb128 0x3c
 7735 03cf 19       		.uleb128 0x19
ARM GAS  /tmp/cc4PNelj.s 			page 138


 7736 03d0 01       		.uleb128 0x1
 7737 03d1 13       		.uleb128 0x13
 7738 03d2 00       		.byte	0
 7739 03d3 00       		.byte	0
 7740 03d4 42       		.uleb128 0x42
 7741 03d5 2E       		.uleb128 0x2e
 7742 03d6 01       		.byte	0x1
 7743 03d7 3F       		.uleb128 0x3f
 7744 03d8 19       		.uleb128 0x19
 7745 03d9 03       		.uleb128 0x3
 7746 03da 0E       		.uleb128 0xe
 7747 03db 3A       		.uleb128 0x3a
 7748 03dc 0B       		.uleb128 0xb
 7749 03dd 3B       		.uleb128 0x3b
 7750 03de 0B       		.uleb128 0xb
 7751 03df 27       		.uleb128 0x27
 7752 03e0 19       		.uleb128 0x19
 7753 03e1 49       		.uleb128 0x49
 7754 03e2 13       		.uleb128 0x13
 7755 03e3 3C       		.uleb128 0x3c
 7756 03e4 19       		.uleb128 0x19
 7757 03e5 00       		.byte	0
 7758 03e6 00       		.byte	0
 7759 03e7 43       		.uleb128 0x43
 7760 03e8 18       		.uleb128 0x18
 7761 03e9 00       		.byte	0
 7762 03ea 00       		.byte	0
 7763 03eb 00       		.byte	0
 7764 03ec 00       		.byte	0
 7765              		.section	.debug_loc,"",%progbits
 7766              	.Ldebug_loc0:
 7767              	.LLST0:
 7768 0000 00000000 		.4byte	.LVL0
 7769 0004 16000000 		.4byte	.LVL1
 7770 0008 0100     		.2byte	0x1
 7771 000a 50       		.byte	0x50
 7772 000b 16000000 		.4byte	.LVL1
 7773 000f 20000000 		.4byte	.LVL2
 7774 0013 0400     		.2byte	0x4
 7775 0015 F3       		.byte	0xf3
 7776 0016 01       		.uleb128 0x1
 7777 0017 50       		.byte	0x50
 7778 0018 9F       		.byte	0x9f
 7779 0019 20000000 		.4byte	.LVL2
 7780 001d 22000000 		.4byte	.LVL3
 7781 0021 0100     		.2byte	0x1
 7782 0023 50       		.byte	0x50
 7783 0024 22000000 		.4byte	.LVL3
 7784 0028 24000000 		.4byte	.LFE63
 7785 002c 0400     		.2byte	0x4
 7786 002e F3       		.byte	0xf3
 7787 002f 01       		.uleb128 0x1
 7788 0030 50       		.byte	0x50
 7789 0031 9F       		.byte	0x9f
 7790 0032 00000000 		.4byte	0
 7791 0036 00000000 		.4byte	0
 7792              	.LLST1:
ARM GAS  /tmp/cc4PNelj.s 			page 139


 7793 003a 00000000 		.4byte	.LVL4
 7794 003e 14000000 		.4byte	.LVL5
 7795 0042 0100     		.2byte	0x1
 7796 0044 50       		.byte	0x50
 7797 0045 14000000 		.4byte	.LVL5
 7798 0049 20000000 		.4byte	.LFE64
 7799 004d 0400     		.2byte	0x4
 7800 004f F3       		.byte	0xf3
 7801 0050 01       		.uleb128 0x1
 7802 0051 50       		.byte	0x50
 7803 0052 9F       		.byte	0x9f
 7804 0053 00000000 		.4byte	0
 7805 0057 00000000 		.4byte	0
 7806              	.LLST2:
 7807 005b 00000000 		.4byte	.LVL4
 7808 005f 1C000000 		.4byte	.LVL6
 7809 0063 0100     		.2byte	0x1
 7810 0065 51       		.byte	0x51
 7811 0066 1C000000 		.4byte	.LVL6
 7812 006a 20000000 		.4byte	.LFE64
 7813 006e 0400     		.2byte	0x4
 7814 0070 F3       		.byte	0xf3
 7815 0071 01       		.uleb128 0x1
 7816 0072 51       		.byte	0x51
 7817 0073 9F       		.byte	0x9f
 7818 0074 00000000 		.4byte	0
 7819 0078 00000000 		.4byte	0
 7820              	.LLST3:
 7821 007c 00000000 		.4byte	.LVL7
 7822 0080 18000000 		.4byte	.LVL8
 7823 0084 0100     		.2byte	0x1
 7824 0086 50       		.byte	0x50
 7825 0087 18000000 		.4byte	.LVL8
 7826 008b 20000000 		.4byte	.LFE65
 7827 008f 0400     		.2byte	0x4
 7828 0091 F3       		.byte	0xf3
 7829 0092 01       		.uleb128 0x1
 7830 0093 50       		.byte	0x50
 7831 0094 9F       		.byte	0x9f
 7832 0095 00000000 		.4byte	0
 7833 0099 00000000 		.4byte	0
 7834              	.LLST4:
 7835 009d 00000000 		.4byte	.LVL9
 7836 00a1 12000000 		.4byte	.LVL10
 7837 00a5 0100     		.2byte	0x1
 7838 00a7 50       		.byte	0x50
 7839 00a8 12000000 		.4byte	.LVL10
 7840 00ac 1A000000 		.4byte	.LFE66
 7841 00b0 0400     		.2byte	0x4
 7842 00b2 F3       		.byte	0xf3
 7843 00b3 01       		.uleb128 0x1
 7844 00b4 50       		.byte	0x50
 7845 00b5 9F       		.byte	0x9f
 7846 00b6 00000000 		.4byte	0
 7847 00ba 00000000 		.4byte	0
 7848              	.LLST5:
 7849 00be 00000000 		.4byte	.LVL11
ARM GAS  /tmp/cc4PNelj.s 			page 140


 7850 00c2 20000000 		.4byte	.LVL13
 7851 00c6 0100     		.2byte	0x1
 7852 00c8 50       		.byte	0x50
 7853 00c9 20000000 		.4byte	.LVL13
 7854 00cd 26000000 		.4byte	.LVL14
 7855 00d1 0400     		.2byte	0x4
 7856 00d3 F3       		.byte	0xf3
 7857 00d4 01       		.uleb128 0x1
 7858 00d5 50       		.byte	0x50
 7859 00d6 9F       		.byte	0x9f
 7860 00d7 26000000 		.4byte	.LVL14
 7861 00db 34000000 		.4byte	.LVL15
 7862 00df 0100     		.2byte	0x1
 7863 00e1 50       		.byte	0x50
 7864 00e2 34000000 		.4byte	.LVL15
 7865 00e6 3A000000 		.4byte	.LVL16
 7866 00ea 0400     		.2byte	0x4
 7867 00ec F3       		.byte	0xf3
 7868 00ed 01       		.uleb128 0x1
 7869 00ee 50       		.byte	0x50
 7870 00ef 9F       		.byte	0x9f
 7871 00f0 3A000000 		.4byte	.LVL16
 7872 00f4 5C000000 		.4byte	.LVL17
 7873 00f8 0100     		.2byte	0x1
 7874 00fa 50       		.byte	0x50
 7875 00fb 5C000000 		.4byte	.LVL17
 7876 00ff 62000000 		.4byte	.LVL18
 7877 0103 0400     		.2byte	0x4
 7878 0105 F3       		.byte	0xf3
 7879 0106 01       		.uleb128 0x1
 7880 0107 50       		.byte	0x50
 7881 0108 9F       		.byte	0x9f
 7882 0109 62000000 		.4byte	.LVL18
 7883 010d 70000000 		.4byte	.LVL19
 7884 0111 0100     		.2byte	0x1
 7885 0113 50       		.byte	0x50
 7886 0114 70000000 		.4byte	.LVL19
 7887 0118 76000000 		.4byte	.LFE68
 7888 011c 0400     		.2byte	0x4
 7889 011e F3       		.byte	0xf3
 7890 011f 01       		.uleb128 0x1
 7891 0120 50       		.byte	0x50
 7892 0121 9F       		.byte	0x9f
 7893 0122 00000000 		.4byte	0
 7894 0126 00000000 		.4byte	0
 7895              	.LLST6:
 7896 012a 00000000 		.4byte	.LVL11
 7897 012e 06000000 		.4byte	.LVL12
 7898 0132 0100     		.2byte	0x1
 7899 0134 51       		.byte	0x51
 7900 0135 06000000 		.4byte	.LVL12
 7901 0139 76000000 		.4byte	.LFE68
 7902 013d 0400     		.2byte	0x4
 7903 013f F3       		.byte	0xf3
 7904 0140 01       		.uleb128 0x1
 7905 0141 51       		.byte	0x51
 7906 0142 9F       		.byte	0x9f
ARM GAS  /tmp/cc4PNelj.s 			page 141


 7907 0143 00000000 		.4byte	0
 7908 0147 00000000 		.4byte	0
 7909              	.LLST7:
 7910 014b 00000000 		.4byte	.LVL20
 7911 014f 16000000 		.4byte	.LVL21
 7912 0153 0100     		.2byte	0x1
 7913 0155 50       		.byte	0x50
 7914 0156 16000000 		.4byte	.LVL21
 7915 015a 1C000000 		.4byte	.LFE69
 7916 015e 0400     		.2byte	0x4
 7917 0160 F3       		.byte	0xf3
 7918 0161 01       		.uleb128 0x1
 7919 0162 50       		.byte	0x50
 7920 0163 9F       		.byte	0x9f
 7921 0164 00000000 		.4byte	0
 7922 0168 00000000 		.4byte	0
 7923              	.LLST8:
 7924 016c 00000000 		.4byte	.LVL22
 7925 0170 22000000 		.4byte	.LVL26
 7926 0174 0100     		.2byte	0x1
 7927 0176 50       		.byte	0x50
 7928 0177 22000000 		.4byte	.LVL26
 7929 017b 28000000 		.4byte	.LVL27
 7930 017f 0400     		.2byte	0x4
 7931 0181 F3       		.byte	0xf3
 7932 0182 01       		.uleb128 0x1
 7933 0183 50       		.byte	0x50
 7934 0184 9F       		.byte	0x9f
 7935 0185 28000000 		.4byte	.LVL27
 7936 0189 30000000 		.4byte	.LVL29
 7937 018d 0100     		.2byte	0x1
 7938 018f 50       		.byte	0x50
 7939 0190 30000000 		.4byte	.LVL29
 7940 0194 3C000000 		.4byte	.LFE70
 7941 0198 0400     		.2byte	0x4
 7942 019a F3       		.byte	0xf3
 7943 019b 01       		.uleb128 0x1
 7944 019c 50       		.byte	0x50
 7945 019d 9F       		.byte	0x9f
 7946 019e 00000000 		.4byte	0
 7947 01a2 00000000 		.4byte	0
 7948              	.LLST9:
 7949 01a6 12000000 		.4byte	.LVL23
 7950 01aa 1C000000 		.4byte	.LVL24
 7951 01ae 0300     		.2byte	0x3
 7952 01b0 72       		.byte	0x72
 7953 01b1 01       		.sleb128 1
 7954 01b2 9F       		.byte	0x9f
 7955 01b3 1C000000 		.4byte	.LVL24
 7956 01b7 20000000 		.4byte	.LVL25
 7957 01bb 0100     		.2byte	0x1
 7958 01bd 52       		.byte	0x52
 7959 01be 28000000 		.4byte	.LVL27
 7960 01c2 2E000000 		.4byte	.LVL28
 7961 01c6 0300     		.2byte	0x3
 7962 01c8 72       		.byte	0x72
 7963 01c9 01       		.sleb128 1
ARM GAS  /tmp/cc4PNelj.s 			page 142


 7964 01ca 9F       		.byte	0x9f
 7965 01cb 00000000 		.4byte	0
 7966 01cf 00000000 		.4byte	0
 7967              	.LLST10:
 7968 01d3 28000000 		.4byte	.LVL27
 7969 01d7 2E000000 		.4byte	.LVL28
 7970 01db 0100     		.2byte	0x1
 7971 01dd 52       		.byte	0x52
 7972 01de 00000000 		.4byte	0
 7973 01e2 00000000 		.4byte	0
 7974              	.LLST11:
 7975 01e6 00000000 		.4byte	.LVL30
 7976 01ea 1B000000 		.4byte	.LVL32-1
 7977 01ee 0100     		.2byte	0x1
 7978 01f0 50       		.byte	0x50
 7979 01f1 1B000000 		.4byte	.LVL32-1
 7980 01f5 28000000 		.4byte	.LVL33
 7981 01f9 0100     		.2byte	0x1
 7982 01fb 55       		.byte	0x55
 7983 01fc 28000000 		.4byte	.LVL33
 7984 0200 34000000 		.4byte	.LVL35
 7985 0204 0500     		.2byte	0x5
 7986 0206 03       		.byte	0x3
 7987 0207 00000000 		.4byte	vexImes
 7988 020b 34000000 		.4byte	.LVL35
 7989 020f 6A000000 		.4byte	.LFE72
 7990 0213 0400     		.2byte	0x4
 7991 0215 F3       		.byte	0xf3
 7992 0216 01       		.uleb128 0x1
 7993 0217 50       		.byte	0x50
 7994 0218 9F       		.byte	0x9f
 7995 0219 00000000 		.4byte	0
 7996 021d 00000000 		.4byte	0
 7997              	.LLST12:
 7998 0221 00000000 		.4byte	.LVL30
 7999 0225 08000000 		.4byte	.LVL31
 8000 0229 0100     		.2byte	0x1
 8001 022b 51       		.byte	0x51
 8002 022c 08000000 		.4byte	.LVL31
 8003 0230 6A000000 		.4byte	.LFE72
 8004 0234 0100     		.2byte	0x1
 8005 0236 56       		.byte	0x56
 8006 0237 00000000 		.4byte	0
 8007 023b 00000000 		.4byte	0
 8008              	.LLST13:
 8009 023f 30000000 		.4byte	.LVL34
 8010 0243 34000000 		.4byte	.LVL35
 8011 0247 0200     		.2byte	0x2
 8012 0249 30       		.byte	0x30
 8013 024a 9F       		.byte	0x9f
 8014 024b 00000000 		.4byte	0
 8015 024f 00000000 		.4byte	0
 8016              	.LLST14:
 8017 0253 00000000 		.4byte	.LVL37
 8018 0257 14000000 		.4byte	.LVL38
 8019 025b 0100     		.2byte	0x1
 8020 025d 50       		.byte	0x50
ARM GAS  /tmp/cc4PNelj.s 			page 143


 8021 025e 14000000 		.4byte	.LVL38
 8022 0262 4A000000 		.4byte	.LFE74
 8023 0266 0100     		.2byte	0x1
 8024 0268 54       		.byte	0x54
 8025 0269 00000000 		.4byte	0
 8026 026d 00000000 		.4byte	0
 8027              	.LLST15:
 8028 0271 00000000 		.4byte	.LVL43
 8029 0275 3A000000 		.4byte	.LVL46
 8030 0279 0200     		.2byte	0x2
 8031 027b 30       		.byte	0x30
 8032 027c 9F       		.byte	0x9f
 8033 027d 3A000000 		.4byte	.LVL46
 8034 0281 3C000000 		.4byte	.LVL47
 8035 0285 0100     		.2byte	0x1
 8036 0287 50       		.byte	0x50
 8037 0288 3C000000 		.4byte	.LVL47
 8038 028c 4C000000 		.4byte	.LFE87
 8039 0290 0100     		.2byte	0x1
 8040 0292 55       		.byte	0x55
 8041 0293 00000000 		.4byte	0
 8042 0297 00000000 		.4byte	0
 8043              	.LLST16:
 8044 029b 00000000 		.4byte	.LVL50
 8045 029f 02000000 		.4byte	.LVL51
 8046 02a3 0100     		.2byte	0x1
 8047 02a5 50       		.byte	0x50
 8048 02a6 02000000 		.4byte	.LVL51
 8049 02aa 08000000 		.4byte	.LVL52
 8050 02ae 0300     		.2byte	0x3
 8051 02b0 70       		.byte	0x70
 8052 02b1 7F       		.sleb128 -1
 8053 02b2 9F       		.byte	0x9f
 8054 02b3 08000000 		.4byte	.LVL52
 8055 02b7 98000000 		.4byte	.LFE88
 8056 02bb 0400     		.2byte	0x4
 8057 02bd F3       		.byte	0xf3
 8058 02be 01       		.uleb128 0x1
 8059 02bf 50       		.byte	0x50
 8060 02c0 9F       		.byte	0x9f
 8061 02c1 00000000 		.4byte	0
 8062 02c5 00000000 		.4byte	0
 8063              	.LLST17:
 8064 02c9 00000000 		.4byte	.LVL50
 8065 02cd 08000000 		.4byte	.LVL52
 8066 02d1 0100     		.2byte	0x1
 8067 02d3 51       		.byte	0x51
 8068 02d4 08000000 		.4byte	.LVL52
 8069 02d8 6A000000 		.4byte	.LVL53
 8070 02dc 0100     		.2byte	0x1
 8071 02de 54       		.byte	0x54
 8072 02df 6A000000 		.4byte	.LVL53
 8073 02e3 7D000000 		.4byte	.LVL54-1
 8074 02e7 0100     		.2byte	0x1
 8075 02e9 51       		.byte	0x51
 8076 02ea 7D000000 		.4byte	.LVL54-1
 8077 02ee 98000000 		.4byte	.LFE88
ARM GAS  /tmp/cc4PNelj.s 			page 144


 8078 02f2 0100     		.2byte	0x1
 8079 02f4 54       		.byte	0x54
 8080 02f5 00000000 		.4byte	0
 8081 02f9 00000000 		.4byte	0
 8082              	.LLST18:
 8083 02fd 00000000 		.4byte	.LVL57
 8084 0301 16000000 		.4byte	.LVL58
 8085 0305 0100     		.2byte	0x1
 8086 0307 50       		.byte	0x50
 8087 0308 16000000 		.4byte	.LVL58
 8088 030c 64000000 		.4byte	.LFE76
 8089 0310 0400     		.2byte	0x4
 8090 0312 F3       		.byte	0xf3
 8091 0313 01       		.uleb128 0x1
 8092 0314 50       		.byte	0x50
 8093 0315 9F       		.byte	0x9f
 8094 0316 00000000 		.4byte	0
 8095 031a 00000000 		.4byte	0
 8096              	.LLST19:
 8097 031e 00000000 		.4byte	.LVL57
 8098 0322 21000000 		.4byte	.LVL59-1
 8099 0326 0100     		.2byte	0x1
 8100 0328 51       		.byte	0x51
 8101 0329 21000000 		.4byte	.LVL59-1
 8102 032d 64000000 		.4byte	.LFE76
 8103 0331 0100     		.2byte	0x1
 8104 0333 58       		.byte	0x58
 8105 0334 00000000 		.4byte	0
 8106 0338 00000000 		.4byte	0
 8107              	.LLST20:
 8108 033c 00000000 		.4byte	.LVL57
 8109 0340 3A000000 		.4byte	.LVL61
 8110 0344 0200     		.2byte	0x2
 8111 0346 30       		.byte	0x30
 8112 0347 9F       		.byte	0x9f
 8113 0348 3A000000 		.4byte	.LVL61
 8114 034c 3C000000 		.4byte	.LVL62
 8115 0350 0100     		.2byte	0x1
 8116 0352 50       		.byte	0x50
 8117 0353 3C000000 		.4byte	.LVL62
 8118 0357 64000000 		.4byte	.LFE76
 8119 035b 0100     		.2byte	0x1
 8120 035d 55       		.byte	0x55
 8121 035e 00000000 		.4byte	0
 8122 0362 00000000 		.4byte	0
 8123              	.LLST21:
 8124 0366 00000000 		.4byte	.LVL66
 8125 036a 16000000 		.4byte	.LVL67
 8126 036e 0100     		.2byte	0x1
 8127 0370 50       		.byte	0x50
 8128 0371 16000000 		.4byte	.LVL67
 8129 0375 62000000 		.4byte	.LFE77
 8130 0379 0400     		.2byte	0x4
 8131 037b F3       		.byte	0xf3
 8132 037c 01       		.uleb128 0x1
 8133 037d 50       		.byte	0x50
 8134 037e 9F       		.byte	0x9f
ARM GAS  /tmp/cc4PNelj.s 			page 145


 8135 037f 00000000 		.4byte	0
 8136 0383 00000000 		.4byte	0
 8137              	.LLST22:
 8138 0387 00000000 		.4byte	.LVL66
 8139 038b 1F000000 		.4byte	.LVL68-1
 8140 038f 0100     		.2byte	0x1
 8141 0391 51       		.byte	0x51
 8142 0392 1F000000 		.4byte	.LVL68-1
 8143 0396 62000000 		.4byte	.LFE77
 8144 039a 0100     		.2byte	0x1
 8145 039c 58       		.byte	0x58
 8146 039d 00000000 		.4byte	0
 8147 03a1 00000000 		.4byte	0
 8148              	.LLST23:
 8149 03a5 00000000 		.4byte	.LVL66
 8150 03a9 38000000 		.4byte	.LVL70
 8151 03ad 0200     		.2byte	0x2
 8152 03af 30       		.byte	0x30
 8153 03b0 9F       		.byte	0x9f
 8154 03b1 38000000 		.4byte	.LVL70
 8155 03b5 3A000000 		.4byte	.LVL71
 8156 03b9 0100     		.2byte	0x1
 8157 03bb 50       		.byte	0x50
 8158 03bc 3A000000 		.4byte	.LVL71
 8159 03c0 62000000 		.4byte	.LFE77
 8160 03c4 0100     		.2byte	0x1
 8161 03c6 55       		.byte	0x55
 8162 03c7 00000000 		.4byte	0
 8163 03cb 00000000 		.4byte	0
 8164              	.LLST24:
 8165 03cf 00000000 		.4byte	.LVL75
 8166 03d3 16000000 		.4byte	.LVL76
 8167 03d7 0100     		.2byte	0x1
 8168 03d9 50       		.byte	0x50
 8169 03da 16000000 		.4byte	.LVL76
 8170 03de 64000000 		.4byte	.LFE78
 8171 03e2 0400     		.2byte	0x4
 8172 03e4 F3       		.byte	0xf3
 8173 03e5 01       		.uleb128 0x1
 8174 03e6 50       		.byte	0x50
 8175 03e7 9F       		.byte	0x9f
 8176 03e8 00000000 		.4byte	0
 8177 03ec 00000000 		.4byte	0
 8178              	.LLST25:
 8179 03f0 00000000 		.4byte	.LVL75
 8180 03f4 21000000 		.4byte	.LVL77-1
 8181 03f8 0100     		.2byte	0x1
 8182 03fa 51       		.byte	0x51
 8183 03fb 21000000 		.4byte	.LVL77-1
 8184 03ff 64000000 		.4byte	.LFE78
 8185 0403 0100     		.2byte	0x1
 8186 0405 58       		.byte	0x58
 8187 0406 00000000 		.4byte	0
 8188 040a 00000000 		.4byte	0
 8189              	.LLST26:
 8190 040e 00000000 		.4byte	.LVL75
 8191 0412 3A000000 		.4byte	.LVL79
ARM GAS  /tmp/cc4PNelj.s 			page 146


 8192 0416 0200     		.2byte	0x2
 8193 0418 30       		.byte	0x30
 8194 0419 9F       		.byte	0x9f
 8195 041a 3A000000 		.4byte	.LVL79
 8196 041e 3C000000 		.4byte	.LVL80
 8197 0422 0100     		.2byte	0x1
 8198 0424 50       		.byte	0x50
 8199 0425 3C000000 		.4byte	.LVL80
 8200 0429 64000000 		.4byte	.LFE78
 8201 042d 0100     		.2byte	0x1
 8202 042f 55       		.byte	0x55
 8203 0430 00000000 		.4byte	0
 8204 0434 00000000 		.4byte	0
 8205              	.LLST27:
 8206 0438 00000000 		.4byte	.LVL84
 8207 043c 14000000 		.4byte	.LVL85
 8208 0440 0100     		.2byte	0x1
 8209 0442 50       		.byte	0x50
 8210 0443 14000000 		.4byte	.LVL85
 8211 0447 5C000000 		.4byte	.LFE79
 8212 044b 0400     		.2byte	0x4
 8213 044d F3       		.byte	0xf3
 8214 044e 01       		.uleb128 0x1
 8215 044f 50       		.byte	0x50
 8216 0450 9F       		.byte	0x9f
 8217 0451 00000000 		.4byte	0
 8218 0455 00000000 		.4byte	0
 8219              	.LLST28:
 8220 0459 00000000 		.4byte	.LVL84
 8221 045d 1D000000 		.4byte	.LVL86-1
 8222 0461 0100     		.2byte	0x1
 8223 0463 51       		.byte	0x51
 8224 0464 1D000000 		.4byte	.LVL86-1
 8225 0468 5C000000 		.4byte	.LFE79
 8226 046c 0100     		.2byte	0x1
 8227 046e 57       		.byte	0x57
 8228 046f 00000000 		.4byte	0
 8229 0473 00000000 		.4byte	0
 8230              	.LLST29:
 8231 0477 00000000 		.4byte	.LVL84
 8232 047b 34000000 		.4byte	.LVL88
 8233 047f 0200     		.2byte	0x2
 8234 0481 30       		.byte	0x30
 8235 0482 9F       		.byte	0x9f
 8236 0483 34000000 		.4byte	.LVL88
 8237 0487 36000000 		.4byte	.LVL89
 8238 048b 0100     		.2byte	0x1
 8239 048d 50       		.byte	0x50
 8240 048e 36000000 		.4byte	.LVL89
 8241 0492 5C000000 		.4byte	.LFE79
 8242 0496 0100     		.2byte	0x1
 8243 0498 55       		.byte	0x55
 8244 0499 00000000 		.4byte	0
 8245 049d 00000000 		.4byte	0
 8246              	.LLST30:
 8247 04a1 00000000 		.4byte	.LVL93
 8248 04a5 16000000 		.4byte	.LVL94
ARM GAS  /tmp/cc4PNelj.s 			page 147


 8249 04a9 0100     		.2byte	0x1
 8250 04ab 50       		.byte	0x50
 8251 04ac 16000000 		.4byte	.LVL94
 8252 04b0 64000000 		.4byte	.LFE80
 8253 04b4 0400     		.2byte	0x4
 8254 04b6 F3       		.byte	0xf3
 8255 04b7 01       		.uleb128 0x1
 8256 04b8 50       		.byte	0x50
 8257 04b9 9F       		.byte	0x9f
 8258 04ba 00000000 		.4byte	0
 8259 04be 00000000 		.4byte	0
 8260              	.LLST31:
 8261 04c2 00000000 		.4byte	.LVL93
 8262 04c6 21000000 		.4byte	.LVL95-1
 8263 04ca 0100     		.2byte	0x1
 8264 04cc 51       		.byte	0x51
 8265 04cd 21000000 		.4byte	.LVL95-1
 8266 04d1 64000000 		.4byte	.LFE80
 8267 04d5 0100     		.2byte	0x1
 8268 04d7 58       		.byte	0x58
 8269 04d8 00000000 		.4byte	0
 8270 04dc 00000000 		.4byte	0
 8271              	.LLST32:
 8272 04e0 00000000 		.4byte	.LVL93
 8273 04e4 3A000000 		.4byte	.LVL97
 8274 04e8 0200     		.2byte	0x2
 8275 04ea 30       		.byte	0x30
 8276 04eb 9F       		.byte	0x9f
 8277 04ec 3A000000 		.4byte	.LVL97
 8278 04f0 3C000000 		.4byte	.LVL98
 8279 04f4 0100     		.2byte	0x1
 8280 04f6 50       		.byte	0x50
 8281 04f7 3C000000 		.4byte	.LVL98
 8282 04fb 64000000 		.4byte	.LFE80
 8283 04ff 0100     		.2byte	0x1
 8284 0501 55       		.byte	0x55
 8285 0502 00000000 		.4byte	0
 8286 0506 00000000 		.4byte	0
 8287              	.LLST33:
 8288 050a 00000000 		.4byte	.LVL102
 8289 050e 10000000 		.4byte	.LVL103
 8290 0512 0100     		.2byte	0x1
 8291 0514 50       		.byte	0x50
 8292 0515 10000000 		.4byte	.LVL103
 8293 0519 7A000000 		.4byte	.LFE73
 8294 051d 0100     		.2byte	0x1
 8295 051f 54       		.byte	0x54
 8296 0520 00000000 		.4byte	0
 8297 0524 00000000 		.4byte	0
 8298              	.LLST34:
 8299 0528 00000000 		.4byte	.LVL102
 8300 052c 16000000 		.4byte	.LVL104
 8301 0530 0200     		.2byte	0x2
 8302 0532 30       		.byte	0x30
 8303 0533 9F       		.byte	0x9f
 8304 0534 16000000 		.4byte	.LVL104
 8305 0538 34000000 		.4byte	.LVL105
ARM GAS  /tmp/cc4PNelj.s 			page 148


 8306 053c 0100     		.2byte	0x1
 8307 053e 50       		.byte	0x50
 8308 053f 6C000000 		.4byte	.LVL106
 8309 0543 74000000 		.4byte	.LVL107
 8310 0547 0100     		.2byte	0x1
 8311 0549 50       		.byte	0x50
 8312 054a 00000000 		.4byte	0
 8313 054e 00000000 		.4byte	0
 8314              	.LLST35:
 8315 0552 00000000 		.4byte	.LVL108
 8316 0556 16000000 		.4byte	.LVL110
 8317 055a 0100     		.2byte	0x1
 8318 055c 50       		.byte	0x50
 8319 055d 16000000 		.4byte	.LVL110
 8320 0561 64000000 		.4byte	.LFE81
 8321 0565 0400     		.2byte	0x4
 8322 0567 F3       		.byte	0xf3
 8323 0568 01       		.uleb128 0x1
 8324 0569 50       		.byte	0x50
 8325 056a 9F       		.byte	0x9f
 8326 056b 00000000 		.4byte	0
 8327 056f 00000000 		.4byte	0
 8328              	.LLST36:
 8329 0573 00000000 		.4byte	.LVL108
 8330 0577 21000000 		.4byte	.LVL111-1
 8331 057b 0100     		.2byte	0x1
 8332 057d 51       		.byte	0x51
 8333 057e 21000000 		.4byte	.LVL111-1
 8334 0582 64000000 		.4byte	.LFE81
 8335 0586 0100     		.2byte	0x1
 8336 0588 58       		.byte	0x58
 8337 0589 00000000 		.4byte	0
 8338 058d 00000000 		.4byte	0
 8339              	.LLST37:
 8340 0591 00000000 		.4byte	.LVL108
 8341 0595 10000000 		.4byte	.LVL109
 8342 0599 0100     		.2byte	0x1
 8343 059b 52       		.byte	0x52
 8344 059c 10000000 		.4byte	.LVL109
 8345 05a0 64000000 		.4byte	.LFE81
 8346 05a4 0400     		.2byte	0x4
 8347 05a6 F3       		.byte	0xf3
 8348 05a7 01       		.uleb128 0x1
 8349 05a8 52       		.byte	0x52
 8350 05a9 9F       		.byte	0x9f
 8351 05aa 00000000 		.4byte	0
 8352 05ae 00000000 		.4byte	0
 8353              	.LLST38:
 8354 05b2 00000000 		.4byte	.LVL108
 8355 05b6 21000000 		.4byte	.LVL111-1
 8356 05ba 0100     		.2byte	0x1
 8357 05bc 53       		.byte	0x53
 8358 05bd 21000000 		.4byte	.LVL111-1
 8359 05c1 64000000 		.4byte	.LFE81
 8360 05c5 0400     		.2byte	0x4
 8361 05c7 F3       		.byte	0xf3
 8362 05c8 01       		.uleb128 0x1
ARM GAS  /tmp/cc4PNelj.s 			page 149


 8363 05c9 53       		.byte	0x53
 8364 05ca 9F       		.byte	0x9f
 8365 05cb 00000000 		.4byte	0
 8366 05cf 00000000 		.4byte	0
 8367              	.LLST39:
 8368 05d3 00000000 		.4byte	.LVL108
 8369 05d7 3A000000 		.4byte	.LVL113
 8370 05db 0200     		.2byte	0x2
 8371 05dd 30       		.byte	0x30
 8372 05de 9F       		.byte	0x9f
 8373 05df 3A000000 		.4byte	.LVL113
 8374 05e3 3C000000 		.4byte	.LVL114
 8375 05e7 0100     		.2byte	0x1
 8376 05e9 50       		.byte	0x50
 8377 05ea 3C000000 		.4byte	.LVL114
 8378 05ee 64000000 		.4byte	.LFE81
 8379 05f2 0100     		.2byte	0x1
 8380 05f4 55       		.byte	0x55
 8381 05f5 00000000 		.4byte	0
 8382 05f9 00000000 		.4byte	0
 8383              	.LLST40:
 8384 05fd 00000000 		.4byte	.LVL118
 8385 0601 0C000000 		.4byte	.LVL119
 8386 0605 0100     		.2byte	0x1
 8387 0607 50       		.byte	0x50
 8388 0608 0C000000 		.4byte	.LVL119
 8389 060c 94000000 		.4byte	.LFE82
 8390 0610 0400     		.2byte	0x4
 8391 0612 F3       		.byte	0xf3
 8392 0613 01       		.uleb128 0x1
 8393 0614 50       		.byte	0x50
 8394 0615 9F       		.byte	0x9f
 8395 0616 00000000 		.4byte	0
 8396 061a 00000000 		.4byte	0
 8397              	.LLST41:
 8398 061e 00000000 		.4byte	.LVL118
 8399 0622 0E000000 		.4byte	.LVL120
 8400 0626 0100     		.2byte	0x1
 8401 0628 51       		.byte	0x51
 8402 0629 0E000000 		.4byte	.LVL120
 8403 062d 94000000 		.4byte	.LFE82
 8404 0631 0100     		.2byte	0x1
 8405 0633 58       		.byte	0x58
 8406 0634 00000000 		.4byte	0
 8407 0638 00000000 		.4byte	0
 8408              	.LLST42:
 8409 063c 00000000 		.4byte	.LVL118
 8410 0640 15000000 		.4byte	.LVL121-1
 8411 0644 0100     		.2byte	0x1
 8412 0646 52       		.byte	0x52
 8413 0647 15000000 		.4byte	.LVL121-1
 8414 064b 94000000 		.4byte	.LFE82
 8415 064f 0400     		.2byte	0x4
 8416 0651 F3       		.byte	0xf3
 8417 0652 01       		.uleb128 0x1
 8418 0653 52       		.byte	0x52
 8419 0654 9F       		.byte	0x9f
ARM GAS  /tmp/cc4PNelj.s 			page 150


 8420 0655 00000000 		.4byte	0
 8421 0659 00000000 		.4byte	0
 8422              	.LLST43:
 8423 065d 00000000 		.4byte	.LVL118
 8424 0661 15000000 		.4byte	.LVL121-1
 8425 0665 0100     		.2byte	0x1
 8426 0667 53       		.byte	0x53
 8427 0668 15000000 		.4byte	.LVL121-1
 8428 066c 94000000 		.4byte	.LFE82
 8429 0670 0400     		.2byte	0x4
 8430 0672 F3       		.byte	0xf3
 8431 0673 01       		.uleb128 0x1
 8432 0674 53       		.byte	0x53
 8433 0675 9F       		.byte	0x9f
 8434 0676 00000000 		.4byte	0
 8435 067a 00000000 		.4byte	0
 8436              	.LLST44:
 8437 067e 00000000 		.4byte	.LVL118
 8438 0682 5C000000 		.4byte	.LVL129
 8439 0686 0200     		.2byte	0x2
 8440 0688 30       		.byte	0x30
 8441 0689 9F       		.byte	0x9f
 8442 068a 5C000000 		.4byte	.LVL129
 8443 068e 5E000000 		.4byte	.LVL130
 8444 0692 0100     		.2byte	0x1
 8445 0694 50       		.byte	0x50
 8446 0695 5E000000 		.4byte	.LVL130
 8447 0699 6A000000 		.4byte	.LVL133
 8448 069d 0100     		.2byte	0x1
 8449 069f 55       		.byte	0x55
 8450 06a0 72000000 		.4byte	.LVL134
 8451 06a4 94000000 		.4byte	.LFE82
 8452 06a8 0100     		.2byte	0x1
 8453 06aa 55       		.byte	0x55
 8454 06ab 00000000 		.4byte	0
 8455 06af 00000000 		.4byte	0
 8456              	.LLST45:
 8457 06b3 16000000 		.4byte	.LVL121
 8458 06b7 3E000000 		.4byte	.LVL126
 8459 06bb 0100     		.2byte	0x1
 8460 06bd 50       		.byte	0x50
 8461 06be 3E000000 		.4byte	.LVL126
 8462 06c2 94000000 		.4byte	.LFE82
 8463 06c6 0100     		.2byte	0x1
 8464 06c8 59       		.byte	0x59
 8465 06c9 00000000 		.4byte	0
 8466 06cd 00000000 		.4byte	0
 8467              	.LLST46:
 8468 06d1 20000000 		.4byte	.LVL122
 8469 06d5 26000000 		.4byte	.LVL123
 8470 06d9 0200     		.2byte	0x2
 8471 06db 30       		.byte	0x30
 8472 06dc 9F       		.byte	0x9f
 8473 06dd 26000000 		.4byte	.LVL123
 8474 06e1 34000000 		.4byte	.LVL125
 8475 06e5 0100     		.2byte	0x1
 8476 06e7 54       		.byte	0x54
ARM GAS  /tmp/cc4PNelj.s 			page 151


 8477 06e8 00000000 		.4byte	0
 8478 06ec 00000000 		.4byte	0
 8479              	.LLST47:
 8480 06f0 00000000 		.4byte	.LVL137
 8481 06f4 14000000 		.4byte	.LVL138
 8482 06f8 0100     		.2byte	0x1
 8483 06fa 50       		.byte	0x50
 8484 06fb 14000000 		.4byte	.LVL138
 8485 06ff 5C000000 		.4byte	.LFE83
 8486 0703 0400     		.2byte	0x4
 8487 0705 F3       		.byte	0xf3
 8488 0706 01       		.uleb128 0x1
 8489 0707 50       		.byte	0x50
 8490 0708 9F       		.byte	0x9f
 8491 0709 00000000 		.4byte	0
 8492 070d 00000000 		.4byte	0
 8493              	.LLST48:
 8494 0711 00000000 		.4byte	.LVL137
 8495 0715 34000000 		.4byte	.LVL141
 8496 0719 0200     		.2byte	0x2
 8497 071b 30       		.byte	0x30
 8498 071c 9F       		.byte	0x9f
 8499 071d 34000000 		.4byte	.LVL141
 8500 0721 36000000 		.4byte	.LVL142
 8501 0725 0100     		.2byte	0x1
 8502 0727 50       		.byte	0x50
 8503 0728 36000000 		.4byte	.LVL142
 8504 072c 5C000000 		.4byte	.LFE83
 8505 0730 0100     		.2byte	0x1
 8506 0732 55       		.byte	0x55
 8507 0733 00000000 		.4byte	0
 8508 0737 00000000 		.4byte	0
 8509              	.LLST49:
 8510 073b 00000000 		.4byte	.LVL146
 8511 073f 14000000 		.4byte	.LVL147
 8512 0743 0100     		.2byte	0x1
 8513 0745 50       		.byte	0x50
 8514 0746 14000000 		.4byte	.LVL147
 8515 074a 5C000000 		.4byte	.LFE84
 8516 074e 0400     		.2byte	0x4
 8517 0750 F3       		.byte	0xf3
 8518 0751 01       		.uleb128 0x1
 8519 0752 50       		.byte	0x50
 8520 0753 9F       		.byte	0x9f
 8521 0754 00000000 		.4byte	0
 8522 0758 00000000 		.4byte	0
 8523              	.LLST50:
 8524 075c 00000000 		.4byte	.LVL146
 8525 0760 34000000 		.4byte	.LVL150
 8526 0764 0200     		.2byte	0x2
 8527 0766 30       		.byte	0x30
 8528 0767 9F       		.byte	0x9f
 8529 0768 34000000 		.4byte	.LVL150
 8530 076c 36000000 		.4byte	.LVL151
 8531 0770 0100     		.2byte	0x1
 8532 0772 50       		.byte	0x50
 8533 0773 36000000 		.4byte	.LVL151
ARM GAS  /tmp/cc4PNelj.s 			page 152


 8534 0777 5C000000 		.4byte	.LFE84
 8535 077b 0100     		.2byte	0x1
 8536 077d 55       		.byte	0x55
 8537 077e 00000000 		.4byte	0
 8538 0782 00000000 		.4byte	0
 8539              	.LLST51:
 8540 0786 00000000 		.4byte	.LVL155
 8541 078a 14000000 		.4byte	.LVL156
 8542 078e 0100     		.2byte	0x1
 8543 0790 50       		.byte	0x50
 8544 0791 14000000 		.4byte	.LVL156
 8545 0795 5C000000 		.4byte	.LFE85
 8546 0799 0400     		.2byte	0x4
 8547 079b F3       		.byte	0xf3
 8548 079c 01       		.uleb128 0x1
 8549 079d 50       		.byte	0x50
 8550 079e 9F       		.byte	0x9f
 8551 079f 00000000 		.4byte	0
 8552 07a3 00000000 		.4byte	0
 8553              	.LLST52:
 8554 07a7 00000000 		.4byte	.LVL155
 8555 07ab 34000000 		.4byte	.LVL159
 8556 07af 0200     		.2byte	0x2
 8557 07b1 30       		.byte	0x30
 8558 07b2 9F       		.byte	0x9f
 8559 07b3 34000000 		.4byte	.LVL159
 8560 07b7 36000000 		.4byte	.LVL160
 8561 07bb 0100     		.2byte	0x1
 8562 07bd 50       		.byte	0x50
 8563 07be 36000000 		.4byte	.LVL160
 8564 07c2 5C000000 		.4byte	.LFE85
 8565 07c6 0100     		.2byte	0x1
 8566 07c8 55       		.byte	0x55
 8567 07c9 00000000 		.4byte	0
 8568 07cd 00000000 		.4byte	0
 8569              	.LLST53:
 8570 07d1 00000000 		.4byte	.LVL164
 8571 07d5 12000000 		.4byte	.LVL165
 8572 07d9 0100     		.2byte	0x1
 8573 07db 50       		.byte	0x50
 8574 07dc 12000000 		.4byte	.LVL165
 8575 07e0 64000000 		.4byte	.LFE86
 8576 07e4 0100     		.2byte	0x1
 8577 07e6 56       		.byte	0x56
 8578 07e7 00000000 		.4byte	0
 8579 07eb 00000000 		.4byte	0
 8580              	.LLST54:
 8581 07ef 00000000 		.4byte	.LVL164
 8582 07f3 1F000000 		.4byte	.LVL166-1
 8583 07f7 0100     		.2byte	0x1
 8584 07f9 51       		.byte	0x51
 8585 07fa 1F000000 		.4byte	.LVL166-1
 8586 07fe 64000000 		.4byte	.LFE86
 8587 0802 0400     		.2byte	0x4
 8588 0804 F3       		.byte	0xf3
 8589 0805 01       		.uleb128 0x1
 8590 0806 51       		.byte	0x51
ARM GAS  /tmp/cc4PNelj.s 			page 153


 8591 0807 9F       		.byte	0x9f
 8592 0808 00000000 		.4byte	0
 8593 080c 00000000 		.4byte	0
 8594              	.LLST55:
 8595 0810 00000000 		.4byte	.LVL164
 8596 0814 3A000000 		.4byte	.LVL168
 8597 0818 0200     		.2byte	0x2
 8598 081a 30       		.byte	0x30
 8599 081b 9F       		.byte	0x9f
 8600 081c 3A000000 		.4byte	.LVL168
 8601 0820 3C000000 		.4byte	.LVL169
 8602 0824 0100     		.2byte	0x1
 8603 0826 50       		.byte	0x50
 8604 0827 3C000000 		.4byte	.LVL169
 8605 082b 64000000 		.4byte	.LFE86
 8606 082f 0100     		.2byte	0x1
 8607 0831 55       		.byte	0x55
 8608 0832 00000000 		.4byte	0
 8609 0836 00000000 		.4byte	0
 8610              	.LLST56:
 8611 083a 00000000 		.4byte	.LVL173
 8612 083e 36000000 		.4byte	.LVL175
 8613 0842 0200     		.2byte	0x2
 8614 0844 30       		.byte	0x30
 8615 0845 9F       		.byte	0x9f
 8616 0846 00000000 		.4byte	0
 8617 084a 00000000 		.4byte	0
 8618              	.LLST57:
 8619 084e 36000000 		.4byte	.LVL175
 8620 0852 BA000000 		.4byte	.LVL186
 8621 0856 0100     		.2byte	0x1
 8622 0858 56       		.byte	0x56
 8623 0859 BA000000 		.4byte	.LVL186
 8624 085d BC000000 		.4byte	.LVL187
 8625 0861 0400     		.2byte	0x4
 8626 0863 76       		.byte	0x76
 8627 0864 947F     		.sleb128 -108
 8628 0866 9F       		.byte	0x9f
 8629 0867 E0000000 		.4byte	.LVL189
 8630 086b 06010000 		.4byte	.LFE75
 8631 086f 0100     		.2byte	0x1
 8632 0871 56       		.byte	0x56
 8633 0872 00000000 		.4byte	0
 8634 0876 00000000 		.4byte	0
 8635              	.LLST58:
 8636 087a 00000000 		.4byte	.LVL190
 8637 087e 0C000000 		.4byte	.LVL191
 8638 0882 0100     		.2byte	0x1
 8639 0884 50       		.byte	0x50
 8640 0885 0C000000 		.4byte	.LVL191
 8641 0889 34000000 		.4byte	.LVL195
 8642 088d 0100     		.2byte	0x1
 8643 088f 55       		.byte	0x55
 8644 0890 34000000 		.4byte	.LVL195
 8645 0894 41000000 		.4byte	.LVL197-1
 8646 0898 0100     		.2byte	0x1
 8647 089a 50       		.byte	0x50
ARM GAS  /tmp/cc4PNelj.s 			page 154


 8648 089b 41000000 		.4byte	.LVL197-1
 8649 089f 5C000000 		.4byte	.LVL199
 8650 08a3 0100     		.2byte	0x1
 8651 08a5 55       		.byte	0x55
 8652 08a6 5C000000 		.4byte	.LVL199
 8653 08aa 61000000 		.4byte	.LVL201-1
 8654 08ae 0100     		.2byte	0x1
 8655 08b0 50       		.byte	0x50
 8656 08b1 61000000 		.4byte	.LVL201-1
 8657 08b5 74000000 		.4byte	.LVL203
 8658 08b9 0100     		.2byte	0x1
 8659 08bb 55       		.byte	0x55
 8660 08bc 74000000 		.4byte	.LVL203
 8661 08c0 77000000 		.4byte	.LVL204-1
 8662 08c4 0100     		.2byte	0x1
 8663 08c6 50       		.byte	0x50
 8664 08c7 77000000 		.4byte	.LVL204-1
 8665 08cb 78000000 		.4byte	.LVL204
 8666 08cf 0400     		.2byte	0x4
 8667 08d1 F3       		.byte	0xf3
 8668 08d2 01       		.uleb128 0x1
 8669 08d3 50       		.byte	0x50
 8670 08d4 9F       		.byte	0x9f
 8671 08d5 78000000 		.4byte	.LVL204
 8672 08d9 83000000 		.4byte	.LVL206-1
 8673 08dd 0100     		.2byte	0x1
 8674 08df 50       		.byte	0x50
 8675 08e0 83000000 		.4byte	.LVL206-1
 8676 08e4 86000000 		.4byte	.LFE89
 8677 08e8 0100     		.2byte	0x1
 8678 08ea 55       		.byte	0x55
 8679 08eb 00000000 		.4byte	0
 8680 08ef 00000000 		.4byte	0
 8681              	.LLST59:
 8682 08f3 00000000 		.4byte	.LVL190
 8683 08f7 0C000000 		.4byte	.LVL191
 8684 08fb 0100     		.2byte	0x1
 8685 08fd 51       		.byte	0x51
 8686 08fe 0C000000 		.4byte	.LVL191
 8687 0902 74000000 		.4byte	.LVL203
 8688 0906 0100     		.2byte	0x1
 8689 0908 57       		.byte	0x57
 8690 0909 74000000 		.4byte	.LVL203
 8691 090d 78000000 		.4byte	.LVL204
 8692 0911 0400     		.2byte	0x4
 8693 0913 F3       		.byte	0xf3
 8694 0914 01       		.uleb128 0x1
 8695 0915 51       		.byte	0x51
 8696 0916 9F       		.byte	0x9f
 8697 0917 78000000 		.4byte	.LVL204
 8698 091b 7C000000 		.4byte	.LVL205
 8699 091f 0100     		.2byte	0x1
 8700 0921 51       		.byte	0x51
 8701 0922 7C000000 		.4byte	.LVL205
 8702 0926 86000000 		.4byte	.LFE89
 8703 092a 0100     		.2byte	0x1
 8704 092c 57       		.byte	0x57
ARM GAS  /tmp/cc4PNelj.s 			page 155


 8705 092d 00000000 		.4byte	0
 8706 0931 00000000 		.4byte	0
 8707              	.LLST60:
 8708 0935 00000000 		.4byte	.LVL190
 8709 0939 0C000000 		.4byte	.LVL191
 8710 093d 0100     		.2byte	0x1
 8711 093f 52       		.byte	0x52
 8712 0940 0C000000 		.4byte	.LVL191
 8713 0944 78000000 		.4byte	.LVL204
 8714 0948 0400     		.2byte	0x4
 8715 094a F3       		.byte	0xf3
 8716 094b 01       		.uleb128 0x1
 8717 094c 52       		.byte	0x52
 8718 094d 9F       		.byte	0x9f
 8719 094e 78000000 		.4byte	.LVL204
 8720 0952 83000000 		.4byte	.LVL206-1
 8721 0956 0100     		.2byte	0x1
 8722 0958 52       		.byte	0x52
 8723 0959 83000000 		.4byte	.LVL206-1
 8724 095d 86000000 		.4byte	.LFE89
 8725 0961 0400     		.2byte	0x4
 8726 0963 F3       		.byte	0xf3
 8727 0964 01       		.uleb128 0x1
 8728 0965 52       		.byte	0x52
 8729 0966 9F       		.byte	0x9f
 8730 0967 00000000 		.4byte	0
 8731 096b 00000000 		.4byte	0
 8732              	.LLST61:
 8733 096f 00000000 		.4byte	.LVL190
 8734 0973 0C000000 		.4byte	.LVL191
 8735 0977 0200     		.2byte	0x2
 8736 0979 30       		.byte	0x30
 8737 097a 9F       		.byte	0x9f
 8738 097b 0C000000 		.4byte	.LVL191
 8739 097f 1A000000 		.4byte	.LVL192
 8740 0983 0100     		.2byte	0x1
 8741 0985 54       		.byte	0x54
 8742 0986 1A000000 		.4byte	.LVL192
 8743 098a 1E000000 		.4byte	.LVL193
 8744 098e 0300     		.2byte	0x3
 8745 0990 74       		.byte	0x74
 8746 0991 7F       		.sleb128 -1
 8747 0992 9F       		.byte	0x9f
 8748 0993 1E000000 		.4byte	.LVL193
 8749 0997 30000000 		.4byte	.LVL194
 8750 099b 0100     		.2byte	0x1
 8751 099d 54       		.byte	0x54
 8752 099e 30000000 		.4byte	.LVL194
 8753 09a2 34000000 		.4byte	.LVL195
 8754 09a6 0200     		.2byte	0x2
 8755 09a8 30       		.byte	0x30
 8756 09a9 9F       		.byte	0x9f
 8757 09aa 34000000 		.4byte	.LVL195
 8758 09ae 3E000000 		.4byte	.LVL196
 8759 09b2 0100     		.2byte	0x1
 8760 09b4 54       		.byte	0x54
 8761 09b5 3E000000 		.4byte	.LVL196
ARM GAS  /tmp/cc4PNelj.s 			page 156


 8762 09b9 42000000 		.4byte	.LVL197
 8763 09bd 0300     		.2byte	0x3
 8764 09bf 74       		.byte	0x74
 8765 09c0 7F       		.sleb128 -1
 8766 09c1 9F       		.byte	0x9f
 8767 09c2 42000000 		.4byte	.LVL197
 8768 09c6 5E000000 		.4byte	.LVL200
 8769 09ca 0100     		.2byte	0x1
 8770 09cc 54       		.byte	0x54
 8771 09cd 5E000000 		.4byte	.LVL200
 8772 09d1 62000000 		.4byte	.LVL201
 8773 09d5 0300     		.2byte	0x3
 8774 09d7 74       		.byte	0x74
 8775 09d8 7F       		.sleb128 -1
 8776 09d9 9F       		.byte	0x9f
 8777 09da 62000000 		.4byte	.LVL201
 8778 09de 66000000 		.4byte	.LVL202
 8779 09e2 0100     		.2byte	0x1
 8780 09e4 54       		.byte	0x54
 8781 09e5 78000000 		.4byte	.LVL204
 8782 09e9 86000000 		.4byte	.LFE89
 8783 09ed 0200     		.2byte	0x2
 8784 09ef 30       		.byte	0x30
 8785 09f0 9F       		.byte	0x9f
 8786 09f1 00000000 		.4byte	0
 8787 09f5 00000000 		.4byte	0
 8788              	.LLST62:
 8789 09f9 00000000 		.4byte	.LVL207
 8790 09fd 32000000 		.4byte	.LVL208
 8791 0a01 0100     		.2byte	0x1
 8792 0a03 50       		.byte	0x50
 8793 0a04 32000000 		.4byte	.LVL208
 8794 0a08 18010000 		.4byte	.LFE71
 8795 0a0c 0400     		.2byte	0x4
 8796 0a0e F3       		.byte	0xf3
 8797 0a0f 01       		.uleb128 0x1
 8798 0a10 50       		.byte	0x50
 8799 0a11 9F       		.byte	0x9f
 8800 0a12 00000000 		.4byte	0
 8801 0a16 00000000 		.4byte	0
 8802              	.LLST63:
 8803 0a1a 42000000 		.4byte	.LVL209
 8804 0a1e 46000000 		.4byte	.LVL210
 8805 0a22 0200     		.2byte	0x2
 8806 0a24 30       		.byte	0x30
 8807 0a25 9F       		.byte	0x9f
 8808 0a26 46000000 		.4byte	.LVL210
 8809 0a2a 50000000 		.4byte	.LVL212
 8810 0a2e 0100     		.2byte	0x1
 8811 0a30 54       		.byte	0x54
 8812 0a31 50000000 		.4byte	.LVL212
 8813 0a35 5C000000 		.4byte	.LVL213
 8814 0a39 0300     		.2byte	0x3
 8815 0a3b 74       		.byte	0x74
 8816 0a3c 7F       		.sleb128 -1
 8817 0a3d 9F       		.byte	0x9f
 8818 0a3e 5C000000 		.4byte	.LVL213
ARM GAS  /tmp/cc4PNelj.s 			page 157


 8819 0a42 66000000 		.4byte	.LVL214
 8820 0a46 0100     		.2byte	0x1
 8821 0a48 54       		.byte	0x54
 8822 0a49 86000000 		.4byte	.LVL216
 8823 0a4d 90000000 		.4byte	.LVL217
 8824 0a51 0200     		.2byte	0x2
 8825 0a53 30       		.byte	0x30
 8826 0a54 9F       		.byte	0x9f
 8827 0a55 90000000 		.4byte	.LVL217
 8828 0a59 00010000 		.4byte	.LVL226
 8829 0a5d 0100     		.2byte	0x1
 8830 0a5f 55       		.byte	0x55
 8831 0a60 00000000 		.4byte	0
 8832 0a64 00000000 		.4byte	0
 8833              	.LLST64:
 8834 0a68 00000000 		.4byte	.LVL228
 8835 0a6c 1D000000 		.4byte	.LVL231-1
 8836 0a70 0100     		.2byte	0x1
 8837 0a72 50       		.byte	0x50
 8838 0a73 1D000000 		.4byte	.LVL231-1
 8839 0a77 46010000 		.4byte	.LFE90
 8840 0a7b 0100     		.2byte	0x1
 8841 0a7d 55       		.byte	0x55
 8842 0a7e 00000000 		.4byte	0
 8843 0a82 00000000 		.4byte	0
 8844              	.LLST65:
 8845 0a86 00000000 		.4byte	.LVL228
 8846 0a8a 0E000000 		.4byte	.LVL229
 8847 0a8e 0100     		.2byte	0x1
 8848 0a90 51       		.byte	0x51
 8849 0a91 0E000000 		.4byte	.LVL229
 8850 0a95 46010000 		.4byte	.LFE90
 8851 0a99 0400     		.2byte	0x4
 8852 0a9b F3       		.byte	0xf3
 8853 0a9c 01       		.uleb128 0x1
 8854 0a9d 51       		.byte	0x51
 8855 0a9e 9F       		.byte	0x9f
 8856 0a9f 00000000 		.4byte	0
 8857 0aa3 00000000 		.4byte	0
 8858              	.LLST66:
 8859 0aa7 00000000 		.4byte	.LVL228
 8860 0aab 14000000 		.4byte	.LVL230
 8861 0aaf 0100     		.2byte	0x1
 8862 0ab1 52       		.byte	0x52
 8863 0ab2 14000000 		.4byte	.LVL230
 8864 0ab6 46010000 		.4byte	.LFE90
 8865 0aba 0400     		.2byte	0x4
 8866 0abc F3       		.byte	0xf3
 8867 0abd 01       		.uleb128 0x1
 8868 0abe 52       		.byte	0x52
 8869 0abf 9F       		.byte	0x9f
 8870 0ac0 00000000 		.4byte	0
 8871 0ac4 00000000 		.4byte	0
 8872              	.LLST67:
 8873 0ac8 3C000000 		.4byte	.LVL232
 8874 0acc 4A000000 		.4byte	.LVL233
 8875 0ad0 0200     		.2byte	0x2
ARM GAS  /tmp/cc4PNelj.s 			page 158


 8876 0ad2 30       		.byte	0x30
 8877 0ad3 9F       		.byte	0x9f
 8878 0ad4 4A000000 		.4byte	.LVL233
 8879 0ad8 4C000000 		.4byte	.LVL234
 8880 0adc 0100     		.2byte	0x1
 8881 0ade 56       		.byte	0x56
 8882 0adf 4C000000 		.4byte	.LVL234
 8883 0ae3 F8000000 		.4byte	.LVL243
 8884 0ae7 0300     		.2byte	0x3
 8885 0ae9 76       		.byte	0x76
 8886 0aea 7F       		.sleb128 -1
 8887 0aeb 9F       		.byte	0x9f
 8888 0aec F8000000 		.4byte	.LVL243
 8889 0af0 02010000 		.4byte	.LVL244
 8890 0af4 0100     		.2byte	0x1
 8891 0af6 56       		.byte	0x56
 8892 0af7 06010000 		.4byte	.LVL245
 8893 0afb 46010000 		.4byte	.LFE90
 8894 0aff 0300     		.2byte	0x3
 8895 0b01 76       		.byte	0x76
 8896 0b02 7F       		.sleb128 -1
 8897 0b03 9F       		.byte	0x9f
 8898 0b04 00000000 		.4byte	0
 8899 0b08 00000000 		.4byte	0
 8900              		.section	.debug_aranges,"",%progbits
 8901 0000 F4000000 		.4byte	0xf4
 8902 0004 0200     		.2byte	0x2
 8903 0006 00000000 		.4byte	.Ldebug_info0
 8904 000a 04       		.byte	0x4
 8905 000b 00       		.byte	0
 8906 000c 0000     		.2byte	0
 8907 000e 0000     		.2byte	0
 8908 0010 00000000 		.4byte	.LFB63
 8909 0014 24000000 		.4byte	.LFE63-.LFB63
 8910 0018 00000000 		.4byte	.LFB64
 8911 001c 20000000 		.4byte	.LFE64-.LFB64
 8912 0020 00000000 		.4byte	.LFB65
 8913 0024 20000000 		.4byte	.LFE65-.LFB65
 8914 0028 00000000 		.4byte	.LFB66
 8915 002c 1A000000 		.4byte	.LFE66-.LFB66
 8916 0030 00000000 		.4byte	.LFB67
 8917 0034 0E000000 		.4byte	.LFE67-.LFB67
 8918 0038 00000000 		.4byte	.LFB68
 8919 003c 76000000 		.4byte	.LFE68-.LFB68
 8920 0040 00000000 		.4byte	.LFB69
 8921 0044 1C000000 		.4byte	.LFE69-.LFB69
 8922 0048 00000000 		.4byte	.LFB70
 8923 004c 3C000000 		.4byte	.LFE70-.LFB70
 8924 0050 00000000 		.4byte	.LFB72
 8925 0054 6A000000 		.4byte	.LFE72-.LFB72
 8926 0058 00000000 		.4byte	.LFB74
 8927 005c 4A000000 		.4byte	.LFE74-.LFB74
 8928 0060 00000000 		.4byte	.LFB87
 8929 0064 4C000000 		.4byte	.LFE87-.LFB87
 8930 0068 00000000 		.4byte	.LFB88
 8931 006c 98000000 		.4byte	.LFE88-.LFB88
 8932 0070 00000000 		.4byte	.LFB76
ARM GAS  /tmp/cc4PNelj.s 			page 159


 8933 0074 64000000 		.4byte	.LFE76-.LFB76
 8934 0078 00000000 		.4byte	.LFB77
 8935 007c 62000000 		.4byte	.LFE77-.LFB77
 8936 0080 00000000 		.4byte	.LFB78
 8937 0084 64000000 		.4byte	.LFE78-.LFB78
 8938 0088 00000000 		.4byte	.LFB79
 8939 008c 5C000000 		.4byte	.LFE79-.LFB79
 8940 0090 00000000 		.4byte	.LFB80
 8941 0094 64000000 		.4byte	.LFE80-.LFB80
 8942 0098 00000000 		.4byte	.LFB73
 8943 009c 7A000000 		.4byte	.LFE73-.LFB73
 8944 00a0 00000000 		.4byte	.LFB81
 8945 00a4 64000000 		.4byte	.LFE81-.LFB81
 8946 00a8 00000000 		.4byte	.LFB82
 8947 00ac 94000000 		.4byte	.LFE82-.LFB82
 8948 00b0 00000000 		.4byte	.LFB83
 8949 00b4 5C000000 		.4byte	.LFE83-.LFB83
 8950 00b8 00000000 		.4byte	.LFB84
 8951 00bc 5C000000 		.4byte	.LFE84-.LFB84
 8952 00c0 00000000 		.4byte	.LFB85
 8953 00c4 5C000000 		.4byte	.LFE85-.LFB85
 8954 00c8 00000000 		.4byte	.LFB86
 8955 00cc 64000000 		.4byte	.LFE86-.LFB86
 8956 00d0 00000000 		.4byte	.LFB75
 8957 00d4 06010000 		.4byte	.LFE75-.LFB75
 8958 00d8 00000000 		.4byte	.LFB89
 8959 00dc 86000000 		.4byte	.LFE89-.LFB89
 8960 00e0 00000000 		.4byte	.LFB71
 8961 00e4 18010000 		.4byte	.LFE71-.LFB71
 8962 00e8 00000000 		.4byte	.LFB90
 8963 00ec 46010000 		.4byte	.LFE90-.LFB90
 8964 00f0 00000000 		.4byte	0
 8965 00f4 00000000 		.4byte	0
 8966              		.section	.debug_ranges,"",%progbits
 8967              	.Ldebug_ranges0:
 8968 0000 00000000 		.4byte	.LFB63
 8969 0004 24000000 		.4byte	.LFE63
 8970 0008 00000000 		.4byte	.LFB64
 8971 000c 20000000 		.4byte	.LFE64
 8972 0010 00000000 		.4byte	.LFB65
 8973 0014 20000000 		.4byte	.LFE65
 8974 0018 00000000 		.4byte	.LFB66
 8975 001c 1A000000 		.4byte	.LFE66
 8976 0020 00000000 		.4byte	.LFB67
 8977 0024 0E000000 		.4byte	.LFE67
 8978 0028 00000000 		.4byte	.LFB68
 8979 002c 76000000 		.4byte	.LFE68
 8980 0030 00000000 		.4byte	.LFB69
 8981 0034 1C000000 		.4byte	.LFE69
 8982 0038 00000000 		.4byte	.LFB70
 8983 003c 3C000000 		.4byte	.LFE70
 8984 0040 00000000 		.4byte	.LFB72
 8985 0044 6A000000 		.4byte	.LFE72
 8986 0048 00000000 		.4byte	.LFB74
 8987 004c 4A000000 		.4byte	.LFE74
 8988 0050 00000000 		.4byte	.LFB87
 8989 0054 4C000000 		.4byte	.LFE87
ARM GAS  /tmp/cc4PNelj.s 			page 160


 8990 0058 00000000 		.4byte	.LFB88
 8991 005c 98000000 		.4byte	.LFE88
 8992 0060 00000000 		.4byte	.LFB76
 8993 0064 64000000 		.4byte	.LFE76
 8994 0068 00000000 		.4byte	.LFB77
 8995 006c 62000000 		.4byte	.LFE77
 8996 0070 00000000 		.4byte	.LFB78
 8997 0074 64000000 		.4byte	.LFE78
 8998 0078 00000000 		.4byte	.LFB79
 8999 007c 5C000000 		.4byte	.LFE79
 9000 0080 00000000 		.4byte	.LFB80
 9001 0084 64000000 		.4byte	.LFE80
 9002 0088 00000000 		.4byte	.LFB73
 9003 008c 7A000000 		.4byte	.LFE73
 9004 0090 00000000 		.4byte	.LFB81
 9005 0094 64000000 		.4byte	.LFE81
 9006 0098 00000000 		.4byte	.LFB82
 9007 009c 94000000 		.4byte	.LFE82
 9008 00a0 00000000 		.4byte	.LFB83
 9009 00a4 5C000000 		.4byte	.LFE83
 9010 00a8 00000000 		.4byte	.LFB84
 9011 00ac 5C000000 		.4byte	.LFE84
 9012 00b0 00000000 		.4byte	.LFB85
 9013 00b4 5C000000 		.4byte	.LFE85
 9014 00b8 00000000 		.4byte	.LFB86
 9015 00bc 64000000 		.4byte	.LFE86
 9016 00c0 00000000 		.4byte	.LFB75
 9017 00c4 06010000 		.4byte	.LFE75
 9018 00c8 00000000 		.4byte	.LFB89
 9019 00cc 86000000 		.4byte	.LFE89
 9020 00d0 00000000 		.4byte	.LFB71
 9021 00d4 18010000 		.4byte	.LFE71
 9022 00d8 00000000 		.4byte	.LFB90
 9023 00dc 46010000 		.4byte	.LFE90
 9024 00e0 00000000 		.4byte	0
 9025 00e4 00000000 		.4byte	0
 9026              		.section	.debug_line,"",%progbits
 9027              	.Ldebug_line0:
 9028 0000 43070000 		.section	.debug_str,"MS",%progbits,1
 9028      0200DF02 
 9028      00000201 
 9028      FB0E0D00 
 9028      01010101 
 9029              	.LASF54:
 9030 0000 54687265 		.ascii	"ThreadsList\000"
 9030      6164734C 
 9030      69737400 
 9031              	.LASF230:
 9032 000c 76657849 		.ascii	"vexImeInit\000"
 9032      6D65496E 
 9032      697400
 9033              	.LASF219:
 9034 0017 64656275 		.ascii	"debug\000"
 9034      6700
 9035              	.LASF6:
 9036 001d 73686F72 		.ascii	"short int\000"
 9036      7420696E 
ARM GAS  /tmp/cc4PNelj.s 			page 161


 9036      7400
 9037              	.LASF45:
 9038 0027 705F7469 		.ascii	"p_time\000"
 9038      6D6500
 9039              	.LASF55:
 9040 002e 72656761 		.ascii	"regarm_t\000"
 9040      726D5F74 
 9040      00
 9041              	.LASF36:
 9042 0037 705F7072 		.ascii	"p_prio\000"
 9042      696F00
 9043              	.LASF167:
 9044 003e 6B566578 		.ascii	"kVexMotor_None\000"
 9044      4D6F746F 
 9044      725F4E6F 
 9044      6E6500
 9045              	.LASF142:
 9046 004d 646D6172 		.ascii	"dmarx\000"
 9046      7800
 9047              	.LASF68:
 9048 0053 6D5F6F77 		.ascii	"m_owner\000"
 9048      6E657200 
 9049              	.LASF271:
 9050 005b 63684865 		.ascii	"chHeapFree\000"
 9050      61704672 
 9050      656500
 9051              	.LASF198:
 9052 0066 64657669 		.ascii	"deviceid\000"
 9052      63656964 
 9052      00
 9053              	.LASF116:
 9054 006f 4932435F 		.ascii	"I2C_ACTIVE_RX\000"
 9054      41435449 
 9054      56455F52 
 9054      5800
 9055              	.LASF265:
 9056 007d 6932634D 		.ascii	"i2cMasterTransmitTimeout\000"
 9056      61737465 
 9056      72547261 
 9056      6E736D69 
 9056      7454696D 
 9057              	.LASF76:
 9058 0096 6E657874 		.ascii	"next\000"
 9058      00
 9059              	.LASF133:
 9060 009b 49324344 		.ascii	"I2CDriver\000"
 9060      72697665 
 9060      7200
 9061              	.LASF124:
 9062 00a5 6932636F 		.ascii	"i2copmode_t\000"
 9062      706D6F64 
 9062      655F7400 
 9063              	.LASF247:
 9064 00b1 76657849 		.ascii	"vexIMEEnableTermination\000"
 9064      4D45456E 
 9064      61626C65 
 9064      5465726D 
ARM GAS  /tmp/cc4PNelj.s 			page 162


 9064      696E6174 
 9065              	.LASF85:
 9066 00c9 42617365 		.ascii	"BaseSequentialStreamVMT\000"
 9066      53657175 
 9066      656E7469 
 9066      616C5374 
 9066      7265616D 
 9067              	.LASF144:
 9068 00e1 76657853 		.ascii	"vexStream\000"
 9068      74726561 
 9068      6D00
 9069              	.LASF46:
 9070 00eb 705F7761 		.ascii	"p_waiting\000"
 9070      6974696E 
 9070      6700
 9071              	.LASF212:
 9072 00f5 6572726F 		.ascii	"error_lockup\000"
 9072      725F6C6F 
 9072      636B7570 
 9072      00
 9073              	.LASF9:
 9074 0102 5F5F696E 		.ascii	"__int32_t\000"
 9074      7433325F 
 9074      7400
 9075              	.LASF77:
 9076 010c 68656170 		.ascii	"heap\000"
 9076      00
 9077              	.LASF178:
 9078 0111 6B566578 		.ascii	"kVexMotorNum\000"
 9078      4D6F746F 
 9078      724E756D 
 9078      00
 9079              	.LASF235:
 9080 011e 76657849 		.ascii	"vexIMEGetVersion\000"
 9080      4D454765 
 9080      74566572 
 9080      73696F6E 
 9080      00
 9081              	.LASF91:
 9082 012f 434D4152 		.ascii	"CMAR\000"
 9082      00
 9083              	.LASF82:
 9084 0134 77746F62 		.ascii	"wtobjp\000"
 9084      6A7000
 9085              	.LASF228:
 9086 013b 6D6F746F 		.ascii	"motor\000"
 9086      7200
 9087              	.LASF220:
 9088 0141 696D6573 		.ascii	"imes\000"
 9088      00
 9089              	.LASF239:
 9090 0146 76657849 		.ascii	"vexIMEGetDeviceId\000"
 9090      4D454765 
 9090      74446576 
 9090      69636549 
 9090      6400
 9091              	.LASF92:
ARM GAS  /tmp/cc4PNelj.s 			page 163


 9092 0158 444D415F 		.ascii	"DMA_Channel_TypeDef\000"
 9092      4368616E 
 9092      6E656C5F 
 9092      54797065 
 9092      44656600 
 9093              	.LASF232:
 9094 016c 76657849 		.ascii	"vexIMEResetAll\000"
 9094      4D455265 
 9094      73657441 
 9094      6C6C00
 9095              	.LASF257:
 9096 017b 77615665 		.ascii	"waVexImeTask\000"
 9096      78496D65 
 9096      5461736B 
 9096      00
 9097              	.LASF74:
 9098 0188 685F6672 		.ascii	"h_free\000"
 9098      656500
 9099              	.LASF242:
 9100 018f 76657849 		.ascii	"vexIMEUpdateCounts\000"
 9100      4D455570 
 9100      64617465 
 9100      436F756E 
 9100      747300
 9101              	.LASF195:
 9102 01a2 6D6F746F 		.ascii	"motor_index\000"
 9102      725F696E 
 9102      64657800 
 9103              	.LASF204:
 9104 01ae 6F6C645F 		.ascii	"old_count\000"
 9104      636F756E 
 9104      7400
 9105              	.LASF210:
 9106 01b8 69326370 		.ascii	"i2cp\000"
 9106      00
 9107              	.LASF89:
 9108 01bd 434E4454 		.ascii	"CNDTR\000"
 9108      5200
 9109              	.LASF250:
 9110 01c3 76657849 		.ascii	"vexIMEFindEncoders\000"
 9110      4D454669 
 9110      6E64456E 
 9110      636F6465 
 9110      727300
 9111              	.LASF155:
 9112 01d6 6B566578 		.ascii	"kVexDigital_10\000"
 9112      44696769 
 9112      74616C5F 
 9112      313000
 9113              	.LASF1:
 9114 01e5 7369676E 		.ascii	"signed char\000"
 9114      65642063 
 9114      68617200 
 9115              	.LASF157:
 9116 01f1 6B566578 		.ascii	"kVexDigital_12\000"
 9116      44696769 
 9116      74616C5F 
ARM GAS  /tmp/cc4PNelj.s 			page 164


 9116      313200
 9117              	.LASF143:
 9118 0200 646D6174 		.ascii	"dmatx\000"
 9118      7800
 9119              	.LASF236:
 9120 0206 64657669 		.ascii	"device\000"
 9120      636500
 9121              	.LASF22:
 9122 020d 75696E74 		.ascii	"uint32_t\000"
 9122      33325F74 
 9122      00
 9123              	.LASF121:
 9124 0216 4F504D4F 		.ascii	"OPMODE_I2C\000"
 9124      44455F49 
 9124      324300
 9125              	.LASF234:
 9126 0221 76657849 		.ascii	"vexIMEHandleErrors\000"
 9126      4D454861 
 9126      6E646C65 
 9126      4572726F 
 9126      727300
 9127              	.LASF115:
 9128 0234 4932435F 		.ascii	"I2C_ACTIVE_TX\000"
 9128      41435449 
 9128      56455F54 
 9128      5800
 9129              	.LASF208:
 9130 0242 696D6544 		.ascii	"imeData\000"
 9130      61746100 
 9131              	.LASF31:
 9132 024a 6576656E 		.ascii	"eventmask_t\000"
 9132      746D6173 
 9132      6B5F7400 
 9133              	.LASF60:
 9134 0256 725F7072 		.ascii	"r_prio\000"
 9134      696F00
 9135              	.LASF107:
 9136 025d 69666372 		.ascii	"ifcr\000"
 9136      00
 9137              	.LASF255:
 9138 0262 696D6549 		.ascii	"imeI2cConfig\000"
 9138      3263436F 
 9138      6E666967 
 9138      00
 9139              	.LASF137:
 9140 026f 6D757465 		.ascii	"mutex\000"
 9140      7800
 9141              	.LASF158:
 9142 0275 6B566578 		.ascii	"kVexDigital_Num\000"
 9142      44696769 
 9142      74616C5F 
 9142      4E756D00 
 9143              	.LASF29:
 9144 0285 74707269 		.ascii	"tprio_t\000"
 9144      6F5F7400 
 9145              	.LASF200:
 9146 028d 636F756E 		.ascii	"count\000"
ARM GAS  /tmp/cc4PNelj.s 			page 165


 9146      7400
 9147              	.LASF177:
 9148 0293 6B566578 		.ascii	"kVexMotor_10\000"
 9148      4D6F746F 
 9148      725F3130 
 9148      00
 9149              	.LASF166:
 9150 02a0 74566578 		.ascii	"tVexMotorType\000"
 9150      4D6F746F 
 9150      72547970 
 9150      6500
 9151              	.LASF84:
 9152 02ae 7466756E 		.ascii	"tfunc_t\000"
 9152      635F7400 
 9153              	.LASF15:
 9154 02b6 6C6F6E67 		.ascii	"long long unsigned int\000"
 9154      206C6F6E 
 9154      6720756E 
 9154      7369676E 
 9154      65642069 
 9155              	.LASF252:
 9156 02cd 76657849 		.ascii	"vexIMEDebug\000"
 9156      4D454465 
 9156      62756700 
 9157              	.LASF201:
 9158 02d9 6F666673 		.ascii	"offset\000"
 9158      657400
 9159              	.LASF102:
 9160 02e0 52455345 		.ascii	"RESERVED7\000"
 9160      52564544 
 9160      3700
 9161              	.LASF216:
 9162 02ea 6572726F 		.ascii	"error_tim\000"
 9162      725F7469 
 9162      6D00
 9163              	.LASF197:
 9164 02f4 76656E64 		.ascii	"vendor\000"
 9164      6F7200
 9165              	.LASF110:
 9166 02fb 76656374 		.ascii	"vector\000"
 9166      6F7200
 9167              	.LASF260:
 9168 0302 76657849 		.ascii	"vexImeGetCount\000"
 9168      6D654765 
 9168      74436F75 
 9168      6E7400
 9169              	.LASF273:
 9170 0311 474E5520 		.ascii	"GNU C 4.8.2 -mcpu=cortex-m3 -mno-thumb-interwork -m"
 9170      4320342E 
 9170      382E3220 
 9170      2D6D6370 
 9170      753D636F 
 9171 0344 7468756D 		.ascii	"thumb -ggdb -O2 -fomit-frame-pointer -falign-functi"
 9171      62202D67 
 9171      67646220 
 9171      2D4F3220 
 9171      2D666F6D 
ARM GAS  /tmp/cc4PNelj.s 			page 166


 9172 0377 6F6E733D 		.ascii	"ons=16 -ffunction-sections -fdata-sections -fno-com"
 9172      3136202D 
 9172      6666756E 
 9172      6374696F 
 9172      6E2D7365 
 9173 03aa 6D6F6E00 		.ascii	"mon\000"
 9174              	.LASF118:
 9175 03ae 69326373 		.ascii	"i2cstate_t\000"
 9175      74617465 
 9175      5F7400
 9176              	.LASF7:
 9177 03b9 5F5F7569 		.ascii	"__uint16_t\000"
 9177      6E743136 
 9177      5F7400
 9178              	.LASF229:
 9179 03c4 76657849 		.ascii	"vexImeMotorGetCount\000"
 9179      6D654D6F 
 9179      746F7247 
 9179      6574436F 
 9179      756E7400 
 9180              	.LASF132:
 9181 03d8 49324343 		.ascii	"I2CConfig\000"
 9181      6F6E6669 
 9181      6700
 9182              	.LASF161:
 9183 03e2 6B566578 		.ascii	"kVexMotorUndefined\000"
 9183      4D6F746F 
 9183      72556E64 
 9183      6566696E 
 9183      656400
 9184              	.LASF174:
 9185 03f5 6B566578 		.ascii	"kVexMotor_7\000"
 9185      4D6F746F 
 9185      725F3700 
 9186              	.LASF38:
 9187 0401 705F6E65 		.ascii	"p_newer\000"
 9187      77657200 
 9188              	.LASF222:
 9189 0409 76616C75 		.ascii	"value\000"
 9189      6500
 9190              	.LASF215:
 9191 040f 6572726F 		.ascii	"error_arb\000"
 9191      725F6172 
 9191      6200
 9192              	.LASF128:
 9193 0419 69326364 		.ascii	"i2cdutycycle_t\000"
 9193      75747963 
 9193      79636C65 
 9193      5F7400
 9194              	.LASF90:
 9195 0428 43504152 		.ascii	"CPAR\000"
 9195      00
 9196              	.LASF120:
 9197 042d 69326366 		.ascii	"i2cflags_t\000"
 9197      6C616773 
 9197      5F7400
 9198              	.LASF213:
ARM GAS  /tmp/cc4PNelj.s 			page 167


 9199 0438 6572726F 		.ascii	"error_ack\000"
 9199      725F6163 
 9199      6B00
 9200              	.LASF146:
 9201 0442 6B566578 		.ascii	"kVexDigital_1\000"
 9201      44696769 
 9201      74616C5F 
 9201      3100
 9202              	.LASF190:
 9203 0450 74566578 		.ascii	"tVexImeChannels\000"
 9203      496D6543 
 9203      68616E6E 
 9203      656C7300 
 9204              	.LASF276:
 9205 0460 68656170 		.ascii	"heap_header\000"
 9205      5F686561 
 9205      64657200 
 9206              	.LASF2:
 9207 046c 73697A65 		.ascii	"size_t\000"
 9207      5F7400
 9208              	.LASF80:
 9209 0473 7264796D 		.ascii	"rdymsg\000"
 9209      736700
 9210              	.LASF165:
 9211 047a 6B566578 		.ascii	"kVexMotor393R\000"
 9211      4D6F746F 
 9211      72333933 
 9211      5200
 9212              	.LASF164:
 9213 0488 6B566578 		.ascii	"kVexMotor393S\000"
 9213      4D6F746F 
 9213      72333933 
 9213      5300
 9214              	.LASF163:
 9215 0496 6B566578 		.ascii	"kVexMotor393T\000"
 9215      4D6F746F 
 9215      72333933 
 9215      5400
 9216              	.LASF24:
 9217 04a4 5F426F6F 		.ascii	"_Bool\000"
 9217      6C00
 9218              	.LASF97:
 9219 04aa 4F415232 		.ascii	"OAR2\000"
 9219      00
 9220              	.LASF246:
 9221 04af 76657849 		.ascii	"vexIMEDisableTermination\000"
 9221      4D454469 
 9221      7361626C 
 9221      65546572 
 9221      6D696E61 
 9222              	.LASF14:
 9223 04c8 5F5F7569 		.ascii	"__uint64_t\000"
 9223      6E743634 
 9223      5F7400
 9224              	.LASF125:
 9225 04d3 5354445F 		.ascii	"STD_DUTY_CYCLE\000"
 9225      44555459 
ARM GAS  /tmp/cc4PNelj.s 			page 168


 9225      5F435943 
 9225      4C4500
 9226              	.LASF131:
 9227 04e2 64757479 		.ascii	"duty_cycle\000"
 9227      5F637963 
 9227      6C6500
 9228              	.LASF245:
 9229 04ed 76657849 		.ascii	"vexIMEClearCounters\000"
 9229      4D45436C 
 9229      65617243 
 9229      6F756E74 
 9229      65727300 
 9230              	.LASF66:
 9231 0501 4D757465 		.ascii	"Mutex\000"
 9231      7800
 9232              	.LASF254:
 9233 0507 61726776 		.ascii	"argv\000"
 9233      00
 9234              	.LASF244:
 9235 050c 76657849 		.ascii	"vexIMESetScratchpad\000"
 9235      4D455365 
 9235      74536372 
 9235      61746368 
 9235      70616400 
 9236              	.LASF32:
 9237 0520 73797374 		.ascii	"systime_t\000"
 9237      696D655F 
 9237      7400
 9238              	.LASF238:
 9239 052a 76657849 		.ascii	"vexIMEGetVendor\000"
 9239      4D454765 
 9239      7456656E 
 9239      646F7200 
 9240              	.LASF40:
 9241 053a 705F6E61 		.ascii	"p_name\000"
 9241      6D6500
 9242              	.LASF88:
 9243 0541 42617365 		.ascii	"BaseSequentialStream\000"
 9243      53657175 
 9243      656E7469 
 9243      616C5374 
 9243      7265616D 
 9244              	.LASF188:
 9245 0556 6B496D65 		.ascii	"kImeTotal\000"
 9245      546F7461 
 9245      6C00
 9246              	.LASF73:
 9247 0560 685F7072 		.ascii	"h_provider\000"
 9247      6F766964 
 9247      657200
 9248              	.LASF53:
 9249 056b 54687265 		.ascii	"ThreadsQueue\000"
 9249      61647351 
 9249      75657565 
 9249      00
 9250              	.LASF17:
 9251 0578 63686172 		.ascii	"char\000"
ARM GAS  /tmp/cc4PNelj.s 			page 169


 9251      00
 9252              	.LASF206:
 9253 057d 64617461 		.ascii	"data_polls\000"
 9253      5F706F6C 
 9253      6C7300
 9254              	.LASF62:
 9255 0588 725F6E65 		.ascii	"r_newer\000"
 9255      77657200 
 9256              	.LASF141:
 9257 0590 7478646D 		.ascii	"txdmamode\000"
 9257      616D6F64 
 9257      6500
 9258              	.LASF108:
 9259 059a 69736869 		.ascii	"ishift\000"
 9259      667400
 9260              	.LASF33:
 9261 05a1 54687265 		.ascii	"Thread\000"
 9261      616400
 9262              	.LASF26:
 9263 05a8 74737461 		.ascii	"tstate_t\000"
 9263      74655F74 
 9263      00
 9264              	.LASF111:
 9265 05b1 73746D33 		.ascii	"stm32_dma_stream_t\000"
 9265      325F646D 
 9265      615F7374 
 9265      7265616D 
 9265      5F7400
 9266              	.LASF39:
 9267 05c4 705F6F6C 		.ascii	"p_older\000"
 9267      64657200 
 9268              	.LASF127:
 9269 05cc 46415354 		.ascii	"FAST_DUTY_CYCLE_16_9\000"
 9269      5F445554 
 9269      595F4359 
 9269      434C455F 
 9269      31365F39 
 9270              	.LASF243:
 9271 05e1 76657849 		.ascii	"vexIMEGetScratchpad\000"
 9271      4D454765 
 9271      74536372 
 9271      61746368 
 9271      70616400 
 9272              	.LASF18:
 9273 05f5 75696E74 		.ascii	"uint8_t\000"
 9273      385F7400 
 9274              	.LASF203:
 9275 05fd 64656C74 		.ascii	"delta_count\000"
 9275      615F636F 
 9275      756E7400 
 9276              	.LASF103:
 9277 0609 54524953 		.ascii	"TRISE\000"
 9277      4500
 9278              	.LASF270:
 9279 060f 63684865 		.ascii	"chHeapAlloc\000"
 9279      6170416C 
 9279      6C6F6300 
ARM GAS  /tmp/cc4PNelj.s 			page 170


 9280              	.LASF52:
 9281 061b 705F6D70 		.ascii	"p_mpool\000"
 9281      6F6F6C00 
 9282              	.LASF50:
 9283 0623 705F6D74 		.ascii	"p_mtxlist\000"
 9283      786C6973 
 9283      7400
 9284              	.LASF241:
 9285 062d 76657849 		.ascii	"vexIMEGetData\000"
 9285      4D454765 
 9285      74446174 
 9285      6100
 9286              	.LASF168:
 9287 063b 6B566578 		.ascii	"kVexMotor_1\000"
 9287      4D6F746F 
 9287      725F3100 
 9288              	.LASF169:
 9289 0647 6B566578 		.ascii	"kVexMotor_2\000"
 9289      4D6F746F 
 9289      725F3200 
 9290              	.LASF170:
 9291 0653 6B566578 		.ascii	"kVexMotor_3\000"
 9291      4D6F746F 
 9291      725F3300 
 9292              	.LASF171:
 9293 065f 6B566578 		.ascii	"kVexMotor_4\000"
 9293      4D6F746F 
 9293      725F3400 
 9294              	.LASF172:
 9295 066b 6B566578 		.ascii	"kVexMotor_5\000"
 9295      4D6F746F 
 9295      725F3500 
 9296              	.LASF173:
 9297 0677 6B566578 		.ascii	"kVexMotor_6\000"
 9297      4D6F746F 
 9297      725F3600 
 9298              	.LASF75:
 9299 0683 685F6D74 		.ascii	"h_mtx\000"
 9299      7800
 9300              	.LASF175:
 9301 0689 6B566578 		.ascii	"kVexMotor_8\000"
 9301      4D6F746F 
 9301      725F3800 
 9302              	.LASF176:
 9303 0695 6B566578 		.ascii	"kVexMotor_9\000"
 9303      4D6F746F 
 9303      725F3900 
 9304              	.LASF240:
 9305 06a1 76657849 		.ascii	"vexIMEGetStatus\000"
 9305      4D454765 
 9305      74537461 
 9305      74757300 
 9306              	.LASF251:
 9307 06b1 76657849 		.ascii	"vexIMEPrintBuf\000"
 9307      4D455072 
 9307      696E7442 
 9307      756600
ARM GAS  /tmp/cc4PNelj.s 			page 171


 9308              	.LASF41:
 9309 06c0 705F7374 		.ascii	"p_state\000"
 9309      61746500 
 9310              	.LASF13:
 9311 06c8 6C6F6E67 		.ascii	"long long int\000"
 9311      206C6F6E 
 9311      6720696E 
 9311      7400
 9312              	.LASF226:
 9313 06d6 76657849 		.ascii	"vexImeSetType\000"
 9313      6D655365 
 9313      74547970 
 9313      6500
 9314              	.LASF224:
 9315 06e4 76657849 		.ascii	"vexImeGetPtr\000"
 9315      6D654765 
 9315      74507472 
 9315      00
 9316              	.LASF123:
 9317 06f1 4F504D4F 		.ascii	"OPMODE_SMBUS_HOST\000"
 9317      44455F53 
 9317      4D425553 
 9317      5F484F53 
 9317      5400
 9318              	.LASF268:
 9319 0703 69326353 		.ascii	"i2cStop\000"
 9319      746F7000 
 9320              	.LASF59:
 9321 070b 725F7175 		.ascii	"r_queue\000"
 9321      65756500 
 9322              	.LASF194:
 9323 0713 76616C69 		.ascii	"valid\000"
 9323      6400
 9324              	.LASF112:
 9325 0719 4932435F 		.ascii	"I2C_UNINIT\000"
 9325      554E494E 
 9325      495400
 9326              	.LASF156:
 9327 0724 6B566578 		.ascii	"kVexDigital_11\000"
 9327      44696769 
 9327      74616C5F 
 9327      313100
 9328              	.LASF30:
 9329 0733 6D73675F 		.ascii	"msg_t\000"
 9329      7400
 9330              	.LASF58:
 9331 0739 636F6E74 		.ascii	"context\000"
 9331      65787400 
 9332              	.LASF223:
 9333 0741 76657849 		.ascii	"vexImeGetId\000"
 9333      6D654765 
 9333      74496400 
 9334              	.LASF42:
 9335 074d 705F666C 		.ascii	"p_flags\000"
 9335      61677300 
 9336              	.LASF5:
 9337 0755 5F5F696E 		.ascii	"__int16_t\000"
ARM GAS  /tmp/cc4PNelj.s 			page 172


 9337      7431365F 
 9337      7400
 9338              	.LASF160:
 9339 075f 6B566578 		.ascii	"kVexDigitalOutput\000"
 9339      44696769 
 9339      74616C4F 
 9339      75747075 
 9339      7400
 9340              	.LASF263:
 9341 0771 6D656D73 		.ascii	"memset\000"
 9341      657400
 9342              	.LASF266:
 9343 0778 69326352 		.ascii	"i2cReleaseBus\000"
 9343      656C6561 
 9343      73654275 
 9343      7300
 9344              	.LASF79:
 9345 0786 73697A65 		.ascii	"size\000"
 9345      00
 9346              	.LASF199:
 9347 078b 656E635F 		.ascii	"enc_data\000"
 9347      64617461 
 9347      00
 9348              	.LASF130:
 9349 0794 636C6F63 		.ascii	"clock_speed\000"
 9349      6B5F7370 
 9349      65656400 
 9350              	.LASF28:
 9351 07a0 74736C69 		.ascii	"tslices_t\000"
 9351      6365735F 
 9351      7400
 9352              	.LASF63:
 9353 07aa 725F6F6C 		.ascii	"r_older\000"
 9353      64657200 
 9354              	.LASF262:
 9355 07b2 69326353 		.ascii	"i2cStart\000"
 9355      74617274 
 9355      00
 9356              	.LASF231:
 9357 07bb 76657849 		.ascii	"vexIMEDataInit\000"
 9357      4D454461 
 9357      7461496E 
 9357      697400
 9358              	.LASF136:
 9359 07ca 6572726F 		.ascii	"errors\000"
 9359      727300
 9360              	.LASF147:
 9361 07d1 6B566578 		.ascii	"kVexDigital_2\000"
 9361      44696769 
 9361      74616C5F 
 9361      3200
 9362              	.LASF148:
 9363 07df 6B566578 		.ascii	"kVexDigital_3\000"
 9363      44696769 
 9363      74616C5F 
 9363      3300
 9364              	.LASF149:
ARM GAS  /tmp/cc4PNelj.s 			page 173


 9365 07ed 6B566578 		.ascii	"kVexDigital_4\000"
 9365      44696769 
 9365      74616C5F 
 9365      3400
 9366              	.LASF150:
 9367 07fb 6B566578 		.ascii	"kVexDigital_5\000"
 9367      44696769 
 9367      74616C5F 
 9367      3500
 9368              	.LASF151:
 9369 0809 6B566578 		.ascii	"kVexDigital_6\000"
 9369      44696769 
 9369      74616C5F 
 9369      3600
 9370              	.LASF152:
 9371 0817 6B566578 		.ascii	"kVexDigital_7\000"
 9371      44696769 
 9371      74616C5F 
 9371      3700
 9372              	.LASF153:
 9373 0825 6B566578 		.ascii	"kVexDigital_8\000"
 9373      44696769 
 9373      74616C5F 
 9373      3800
 9374              	.LASF154:
 9375 0833 6B566578 		.ascii	"kVexDigital_9\000"
 9375      44696769 
 9375      74616C5F 
 9375      3900
 9376              	.LASF126:
 9377 0841 46415354 		.ascii	"FAST_DUTY_CYCLE_2\000"
 9377      5F445554 
 9377      595F4359 
 9377      434C455F 
 9377      3200
 9378              	.LASF217:
 9379 0853 6572726F 		.ascii	"error_seq\000"
 9379      725F7365 
 9379      7100
 9380              	.LASF261:
 9381 085d 63685468 		.ascii	"chThdCreateStatic\000"
 9381      64437265 
 9381      61746553 
 9381      74617469 
 9381      6300
 9382              	.LASF253:
 9383 086f 61726763 		.ascii	"argc\000"
 9383      00
 9384              	.LASF48:
 9385 0874 705F6D73 		.ascii	"p_msg\000"
 9385      6700
 9386              	.LASF25:
 9387 087a 746D6F64 		.ascii	"tmode_t\000"
 9387      655F7400 
 9388              	.LASF51:
 9389 0882 705F7265 		.ascii	"p_realprio\000"
 9389      616C7072 
ARM GAS  /tmp/cc4PNelj.s 			page 174


 9389      696F00
 9390              	.LASF227:
 9391 088d 76657849 		.ascii	"vexImeSetMotor\000"
 9391      6D655365 
 9391      744D6F74 
 9391      6F7200
 9392              	.LASF20:
 9393 089c 75696E74 		.ascii	"uint16_t\000"
 9393      31365F74 
 9393      00
 9394              	.LASF275:
 9395 08a5 2F6D6E74 		.ascii	"/mnt/c/Users/DQ Sullivan/Downloads/Convex/convex/co"
 9395      2F632F55 
 9395      73657273 
 9395      2F445120 
 9395      53756C6C 
 9396 08d8 72746578 		.ascii	"rtex/projects/Vex2016 CyberBrains\000"
 9396      2F70726F 
 9396      6A656374 
 9396      732F5665 
 9396      78323031 
 9397              	.LASF57:
 9398 08fa 696E7463 		.ascii	"intctx\000"
 9398      747800
 9399              	.LASF106:
 9400 0901 6368616E 		.ascii	"channel\000"
 9400      6E656C00 
 9401              	.LASF129:
 9402 0909 6F705F6D 		.ascii	"op_mode\000"
 9402      6F646500 
 9403              	.LASF114:
 9404 0911 4932435F 		.ascii	"I2C_READY\000"
 9404      52454144 
 9404      5900
 9405              	.LASF225:
 9406 091b 76657849 		.ascii	"vexImeSetCount\000"
 9406      6D655365 
 9406      74436F75 
 9406      6E7400
 9407              	.LASF248:
 9408 092a 76657849 		.ascii	"vexIMESetAddr\000"
 9408      4D455365 
 9408      74416464 
 9408      7200
 9409              	.LASF274:
 9410 0938 2E2E2F2E 		.ascii	"../../fw/vexime.c\000"
 9410      2E2F6677 
 9410      2F766578 
 9410      696D652E 
 9410      6300
 9411              	.LASF135:
 9412 094a 636F6E66 		.ascii	"config\000"
 9412      696700
 9413              	.LASF180:
 9414 0951 6B496D65 		.ascii	"kImeChannel_1\000"
 9414      4368616E 
 9414      6E656C5F 
ARM GAS  /tmp/cc4PNelj.s 			page 175


 9414      3100
 9415              	.LASF181:
 9416 095f 6B496D65 		.ascii	"kImeChannel_2\000"
 9416      4368616E 
 9416      6E656C5F 
 9416      3200
 9417              	.LASF182:
 9418 096d 6B496D65 		.ascii	"kImeChannel_3\000"
 9418      4368616E 
 9418      6E656C5F 
 9418      3300
 9419              	.LASF183:
 9420 097b 6B496D65 		.ascii	"kImeChannel_4\000"
 9420      4368616E 
 9420      6E656C5F 
 9420      3400
 9421              	.LASF184:
 9422 0989 6B496D65 		.ascii	"kImeChannel_5\000"
 9422      4368616E 
 9422      6E656C5F 
 9422      3500
 9423              	.LASF185:
 9424 0997 6B496D65 		.ascii	"kImeChannel_6\000"
 9424      4368616E 
 9424      6E656C5F 
 9424      3600
 9425              	.LASF186:
 9426 09a5 6B496D65 		.ascii	"kImeChannel_7\000"
 9426      4368616E 
 9426      6E656C5F 
 9426      3700
 9427              	.LASF187:
 9428 09b3 6B496D65 		.ascii	"kImeChannel_8\000"
 9428      4368616E 
 9428      6E656C5F 
 9428      3800
 9429              	.LASF96:
 9430 09c1 52455345 		.ascii	"RESERVED2\000"
 9430      52564544 
 9430      3200
 9431              	.LASF98:
 9432 09cb 52455345 		.ascii	"RESERVED3\000"
 9432      52564544 
 9432      3300
 9433              	.LASF99:
 9434 09d5 52455345 		.ascii	"RESERVED4\000"
 9434      52564544 
 9434      3400
 9435              	.LASF100:
 9436 09df 52455345 		.ascii	"RESERVED5\000"
 9436      52564544 
 9436      3500
 9437              	.LASF101:
 9438 09e9 52455345 		.ascii	"RESERVED6\000"
 9438      52564544 
 9438      3600
 9439              	.LASF211:
ARM GAS  /tmp/cc4PNelj.s 			page 176


 9440 09f3 6E657874 		.ascii	"nextAddress\000"
 9440      41646472 
 9440      65737300 
 9441              	.LASF272:
 9442 09ff 7665785F 		.ascii	"vex_chprintf\000"
 9442      63687072 
 9442      696E7466 
 9442      00
 9443              	.LASF64:
 9444 0a0c 725F6375 		.ascii	"r_current\000"
 9444      7272656E 
 9444      7400
 9445              	.LASF49:
 9446 0a16 705F6570 		.ascii	"p_epending\000"
 9446      656E6469 
 9446      6E6700
 9447              	.LASF95:
 9448 0a21 4F415231 		.ascii	"OAR1\000"
 9448      00
 9449              	.LASF67:
 9450 0a26 6D5F7175 		.ascii	"m_queue\000"
 9450      65756500 
 9451              	.LASF10:
 9452 0a2e 6C6F6E67 		.ascii	"long int\000"
 9452      20696E74 
 9452      00
 9453              	.LASF189:
 9454 0a37 6B496D65 		.ascii	"kImeChannelNone\000"
 9454      4368616E 
 9454      6E656C4E 
 9454      6F6E6500 
 9455              	.LASF119:
 9456 0a47 69326361 		.ascii	"i2caddr_t\000"
 9456      6464725F 
 9456      7400
 9457              	.LASF259:
 9458 0a51 49544D5F 		.ascii	"ITM_RxBuffer\000"
 9458      52784275 
 9458      66666572 
 9458      00
 9459              	.LASF256:
 9460 0a5e 76657849 		.ascii	"vexImes\000"
 9460      6D657300 
 9461              	.LASF117:
 9462 0a66 4932435F 		.ascii	"I2C_LOCKED\000"
 9462      4C4F434B 
 9462      454400
 9463              	.LASF233:
 9464 0a71 73746174 		.ascii	"status\000"
 9464      757300
 9465              	.LASF19:
 9466 0a78 696E7431 		.ascii	"int16_t\000"
 9466      365F7400 
 9467              	.LASF34:
 9468 0a80 705F6E65 		.ascii	"p_next\000"
 9468      787400
 9469              	.LASF237:
ARM GAS  /tmp/cc4PNelj.s 			page 177


 9470 0a87 74786275 		.ascii	"txbuf\000"
 9470      6600
 9471              	.LASF23:
 9472 0a8d 75696E74 		.ascii	"uint64_t\000"
 9472      36345F74 
 9472      00
 9473              	.LASF37:
 9474 0a96 705F6374 		.ascii	"p_ctx\000"
 9474      7800
 9475              	.LASF218:
 9476 0a9c 61637469 		.ascii	"action\000"
 9476      6F6E00
 9477              	.LASF258:
 9478 0aa3 726C6973 		.ascii	"rlist\000"
 9478      7400
 9479              	.LASF3:
 9480 0aa9 5F5F7569 		.ascii	"__uint8_t\000"
 9480      6E74385F 
 9480      7400
 9481              	.LASF145:
 9482 0ab3 6B566578 		.ascii	"kVexDigital_None\000"
 9482      44696769 
 9482      74616C5F 
 9482      4E6F6E65 
 9482      00
 9483              	.LASF70:
 9484 0ac4 6D656D67 		.ascii	"memgetfunc_t\000"
 9484      65746675 
 9484      6E635F74 
 9484      00
 9485              	.LASF87:
 9486 0ad1 72656164 		.ascii	"read\000"
 9486      00
 9487              	.LASF179:
 9488 0ad6 74566578 		.ascii	"tVexMotor\000"
 9488      4D6F746F 
 9488      7200
 9489              	.LASF0:
 9490 0ae0 756E7369 		.ascii	"unsigned int\000"
 9490      676E6564 
 9490      20696E74 
 9490      00
 9491              	.LASF202:
 9492 0aed 76656C6F 		.ascii	"velocity\000"
 9492      63697479 
 9492      00
 9493              	.LASF35:
 9494 0af6 705F7072 		.ascii	"p_prev\000"
 9494      657600
 9495              	.LASF16:
 9496 0afd 73697A65 		.ascii	"sizetype\000"
 9496      74797065 
 9496      00
 9497              	.LASF27:
 9498 0b06 74726566 		.ascii	"trefs_t\000"
 9498      735F7400 
 9499              	.LASF12:
ARM GAS  /tmp/cc4PNelj.s 			page 178


 9500 0b0e 6C6F6E67 		.ascii	"long unsigned int\000"
 9500      20756E73 
 9500      69676E65 
 9500      6420696E 
 9500      7400
 9501              	.LASF192:
 9502 0b20 61646472 		.ascii	"address\000"
 9502      65737300 
 9503              	.LASF221:
 9504 0b28 76657849 		.ascii	"vexImeData\000"
 9504      6D654461 
 9504      746100
 9505              	.LASF207:
 9506 0b33 64617461 		.ascii	"data_errors\000"
 9506      5F657272 
 9506      6F727300 
 9507              	.LASF21:
 9508 0b3f 696E7433 		.ascii	"int32_t\000"
 9508      325F7400 
 9509              	.LASF122:
 9510 0b47 4F504D4F 		.ascii	"OPMODE_SMBUS_DEVICE\000"
 9510      44455F53 
 9510      4D425553 
 9510      5F444556 
 9510      49434500 
 9511              	.LASF138:
 9512 0b5b 74687265 		.ascii	"thread\000"
 9512      616400
 9513              	.LASF162:
 9514 0b62 6B566578 		.ascii	"kVexMotor269\000"
 9514      4D6F746F 
 9514      72323639 
 9514      00
 9515              	.LASF113:
 9516 0b6f 4932435F 		.ascii	"I2C_STOP\000"
 9516      53544F50 
 9516      00
 9517              	.LASF193:
 9518 0b78 74797065 		.ascii	"type\000"
 9518      00
 9519              	.LASF4:
 9520 0b7d 756E7369 		.ascii	"unsigned char\000"
 9520      676E6564 
 9520      20636861 
 9520      7200
 9521              	.LASF209:
 9522 0b8b 5F766578 		.ascii	"_vexImeData\000"
 9522      496D6544 
 9522      61746100 
 9523              	.LASF11:
 9524 0b97 5F5F7569 		.ascii	"__uint32_t\000"
 9524      6E743332 
 9524      5F7400
 9525              	.LASF264:
 9526 0ba2 69326341 		.ascii	"i2cAcquireBus\000"
 9526      63717569 
 9526      72654275 
ARM GAS  /tmp/cc4PNelj.s 			page 179


 9526      7300
 9527              	.LASF43:
 9528 0bb0 705F7265 		.ascii	"p_refs\000"
 9528      667300
 9529              	.LASF65:
 9530 0bb7 52656164 		.ascii	"ReadyList\000"
 9530      794C6973 
 9530      7400
 9531              	.LASF140:
 9532 0bc1 7278646D 		.ascii	"rxdmamode\000"
 9532      616D6F64 
 9532      6500
 9533              	.LASF105:
 9534 0bcb 4932435F 		.ascii	"I2C_TypeDef\000"
 9534      54797065 
 9534      44656600 
 9535              	.LASF267:
 9536 0bd7 63685468 		.ascii	"chThdSleep\000"
 9536      64536C65 
 9536      657000
 9537              	.LASF278:
 9538 0be2 76657849 		.ascii	"vexImeTask\000"
 9538      6D655461 
 9538      736B00
 9539              	.LASF44:
 9540 0bed 705F7072 		.ascii	"p_preempt\000"
 9540      65656D70 
 9540      7400
 9541              	.LASF139:
 9542 0bf7 61646472 		.ascii	"addr\000"
 9542      00
 9543              	.LASF134:
 9544 0bfc 73746174 		.ascii	"state\000"
 9544      6500
 9545              	.LASF83:
 9546 0c02 65776D61 		.ascii	"ewmask\000"
 9546      736B00
 9547              	.LASF196:
 9548 0c09 76657273 		.ascii	"version\000"
 9548      696F6E00 
 9549              	.LASF69:
 9550 0c11 6D5F6E65 		.ascii	"m_next\000"
 9550      787400
 9551              	.LASF214:
 9552 0c18 6572726F 		.ascii	"error_bus\000"
 9552      725F6275 
 9552      7300
 9553              	.LASF205:
 9554 0c22 72706D5F 		.ascii	"rpm_constant\000"
 9554      636F6E73 
 9554      74616E74 
 9554      00
 9555              	.LASF8:
 9556 0c2f 73686F72 		.ascii	"short unsigned int\000"
 9556      7420756E 
 9556      7369676E 
 9556      65642069 
ARM GAS  /tmp/cc4PNelj.s 			page 180


 9556      6E7400
 9557              	.LASF61:
 9558 0c42 725F6374 		.ascii	"r_ctx\000"
 9558      7800
 9559              	.LASF159:
 9560 0c48 6B566578 		.ascii	"kVexDigitalInput\000"
 9560      44696769 
 9560      74616C49 
 9560      6E707574 
 9560      00
 9561              	.LASF56:
 9562 0c59 73746B61 		.ascii	"stkalign_t\000"
 9562      6C69676E 
 9562      5F7400
 9563              	.LASF71:
 9564 0c64 4D656D6F 		.ascii	"MemoryHeap\000"
 9564      72794865 
 9564      617000
 9565              	.LASF86:
 9566 0c6f 77726974 		.ascii	"write\000"
 9566      6500
 9567              	.LASF47:
 9568 0c75 705F6D73 		.ascii	"p_msgqueue\000"
 9568      67717565 
 9568      756500
 9569              	.LASF249:
 9570 0c80 6E657744 		.ascii	"newDevice\000"
 9570      65766963 
 9570      6500
 9571              	.LASF93:
 9572 0c8a 52455345 		.ascii	"RESERVED0\000"
 9572      52564544 
 9572      3000
 9573              	.LASF72:
 9574 0c94 6D656D6F 		.ascii	"memory_heap\000"
 9574      72795F68 
 9574      65617000 
 9575              	.LASF94:
 9576 0ca0 52455345 		.ascii	"RESERVED1\000"
 9576      52564544 
 9576      3100
 9577              	.LASF104:
 9578 0caa 52455345 		.ascii	"RESERVED8\000"
 9578      52564544 
 9578      3800
 9579              	.LASF78:
 9580 0cb4 616C6967 		.ascii	"align\000"
 9580      6E00
 9581              	.LASF191:
 9582 0cba 5F696D65 		.ascii	"_imeData\000"
 9582      44617461 
 9582      00
 9583              	.LASF81:
 9584 0cc3 65786974 		.ascii	"exitcode\000"
 9584      636F6465 
 9584      00
 9585              	.LASF109:
ARM GAS  /tmp/cc4PNelj.s 			page 181


 9586 0ccc 73656C66 		.ascii	"selfindex\000"
 9586      696E6465 
 9586      7800
 9587              	.LASF277:
 9588 0cd6 76657849 		.ascii	"vexImeGetChannelMax\000"
 9588      6D654765 
 9588      74436861 
 9588      6E6E656C 
 9588      4D617800 
 9589              	.LASF269:
 9590 0cea 69326347 		.ascii	"i2cGetErrors\000"
 9590      65744572 
 9590      726F7273 
 9590      00
 9591              		.ident	"GCC: (4.8.2-14ubuntu1+6) 4.8.2"
ARM GAS  /tmp/cc4PNelj.s 			page 182


DEFINED SYMBOLS
                            *ABS*:0000000000000000 vexime.c
     /tmp/cc4PNelj.s:19     .text.vexImeGetCount:0000000000000000 $t
     /tmp/cc4PNelj.s:25     .text.vexImeGetCount:0000000000000000 vexImeGetCount
     /tmp/cc4PNelj.s:2635   .bss.vexImes:0000000000000000 .LANCHOR0
     /tmp/cc4PNelj.s:63     .text.vexImeSetCount:0000000000000000 $t
     /tmp/cc4PNelj.s:69     .text.vexImeSetCount:0000000000000000 vexImeSetCount
     /tmp/cc4PNelj.s:100    .text.vexImeGetId:0000000000000000 $t
     /tmp/cc4PNelj.s:106    .text.vexImeGetId:0000000000000000 vexImeGetId
     /tmp/cc4PNelj.s:135    .text.vexImeGetPtr:0000000000000000 $t
     /tmp/cc4PNelj.s:141    .text.vexImeGetPtr:0000000000000000 vexImeGetPtr
     /tmp/cc4PNelj.s:168    .text.vexImeGetChannelMax:0000000000000000 $t
     /tmp/cc4PNelj.s:174    .text.vexImeGetChannelMax:0000000000000000 vexImeGetChannelMax
     /tmp/cc4PNelj.s:191    .text.vexImeSetType:0000000000000000 $t
     /tmp/cc4PNelj.s:197    .text.vexImeSetType:0000000000000000 vexImeSetType
     /tmp/cc4PNelj.s:215    .text.vexImeSetType:000000000000000e $d
     /tmp/cc4PNelj.s:219    .text.vexImeSetType:0000000000000012 $t
     /tmp/cc4PNelj.s:281    .text.vexImeSetMotor:0000000000000000 $t
     /tmp/cc4PNelj.s:287    .text.vexImeSetMotor:0000000000000000 vexImeSetMotor
     /tmp/cc4PNelj.s:315    .text.vexImeMotorGetCount:0000000000000000 $t
     /tmp/cc4PNelj.s:321    .text.vexImeMotorGetCount:0000000000000000 vexImeMotorGetCount
     /tmp/cc4PNelj.s:385    .text.vexImeInit:0000000000000000 $t
     /tmp/cc4PNelj.s:391    .text.vexImeInit:0000000000000000 vexImeInit
     /tmp/cc4PNelj.s:2624   .rodata.imeI2cConfig:0000000000000000 .LANCHOR1
     /tmp/cc4PNelj.s:2548   .bss.waVexImeTask:0000000000000000 .LANCHOR2
     /tmp/cc4PNelj.s:2167   .text.vexImeTask:0000000000000000 vexImeTask
     /tmp/cc4PNelj.s:474    .text.vexIMEDataInit:0000000000000000 $t
     /tmp/cc4PNelj.s:480    .text.vexIMEDataInit:0000000000000000 vexIMEDataInit
     /tmp/cc4PNelj.s:545    .text.vexIMEResetAll:0000000000000000 $t
     /tmp/cc4PNelj.s:551    .text.vexIMEResetAll:0000000000000000 vexIMEResetAll
     /tmp/cc4PNelj.s:617    .text.vexIMEHandleErrors:0000000000000000 $t
     /tmp/cc4PNelj.s:623    .text.vexIMEHandleErrors:0000000000000000 vexIMEHandleErrors
     /tmp/cc4PNelj.s:733    .text.vexIMEGetVersion:0000000000000000 $t
     /tmp/cc4PNelj.s:739    .text.vexIMEGetVersion:0000000000000000 vexIMEGetVersion
     /tmp/cc4PNelj.s:2541   .bss.errors:0000000000000000 .LANCHOR3
     /tmp/cc4PNelj.s:823    .text.vexIMEGetVendor:0000000000000000 $t
     /tmp/cc4PNelj.s:829    .text.vexIMEGetVendor:0000000000000000 vexIMEGetVendor
     /tmp/cc4PNelj.s:912    .text.vexIMEGetDeviceId:0000000000000000 $t
     /tmp/cc4PNelj.s:918    .text.vexIMEGetDeviceId:0000000000000000 vexIMEGetDeviceId
     /tmp/cc4PNelj.s:1002   .text.vexIMEGetStatus:0000000000000000 $t
     /tmp/cc4PNelj.s:1008   .text.vexIMEGetStatus:0000000000000000 vexIMEGetStatus
     /tmp/cc4PNelj.s:1089   .text.vexIMEGetData:0000000000000000 $t
     /tmp/cc4PNelj.s:1095   .text.vexIMEGetData:0000000000000000 vexIMEGetData
     /tmp/cc4PNelj.s:1179   .text.vexIMEUpdateCounts:0000000000000000 $t
     /tmp/cc4PNelj.s:1185   .text.vexIMEUpdateCounts:0000000000000000 vexIMEUpdateCounts
     /tmp/cc4PNelj.s:1278   .text.vexIMEGetScratchpad:0000000000000000 $t
     /tmp/cc4PNelj.s:1284   .text.vexIMEGetScratchpad:0000000000000000 vexIMEGetScratchpad
     /tmp/cc4PNelj.s:1368   .text.vexIMESetScratchpad:0000000000000000 $t
     /tmp/cc4PNelj.s:1374   .text.vexIMESetScratchpad:0000000000000000 vexIMESetScratchpad
     /tmp/cc4PNelj.s:1500   .text.vexIMEClearCounters:0000000000000000 $t
     /tmp/cc4PNelj.s:1506   .text.vexIMEClearCounters:0000000000000000 vexIMEClearCounters
     /tmp/cc4PNelj.s:1587   .text.vexIMEDisableTermination:0000000000000000 $t
     /tmp/cc4PNelj.s:1593   .text.vexIMEDisableTermination:0000000000000000 vexIMEDisableTermination
     /tmp/cc4PNelj.s:1674   .text.vexIMEEnableTermination:0000000000000000 $t
     /tmp/cc4PNelj.s:1680   .text.vexIMEEnableTermination:0000000000000000 vexIMEEnableTermination
     /tmp/cc4PNelj.s:1761   .text.vexIMESetAddr:0000000000000000 $t
     /tmp/cc4PNelj.s:1767   .text.vexIMESetAddr:0000000000000000 vexIMESetAddr
ARM GAS  /tmp/cc4PNelj.s 			page 183


     /tmp/cc4PNelj.s:1853   .text.vexIMEFindEncoders:0000000000000000 $t
     /tmp/cc4PNelj.s:1859   .text.vexIMEFindEncoders:0000000000000000 vexIMEFindEncoders
     /tmp/cc4PNelj.s:1966   .text.vexIMEFindEncoders:0000000000000098 $d
     /tmp/cc4PNelj.s:1970   .text.vexIMEFindEncoders:000000000000009c $t
     /tmp/cc4PNelj.s:2045   .text.vexIMEPrintBuf:0000000000000000 $t
     /tmp/cc4PNelj.s:2051   .text.vexIMEPrintBuf:0000000000000000 vexIMEPrintBuf
     /tmp/cc4PNelj.s:2555   .rodata.str1.4:0000000000000000 .LC0
     /tmp/cc4PNelj.s:2567   .rodata.str1.4:0000000000000014 .LC4
     /tmp/cc4PNelj.s:2558   .rodata.str1.4:0000000000000008 .LC1
     /tmp/cc4PNelj.s:2561   .rodata.str1.4:000000000000000c .LC2
     /tmp/cc4PNelj.s:2564   .rodata.str1.4:0000000000000010 .LC3
     /tmp/cc4PNelj.s:2162   .text.vexImeTask:0000000000000000 $t
     /tmp/cc4PNelj.s:2570   .rodata.str1.4:0000000000000018 .LC5
     /tmp/cc4PNelj.s:2572   .rodata.str1.4:000000000000001c .LC6
     /tmp/cc4PNelj.s:2575   .rodata.str1.4:000000000000002c .LC7
     /tmp/cc4PNelj.s:2577   .rodata.str1.4:0000000000000038 .LC8
     /tmp/cc4PNelj.s:2579   .rodata.str1.4:0000000000000044 .LC9
     /tmp/cc4PNelj.s:2345   .text.vexImeTask:0000000000000110 $d
     /tmp/cc4PNelj.s:2351   .text.vexIMEDebug:0000000000000000 $t
     /tmp/cc4PNelj.s:2357   .text.vexIMEDebug:0000000000000000 vexIMEDebug
     /tmp/cc4PNelj.s:2581   .rodata.str1.4:0000000000000050 .LC10
     /tmp/cc4PNelj.s:2584   .rodata.str1.4:0000000000000064 .LC11
     /tmp/cc4PNelj.s:2588   .rodata.str1.4:0000000000000098 .LC12
     /tmp/cc4PNelj.s:2425   .text.vexIMEDebug:0000000000000068 $d
     /tmp/cc4PNelj.s:2429   .text.vexIMEDebug:000000000000006c $t
     /tmp/cc4PNelj.s:2599   .rodata.str1.4:00000000000000b8 .LC16
     /tmp/cc4PNelj.s:2605   .rodata.str1.4:00000000000000c8 .LC18
     /tmp/cc4PNelj.s:2608   .rodata.str1.4:00000000000000d8 .LC19
     /tmp/cc4PNelj.s:2611   .rodata.str1.4:00000000000000e0 .LC20
     /tmp/cc4PNelj.s:2614   .rodata.str1.4:00000000000000e8 .LC21
     /tmp/cc4PNelj.s:2617   .rodata.str1.4:00000000000000f4 .LC22
     /tmp/cc4PNelj.s:2620   .rodata.str1.4:0000000000000100 .LC23
     /tmp/cc4PNelj.s:2596   .rodata.str1.4:00000000000000b0 .LC15
     /tmp/cc4PNelj.s:2593   .rodata.str1.4:00000000000000a8 .LC14
     /tmp/cc4PNelj.s:2590   .rodata.str1.4:00000000000000a0 .LC13
     /tmp/cc4PNelj.s:2602   .rodata.str1.4:00000000000000c0 .LC17
     /tmp/cc4PNelj.s:2540   .bss.errors:0000000000000000 $d
     /tmp/cc4PNelj.s:2544   .bss.errors:0000000000000000 errors
     /tmp/cc4PNelj.s:2547   .bss.waVexImeTask:0000000000000000 $d
     /tmp/cc4PNelj.s:2551   .bss.waVexImeTask:0000000000000000 waVexImeTask
     /tmp/cc4PNelj.s:2554   .rodata.str1.4:0000000000000000 $d
     /tmp/cc4PNelj.s:2623   .rodata.imeI2cConfig:0000000000000000 $d
     /tmp/cc4PNelj.s:2627   .rodata.imeI2cConfig:0000000000000000 imeI2cConfig
     /tmp/cc4PNelj.s:2634   .bss.vexImes:0000000000000000 $d
     /tmp/cc4PNelj.s:2638   .bss.vexImes:0000000000000000 vexImes
                     .debug_frame:0000000000000010 $d
     /tmp/cc4PNelj.s:2350   .text.vexImeTask:0000000000000118 $t

UNDEFINED SYMBOLS
i2cStart
chThdCreateStatic
memset
i2cAcquireBus
i2cMasterTransmitTimeout
i2cReleaseBus
chThdSleep
i2cStop
ARM GAS  /tmp/cc4PNelj.s 			page 184


i2cGetErrors
chHeapAlloc
chHeapFree
vex_chprintf
rlist
