ARM GAS  /tmp/ccBwa8L7.s 			page 1


   1              		.syntax unified
   2              		.cpu cortex-m3
   3              		.fpu softvfp
   4              		.eabi_attribute 20, 1
   5              		.eabi_attribute 21, 1
   6              		.eabi_attribute 23, 3
   7              		.eabi_attribute 24, 1
   8              		.eabi_attribute 25, 1
   9              		.eabi_attribute 26, 1
  10              		.eabi_attribute 30, 2
  11              		.eabi_attribute 34, 1
  12              		.eabi_attribute 18, 4
  13              		.thumb
  14              		.file	"vexlcd.c"
  15              		.text
  16              	.Ltext0:
  17              		.cfi_sections	.debug_frame
  18              		.section	.text.vexLcdSet.part.0,"ax",%progbits
  19              		.align	2
  20              		.p2align 4,,15
  21              		.thumb
  22              		.thumb_func
  23              		.type	vexLcdSet.part.0, %function
  24              	vexLcdSet.part.0:
  25              	.LFB75:
  26              		.file 1 "../../fw/vexlcd.c"
  27              		.loc 1 175 0
  28              		.cfi_startproc
  29              		@ args = 0, pretend = 0, frame = 0
  30              		@ frame_needed = 0, uses_anonymous_args = 0
  31              		@ link register save eliminated.
  32              	.LVL0:
  33              		.loc 1 181 0
  34 0000 40F20003 		movw	r3, #:lower16:.LANCHOR0
  35 0004 00EB4000 		add	r0, r0, r0, lsl #1
  36              	.LVL1:
  37 0008 C0F20003 		movt	r3, #:upper16:.LANCHOR0
  38 000c 03EB4010 		add	r0, r3, r0, lsl #5
  39              		.loc 1 180 0
  40 0010 21B1     		cbz	r1, .L4
  41              		.loc 1 183 0
  42 0012 1146     		mov	r1, r2
  43              	.LVL2:
  44 0014 1C30     		adds	r0, r0, #28
  45 0016 1022     		movs	r2, #16
  46              	.LVL3:
  47 0018 FFF7FEBF 		b	strncpy
  48              	.LVL4:
  49              	.L4:
  50              		.loc 1 181 0
  51 001c 1146     		mov	r1, r2
  52              	.LVL5:
  53 001e 0830     		adds	r0, r0, #8
  54 0020 1022     		movs	r2, #16
  55              	.LVL6:
  56 0022 FFF7FEBF 		b	strncpy
  57              	.LVL7:
ARM GAS  /tmp/ccBwa8L7.s 			page 2


  58              		.cfi_endproc
  59              	.LFE75:
  60              		.size	vexLcdSet.part.0, .-vexLcdSet.part.0
  61 0026 00BFAFF3 		.section	.text.vexLcdSendMessage.part.1,"ax",%progbits
  61      0080AFF3 
  61      0080
  62              		.align	2
  63              		.p2align 4,,15
  64              		.thumb
  65              		.thumb_func
  66              		.type	vexLcdSendMessage.part.1, %function
  67              	vexLcdSendMessage.part.1:
  68              	.LFB76:
  69              		.loc 1 303 0
  70              		.cfi_startproc
  71              		@ args = 0, pretend = 0, frame = 0
  72              		@ frame_needed = 0, uses_anonymous_args = 0
  73              		@ link register save eliminated.
  74              	.LVL8:
  75 0000 70B4     		push	{r4, r5, r6}
  76              		.cfi_def_cfa_offset 12
  77              		.cfi_offset 4, -12
  78              		.cfi_offset 5, -8
  79              		.cfi_offset 6, -4
  80              		.loc 1 317 0
  81 0002 8379     		ldrb	r3, [r0, #6]	@ zero_extendqisi2
  82              		.loc 1 315 0
  83 0004 1E24     		movs	r4, #30
  84              		.loc 1 317 0
  85 0006 DB07     		lsls	r3, r3, #31
  86 0008 46BF     		itte	mi
  87 000a 8B1C     		addmi	r3, r1, #2
  88 000c DBB2     		uxtbmi	r3, r3
  89 000e CBB2     		uxtbpl	r3, r1
  90              		.loc 1 313 0
  91 0010 AA26     		movs	r6, #170
  92              		.loc 1 314 0
  93 0012 5525     		movs	r5, #85
  94              		.loc 1 316 0
  95 0014 1222     		movs	r2, #18
  96              		.loc 1 315 0
  97 0016 80F83240 		strb	r4, [r0, #50]
  98              		.loc 1 317 0
  99 001a 80F83430 		strb	r3, [r0, #52]
 100              	.LVL9:
 101              		.loc 1 313 0
 102 001e 80F83060 		strb	r6, [r0, #48]
 103              		.loc 1 314 0
 104 0022 80F83150 		strb	r5, [r0, #49]
 105              		.loc 1 316 0
 106 0026 80F83320 		strb	r2, [r0, #51]
 107              		.loc 1 317 0
 108 002a 0023     		movs	r3, #0
 109              		.loc 1 321 0
 110 002c 2024     		movs	r4, #32
 111              	.LVL10:
 112              	.L9:
ARM GAS  /tmp/ccBwa8L7.s 			page 3


 113 002e C218     		adds	r2, r0, r3
 114 0030 0133     		adds	r3, r3, #1
 115              	.LVL11:
 116              		.loc 1 320 0
 117 0032 102B     		cmp	r3, #16
 118              		.loc 1 321 0
 119 0034 82F83540 		strb	r4, [r2, #53]
 120              	.LVL12:
 121              		.loc 1 320 0
 122 0038 F9D1     		bne	.L9
 123 003a 0346     		mov	r3, r0
 124              		.loc 1 324 0
 125 003c 19B3     		cbz	r1, .L14
 126 003e 0022     		movs	r2, #0
 127              	.LVL13:
 128              	.L17:
 129              		.loc 1 331 0
 130 0040 197F     		ldrb	r1, [r3, #28]	@ zero_extendqisi2
 131 0042 0132     		adds	r2, r2, #1
 132              	.LVL14:
 133 0044 92B2     		uxth	r2, r2
 134              	.LVL15:
 135 0046 09B1     		cbz	r1, .L15
 136              		.loc 1 332 0
 137 0048 83F83510 		strb	r1, [r3, #53]
 138              	.L15:
 139              		.loc 1 330 0
 140 004c 102A     		cmp	r2, #16
 141 004e 03F10103 		add	r3, r3, #1
 142 0052 F5D1     		bne	.L17
 143              	.LVL16:
 144              	.L16:
 145              		.loc 1 324 0
 146 0054 0023     		movs	r3, #0
 147              		.loc 1 337 0
 148 0056 1946     		mov	r1, r3
 149              	.LVL17:
 150              	.L13:
 151 0058 C218     		adds	r2, r0, r3
 152              		.loc 1 339 0
 153 005a 92F83420 		ldrb	r2, [r2, #52]	@ zero_extendqisi2
 154 005e 0133     		adds	r3, r3, #1
 155              	.LVL18:
 156 0060 0A44     		add	r2, r2, r1
 157 0062 92B2     		uxth	r2, r2
 158              		.loc 1 338 0
 159 0064 112B     		cmp	r3, #17
 160              		.loc 1 339 0
 161 0066 91B2     		uxth	r1, r2
 162              	.LVL19:
 163              		.loc 1 338 0
 164 0068 F6D1     		bne	.L13
 165              		.loc 1 344 0
 166 006a 0146     		mov	r1, r0
 167 006c 51F8303B 		ldr	r3, [r1], #48
 168              		.loc 1 341 0
 169 0070 5242     		negs	r2, r2
ARM GAS  /tmp/ccBwa8L7.s 			page 4


 170              	.LVL20:
 171 0072 80F84520 		strb	r2, [r0, #69]
 172              		.loc 1 345 0
 173 0076 70BC     		pop	{r4, r5, r6}
 174              		.loc 1 344 0
 175 0078 03F13000 		add	r0, r3, #48
 176              	.LVL21:
 177 007c 1622     		movs	r2, #22
 178              	.LVL22:
 179 007e 4FF0FF33 		mov	r3, #-1
 180 0082 FFF7FEBF 		b	chOQWriteTimeout
 181              	.LVL23:
 182              	.L14:
 183              		.loc 1 326 0
 184 0086 1A7A     		ldrb	r2, [r3, #8]	@ zero_extendqisi2
 185 0088 0131     		adds	r1, r1, #1
 186              	.LVL24:
 187 008a 89B2     		uxth	r1, r1
 188              	.LVL25:
 189 008c 0AB1     		cbz	r2, .L11
 190              		.loc 1 327 0
 191 008e 83F83520 		strb	r2, [r3, #53]
 192              	.L11:
 193              		.loc 1 325 0
 194 0092 1029     		cmp	r1, #16
 195 0094 03F10103 		add	r3, r3, #1
 196 0098 F5D1     		bne	.L14
 197 009a DBE7     		b	.L16
 198              		.cfi_endproc
 199              	.LFE76:
 200              		.size	vexLcdSendMessage.part.1, .-vexLcdSendMessage.part.1
 201 009c AFF30080 		.section	.text.vexLcdInit,"ax",%progbits
 202              		.align	2
 203              		.p2align 4,,15
 204              		.global	vexLcdInit
 205              		.thumb
 206              		.thumb_func
 207              		.type	vexLcdInit, %function
 208              	vexLcdInit:
 209              	.LFB64:
 210              		.loc 1 131 0
 211              		.cfi_startproc
 212              		@ args = 0, pretend = 0, frame = 0
 213              		@ frame_needed = 0, uses_anonymous_args = 0
 214              	.LVL26:
 215 0000 F0B5     		push	{r4, r5, r6, r7, lr}
 216              		.cfi_def_cfa_offset 20
 217              		.cfi_offset 4, -20
 218              		.cfi_offset 5, -16
 219              		.cfi_offset 6, -12
 220              		.cfi_offset 7, -8
 221              		.cfi_offset 14, -4
 222              		.loc 1 134 0
 223 0002 83B2     		uxth	r3, r0
 224 0004 012B     		cmp	r3, #1
 225              		.loc 1 131 0
 226 0006 83B0     		sub	sp, sp, #12
ARM GAS  /tmp/ccBwa8L7.s 			page 5


 227              		.cfi_def_cfa_offset 32
 228              		.loc 1 134 0
 229 0008 01D9     		bls	.L50
 230              	.LVL27:
 231              	.L31:
 232              		.loc 1 165 0
 233 000a 03B0     		add	sp, sp, #12
 234              		@ sp needed
 235 000c F0BD     		pop	{r4, r5, r6, r7, pc}
 236              	.LVL28:
 237              	.L50:
 238              		.loc 1 138 0
 239 000e 0029     		cmp	r1, #0
 240 0010 FBD0     		beq	.L31
 241              		.loc 1 140 0
 242 0012 4600     		lsls	r6, r0, #1
 243 0014 3218     		adds	r2, r6, r0
 244 0016 40F20005 		movw	r5, #:lower16:.LANCHOR0
 245 001a 5201     		lsls	r2, r2, #5
 246 001c C0F20005 		movt	r5, #:upper16:.LANCHOR0
 247 0020 A950     		str	r1, [r5, r2]
 248              	.LVL29:
 249 0022 0023     		movs	r3, #0
 250 0024 2A44     		add	r2, r2, r5
 251              		.loc 1 144 0
 252 0026 2024     		movs	r4, #32
 253              	.LVL30:
 254              	.L36:
 255 0028 D118     		adds	r1, r2, r3
 256 002a 0133     		adds	r3, r3, #1
 257              	.LVL31:
 258              		.loc 1 143 0 discriminator 2
 259 002c 142B     		cmp	r3, #20
 260              		.loc 1 144 0 discriminator 2
 261 002e 0C72     		strb	r4, [r1, #8]
 262              	.LVL32:
 263              		.loc 1 143 0 discriminator 2
 264 0030 FAD1     		bne	.L36
 265              		.loc 1 145 0
 266 0032 3118     		adds	r1, r6, r0
 267 0034 05EB4111 		add	r1, r5, r1, lsl #5
 268 0038 0023     		movs	r3, #0
 269 003a 0B76     		strb	r3, [r1, #24]
 270              	.LVL33:
 271              		.loc 1 148 0
 272 003c 2024     		movs	r4, #32
 273              	.LVL34:
 274              	.L38:
 275 003e D118     		adds	r1, r2, r3
 276 0040 0133     		adds	r3, r3, #1
 277              	.LVL35:
 278              		.loc 1 147 0 discriminator 2
 279 0042 142B     		cmp	r3, #20
 280              		.loc 1 148 0 discriminator 2
 281 0044 0C77     		strb	r4, [r1, #28]
 282              	.LVL36:
 283              		.loc 1 147 0 discriminator 2
ARM GAS  /tmp/ccBwa8L7.s 			page 6


 284 0046 FAD1     		bne	.L38
 285              		.loc 1 149 0
 286 0048 3418     		adds	r4, r6, r0
 287 004a 0021     		movs	r1, #0
 288 004c 05EB4414 		add	r4, r5, r4, lsl #5
 289 0050 84F82C10 		strb	r1, [r4, #44]
 290              	.LVL37:
 291 0054 0B46     		mov	r3, r1
 292              		.loc 1 153 0
 293 0056 0C46     		mov	r4, r1
 294              	.LVL38:
 295              	.L40:
 296 0058 D118     		adds	r1, r2, r3
 297 005a 0133     		adds	r3, r3, #1
 298              	.LVL39:
 299              		.loc 1 152 0 discriminator 2
 300 005c 202B     		cmp	r3, #32
 301              		.loc 1 153 0 discriminator 2
 302 005e 81F83040 		strb	r4, [r1, #48]
 303              	.LVL40:
 304              		.loc 1 152 0 discriminator 2
 305 0062 F9D1     		bne	.L40
 306              		.loc 1 152 0 is_stmt 0
 307 0064 0023     		movs	r3, #0
 308              		.loc 1 155 0 is_stmt 1
 309 0066 1C46     		mov	r4, r3
 310              	.L42:
 311              	.LVL41:
 312 0068 D118     		adds	r1, r2, r3
 313 006a 0133     		adds	r3, r3, #1
 314              	.LVL42:
 315              		.loc 1 154 0 discriminator 2
 316 006c 102B     		cmp	r3, #16
 317              		.loc 1 155 0 discriminator 2
 318 006e 81F85040 		strb	r4, [r1, #80]
 319              	.LVL43:
 320              		.loc 1 154 0 discriminator 2
 321 0072 F9D1     		bne	.L42
 322              		.loc 1 159 0
 323 0074 40F20004 		movw	r4, #:lower16:.LANCHOR1
 324 0078 C0F20004 		movt	r4, #:upper16:.LANCHOR1
 325              		.loc 1 156 0
 326 007c 3044     		add	r0, r0, r6
 327              	.LVL44:
 328              		.loc 1 159 0
 329 007e B4F90020 		ldrsh	r2, [r4]
 330              		.loc 1 156 0
 331 0082 05EB4015 		add	r5, r5, r0, lsl #5
 332 0086 0127     		movs	r7, #1
 333 0088 AF80     		strh	r7, [r5, #4]	@ movhi
 334              		.loc 1 159 0
 335 008a 002A     		cmp	r2, #0
 336 008c BDD1     		bne	.L31
 337              		.loc 1 162 0
 338 008e 40F20000 		movw	r0, #:lower16:.LANCHOR2
 339 0092 40F20003 		movw	r3, #:lower16:VexLcdUpdate
 340 0096 0092     		str	r2, [sp]
ARM GAS  /tmp/ccBwa8L7.s 			page 7


 341 0098 C0F20003 		movt	r3, #:upper16:VexLcdUpdate
 342 009c 4FF4C071 		mov	r1, #384
 343 00a0 4022     		movs	r2, #64
 344              		.loc 1 161 0
 345 00a2 2780     		strh	r7, [r4]	@ movhi
 346              		.loc 1 162 0
 347 00a4 C0F20000 		movt	r0, #:upper16:.LANCHOR2
 348 00a8 FFF7FEFF 		bl	chThdCreateStatic
 349              	.LVL45:
 350              		.loc 1 165 0
 351 00ac 03B0     		add	sp, sp, #12
 352              		@ sp needed
 353 00ae F0BD     		pop	{r4, r5, r6, r7, pc}
 354              		.cfi_endproc
 355              	.LFE64:
 356              		.size	vexLcdInit, .-vexLcdInit
 357              		.section	.text.vexLcdSet,"ax",%progbits
 358              		.align	2
 359              		.p2align 4,,15
 360              		.global	vexLcdSet
 361              		.thumb
 362              		.thumb_func
 363              		.type	vexLcdSet, %function
 364              	vexLcdSet:
 365              	.LFB65:
 366              		.loc 1 176 0
 367              		.cfi_startproc
 368              		@ args = 0, pretend = 0, frame = 0
 369              		@ frame_needed = 0, uses_anonymous_args = 0
 370              		@ link register save eliminated.
 371              	.LVL46:
 372              		.loc 1 177 0
 373 0000 83B2     		uxth	r3, r0
 374 0002 012B     		cmp	r3, #1
 375 0004 00D9     		bls	.L53
 376 0006 7047     		bx	lr
 377              	.L53:
 378 0008 FFF7FEBF 		b	vexLcdSet.part.0
 379              	.LVL47:
 380              		.cfi_endproc
 381              	.LFE65:
 382              		.size	vexLcdSet, .-vexLcdSet
 383 000c AFF30080 		.section	.text.vexLcdSetAt,"ax",%progbits
 384              		.align	2
 385              		.p2align 4,,15
 386              		.global	vexLcdSetAt
 387              		.thumb
 388              		.thumb_func
 389              		.type	vexLcdSetAt, %function
 390              	vexLcdSetAt:
 391              	.LFB66:
 392              		.loc 1 196 0
 393              		.cfi_startproc
 394              		@ args = 0, pretend = 0, frame = 0
 395              		@ frame_needed = 0, uses_anonymous_args = 0
 396              		@ link register save eliminated.
 397              	.LVL48:
ARM GAS  /tmp/ccBwa8L7.s 			page 8


 398 0000 10B4     		push	{r4}
 399              		.cfi_def_cfa_offset 4
 400              		.cfi_offset 4, -4
 401              		.loc 1 197 0
 402 0002 84B2     		uxth	r4, r0
 403 0004 012C     		cmp	r4, #1
 404 0006 02D9     		bls	.L58
 405              	.L54:
 406              		.loc 1 207 0
 407 0008 5DF8044B 		ldr	r4, [sp], #4
 408 000c 7047     		bx	lr
 409              	.L58:
 410              		.loc 1 200 0
 411 000e 94B2     		uxth	r4, r2
 412 0010 0F2C     		cmp	r4, #15
 413 0012 F9D8     		bhi	.L54
 414              		.loc 1 204 0
 415 0014 00EB4000 		add	r0, r0, r0, lsl #1
 416              	.LVL49:
 417              		.loc 1 203 0
 418 0018 51B1     		cbz	r1, .L59
 419              		.loc 1 206 0
 420 001a 064C     		ldr	r4, .L60
 421              	.L57:
 422 001c 02EB4010 		add	r0, r2, r0, lsl #5
 423 0020 2044     		add	r0, r0, r4
 424 0022 1946     		mov	r1, r3
 425              	.LVL50:
 426 0024 C2F11002 		rsb	r2, r2, #16
 427              	.LVL51:
 428              		.loc 1 207 0
 429 0028 5DF8044B 		ldr	r4, [sp], #4
 430              		.loc 1 206 0
 431 002c FFF7FEBF 		b	strncpy
 432              	.LVL52:
 433              	.L59:
 434              		.loc 1 204 0
 435 0030 014C     		ldr	r4, .L60+4
 436 0032 F3E7     		b	.L57
 437              	.L61:
 438              		.align	2
 439              	.L60:
 440 0034 1C000000 		.word	.LANCHOR0+28
 441 0038 08000000 		.word	.LANCHOR0+8
 442              		.cfi_endproc
 443              	.LFE66:
 444              		.size	vexLcdSetAt, .-vexLcdSetAt
 445 003c AFF30080 		.section	.text.vexLcdPrintf,"ax",%progbits
 446              		.align	2
 447              		.p2align 4,,15
 448              		.global	vexLcdPrintf
 449              		.thumb
 450              		.thumb_func
 451              		.type	vexLcdPrintf, %function
 452              	vexLcdPrintf:
 453              	.LFB67:
 454              		.loc 1 218 0
ARM GAS  /tmp/ccBwa8L7.s 			page 9


 455              		.cfi_startproc
 456              		@ args = 4, pretend = 8, frame = 8
 457              		@ frame_needed = 0, uses_anonymous_args = 1
 458              	.LVL53:
 459 0000 0CB4     		push	{r2, r3}
 460              		.cfi_def_cfa_offset 8
 461              		.cfi_offset 2, -8
 462              		.cfi_offset 3, -4
 463 0002 70B5     		push	{r4, r5, r6, lr}
 464              		.cfi_def_cfa_offset 24
 465              		.cfi_offset 4, -24
 466              		.cfi_offset 5, -20
 467              		.cfi_offset 6, -16
 468              		.cfi_offset 14, -12
 469 0004 82B0     		sub	sp, sp, #8
 470              		.cfi_def_cfa_offset 32
 471              		.loc 1 218 0
 472 0006 06AC     		add	r4, sp, #24
 473 0008 54F8042B 		ldr	r2, [r4], #4
 474 000c 0546     		mov	r5, r0
 475              		.loc 1 224 0
 476 000e 40F20000 		movw	r0, #:lower16:.LANCHOR3
 477              	.LVL54:
 478 0012 2346     		mov	r3, r4
 479              		.loc 1 218 0
 480 0014 0E46     		mov	r6, r1
 481              		.loc 1 224 0
 482 0016 C0F20000 		movt	r0, #:upper16:.LANCHOR3
 483 001a 2021     		movs	r1, #32
 484              	.LVL55:
 485              		.loc 1 221 0
 486 001c 0194     		str	r4, [sp, #4]
 487              		.loc 1 224 0
 488 001e FFF7FEFF 		bl	vex_vsnprintf
 489              	.LVL56:
 490              	.LBB17:
 491              	.LBB18:
 492              		.loc 1 177 0
 493 0022 ABB2     		uxth	r3, r5
 494 0024 012B     		cmp	r3, #1
 495 0026 04D9     		bls	.L64
 496              	.LBE18:
 497              	.LBE17:
 498              		.loc 1 229 0
 499 0028 02B0     		add	sp, sp, #8
 500              		@ sp needed
 501 002a BDE87040 		pop	{r4, r5, r6, lr}
 502              	.LVL57:
 503 002e 02B0     		add	sp, sp, #8
 504 0030 7047     		bx	lr
 505              	.LVL58:
 506              	.L64:
 507              	.LBB20:
 508              	.LBB19:
 509 0032 40F20002 		movw	r2, #:lower16:.LANCHOR3
 510 0036 2846     		mov	r0, r5
 511 0038 3146     		mov	r1, r6
ARM GAS  /tmp/ccBwa8L7.s 			page 10


 512 003a C0F20002 		movt	r2, #:upper16:.LANCHOR3
 513 003e FFF7FEFF 		bl	vexLcdSet.part.0
 514              	.LVL59:
 515              	.LBE19:
 516              	.LBE20:
 517 0042 02B0     		add	sp, sp, #8
 518              		@ sp needed
 519 0044 BDE87040 		pop	{r4, r5, r6, lr}
 520              	.LVL60:
 521 0048 02B0     		add	sp, sp, #8
 522 004a 7047     		bx	lr
 523              		.cfi_endproc
 524              	.LFE67:
 525              		.size	vexLcdPrintf, .-vexLcdPrintf
 526 004c AFF30080 		.section	.text.vexLcdPrintfAt,"ax",%progbits
 527              		.align	2
 528              		.p2align 4,,15
 529              		.global	vexLcdPrintfAt
 530              		.thumb
 531              		.thumb_func
 532              		.type	vexLcdPrintfAt, %function
 533              	vexLcdPrintfAt:
 534              	.LFB68:
 535              		.loc 1 241 0
 536              		.cfi_startproc
 537              		@ args = 4, pretend = 4, frame = 8
 538              		@ frame_needed = 0, uses_anonymous_args = 1
 539              	.LVL61:
 540 0000 08B4     		push	{r3}
 541              		.cfi_def_cfa_offset 4
 542              		.cfi_offset 3, -4
 543 0002 2DE9F043 		push	{r4, r5, r6, r7, r8, r9, lr}
 544              		.cfi_def_cfa_offset 32
 545              		.cfi_offset 4, -32
 546              		.cfi_offset 5, -28
 547              		.cfi_offset 6, -24
 548              		.cfi_offset 7, -20
 549              		.cfi_offset 8, -16
 550              		.cfi_offset 9, -12
 551              		.cfi_offset 14, -8
 552 0006 82B0     		sub	sp, sp, #8
 553              		.cfi_def_cfa_offset 40
 554              		.loc 1 241 0
 555 0008 09AD     		add	r5, sp, #36
 556 000a 55F8046B 		ldr	r6, [r5], #4
 557              		.loc 1 247 0
 558 000e 40F20004 		movw	r4, #:lower16:.LANCHOR3
 559 0012 C0F20004 		movt	r4, #:upper16:.LANCHOR3
 560              		.loc 1 241 0
 561 0016 8146     		mov	r9, r0
 562 0018 8846     		mov	r8, r1
 563 001a 1746     		mov	r7, r2
 564              		.loc 1 247 0
 565 001c 2B46     		mov	r3, r5
 566 001e 3246     		mov	r2, r6
 567              	.LVL62:
 568 0020 2046     		mov	r0, r4
ARM GAS  /tmp/ccBwa8L7.s 			page 11


 569              	.LVL63:
 570 0022 2021     		movs	r1, #32
 571              	.LVL64:
 572              		.loc 1 244 0
 573 0024 0195     		str	r5, [sp, #4]
 574              		.loc 1 247 0
 575 0026 FFF7FEFF 		bl	vex_vsnprintf
 576              	.LVL65:
 577              		.loc 1 249 0
 578 002a 4846     		mov	r0, r9
 579 002c 4146     		mov	r1, r8
 580 002e 3A46     		mov	r2, r7
 581 0030 2346     		mov	r3, r4
 582 0032 FFF7FEFF 		bl	vexLcdSetAt
 583              	.LVL66:
 584              		.loc 1 252 0
 585 0036 02B0     		add	sp, sp, #8
 586              		@ sp needed
 587 0038 BDE8F043 		pop	{r4, r5, r6, r7, r8, r9, lr}
 588 003c 01B0     		add	sp, sp, #4
 589 003e 7047     		bx	lr
 590              		.cfi_endproc
 591              	.LFE68:
 592              		.size	vexLcdPrintfAt, .-vexLcdPrintfAt
 593              		.section	.text.vexLcdClearLine,"ax",%progbits
 594              		.align	2
 595              		.p2align 4,,15
 596              		.global	vexLcdClearLine
 597              		.thumb
 598              		.thumb_func
 599              		.type	vexLcdClearLine, %function
 600              	vexLcdClearLine:
 601              	.LFB69:
 602              		.loc 1 261 0
 603              		.cfi_startproc
 604              		@ args = 0, pretend = 0, frame = 0
 605              		@ frame_needed = 0, uses_anonymous_args = 0
 606              		@ link register save eliminated.
 607              	.LVL67:
 608              	.LBB21:
 609              	.LBB22:
 610              		.loc 1 177 0
 611 0000 83B2     		uxth	r3, r0
 612 0002 012B     		cmp	r3, #1
 613 0004 00D9     		bls	.L68
 614 0006 7047     		bx	lr
 615              	.L68:
 616 0008 40F20002 		movw	r2, #:lower16:.LC0
 617 000c C0F20002 		movt	r2, #:upper16:.LC0
 618 0010 FFF7FEBF 		b	vexLcdSet.part.0
 619              	.LVL68:
 620              	.LBE22:
 621              	.LBE21:
 622              		.cfi_endproc
 623              	.LFE69:
 624              		.size	vexLcdClearLine, .-vexLcdClearLine
 625 0014 AFF30080 		.section	.text.vexLcdBacklight,"ax",%progbits
ARM GAS  /tmp/ccBwa8L7.s 			page 12


 625      AFF30080 
 625      AFF30080 
 626              		.align	2
 627              		.p2align 4,,15
 628              		.global	vexLcdBacklight
 629              		.thumb
 630              		.thumb_func
 631              		.type	vexLcdBacklight, %function
 632              	vexLcdBacklight:
 633              	.LFB70:
 634              		.loc 1 273 0
 635              		.cfi_startproc
 636              		@ args = 0, pretend = 0, frame = 0
 637              		@ frame_needed = 0, uses_anonymous_args = 0
 638              		@ link register save eliminated.
 639              	.LVL69:
 640              		.loc 1 274 0
 641 0000 83B2     		uxth	r3, r0
 642 0002 012B     		cmp	r3, #1
 643 0004 13D8     		bhi	.L69
 644              		.loc 1 277 0
 645 0006 4200     		lsls	r2, r0, #1
 646 0008 40F20003 		movw	r3, #:lower16:.LANCHOR0
 647 000c 0129     		cmp	r1, #1
 648 000e C0F20003 		movt	r3, #:upper16:.LANCHOR0
 649 0012 02EB0001 		add	r1, r2, r0
 650              	.LVL70:
 651 0016 03EB4111 		add	r1, r3, r1, lsl #5
 652 001a 8979     		ldrb	r1, [r1, #6]	@ zero_extendqisi2
 653 001c 1044     		add	r0, r0, r2
 654              	.LVL71:
 655 001e 0CBF     		ite	eq
 656 0020 41F00101 		orreq	r1, r1, #1
 657 0024 01F0FE01 		andne	r1, r1, #254
 658 0028 03EB4013 		add	r3, r3, r0, lsl #5
 659 002c 9971     		strb	r1, [r3, #6]
 660              	.L69:
 661 002e 7047     		bx	lr
 662              		.cfi_endproc
 663              	.LFE70:
 664              		.size	vexLcdBacklight, .-vexLcdBacklight
 665              		.section	.text.vexLcdButtonGet,"ax",%progbits
 666              		.align	2
 667              		.p2align 4,,15
 668              		.global	vexLcdButtonGet
 669              		.thumb
 670              		.thumb_func
 671              		.type	vexLcdButtonGet, %function
 672              	vexLcdButtonGet:
 673              	.LFB71:
 674              		.loc 1 288 0
 675              		.cfi_startproc
 676              		@ args = 0, pretend = 0, frame = 0
 677              		@ frame_needed = 0, uses_anonymous_args = 0
 678              		@ link register save eliminated.
 679              	.LVL72:
 680              		.loc 1 289 0
ARM GAS  /tmp/ccBwa8L7.s 			page 13


 681 0000 83B2     		uxth	r3, r0
 682 0002 012B     		cmp	r3, #1
 683              		.loc 1 292 0
 684 0004 9FBF     		itttt	ls
 685 0006 40F20003 		movwls	r3, #:lower16:.LANCHOR0
 686 000a 00EB4000 		addls	r0, r0, r0, lsl #1
 687              	.LVL73:
 688 000e C0F20003 		movtls	r3, #:upper16:.LANCHOR0
 689 0012 03EB4013 		addls	r3, r3, r0, lsl #5
 690 0016 94BF     		ite	ls
 691 0018 D879     		ldrbls	r0, [r3, #7]	@ zero_extendqisi2
 692              		.loc 1 290 0
 693 001a 0020     		movhi	r0, #0
 694              		.loc 1 293 0
 695 001c 7047     		bx	lr
 696              		.cfi_endproc
 697              	.LFE71:
 698              		.size	vexLcdButtonGet, .-vexLcdButtonGet
 699 001e 00BF     		.section	.text.vexLcdSendMessage,"ax",%progbits
 700              		.align	2
 701              		.p2align 4,,15
 702              		.global	vexLcdSendMessage
 703              		.thumb
 704              		.thumb_func
 705              		.type	vexLcdSendMessage, %function
 706              	vexLcdSendMessage:
 707              	.LFB72:
 708              		.loc 1 304 0
 709              		.cfi_startproc
 710              		@ args = 0, pretend = 0, frame = 0
 711              		@ frame_needed = 0, uses_anonymous_args = 0
 712              		@ link register save eliminated.
 713              	.LVL74:
 714              		.loc 1 309 0
 715 0000 8BB2     		uxth	r3, r1
 716 0002 012B     		cmp	r3, #1
 717 0004 00D9     		bls	.L78
 718 0006 7047     		bx	lr
 719              	.L78:
 720 0008 FFF7FEBF 		b	vexLcdSendMessage.part.1
 721              	.LVL75:
 722              		.cfi_endproc
 723              	.LFE72:
 724              		.size	vexLcdSendMessage, .-vexLcdSendMessage
 725 000c AFF30080 		.section	.text.vexLcdCheckReceiveMessage,"ax",%progbits
 726              		.align	2
 727              		.p2align 4,,15
 728              		.global	vexLcdCheckReceiveMessage
 729              		.thumb
 730              		.thumb_func
 731              		.type	vexLcdCheckReceiveMessage, %function
 732              	vexLcdCheckReceiveMessage:
 733              	.LFB73:
 734              		.loc 1 355 0
 735              		.cfi_startproc
 736              		@ args = 0, pretend = 0, frame = 0
 737              		@ frame_needed = 0, uses_anonymous_args = 0
ARM GAS  /tmp/ccBwa8L7.s 			page 14


 738              	.LVL76:
 739 0000 70B5     		push	{r4, r5, r6, lr}
 740              		.cfi_def_cfa_offset 16
 741              		.cfi_offset 4, -16
 742              		.cfi_offset 5, -12
 743              		.cfi_offset 6, -8
 744              		.cfi_offset 14, -4
 745              		.loc 1 355 0
 746 0002 0646     		mov	r6, r0
 747              		.loc 1 359 0
 748 0004 0068     		ldr	r0, [r0]
 749              	.LVL77:
 750 0006 4269     		ldr	r2, [r0, #20]
 751 0008 B2B1     		cbz	r2, .L79
 752 000a 3546     		mov	r5, r6
 753 000c 0024     		movs	r4, #0
 754 000e 00E0     		b	.L85
 755              	.LVL78:
 756              	.L91:
 757 0010 3068     		ldr	r0, [r6]
 758              	.LVL79:
 759              	.L85:
 760              	.LBB29:
 761              		.loc 1 367 0
 762 0012 0C30     		adds	r0, r0, #12
 763 0014 0021     		movs	r1, #0
 764 0016 FFF7FEFF 		bl	chIQGetTimeout
 765              	.LVL80:
 766              		.loc 1 368 0
 767 001a 03B2     		sxth	r3, r0
 768 001c 0133     		adds	r3, r3, #1
 769 001e 04F10102 		add	r2, r4, #1
 770 0022 15D0     		beq	.L82
 771 0024 94B2     		uxth	r4, r2
 772              	.LVL81:
 773              	.LBE29:
 774              		.loc 1 363 0
 775 0026 102C     		cmp	r4, #16
 776              	.LBB30:
 777              		.loc 1 369 0
 778 0028 85F85000 		strb	r0, [r5, #80]
 779 002c 05F10105 		add	r5, r5, #1
 780              	.LBE30:
 781              		.loc 1 363 0
 782 0030 EED1     		bne	.L91
 783              	.LVL82:
 784              	.L84:
 785              		.loc 1 385 0
 786 0032 3368     		ldr	r3, [r6]
 787 0034 5B69     		ldr	r3, [r3, #20]
 788 0036 03B9     		cbnz	r3, .L92
 789              	.LVL83:
 790              	.L79:
 791 0038 70BD     		pop	{r4, r5, r6, pc}
 792              	.LVL84:
 793              	.L92:
 794              	.LBB31:
ARM GAS  /tmp/ccBwa8L7.s 			page 15


 795              	.LBB32:
 796              	.LBB33:
 797              		.loc 1 387 0
 798 003a 2023     		movs	r3, #32
 799              	@ 387 "../../fw/vexlcd.c" 1
 800 003c 83F31188 		msr     BASEPRI, r3
 801              	@ 0 "" 2
 802              		.thumb
 803              	.LBE33:
 804              		.loc 1 388 0
 805 0040 3068     		ldr	r0, [r6]
 806              	.LVL85:
 807 0042 0C30     		adds	r0, r0, #12
 808 0044 FFF7FEFF 		bl	chIQResetI
 809              	.LVL86:
 810              	.LBB34:
 811              		.loc 1 389 0
 812 0048 0023     		movs	r3, #0
 813              	@ 389 "../../fw/vexlcd.c" 1
 814 004a 83F31188 		msr     BASEPRI, r3
 815              	@ 0 "" 2
 816              		.thumb
 817 004e 70BD     		pop	{r4, r5, r6, pc}
 818              	.LVL87:
 819              	.L82:
 820              	.LBE34:
 821              	.LBE32:
 822              	.LBE31:
 823              		.loc 1 375 0
 824 0050 062C     		cmp	r4, #6
 825 0052 EED1     		bne	.L84
 826              		.loc 1 378 0
 827 0054 326D     		ldr	r2, [r6, #80]
 828 0056 45F2AA53 		movw	r3, #21930
 829 005a 22F07F42 		bic	r2, r2, #-16777216
 830 005e C0F21603 		movt	r3, 22
 831 0062 9A42     		cmp	r2, r3
 832 0064 E5D1     		bne	.L84
 833              		.loc 1 380 0
 834 0066 96F85430 		ldrb	r3, [r6, #84]	@ zero_extendqisi2
 835 006a 96F85520 		ldrb	r2, [r6, #85]	@ zero_extendqisi2
 836 006e 1A44     		add	r2, r2, r3
 837 0070 12F0FF0F 		tst	r2, #255
 838              		.loc 1 381 0
 839 0074 08BF     		it	eq
 840 0076 F371     		strbeq	r3, [r6, #7]
 841 0078 DBE7     		b	.L84
 842              		.cfi_endproc
 843              	.LFE73:
 844              		.size	vexLcdCheckReceiveMessage, .-vexLcdCheckReceiveMessage
 845 007a 00BFAFF3 		.section	.text.VexLcdUpdate,"ax",%progbits
 845      0080
 846              		.align	2
 847              		.p2align 4,,15
 848              		.thumb
 849              		.thumb_func
 850              		.type	VexLcdUpdate, %function
ARM GAS  /tmp/ccBwa8L7.s 			page 16


 851              	VexLcdUpdate:
 852              	.LFB63:
 853              		.loc 1 85 0
 854              		.cfi_startproc
 855              		@ Volatile: function does not return.
 856              		@ args = 0, pretend = 0, frame = 0
 857              		@ frame_needed = 0, uses_anonymous_args = 0
 858              	.LVL88:
 859 0000 08B5     		push	{r3, lr}
 860              		.cfi_def_cfa_offset 8
 861              		.cfi_offset 3, -8
 862              		.cfi_offset 14, -4
 863              		.loc 1 88 0
 864 0002 40F20003 		movw	r3, #:lower16:rlist
 865 0006 C0F20003 		movt	r3, #:upper16:rlist
 866 000a 9A69     		ldr	r2, [r3, #24]
 867 000c 40F20003 		movw	r3, #:lower16:.LC1
 868 0010 C0F20003 		movt	r3, #:upper16:.LC1
 869 0014 40F20004 		movw	r4, #:lower16:.LANCHOR0
 870 0018 9361     		str	r3, [r2, #24]
 871 001a C0F20004 		movt	r4, #:upper16:.LANCHOR0
 872 001e 20E0     		b	.L102
 873              	.LVL89:
 874              	.L94:
 875              		.loc 1 94 0
 876 0020 B4F96430 		ldrsh	r3, [r4, #100]
 877 0024 63BB     		cbnz	r3, .L125
 878              	.L95:
 879              		.loc 1 97 0
 880 0026 1920     		movs	r0, #25
 881 0028 FFF7FEFF 		bl	chThdSleep
 882              	.LVL90:
 883              		.loc 1 100 0
 884 002c B4F90430 		ldrsh	r3, [r4, #4]
 885 0030 002B     		cmp	r3, #0
 886 0032 30D1     		bne	.L126
 887              	.L96:
 888              		.loc 1 102 0
 889 0034 B4F96430 		ldrsh	r3, [r4, #100]
 890 0038 002B     		cmp	r3, #0
 891 003a 36D1     		bne	.L127
 892              	.L97:
 893              		.loc 1 106 0
 894 003c B4F90430 		ldrsh	r3, [r4, #4]
 895 0040 002B     		cmp	r3, #0
 896 0042 39D1     		bne	.L128
 897              	.L98:
 898              		.loc 1 108 0
 899 0044 B4F96430 		ldrsh	r3, [r4, #100]
 900 0048 002B     		cmp	r3, #0
 901 004a 40D1     		bne	.L129
 902              	.L99:
 903              		.loc 1 111 0
 904 004c 1920     		movs	r0, #25
 905 004e FFF7FEFF 		bl	chThdSleep
 906              	.LVL91:
 907              		.loc 1 114 0
ARM GAS  /tmp/ccBwa8L7.s 			page 17


 908 0052 B4F90430 		ldrsh	r3, [r4, #4]
 909 0056 002B     		cmp	r3, #0
 910 0058 44D1     		bne	.L130
 911              	.L100:
 912              		.loc 1 116 0
 913 005a B4F96430 		ldrsh	r3, [r4, #100]
 914 005e 002B     		cmp	r3, #0
 915 0060 4AD1     		bne	.L131
 916              	.L102:
 917              		.loc 1 92 0
 918 0062 B4F90430 		ldrsh	r3, [r4, #4]
 919 0066 002B     		cmp	r3, #0
 920 0068 DAD0     		beq	.L94
 921              	.LVL92:
 922              	.LBB35:
 923              	.LBB36:
 924 006a 40F20000 		movw	r0, #:lower16:.LANCHOR0
 925 006e C0F20000 		movt	r0, #:upper16:.LANCHOR0
 926 0072 0021     		movs	r1, #0
 927 0074 FFF7FEFF 		bl	vexLcdSendMessage.part.1
 928              	.LVL93:
 929              	.LBE36:
 930              	.LBE35:
 931              		.loc 1 94 0
 932 0078 B4F96430 		ldrsh	r3, [r4, #100]
 933 007c 002B     		cmp	r3, #0
 934 007e D2D0     		beq	.L95
 935              	.LVL94:
 936              	.L125:
 937              	.LBB37:
 938              	.LBB38:
 939 0080 1F48     		ldr	r0, .L132
 940 0082 0021     		movs	r1, #0
 941 0084 FFF7FEFF 		bl	vexLcdSendMessage.part.1
 942              	.LVL95:
 943              	.LBE38:
 944              	.LBE37:
 945              		.loc 1 97 0
 946 0088 1920     		movs	r0, #25
 947 008a FFF7FEFF 		bl	chThdSleep
 948              	.LVL96:
 949              		.loc 1 100 0
 950 008e B4F90430 		ldrsh	r3, [r4, #4]
 951 0092 002B     		cmp	r3, #0
 952 0094 CED0     		beq	.L96
 953              	.LVL97:
 954              	.L126:
 955              		.loc 1 101 0
 956 0096 40F20000 		movw	r0, #:lower16:.LANCHOR0
 957 009a C0F20000 		movt	r0, #:upper16:.LANCHOR0
 958 009e FFF7FEFF 		bl	vexLcdCheckReceiveMessage
 959              	.LVL98:
 960              		.loc 1 102 0
 961 00a2 B4F96430 		ldrsh	r3, [r4, #100]
 962 00a6 002B     		cmp	r3, #0
 963 00a8 C8D0     		beq	.L97
 964              	.L127:
ARM GAS  /tmp/ccBwa8L7.s 			page 18


 965              		.loc 1 103 0
 966 00aa 1548     		ldr	r0, .L132
 967 00ac FFF7FEFF 		bl	vexLcdCheckReceiveMessage
 968              	.LVL99:
 969              		.loc 1 106 0
 970 00b0 B4F90430 		ldrsh	r3, [r4, #4]
 971 00b4 002B     		cmp	r3, #0
 972 00b6 C5D0     		beq	.L98
 973              	.L128:
 974              	.LVL100:
 975              	.LBB39:
 976              	.LBB40:
 977 00b8 40F20000 		movw	r0, #:lower16:.LANCHOR0
 978 00bc C0F20000 		movt	r0, #:upper16:.LANCHOR0
 979 00c0 0121     		movs	r1, #1
 980 00c2 FFF7FEFF 		bl	vexLcdSendMessage.part.1
 981              	.LVL101:
 982              	.LBE40:
 983              	.LBE39:
 984              		.loc 1 108 0
 985 00c6 B4F96430 		ldrsh	r3, [r4, #100]
 986 00ca 002B     		cmp	r3, #0
 987 00cc BED0     		beq	.L99
 988              	.LVL102:
 989              	.L129:
 990              	.LBB41:
 991              	.LBB42:
 992 00ce 0C48     		ldr	r0, .L132
 993 00d0 0121     		movs	r1, #1
 994 00d2 FFF7FEFF 		bl	vexLcdSendMessage.part.1
 995              	.LVL103:
 996              	.LBE42:
 997              	.LBE41:
 998              		.loc 1 111 0
 999 00d6 1920     		movs	r0, #25
 1000 00d8 FFF7FEFF 		bl	chThdSleep
 1001              	.LVL104:
 1002              		.loc 1 114 0
 1003 00dc B4F90430 		ldrsh	r3, [r4, #4]
 1004 00e0 002B     		cmp	r3, #0
 1005 00e2 BAD0     		beq	.L100
 1006              	.LVL105:
 1007              	.L130:
 1008              		.loc 1 115 0
 1009 00e4 40F20000 		movw	r0, #:lower16:.LANCHOR0
 1010 00e8 C0F20000 		movt	r0, #:upper16:.LANCHOR0
 1011 00ec FFF7FEFF 		bl	vexLcdCheckReceiveMessage
 1012              	.LVL106:
 1013              		.loc 1 116 0
 1014 00f0 B4F96430 		ldrsh	r3, [r4, #100]
 1015 00f4 002B     		cmp	r3, #0
 1016 00f6 B4D0     		beq	.L102
 1017              	.L131:
 1018              		.loc 1 117 0
 1019 00f8 0148     		ldr	r0, .L132
 1020 00fa FFF7FEFF 		bl	vexLcdCheckReceiveMessage
 1021              	.LVL107:
ARM GAS  /tmp/ccBwa8L7.s 			page 19


 1022 00fe B0E7     		b	.L102
 1023              	.L133:
 1024              		.align	2
 1025              	.L132:
 1026 0100 60000000 		.word	.LANCHOR0+96
 1027              		.cfi_endproc
 1028              	.LFE63:
 1029              		.size	VexLcdUpdate, .-VexLcdUpdate
 1030 0104 AFF30080 		.section	.text.vexLcdDebug,"ax",%progbits
 1030      AFF30080 
 1030      AFF30080 
 1031              		.align	2
 1032              		.p2align 4,,15
 1033              		.global	vexLcdDebug
 1034              		.thumb
 1035              		.thumb_func
 1036              		.type	vexLcdDebug, %function
 1037              	vexLcdDebug:
 1038              	.LFB74:
 1039              		.loc 1 403 0
 1040              		.cfi_startproc
 1041              		@ args = 0, pretend = 0, frame = 0
 1042              		@ frame_needed = 0, uses_anonymous_args = 0
 1043              	.LVL108:
 1044 0000 38B5     		push	{r3, r4, r5, lr}
 1045              		.cfi_def_cfa_offset 16
 1046              		.cfi_offset 3, -16
 1047              		.cfi_offset 4, -12
 1048              		.cfi_offset 5, -8
 1049              		.cfi_offset 14, -4
 1050              		.loc 1 407 0
 1051 0002 40F20004 		movw	r4, #:lower16:.LANCHOR0
 1052 0006 C0F20004 		movt	r4, #:upper16:.LANCHOR0
 1053 000a B4F90430 		ldrsh	r3, [r4, #4]
 1054              		.loc 1 403 0
 1055 000e 0546     		mov	r5, r0
 1056              		.loc 1 407 0
 1057 0010 93BB     		cbnz	r3, .L140
 1058              	.LVL109:
 1059              	.L135:
 1060              		.loc 1 415 0
 1061 0012 B4F96430 		ldrsh	r3, [r4, #100]
 1062 0016 40F20004 		movw	r4, #:lower16:.LANCHOR0
 1063 001a C0F20004 		movt	r4, #:upper16:.LANCHOR0
 1064 001e 03B9     		cbnz	r3, .L141
 1065 0020 38BD     		pop	{r3, r4, r5, pc}
 1066              	.LVL110:
 1067              	.L141:
 1068              		.loc 1 416 0
 1069 0022 40F20001 		movw	r1, #:lower16:.LC2
 1070 0026 C0F20001 		movt	r1, #:upper16:.LC2
 1071 002a 2846     		mov	r0, r5
 1072 002c FFF7FEFF 		bl	vex_chprintf
 1073              	.LVL111:
 1074              		.loc 1 417 0
 1075 0030 40F20001 		movw	r1, #:lower16:.LC6
 1076 0034 2846     		mov	r0, r5
ARM GAS  /tmp/ccBwa8L7.s 			page 20


 1077 0036 C0F20001 		movt	r1, #:upper16:.LC6
 1078 003a FFF7FEFF 		bl	vex_chprintf
 1079              	.LVL112:
 1080              		.loc 1 418 0
 1081 003e 40F20001 		movw	r1, #:lower16:.LC4
 1082 0042 04F16802 		add	r2, r4, #104
 1083 0046 2846     		mov	r0, r5
 1084 0048 C0F20001 		movt	r1, #:upper16:.LC4
 1085 004c FFF7FEFF 		bl	vex_chprintf
 1086              	.LVL113:
 1087              		.loc 1 419 0
 1088 0050 40F20001 		movw	r1, #:lower16:.LC4
 1089 0054 04F17C02 		add	r2, r4, #124
 1090 0058 2846     		mov	r0, r5
 1091 005a C0F20001 		movt	r1, #:upper16:.LC4
 1092 005e FFF7FEFF 		bl	vex_chprintf
 1093              	.LVL114:
 1094              		.loc 1 420 0
 1095 0062 40F20001 		movw	r1, #:lower16:.LC5
 1096 0066 2846     		mov	r0, r5
 1097 0068 94F86720 		ldrb	r2, [r4, #103]	@ zero_extendqisi2
 1098 006c C0F20001 		movt	r1, #:upper16:.LC5
 1099              		.loc 1 422 0
 1100 0070 BDE83840 		pop	{r3, r4, r5, lr}
 1101              	.LVL115:
 1102              		.loc 1 420 0
 1103 0074 FFF7FEBF 		b	vex_chprintf
 1104              	.LVL116:
 1105              	.L140:
 1106              		.loc 1 408 0
 1107 0078 40F20001 		movw	r1, #:lower16:.LC2
 1108              	.LVL117:
 1109 007c C0F20001 		movt	r1, #:upper16:.LC2
 1110 0080 FFF7FEFF 		bl	vex_chprintf
 1111              	.LVL118:
 1112              		.loc 1 409 0
 1113 0084 40F20001 		movw	r1, #:lower16:.LC3
 1114 0088 2846     		mov	r0, r5
 1115 008a C0F20001 		movt	r1, #:upper16:.LC3
 1116 008e FFF7FEFF 		bl	vex_chprintf
 1117              	.LVL119:
 1118              		.loc 1 410 0
 1119 0092 40F20001 		movw	r1, #:lower16:.LC4
 1120 0096 04F10802 		add	r2, r4, #8
 1121 009a 2846     		mov	r0, r5
 1122 009c C0F20001 		movt	r1, #:upper16:.LC4
 1123 00a0 FFF7FEFF 		bl	vex_chprintf
 1124              	.LVL120:
 1125              		.loc 1 411 0
 1126 00a4 40F20001 		movw	r1, #:lower16:.LC4
 1127 00a8 04F11C02 		add	r2, r4, #28
 1128 00ac 2846     		mov	r0, r5
 1129 00ae C0F20001 		movt	r1, #:upper16:.LC4
 1130 00b2 FFF7FEFF 		bl	vex_chprintf
 1131              	.LVL121:
 1132              		.loc 1 412 0
 1133 00b6 40F20001 		movw	r1, #:lower16:.LC5
ARM GAS  /tmp/ccBwa8L7.s 			page 21


 1134 00ba 2846     		mov	r0, r5
 1135 00bc C0F20001 		movt	r1, #:upper16:.LC5
 1136 00c0 E279     		ldrb	r2, [r4, #7]	@ zero_extendqisi2
 1137 00c2 FFF7FEFF 		bl	vex_chprintf
 1138              	.LVL122:
 1139 00c6 A4E7     		b	.L135
 1140              		.cfi_endproc
 1141              	.LFE74:
 1142              		.size	vexLcdDebug, .-vexLcdDebug
 1143 00c8 AFF30080 		.section	.bss.lcd_running,"aw",%nobits
 1143      AFF30080 
 1144              		.align	1
 1145              		.set	.LANCHOR1,. + 0
 1146              		.type	lcd_running, %object
 1147              		.size	lcd_running, 2
 1148              	lcd_running:
 1149 0000 0000     		.space	2
 1150              		.section	.data.vexLcdData,"aw",%progbits
 1151              		.align	2
 1152              		.set	.LANCHOR0,. + 0
 1153              		.type	vexLcdData, %object
 1154              		.size	vexLcdData, 192
 1155              	vexLcdData:
 1156 0000 00000000 		.word	0
 1157 0004 0000     		.short	0
 1158 0006 01       		.byte	1
 1159 0007 00       		.byte	0
 1160 0008 00       		.ascii	"\000"
 1161 0009 00000000 		.space	19
 1161      00000000 
 1161      00000000 
 1161      00000000 
 1161      000000
 1162 001c 00       		.ascii	"\000"
 1163 001d 00000000 		.space	19
 1163      00000000 
 1163      00000000 
 1163      00000000 
 1163      000000
 1164 0030 00       		.ascii	"\000"
 1165 0031 00000000 		.space	31
 1165      00000000 
 1165      00000000 
 1165      00000000 
 1165      00000000 
 1166 0050 00       		.ascii	"\000"
 1167 0051 00000000 		.space	15
 1167      00000000 
 1167      00000000 
 1167      000000
 1168 0060 00000000 		.word	0
 1169 0064 0000     		.short	0
 1170 0066 01       		.byte	1
 1171 0067 00       		.byte	0
 1172 0068 00       		.ascii	"\000"
 1173 0069 00000000 		.space	19
 1173      00000000 
ARM GAS  /tmp/ccBwa8L7.s 			page 22


 1173      00000000 
 1173      00000000 
 1173      000000
 1174 007c 00       		.ascii	"\000"
 1175 007d 00000000 		.space	19
 1175      00000000 
 1175      00000000 
 1175      00000000 
 1175      000000
 1176 0090 00       		.ascii	"\000"
 1177 0091 00000000 		.space	31
 1177      00000000 
 1177      00000000 
 1177      00000000 
 1177      00000000 
 1178 00b0 00       		.ascii	"\000"
 1179 00b1 00000000 		.space	15
 1179      00000000 
 1179      00000000 
 1179      000000
 1180              		.section	.rodata.str1.4,"aMS",%progbits,1
 1181              		.align	2
 1182              	.LC0:
 1183 0000 20202020 		.ascii	"                \000"
 1183      20202020 
 1183      20202020 
 1183      20202020 
 1183      00
 1184 0011 000000   		.space	3
 1185              	.LC1:
 1186 0014 6C636400 		.ascii	"lcd\000"
 1187              	.LC2:
 1188 0018 0D0A00   		.ascii	"\015\012\000"
 1189 001b 00       		.space	1
 1190              	.LC3:
 1191 001c 4C434420 		.ascii	"LCD 0 \015\012\000"
 1191      30200D0A 
 1191      00
 1192 0025 000000   		.space	3
 1193              	.LC4:
 1194 0028 252D3136 		.ascii	"%-16s\015\012\000"
 1194      730D0A00 
 1195              	.LC5:
 1196 0030 42757474 		.ascii	"Buttons = %2X\015\012\000"
 1196      6F6E7320 
 1196      3D202532 
 1196      580D0A00 
 1197              	.LC6:
 1198 0040 4C434420 		.ascii	"LCD 1 \015\012\000"
 1198      31200D0A 
 1198      00
 1199 0049 000000   		.section	.bss.lcd_buffer,"aw",%nobits
 1200              		.align	2
 1201              		.set	.LANCHOR3,. + 0
 1202              		.type	lcd_buffer, %object
 1203              		.size	lcd_buffer, 32
 1204              	lcd_buffer:
ARM GAS  /tmp/ccBwa8L7.s 			page 23


 1205 0000 00000000 		.space	32
 1205      00000000 
 1205      00000000 
 1205      00000000 
 1205      00000000 
 1206              		.section	.bss.waVexLcdUpdate,"aw",%nobits
 1207              		.align	3
 1208              		.set	.LANCHOR2,. + 0
 1209              		.type	waVexLcdUpdate, %object
 1210              		.size	waVexLcdUpdate, 384
 1211              	waVexLcdUpdate:
 1212 0000 00000000 		.space	384
 1212      00000000 
 1212      00000000 
 1212      00000000 
 1212      00000000 
 1213              		.text
 1214              	.Letext0:
 1215              		.file 2 "/usr/lib/gcc/arm-none-eabi/4.8.2/include/stddef.h"
 1216              		.file 3 "/usr/lib/gcc/arm-none-eabi/4.8.2/include/stdarg.h"
 1217              		.file 4 "/usr/include/newlib/machine/_default_types.h"
 1218              		.file 5 "/usr/include/newlib/stdint.h"
 1219              		.file 6 "../../../../ChibiOS_2.6.2/os/ports/GCC/ARMCMx/chtypes.h"
 1220              		.file 7 "../../../../ChibiOS_2.6.2/os/kernel/include/chlists.h"
 1221              		.file 8 "<built-in>"
 1222              		.file 9 "../../../../ChibiOS_2.6.2/os/kernel/include/chthreads.h"
 1223              		.file 10 "../../../../ChibiOS_2.6.2/os/ports/GCC/ARMCMx/chcore_v7m.h"
 1224              		.file 11 "../../../../ChibiOS_2.6.2/os/kernel/include/chschd.h"
 1225              		.file 12 "../../../../ChibiOS_2.6.2/os/kernel/include/chmtx.h"
 1226              		.file 13 "../../../../ChibiOS_2.6.2/os/kernel/include/chevents.h"
 1227              		.file 14 "../../../../ChibiOS_2.6.2/os/kernel/include/chqueues.h"
 1228              		.file 15 "../../../../ChibiOS_2.6.2/os/kernel/include/chstreams.h"
 1229              		.file 16 "../../../../ChibiOS_2.6.2/os/hal/platforms/STM32F1xx/stm32f10x.h"
 1230              		.file 17 "../../../../ChibiOS_2.6.2/os/hal/include/serial.h"
 1231              		.file 18 "../../fw/vexcompat.h"
 1232              		.file 19 "../../fw/vexdigital.h"
 1233              		.file 20 "../../fw/vexime.h"
 1234              		.file 21 "../../fw/vexlcd.h"
 1235              		.file 22 "../../../../ChibiOS_2.6.2/os/ports/common/ARMCMx/CMSIS/include/core_cm3.h"
 1236              		.file 23 "/usr/include/newlib/string.h"
 1237              		.file 24 "../../fw/vexprintf.h"