ARM GAS  /tmp/cc7HrsJa.s 			page 1


   1              		.syntax unified
   2              		.cpu cortex-m3
   3              		.fpu softvfp
   4              		.eabi_attribute 20, 1
   5              		.eabi_attribute 21, 1
   6              		.eabi_attribute 23, 3
   7              		.eabi_attribute 24, 1
   8              		.eabi_attribute 25, 1
   9              		.eabi_attribute 26, 1
  10              		.eabi_attribute 30, 2
  11              		.eabi_attribute 34, 1
  12              		.eabi_attribute 18, 4
  13              		.thumb
  14              		.file	"vexmotor.c"
  15              		.text
  16              	.Ltext0:
  17              		.cfi_sections	.debug_frame
  18              		.section	.text.vexMotorSet,"ax",%progbits
  19              		.align	2
  20              		.p2align 4,,15
  21              		.global	vexMotorSet
  22              		.thumb
  23              		.thumb_func
  24              		.type	vexMotorSet, %function
  25              	vexMotorSet:
  26              	.LFB64:
  27              		.file 1 "../../fw/vexmotor.c"
  28              		.loc 1 108 0
  29              		.cfi_startproc
  30              		@ args = 0, pretend = 0, frame = 0
  31              		@ frame_needed = 0, uses_anonymous_args = 0
  32              		@ link register save eliminated.
  33              	.LVL0:
  34              		.loc 1 109 0
  35 0000 83B2     		uxth	r3, r0
  36 0002 092B     		cmp	r3, #9
  37 0004 0FD8     		bhi	.L1
  38              	.LVL1:
  39 0006 6FF07E03 		mvn	r3, #126
  40 000a 9942     		cmp	r1, r3
  41 000c B8BF     		it	lt
  42 000e 1946     		movlt	r1, r3
  43              	.LVL2:
  44              	.LBB10:
  45              	.LBB11:
  46              		.loc 1 120 0
  47 0010 00EB8000 		add	r0, r0, r0, lsl #2
  48              	.LVL3:
  49 0014 40F20003 		movw	r3, #:lower16:.LANCHOR0
  50 0018 8000     		lsls	r0, r0, #2
  51 001a 7F29     		cmp	r1, #127
  52 001c A8BF     		it	ge
  53 001e 7F21     		movge	r1, #127
  54              	.LVL4:
  55 0020 C0F20003 		movt	r3, #:upper16:.LANCHOR0
  56 0024 1952     		strh	r1, [r3, r0]	@ movhi
  57              	.LVL5:
ARM GAS  /tmp/cc7HrsJa.s 			page 2


  58              	.L1:
  59 0026 7047     		bx	lr
  60              	.LBE11:
  61              	.LBE10:
  62              		.cfi_endproc
  63              	.LFE64:
  64              		.size	vexMotorSet, .-vexMotorSet
  65 0028 AFF30080 		.section	.text.vexMotorGet,"ax",%progbits
  65      AFF30080 
  66              		.align	2
  67              		.p2align 4,,15
  68              		.global	vexMotorGet
  69              		.thumb
  70              		.thumb_func
  71              		.type	vexMotorGet, %function
  72              	vexMotorGet:
  73              	.LFB65:
  74              		.loc 1 131 0
  75              		.cfi_startproc
  76              		@ args = 0, pretend = 0, frame = 0
  77              		@ frame_needed = 0, uses_anonymous_args = 0
  78              		@ link register save eliminated.
  79              	.LVL6:
  80              		.loc 1 132 0
  81 0000 83B2     		uxth	r3, r0
  82 0002 092B     		cmp	r3, #9
  83              		.loc 1 135 0
  84 0004 9FBF     		itttt	ls
  85 0006 00EB8000 		addls	r0, r0, r0, lsl #2
  86              	.LVL7:
  87 000a 40F20003 		movwls	r3, #:lower16:.LANCHOR0
  88              	.LVL8:
  89 000e 8000     		lslls	r0, r0, #2
  90 0010 C0F20003 		movtls	r3, #:upper16:.LANCHOR0
  91 0014 96BF     		itet	ls
  92 0016 185A     		ldrhls	r0, [r3, r0]
  93              		.loc 1 133 0
  94 0018 0020     		movhi	r0, #0
  95              		.loc 1 135 0
  96 001a 80B2     		uxthls	r0, r0
  97              		.loc 1 136 0
  98 001c 00B2     		sxth	r0, r0
  99 001e 7047     		bx	lr
 100              		.cfi_endproc
 101              	.LFE65:
 102              		.size	vexMotorGet, .-vexMotorGet
 103              		.section	.text.vexMotorStopAll,"ax",%progbits
 104              		.align	2
 105              		.p2align 4,,15
 106              		.global	vexMotorStopAll
 107              		.thumb
 108              		.thumb_func
 109              		.type	vexMotorStopAll, %function
 110              	vexMotorStopAll:
 111              	.LFB66:
 112              		.loc 1 144 0
 113              		.cfi_startproc
ARM GAS  /tmp/cc7HrsJa.s 			page 3


 114              		@ args = 0, pretend = 0, frame = 0
 115              		@ frame_needed = 0, uses_anonymous_args = 0
 116              		@ link register save eliminated.
 117              	.LVL9:
 118              		.loc 1 144 0
 119 0000 0023     		movs	r3, #0
 120 0002 40F20001 		movw	r1, #:lower16:.LANCHOR0
 121              	.LBB16:
 122              	.LBB17:
 123              	.LBB18:
 124              		.loc 1 120 0
 125 0006 1846     		mov	r0, r3
 126 0008 C0F20001 		movt	r1, #:upper16:.LANCHOR0
 127              	.LVL10:
 128              	.L9:
 129 000c 03EB8302 		add	r2, r3, r3, lsl #2
 130 0010 0133     		adds	r3, r3, #1
 131              	.LVL11:
 132              	.LBE18:
 133              	.LBE17:
 134              	.LBE16:
 135              		.loc 1 147 0
 136 0012 0A2B     		cmp	r3, #10
 137              	.LBB21:
 138              	.LBB20:
 139              	.LBB19:
 140              		.loc 1 120 0
 141 0014 21F82200 		strh	r0, [r1, r2, lsl #2]	@ movhi
 142              	.LVL12:
 143              	.LBE19:
 144              	.LBE20:
 145              	.LBE21:
 146              		.loc 1 147 0
 147 0018 F8D1     		bne	.L9
 148              		.loc 1 149 0
 149 001a 7047     		bx	lr
 150              		.cfi_endproc
 151              	.LFE66:
 152              		.size	vexMotorStopAll, .-vexMotorStopAll
 153 001c AFF30080 		.section	.text.vexMotorTypeSet,"ax",%progbits
 154              		.align	2
 155              		.p2align 4,,15
 156              		.global	vexMotorTypeSet
 157              		.thumb
 158              		.thumb_func
 159              		.type	vexMotorTypeSet, %function
 160              	vexMotorTypeSet:
 161              	.LFB67:
 162              		.loc 1 159 0
 163              		.cfi_startproc
 164              		@ args = 0, pretend = 0, frame = 0
 165              		@ frame_needed = 0, uses_anonymous_args = 0
 166              		@ link register save eliminated.
 167              	.LVL13:
 168              		.loc 1 160 0
 169 0000 83B2     		uxth	r3, r0
 170 0002 092B     		cmp	r3, #9
ARM GAS  /tmp/cc7HrsJa.s 			page 4


 171              		.loc 1 163 0
 172 0004 9FBF     		itttt	ls
 173 0006 40F20003 		movwls	r3, #:lower16:.LANCHOR0
 174 000a C0F20003 		movtls	r3, #:upper16:.LANCHOR0
 175 000e 00EB8000 		addls	r0, r0, r0, lsl #2
 176              	.LVL14:
 177 0012 03EB8003 		addls	r3, r3, r0, lsl #2
 178 0016 98BF     		it	ls
 179 0018 9970     		strbls	r1, [r3, #2]
 180 001a 7047     		bx	lr
 181              		.cfi_endproc
 182              	.LFE67:
 183              		.size	vexMotorTypeSet, .-vexMotorTypeSet
 184 001c AFF30080 		.section	.text.vexMotorTypeGet,"ax",%progbits
 185              		.align	2
 186              		.p2align 4,,15
 187              		.global	vexMotorTypeGet
 188              		.thumb
 189              		.thumb_func
 190              		.type	vexMotorTypeGet, %function
 191              	vexMotorTypeGet:
 192              	.LFB68:
 193              		.loc 1 174 0
 194              		.cfi_startproc
 195              		@ args = 0, pretend = 0, frame = 0
 196              		@ frame_needed = 0, uses_anonymous_args = 0
 197              		@ link register save eliminated.
 198              	.LVL15:
 199              		.loc 1 175 0
 200 0000 83B2     		uxth	r3, r0
 201 0002 092B     		cmp	r3, #9
 202              		.loc 1 178 0
 203 0004 9FBF     		itttt	ls
 204 0006 40F20003 		movwls	r3, #:lower16:.LANCHOR0
 205 000a 00EB8000 		addls	r0, r0, r0, lsl #2
 206              	.LVL16:
 207 000e C0F20003 		movtls	r3, #:upper16:.LANCHOR0
 208 0012 03EB8003 		addls	r3, r3, r0, lsl #2
 209 0016 94BF     		ite	ls
 210 0018 9878     		ldrbls	r0, [r3, #2]	@ zero_extendqisi2
 211              		.loc 1 176 0
 212 001a 0020     		movhi	r0, #0
 213              		.loc 1 179 0
 214 001c 7047     		bx	lr
 215              		.cfi_endproc
 216              	.LFE68:
 217              		.size	vexMotorTypeGet, .-vexMotorTypeGet
 218 001e 00BF     		.section	.text.vexMotorDirectionSet,"ax",%progbits
 219              		.align	2
 220              		.p2align 4,,15
 221              		.global	vexMotorDirectionSet
 222              		.thumb
 223              		.thumb_func
 224              		.type	vexMotorDirectionSet, %function
 225              	vexMotorDirectionSet:
 226              	.LFB69:
 227              		.loc 1 189 0
ARM GAS  /tmp/cc7HrsJa.s 			page 5


 228              		.cfi_startproc
 229              		@ args = 0, pretend = 0, frame = 0
 230              		@ frame_needed = 0, uses_anonymous_args = 0
 231              		@ link register save eliminated.
 232              	.LVL17:
 233              		.loc 1 190 0
 234 0000 83B2     		uxth	r3, r0
 235 0002 092B     		cmp	r3, #9
 236              		.loc 1 193 0
 237 0004 9FBF     		itttt	ls
 238 0006 40F20003 		movwls	r3, #:lower16:.LANCHOR0
 239 000a C0F20003 		movtls	r3, #:upper16:.LANCHOR0
 240 000e 00EB8000 		addls	r0, r0, r0, lsl #2
 241              	.LVL18:
 242 0012 03EB8003 		addls	r3, r3, r0, lsl #2
 243 0016 98BF     		it	ls
 244 0018 D970     		strbls	r1, [r3, #3]
 245 001a 7047     		bx	lr
 246              		.cfi_endproc
 247              	.LFE69:
 248              		.size	vexMotorDirectionSet, .-vexMotorDirectionSet
 249 001c AFF30080 		.section	.text.vexMotorDirectionGet,"ax",%progbits
 250              		.align	2
 251              		.p2align 4,,15
 252              		.global	vexMotorDirectionGet
 253              		.thumb
 254              		.thumb_func
 255              		.type	vexMotorDirectionGet, %function
 256              	vexMotorDirectionGet:
 257              	.LFB70:
 258              		.loc 1 204 0
 259              		.cfi_startproc
 260              		@ args = 0, pretend = 0, frame = 0
 261              		@ frame_needed = 0, uses_anonymous_args = 0
 262              		@ link register save eliminated.
 263              	.LVL19:
 264              		.loc 1 205 0
 265 0000 83B2     		uxth	r3, r0
 266 0002 092B     		cmp	r3, #9
 267              		.loc 1 208 0
 268 0004 9FBF     		itttt	ls
 269 0006 40F20003 		movwls	r3, #:lower16:.LANCHOR0
 270 000a 00EB8000 		addls	r0, r0, r0, lsl #2
 271              	.LVL20:
 272 000e C0F20003 		movtls	r3, #:upper16:.LANCHOR0
 273 0012 03EB8003 		addls	r3, r3, r0, lsl #2
 274 0016 94BF     		ite	ls
 275 0018 D878     		ldrbls	r0, [r3, #3]	@ zero_extendqisi2
 276              		.loc 1 206 0
 277 001a 0020     		movhi	r0, #0
 278              		.loc 1 209 0
 279 001c 7047     		bx	lr
 280              		.cfi_endproc
 281              	.LFE70:
 282              		.size	vexMotorDirectionGet, .-vexMotorDirectionGet
 283 001e 00BF     		.section	.text.vexMotorPositionSet,"ax",%progbits
 284              		.align	2
ARM GAS  /tmp/cc7HrsJa.s 			page 6


 285              		.p2align 4,,15
 286              		.global	vexMotorPositionSet
 287              		.thumb
 288              		.thumb_func
 289              		.type	vexMotorPositionSet, %function
 290              	vexMotorPositionSet:
 291              	.LFB71:
 292              		.loc 1 219 0
 293              		.cfi_startproc
 294              		@ args = 0, pretend = 0, frame = 0
 295              		@ frame_needed = 0, uses_anonymous_args = 0
 296              	.LVL21:
 297 0000 38B5     		push	{r3, r4, r5, lr}
 298              		.cfi_def_cfa_offset 16
 299              		.cfi_offset 3, -16
 300              		.cfi_offset 4, -12
 301              		.cfi_offset 5, -8
 302              		.cfi_offset 14, -4
 303              		.loc 1 220 0
 304 0002 83B2     		uxth	r3, r0
 305 0004 092B     		cmp	r3, #9
 306 0006 19D8     		bhi	.L21
 307              		.loc 1 223 0
 308 0008 40F20003 		movw	r3, #:lower16:.LANCHOR0
 309 000c 8200     		lsls	r2, r0, #2
 310 000e C0F20003 		movt	r3, #:upper16:.LANCHOR0
 311 0012 1518     		adds	r5, r2, r0
 312 0014 03EB8505 		add	r5, r3, r5, lsl #2
 313 0018 AC68     		ldr	r4, [r5, #8]
 314 001a 7CB1     		cbz	r4, .L21
 315              		.loc 1 226 0
 316 001c AD78     		ldrb	r5, [r5, #2]	@ zero_extendqisi2
 317 001e 012D     		cmp	r5, #1
 318              		.loc 1 230 0
 319 0020 02EB0005 		add	r5, r2, r0
 320 0024 03EB8505 		add	r5, r3, r5, lsl #2
 321 0028 ED78     		ldrb	r5, [r5, #3]	@ zero_extendqisi2
 322              		.loc 1 227 0
 323 002a 08BF     		it	eq
 324 002c 4942     		rsbeq	r1, r1, #0
 325              	.LVL22:
 326              		.loc 1 230 0
 327 002e 35B1     		cbz	r5, .L28
 328              	.L24:
 329              		.loc 1 234 0
 330 0030 1044     		add	r0, r0, r2
 331              	.LVL23:
 332 0032 03EB8003 		add	r3, r3, r0, lsl #2
 333 0036 B3F91000 		ldrsh	r0, [r3, #16]
 334 003a A047     		blx	r4
 335              	.LVL24:
 336              	.L21:
 337 003c 38BD     		pop	{r3, r4, r5, pc}
 338              	.LVL25:
 339              	.L28:
 340              		.loc 1 231 0
 341 003e 4942     		negs	r1, r1
ARM GAS  /tmp/cc7HrsJa.s 			page 7


 342              	.LVL26:
 343 0040 F6E7     		b	.L24
 344              		.cfi_endproc
 345              	.LFE71:
 346              		.size	vexMotorPositionSet, .-vexMotorPositionSet
 347 0042 00BFAFF3 		.section	.text.vexMotorPositionGet,"ax",%progbits
 347      0080AFF3 
 347      0080AFF3 
 347      0080
 348              		.align	2
 349              		.p2align 4,,15
 350              		.global	vexMotorPositionGet
 351              		.thumb
 352              		.thumb_func
 353              		.type	vexMotorPositionGet, %function
 354              	vexMotorPositionGet:
 355              	.LFB72:
 356              		.loc 1 248 0
 357              		.cfi_startproc
 358              		@ args = 0, pretend = 0, frame = 0
 359              		@ frame_needed = 0, uses_anonymous_args = 0
 360              	.LVL27:
 361 0000 F8B5     		push	{r3, r4, r5, r6, r7, lr}
 362              		.cfi_def_cfa_offset 24
 363              		.cfi_offset 3, -24
 364              		.cfi_offset 4, -20
 365              		.cfi_offset 5, -16
 366              		.cfi_offset 6, -12
 367              		.cfi_offset 7, -8
 368              		.cfi_offset 14, -4
 369              		.loc 1 251 0
 370 0002 83B2     		uxth	r3, r0
 371 0004 092B     		cmp	r3, #9
 372              		.loc 1 248 0
 373 0006 0446     		mov	r4, r0
 374              		.loc 1 251 0
 375 0008 19D8     		bhi	.L32
 376              		.loc 1 254 0
 377 000a 40F20005 		movw	r5, #:lower16:.LANCHOR0
 378 000e 8700     		lsls	r7, r0, #2
 379 0010 C0F20005 		movt	r5, #:upper16:.LANCHOR0
 380 0014 3E18     		adds	r6, r7, r0
 381 0016 05EB8606 		add	r6, r5, r6, lsl #2
 382 001a 7368     		ldr	r3, [r6, #4]
 383 001c 6BB1     		cbz	r3, .L33
 384              		.loc 1 256 0
 385 001e B6F91000 		ldrsh	r0, [r6, #16]
 386              	.LVL28:
 387 0022 9847     		blx	r3
 388              	.LVL29:
 389              		.loc 1 262 0
 390 0024 3C44     		add	r4, r4, r7
 391              		.loc 1 259 0
 392 0026 B378     		ldrb	r3, [r6, #2]	@ zero_extendqisi2
 393              		.loc 1 262 0
 394 0028 05EB8405 		add	r5, r5, r4, lsl #2
 395              		.loc 1 259 0
ARM GAS  /tmp/cc7HrsJa.s 			page 8


 396 002c 012B     		cmp	r3, #1
 397              		.loc 1 262 0
 398 002e EB78     		ldrb	r3, [r5, #3]	@ zero_extendqisi2
 399              		.loc 1 260 0
 400 0030 08BF     		it	eq
 401 0032 4042     		rsbeq	r0, r0, #0
 402              	.LVL30:
 403              		.loc 1 262 0
 404 0034 13B1     		cbz	r3, .L30
 405              		.loc 1 265 0
 406 0036 4042     		negs	r0, r0
 407              	.LVL31:
 408 0038 F8BD     		pop	{r3, r4, r5, r6, r7, pc}
 409              	.LVL32:
 410              	.L33:
 411              		.loc 1 252 0
 412 003a 1846     		mov	r0, r3
 413              	.LVL33:
 414              	.L30:
 415              		.loc 1 269 0
 416 003c F8BD     		pop	{r3, r4, r5, r6, r7, pc}
 417              	.LVL34:
 418              	.L32:
 419              		.loc 1 252 0
 420 003e 0020     		movs	r0, #0
 421              	.LVL35:
 422 0040 F8BD     		pop	{r3, r4, r5, r6, r7, pc}
 423              		.cfi_endproc
 424              	.LFE72:
 425              		.size	vexMotorPositionGet, .-vexMotorPositionGet
 426 0042 00BFAFF3 		.section	.text.vexMotorPositionGetCallback,"ax",%progbits
 426      0080AFF3 
 426      0080AFF3 
 426      0080
 427              		.align	2
 428              		.p2align 4,,15
 429              		.global	vexMotorPositionGetCallback
 430              		.thumb
 431              		.thumb_func
 432              		.type	vexMotorPositionGetCallback, %function
 433              	vexMotorPositionGetCallback:
 434              	.LFB73:
 435              		.loc 1 280 0
 436              		.cfi_startproc
 437              		@ args = 0, pretend = 0, frame = 0
 438              		@ frame_needed = 0, uses_anonymous_args = 0
 439              		@ link register save eliminated.
 440              	.LVL36:
 441              		.loc 1 281 0
 442 0000 83B2     		uxth	r3, r0
 443 0002 092B     		cmp	r3, #9
 444 0004 09D8     		bhi	.L35
 445              		.loc 1 284 0
 446 0006 40F20003 		movw	r3, #:lower16:.LANCHOR0
 447 000a 00EB8000 		add	r0, r0, r0, lsl #2
 448              	.LVL37:
 449 000e C0F20003 		movt	r3, #:upper16:.LANCHOR0
ARM GAS  /tmp/cc7HrsJa.s 			page 9


 450 0012 03EB8003 		add	r3, r3, r0, lsl #2
 451 0016 5960     		str	r1, [r3, #4]
 452              		.loc 1 285 0
 453 0018 1A82     		strh	r2, [r3, #16]	@ movhi
 454              	.L35:
 455 001a 7047     		bx	lr
 456              		.cfi_endproc
 457              	.LFE73:
 458              		.size	vexMotorPositionGetCallback, .-vexMotorPositionGetCallback
 459 001c AFF30080 		.section	.text.vexMotorPositionSetCallback,"ax",%progbits
 460              		.align	2
 461              		.p2align 4,,15
 462              		.global	vexMotorPositionSetCallback
 463              		.thumb
 464              		.thumb_func
 465              		.type	vexMotorPositionSetCallback, %function
 466              	vexMotorPositionSetCallback:
 467              	.LFB74:
 468              		.loc 1 297 0
 469              		.cfi_startproc
 470              		@ args = 0, pretend = 0, frame = 0
 471              		@ frame_needed = 0, uses_anonymous_args = 0
 472              		@ link register save eliminated.
 473              	.LVL38:
 474              		.loc 1 298 0
 475 0000 83B2     		uxth	r3, r0
 476 0002 092B     		cmp	r3, #9
 477 0004 09D8     		bhi	.L37
 478              		.loc 1 301 0
 479 0006 40F20003 		movw	r3, #:lower16:.LANCHOR0
 480 000a 00EB8000 		add	r0, r0, r0, lsl #2
 481              	.LVL39:
 482 000e C0F20003 		movt	r3, #:upper16:.LANCHOR0
 483 0012 03EB8003 		add	r3, r3, r0, lsl #2
 484 0016 9960     		str	r1, [r3, #8]
 485              		.loc 1 302 0
 486 0018 1A82     		strh	r2, [r3, #16]	@ movhi
 487              	.L37:
 488 001a 7047     		bx	lr
 489              		.cfi_endproc
 490              	.LFE74:
 491              		.size	vexMotorPositionSetCallback, .-vexMotorPositionSetCallback
 492 001c AFF30080 		.section	.text.vexMotorEncoderIdCallback,"ax",%progbits
 493              		.align	2
 494              		.p2align 4,,15
 495              		.global	vexMotorEncoderIdCallback
 496              		.thumb
 497              		.thumb_func
 498              		.type	vexMotorEncoderIdCallback, %function
 499              	vexMotorEncoderIdCallback:
 500              	.LFB75:
 501              		.loc 1 314 0
 502              		.cfi_startproc
 503              		@ args = 0, pretend = 0, frame = 0
 504              		@ frame_needed = 0, uses_anonymous_args = 0
 505              		@ link register save eliminated.
 506              	.LVL40:
ARM GAS  /tmp/cc7HrsJa.s 			page 10


 507              		.loc 1 315 0
 508 0000 83B2     		uxth	r3, r0
 509 0002 092B     		cmp	r3, #9
 510 0004 09D8     		bhi	.L39
 511              		.loc 1 318 0
 512 0006 40F20003 		movw	r3, #:lower16:.LANCHOR0
 513 000a 00EB8000 		add	r0, r0, r0, lsl #2
 514              	.LVL41:
 515 000e C0F20003 		movt	r3, #:upper16:.LANCHOR0
 516 0012 03EB8003 		add	r3, r3, r0, lsl #2
 517 0016 D960     		str	r1, [r3, #12]
 518              		.loc 1 319 0
 519 0018 1A82     		strh	r2, [r3, #16]	@ movhi
 520              	.L39:
 521 001a 7047     		bx	lr
 522              		.cfi_endproc
 523              	.LFE75:
 524              		.size	vexMotorEncoderIdCallback, .-vexMotorEncoderIdCallback
 525 001c AFF30080 		.section	.text.vexMotorEncoderIdGet,"ax",%progbits
 526              		.align	2
 527              		.p2align 4,,15
 528              		.global	vexMotorEncoderIdGet
 529              		.thumb
 530              		.thumb_func
 531              		.type	vexMotorEncoderIdGet, %function
 532              	vexMotorEncoderIdGet:
 533              	.LFB76:
 534              		.loc 1 331 0
 535              		.cfi_startproc
 536              		@ args = 0, pretend = 0, frame = 0
 537              		@ frame_needed = 0, uses_anonymous_args = 0
 538              	.LVL42:
 539 0000 08B5     		push	{r3, lr}
 540              		.cfi_def_cfa_offset 8
 541              		.cfi_offset 3, -8
 542              		.cfi_offset 14, -4
 543              		.loc 1 332 0
 544 0002 83B2     		uxth	r3, r0
 545 0004 092B     		cmp	r3, #9
 546 0006 0ED8     		bhi	.L44
 547              		.loc 1 335 0
 548 0008 40F20003 		movw	r3, #:lower16:.LANCHOR0
 549 000c 00EB8000 		add	r0, r0, r0, lsl #2
 550              	.LVL43:
 551 0010 C0F20003 		movt	r3, #:upper16:.LANCHOR0
 552 0014 03EB8003 		add	r3, r3, r0, lsl #2
 553 0018 DA68     		ldr	r2, [r3, #12]
 554 001a 22B1     		cbz	r2, .L44
 555              		.loc 1 337 0
 556 001c B3F91000 		ldrsh	r0, [r3, #16]
 557 0020 9047     		blx	r2
 558              	.LVL44:
 559              	.L42:
 560              		.loc 1 341 0
 561 0022 00B2     		sxth	r0, r0
 562 0024 08BD     		pop	{r3, pc}
 563              	.L44:
ARM GAS  /tmp/cc7HrsJa.s 			page 11


 564              		.loc 1 333 0
 565 0026 4FF6FF70 		movw	r0, #65535
 566 002a FAE7     		b	.L42
 567              		.cfi_endproc
 568              	.LFE76:
 569              		.size	vexMotorEncoderIdGet, .-vexMotorEncoderIdGet
 570 002c AFF30080 		.section	.text.vexMotorDebug,"ax",%progbits
 571              		.align	2
 572              		.p2align 4,,15
 573              		.global	vexMotorDebug
 574              		.thumb
 575              		.thumb_func
 576              		.type	vexMotorDebug, %function
 577              	vexMotorDebug:
 578              	.LFB77:
 579              		.loc 1 352 0
 580              		.cfi_startproc
 581              		@ args = 0, pretend = 0, frame = 0
 582              		@ frame_needed = 0, uses_anonymous_args = 0
 583              	.LVL45:
 584 0000 2DE9F041 		push	{r4, r5, r6, r7, r8, lr}
 585              		.cfi_def_cfa_offset 24
 586              		.cfi_offset 4, -24
 587              		.cfi_offset 5, -20
 588              		.cfi_offset 6, -16
 589              		.cfi_offset 7, -12
 590              		.cfi_offset 8, -8
 591              		.cfi_offset 14, -4
 592              		.loc 1 356 0
 593 0004 0129     		cmp	r1, #1
 594              		.loc 1 352 0
 595 0006 82B0     		sub	sp, sp, #8
 596              		.cfi_def_cfa_offset 32
 597              		.loc 1 352 0
 598 0008 1446     		mov	r4, r2
 599 000a 0646     		mov	r6, r0
 600              		.loc 1 356 0
 601 000c 18DD     		ble	.L55
 602              		.loc 1 372 0
 603 000e 1068     		ldr	r0, [r2]
 604              	.LVL46:
 605 0010 FFF7FEFF 		bl	atoi
 606              	.LVL47:
 607 0014 87B2     		uxth	r7, r0
 608              	.LVL48:
 609              		.loc 1 374 0
 610 0016 3DB2     		sxth	r5, r7
 611              		.loc 1 373 0
 612 0018 6068     		ldr	r0, [r4, #4]
 613 001a FFF7FEFF 		bl	atoi
 614              	.LVL49:
 615              		.loc 1 374 0
 616 001e 002D     		cmp	r5, #0
 617 0020 0BDB     		blt	.L45
 618              		.loc 1 375 0
 619 0022 04B2     		sxth	r4, r0
 620              	.LVL50:
ARM GAS  /tmp/cc7HrsJa.s 			page 12


 621 0024 40F20001 		movw	r1, #:lower16:.LC5
 622 0028 3046     		mov	r0, r6
 623              	.LVL51:
 624 002a 2346     		mov	r3, r4
 625 002c C0F20001 		movt	r1, #:upper16:.LC5
 626 0030 2A46     		mov	r2, r5
 627 0032 FFF7FEFF 		bl	vex_chprintf
 628              	.LVL52:
 629              	.LBB28:
 630              	.LBB29:
 631              		.loc 1 109 0
 632 0036 092F     		cmp	r7, #9
 633 0038 45D9     		bls	.L56
 634              	.LVL53:
 635              	.L45:
 636              	.LBE29:
 637              	.LBE28:
 638              		.loc 1 380 0
 639 003a 02B0     		add	sp, sp, #8
 640              		@ sp needed
 641 003c BDE8F081 		pop	{r4, r5, r6, r7, r8, pc}
 642              	.LVL54:
 643              	.L55:
 644              		.loc 1 359 0
 645 0040 40F20001 		movw	r1, #:lower16:.LC0
 646              	.LVL55:
 647 0044 2A4D     		ldr	r5, .L58
 648 0046 C0F20001 		movt	r1, #:upper16:.LC0
 649 004a FFF7FEFF 		bl	vex_chprintf
 650              	.LVL56:
 651 004e 0024     		movs	r4, #0
 652              	.LVL57:
 653 0050 A5F10308 		sub	r8, r5, #3
 654 0054 1AE0     		b	.L52
 655              	.LVL58:
 656              	.L57:
 657              		.loc 1 364 0
 658 0056 40F20001 		movw	r1, #:lower16:.LC2
 659 005a C0F20001 		movt	r1, #:upper16:.LC2
 660 005e FFF7FEFF 		bl	vex_chprintf
 661              	.LVL59:
 662              	.L48:
 663              	.LBB33:
 664              	.LBB34:
 665              		.loc 1 335 0
 666 0062 D5F80930 		ldr	r3, [r5, #9]
 667 0066 4FF0FF32 		mov	r2, #-1
 668 006a 1BB1     		cbz	r3, .L49
 669              		.loc 1 337 0
 670 006c B5F90D00 		ldrsh	r0, [r5, #13]
 671 0070 9847     		blx	r3
 672              	.LVL60:
 673 0072 0246     		mov	r2, r0
 674              	.L49:
 675              	.LBE34:
 676              	.LBE33:
 677              		.loc 1 367 0
ARM GAS  /tmp/cc7HrsJa.s 			page 13


 678 0074 40F20001 		movw	r1, #:lower16:.LC4
 679 0078 0134     		adds	r4, r4, #1
 680              	.LVL61:
 681 007a C0F20001 		movt	r1, #:upper16:.LC4
 682 007e 3046     		mov	r0, r6
 683 0080 FFF7FEFF 		bl	vex_chprintf
 684              	.LVL62:
 685              		.loc 1 360 0
 686 0084 0A2C     		cmp	r4, #10
 687 0086 05F11405 		add	r5, r5, #20
 688 008a D6D0     		beq	.L45
 689              	.LVL63:
 690              	.L52:
 691              		.loc 1 362 0
 692 008c 04EB8403 		add	r3, r4, r4, lsl #2
 693 0090 20B2     		sxth	r0, r4
 694 0092 38F82370 		ldrh	r7, [r8, r3, lsl #2]
 695 0096 FFF7FEFF 		bl	vexMotorPositionGet
 696              	.LVL64:
 697 009a BFB2     		uxth	r7, r7
 698 009c 40F20001 		movw	r1, #:lower16:.LC1
 699 00a0 3BB2     		sxth	r3, r7
 700 00a2 0090     		str	r0, [sp]
 701 00a4 C0F20001 		movt	r1, #:upper16:.LC1
 702 00a8 3046     		mov	r0, r6
 703 00aa 2246     		mov	r2, r4
 704 00ac FFF7FEFF 		bl	vex_chprintf
 705              	.LVL65:
 706              		.loc 1 363 0
 707 00b0 2B78     		ldrb	r3, [r5]	@ zero_extendqisi2
 708              		.loc 1 366 0
 709 00b2 40F20001 		movw	r1, #:lower16:.LC3
 710 00b6 C0F20001 		movt	r1, #:upper16:.LC3
 711 00ba 3046     		mov	r0, r6
 712              		.loc 1 363 0
 713 00bc 002B     		cmp	r3, #0
 714 00be CAD1     		bne	.L57
 715              	.LVL66:
 716              		.loc 1 366 0
 717 00c0 FFF7FEFF 		bl	vex_chprintf
 718              	.LVL67:
 719 00c4 CDE7     		b	.L48
 720              	.LVL68:
 721              	.L56:
 722 00c6 6FF07E02 		mvn	r2, #126
 723 00ca 9442     		cmp	r4, r2
 724 00cc A8BF     		it	ge
 725 00ce 2246     		movge	r2, r4
 726 00d0 7F2A     		cmp	r2, #127
 727 00d2 A8BF     		it	ge
 728 00d4 7F22     		movge	r2, #127
 729              	.LBB35:
 730              	.LBB32:
 731              	.LBB30:
 732              	.LBB31:
 733              		.loc 1 120 0
 734 00d6 05EB8505 		add	r5, r5, r5, lsl #2
ARM GAS  /tmp/cc7HrsJa.s 			page 14


 735 00da 40F20003 		movw	r3, #:lower16:.LANCHOR0
 736 00de AD00     		lsls	r5, r5, #2
 737 00e0 92B2     		uxth	r2, r2
 738              	.LVL69:
 739 00e2 C0F20003 		movt	r3, #:upper16:.LANCHOR0
 740 00e6 5A53     		strh	r2, [r3, r5]	@ movhi
 741              	.LBE31:
 742              	.LBE30:
 743              	.LBE32:
 744              	.LBE35:
 745              		.loc 1 380 0
 746 00e8 02B0     		add	sp, sp, #8
 747              		@ sp needed
 748 00ea BDE8F081 		pop	{r4, r5, r6, r7, r8, pc}
 749              	.LVL70:
 750              	.L59:
 751 00ee 00BF     		.align	2
 752              	.L58:
 753 00f0 03000000 		.word	.LANCHOR0+3
 754              		.cfi_endproc
 755              	.LFE77:
 756              		.size	vexMotorDebug, .-vexMotorDebug
 757 00f4 AFF30080 		.section	.text._vexMotorPwmInit,"ax",%progbits
 757      AFF30080 
 757      AFF30080 
 758              		.align	2
 759              		.p2align 4,,15
 760              		.global	_vexMotorPwmInit
 761              		.thumb
 762              		.thumb_func
 763              		.type	_vexMotorPwmInit, %function
 764              	_vexMotorPwmInit:
 765              	.LFB79:
 766              		.loc 1 493 0
 767              		.cfi_startproc
 768              		@ args = 0, pretend = 0, frame = 0
 769              		@ frame_needed = 0, uses_anonymous_args = 0
 770              	.LVL71:
 771 0000 2DE9F843 		push	{r3, r4, r5, r6, r7, r8, r9, lr}
 772              		.cfi_def_cfa_offset 32
 773              		.cfi_offset 3, -32
 774              		.cfi_offset 4, -28
 775              		.cfi_offset 5, -24
 776              		.cfi_offset 6, -20
 777              		.cfi_offset 7, -16
 778              		.cfi_offset 8, -12
 779              		.cfi_offset 9, -8
 780              		.cfi_offset 14, -4
 781              		.loc 1 496 0
 782 0004 4FF48063 		mov	r3, #1024
 783 0008 C4F20003 		movt	r3, 16384
 784 000c 9842     		cmp	r0, r3
 785              		.loc 1 493 0
 786 000e 0446     		mov	r4, r0
 787              		.loc 1 496 0
 788 0010 00F08980 		beq	.L64
 789              		.loc 1 504 0
ARM GAS  /tmp/cc7HrsJa.s 			page 15


 790 0014 4FF40063 		mov	r3, #2048
 791 0018 C4F20003 		movt	r3, 16384
 792 001c 9842     		cmp	r0, r3
 793 001e 01D0     		beq	.L65
 794 0020 BDE8F883 		pop	{r3, r4, r5, r6, r7, r8, r9, pc}
 795              	.L65:
 796              		.loc 1 506 0
 797 0024 0022     		movs	r2, #0
 798 0026 C4F20102 		movt	r2, 16385
 799 002a 5168     		ldr	r1, [r2, #4]
 800              		.loc 1 507 0
 801 002c 4FF48053 		mov	r3, #4096
 802              		.loc 1 506 0
 803 0030 1943     		orrs	r1, r1, r3
 804 0032 5160     		str	r1, [r2, #4]
 805              		.loc 1 507 0
 806 0034 C4F20203 		movt	r3, 16386
 807 0038 D969     		ldr	r1, [r3, #28]
 808              		.loc 1 508 0
 809 003a 0022     		movs	r2, #0
 810              		.loc 1 507 0
 811 003c 41F00401 		orr	r1, r1, #4
 812 0040 D961     		str	r1, [r3, #28]
 813              		.loc 1 508 0
 814 0042 1969     		ldr	r1, [r3, #16]
 815              		.loc 1 509 0
 816 0044 1E20     		movs	r0, #30
 817              	.LVL72:
 818              		.loc 1 508 0
 819 0046 41F00401 		orr	r1, r1, #4
 820 004a 1961     		str	r1, [r3, #16]
 821              		.loc 1 509 0
 822 004c 7021     		movs	r1, #112
 823              		.loc 1 508 0
 824 004e 1A61     		str	r2, [r3, #16]
 825              		.loc 1 509 0
 826 0050 FFF7FEFF 		bl	nvicEnableVector
 827              	.LVL73:
 828              	.L62:
 829              		.loc 1 518 0
 830 0054 0026     		movs	r6, #0
 831              		.loc 1 526 0
 832 0056 46F66803 		movw	r3, #26728
 833              		.loc 1 522 0
 834 005a 4FF4EC70 		mov	r0, #472
 835              		.loc 1 523 0
 836 005e 7E21     		movs	r1, #126
 837              		.loc 1 531 0
 838 0060 42F22222 		movw	r2, #8738
 839              		.loc 1 518 0
 840 0064 2680     		strh	r6, [r4]	@ movhi
 841              		.loc 1 519 0
 842 0066 A681     		strh	r6, [r4, #12]	@ movhi
 843              		.loc 1 520 0
 844 0068 2682     		strh	r6, [r4, #16]	@ movhi
 845              		.loc 1 522 0
 846 006a 2085     		strh	r0, [r4, #40]	@ movhi
ARM GAS  /tmp/cc7HrsJa.s 			page 16


 847              		.loc 1 523 0
 848 006c A185     		strh	r1, [r4, #44]	@ movhi
 849              		.loc 1 524 0
 850 006e A680     		strh	r6, [r4, #4]	@ movhi
 851              		.loc 1 526 0
 852 0070 2383     		strh	r3, [r4, #24]	@ movhi
 853              		.loc 1 528 0
 854 0072 A383     		strh	r3, [r4, #28]	@ movhi
 855              		.loc 1 531 0
 856 0074 2284     		strh	r2, [r4, #32]	@ movhi
 857              		.loc 1 532 0
 858 0076 228C     		ldrh	r2, [r4, #32]
 859              		.loc 1 515 0
 860 0078 40F20003 		movw	r3, #:lower16:.LANCHOR1
 861              		.loc 1 532 0
 862 007c 92B2     		uxth	r2, r2
 863 007e 42F48852 		orr	r2, r2, #4352
 864              		.loc 1 543 0
 865 0082 4FF4A055 		mov	r5, #5120
 866 0086 C4F20105 		movt	r5, 16385
 867              		.loc 1 515 0
 868 008a C0F20003 		movt	r3, #:upper16:.LANCHOR1
 869              		.loc 1 543 0
 870 008e 4FF0080E 		mov	lr, #8
 871              		.loc 1 540 0
 872 0092 4FF0810C 		mov	ip, #129
 873              		.loc 1 544 0
 874 0096 1027     		movs	r7, #16
 875              		.loc 1 532 0
 876 0098 42F01102 		orr	r2, r2, #17
 877              		.loc 1 545 0
 878 009c 4FF08009 		mov	r9, #128
 879              		.loc 1 546 0
 880 00a0 4FF48078 		mov	r8, #256
 881              		.loc 1 515 0
 882 00a4 1C60     		str	r4, [r3]
 883              		.loc 1 532 0
 884 00a6 2284     		strh	r2, [r4, #32]	@ movhi
 885              		.loc 1 547 0
 886 00a8 7146     		mov	r1, lr
 887              		.loc 1 535 0
 888 00aa A686     		strh	r6, [r4, #52]	@ movhi
 889              		.loc 1 547 0
 890 00ac 2846     		mov	r0, r5
 891              		.loc 1 536 0
 892 00ae 2687     		strh	r6, [r4, #56]	@ movhi
 893              		.loc 1 547 0
 894 00b0 0622     		movs	r2, #6
 895              		.loc 1 537 0
 896 00b2 A687     		strh	r6, [r4, #60]	@ movhi
 897              		.loc 1 538 0
 898 00b4 A4F84060 		strh	r6, [r4, #64]	@ movhi
 899              		.loc 1 540 0
 900 00b8 A4F800C0 		strh	ip, [r4]	@ movhi
 901              		.loc 1 543 0
 902 00bc C5F814E0 		str	lr, [r5, #20]
 903              		.loc 1 544 0
ARM GAS  /tmp/cc7HrsJa.s 			page 17


 904 00c0 6F61     		str	r7, [r5, #20]
 905              		.loc 1 545 0
 906 00c2 C5F81490 		str	r9, [r5, #20]
 907              		.loc 1 546 0
 908 00c6 C5F81480 		str	r8, [r5, #20]
 909              		.loc 1 547 0
 910 00ca FFF7FEFF 		bl	_pal_lld_setgroupmode
 911              	.LVL74:
 912              		.loc 1 548 0
 913 00ce 2846     		mov	r0, r5
 914 00d0 3946     		mov	r1, r7
 915 00d2 0622     		movs	r2, #6
 916 00d4 FFF7FEFF 		bl	_pal_lld_setgroupmode
 917              	.LVL75:
 918              		.loc 1 549 0
 919 00d8 2846     		mov	r0, r5
 920 00da 4946     		mov	r1, r9
 921 00dc 0622     		movs	r2, #6
 922 00de FFF7FEFF 		bl	_pal_lld_setgroupmode
 923              	.LVL76:
 924              		.loc 1 550 0
 925 00e2 2846     		mov	r0, r5
 926 00e4 4146     		mov	r1, r8
 927 00e6 0622     		movs	r2, #6
 928 00e8 FFF7FEFF 		bl	_pal_lld_setgroupmode
 929              	.LVL77:
 930              		.loc 1 553 0
 931 00ec 2846     		mov	r0, r5
 932 00ee 3A46     		mov	r2, r7
 933 00f0 4FF48051 		mov	r1, #4096
 934 00f4 FFF7FEFF 		bl	_pal_lld_setgroupmode
 935              	.LVL78:
 936              		.loc 1 554 0
 937 00f8 2846     		mov	r0, r5
 938 00fa 3A46     		mov	r2, r7
 939 00fc 4FF40051 		mov	r1, #8192
 940 0100 FFF7FEFF 		bl	_pal_lld_setgroupmode
 941              	.LVL79:
 942              		.loc 1 555 0
 943 0104 2846     		mov	r0, r5
 944 0106 3A46     		mov	r2, r7
 945 0108 4FF48041 		mov	r1, #16384
 946 010c FFF7FEFF 		bl	_pal_lld_setgroupmode
 947              	.LVL80:
 948              		.loc 1 556 0
 949 0110 2846     		mov	r0, r5
 950 0112 3A46     		mov	r2, r7
 951 0114 4FF40041 		mov	r1, #32768
 952 0118 FFF7FEFF 		bl	_pal_lld_setgroupmode
 953              	.LVL81:
 954              		.loc 1 560 0
 955 011c 0123     		movs	r3, #1
 956 011e A381     		strh	r3, [r4, #12]	@ movhi
 957              		.loc 1 561 0
 958 0120 2682     		strh	r6, [r4, #16]	@ movhi
 959 0122 BDE8F883 		pop	{r3, r4, r5, r6, r7, r8, r9, pc}
 960              	.LVL82:
ARM GAS  /tmp/cc7HrsJa.s 			page 18


 961              	.L64:
 962              		.loc 1 498 0
 963 0126 0022     		movs	r2, #0
 964 0128 C4F20102 		movt	r2, 16385
 965 012c 5168     		ldr	r1, [r2, #4]
 966              		.loc 1 499 0
 967 012e 4FF48053 		mov	r3, #4096
 968              		.loc 1 498 0
 969 0132 41F44061 		orr	r1, r1, #3072
 970 0136 5160     		str	r1, [r2, #4]
 971              		.loc 1 499 0
 972 0138 C4F20203 		movt	r3, 16386
 973 013c D969     		ldr	r1, [r3, #28]
 974              		.loc 1 500 0
 975 013e 0022     		movs	r2, #0
 976              		.loc 1 499 0
 977 0140 41F00201 		orr	r1, r1, #2
 978 0144 D961     		str	r1, [r3, #28]
 979              		.loc 1 500 0
 980 0146 1969     		ldr	r1, [r3, #16]
 981              		.loc 1 501 0
 982 0148 1D20     		movs	r0, #29
 983              	.LVL83:
 984              		.loc 1 500 0
 985 014a 41F00201 		orr	r1, r1, #2
 986 014e 1961     		str	r1, [r3, #16]
 987              		.loc 1 501 0
 988 0150 7021     		movs	r1, #112
 989              		.loc 1 500 0
 990 0152 1A61     		str	r2, [r3, #16]
 991              		.loc 1 501 0
 992 0154 FFF7FEFF 		bl	nvicEnableVector
 993              	.LVL84:
 994 0158 7CE7     		b	.L62
 995              		.cfi_endproc
 996              	.LFE79:
 997              		.size	_vexMotorPwmInit, .-_vexMotorPwmInit
 998 015a 00BFAFF3 		.section	.text.vexMotorInit,"ax",%progbits
 998      0080
 999              		.align	2
 1000              		.p2align 4,,15
 1001              		.global	vexMotorInit
 1002              		.thumb
 1003              		.thumb_func
 1004              		.type	vexMotorInit, %function
 1005              	vexMotorInit:
 1006              	.LFB63:
 1007              		.loc 1 79 0
 1008              		.cfi_startproc
 1009              		@ args = 0, pretend = 0, frame = 0
 1010              		@ frame_needed = 0, uses_anonymous_args = 0
 1011              		@ link register save eliminated.
 1012              	.LVL85:
 1013 0000 0E4A     		ldr	r2, .L70
 1014 0002 0023     		movs	r3, #0
 1015 0004 10B4     		push	{r4}
 1016              		.cfi_def_cfa_offset 4
ARM GAS  /tmp/cc7HrsJa.s 			page 19


 1017              		.cfi_offset 4, -4
 1018              		.loc 1 84 0
 1019 0006 1946     		mov	r1, r3
 1020 0008 A2F10804 		sub	r4, r2, #8
 1021              	.LVL86:
 1022              	.L68:
 1023              		.loc 1 84 0 is_stmt 0 discriminator 2
 1024 000c 03EB8300 		add	r0, r3, r3, lsl #2
 1025 0010 0133     		adds	r3, r3, #1
 1026              	.LVL87:
 1027              		.loc 1 82 0 is_stmt 1 discriminator 2
 1028 0012 0A2B     		cmp	r3, #10
 1029              		.loc 1 84 0 discriminator 2
 1030 0014 24F82010 		strh	r1, [r4, r0, lsl #2]	@ movhi
 1031              		.loc 1 85 0 discriminator 2
 1032 0018 02F8061C 		strb	r1, [r2, #-6]
 1033              		.loc 1 86 0 discriminator 2
 1034 001c 02F8051C 		strb	r1, [r2, #-5]
 1035              		.loc 1 87 0 discriminator 2
 1036 0020 42F8041C 		str	r1, [r2, #-4]
 1037              		.loc 1 88 0 discriminator 2
 1038 0024 42F8141B 		str	r1, [r2], #20
 1039              	.LVL88:
 1040              		.loc 1 82 0 discriminator 2
 1041 0028 F0D1     		bne	.L68
 1042              		.loc 1 95 0
 1043 002a 4FF40060 		mov	r0, #2048
 1044 002e C4F20000 		movt	r0, 16384
 1045              		.loc 1 98 0
 1046 0032 5DF8044B 		ldr	r4, [sp], #4
 1047              		.loc 1 95 0
 1048 0036 FFF7FEBF 		b	_vexMotorPwmInit
 1049              	.LVL89:
 1050              	.L71:
 1051 003a 00BF     		.align	2
 1052              	.L70:
 1053 003c 08000000 		.word	.LANCHOR0+8
 1054              		.cfi_endproc
 1055              	.LFE63:
 1056              		.size	vexMotorInit, .-vexMotorInit
 1057              		.section	.text._vexMotorPwmSet_0,"ax",%progbits
 1058              		.align	2
 1059              		.p2align 4,,15
 1060              		.global	_vexMotorPwmSet_0
 1061              		.thumb
 1062              		.thumb_func
 1063              		.type	_vexMotorPwmSet_0, %function
 1064              	_vexMotorPwmSet_0:
 1065              	.LFB80:
 1066              		.loc 1 576 0
 1067              		.cfi_startproc
 1068              		@ args = 0, pretend = 0, frame = 0
 1069              		@ frame_needed = 0, uses_anonymous_args = 0
 1070              		@ link register save eliminated.
 1071              	.LVL90:
 1072              		.loc 1 579 0
 1073 0000 40F20003 		movw	r3, #:lower16:.LANCHOR1
ARM GAS  /tmp/cc7HrsJa.s 			page 20


 1074 0004 C0F20003 		movt	r3, #:upper16:.LANCHOR1
 1075 0008 1B68     		ldr	r3, [r3]
 1076              		.loc 1 576 0
 1077 000a 30B4     		push	{r4, r5}
 1078              		.cfi_def_cfa_offset 8
 1079              		.cfi_offset 4, -8
 1080              		.cfi_offset 5, -4
 1081              		.loc 1 579 0
 1082 000c 73B1     		cbz	r3, .L72
 1083              		.loc 1 582 0
 1084 000e 0028     		cmp	r0, #0
 1085 0010 0EDD     		ble	.L74
 1086              		.loc 1 585 0
 1087 0012 4FF4A052 		mov	r2, #5120
 1088 0016 C4F20102 		movt	r2, 16385
 1089              		.loc 1 588 0
 1090 001a 00F07F00 		and	r0, r0, #127
 1091              	.LVL91:
 1092              		.loc 1 584 0
 1093 001e 0025     		movs	r5, #0
 1094              		.loc 1 585 0
 1095 0020 0824     		movs	r4, #8
 1096              		.loc 1 587 0
 1097 0022 1021     		movs	r1, #16
 1098              		.loc 1 584 0
 1099 0024 1D87     		strh	r5, [r3, #56]	@ movhi
 1100              		.loc 1 585 0
 1101 0026 5461     		str	r4, [r2, #20]
 1102              	.LVL92:
 1103              		.loc 1 587 0
 1104 0028 1161     		str	r1, [r2, #16]
 1105              		.loc 1 588 0
 1106 002a 9886     		strh	r0, [r3, #52]	@ movhi
 1107              	.L72:
 1108              		.loc 1 606 0
 1109 002c 30BC     		pop	{r4, r5}
 1110 002e 7047     		bx	lr
 1111              	.LVL93:
 1112              	.L74:
 1113              		.loc 1 591 0
 1114 0030 0BD1     		bne	.L79
 1115              		.loc 1 603 0
 1116 0032 4FF4A052 		mov	r2, #5120
 1117 0036 C4F20102 		movt	r2, 16385
 1118 003a 0824     		movs	r4, #8
 1119              		.loc 1 604 0
 1120 003c 1021     		movs	r1, #16
 1121              		.loc 1 601 0
 1122 003e 9886     		strh	r0, [r3, #52]	@ movhi
 1123              		.loc 1 602 0
 1124 0040 1887     		strh	r0, [r3, #56]	@ movhi
 1125              		.loc 1 603 0
 1126 0042 5461     		str	r4, [r2, #20]
 1127              		.loc 1 604 0
 1128 0044 5161     		str	r1, [r2, #20]
 1129              		.loc 1 606 0
 1130 0046 30BC     		pop	{r4, r5}
ARM GAS  /tmp/cc7HrsJa.s 			page 21


 1131 0048 7047     		bx	lr
 1132              	.L79:
 1133              		.loc 1 595 0
 1134 004a 4042     		negs	r0, r0
 1135              	.LVL94:
 1136              		.loc 1 594 0
 1137 004c 4FF4A052 		mov	r2, #5120
 1138 0050 C4F20102 		movt	r2, 16385
 1139              		.loc 1 597 0
 1140 0054 00F07F00 		and	r0, r0, #127
 1141              		.loc 1 593 0
 1142 0058 0025     		movs	r5, #0
 1143              		.loc 1 594 0
 1144 005a 1024     		movs	r4, #16
 1145              		.loc 1 596 0
 1146 005c 0821     		movs	r1, #8
 1147              		.loc 1 593 0
 1148 005e 9D86     		strh	r5, [r3, #52]	@ movhi
 1149              		.loc 1 594 0
 1150 0060 5461     		str	r4, [r2, #20]
 1151              		.loc 1 596 0
 1152 0062 1161     		str	r1, [r2, #16]
 1153              		.loc 1 597 0
 1154 0064 1887     		strh	r0, [r3, #56]	@ movhi
 1155 0066 E1E7     		b	.L72
 1156              		.cfi_endproc
 1157              	.LFE80:
 1158              		.size	_vexMotorPwmSet_0, .-_vexMotorPwmSet_0
 1159 0068 AFF30080 		.section	.text._vexMotorPwmSet_9,"ax",%progbits
 1159      AFF30080 
 1160              		.align	2
 1161              		.p2align 4,,15
 1162              		.global	_vexMotorPwmSet_9
 1163              		.thumb
 1164              		.thumb_func
 1165              		.type	_vexMotorPwmSet_9, %function
 1166              	_vexMotorPwmSet_9:
 1167              	.LFB81:
 1168              		.loc 1 619 0
 1169              		.cfi_startproc
 1170              		@ args = 0, pretend = 0, frame = 0
 1171              		@ frame_needed = 0, uses_anonymous_args = 0
 1172              		@ link register save eliminated.
 1173              	.LVL95:
 1174              		.loc 1 622 0
 1175 0000 40F20003 		movw	r3, #:lower16:.LANCHOR1
 1176 0004 C0F20003 		movt	r3, #:upper16:.LANCHOR1
 1177 0008 1B68     		ldr	r3, [r3]
 1178              		.loc 1 619 0
 1179 000a 30B4     		push	{r4, r5}
 1180              		.cfi_def_cfa_offset 8
 1181              		.cfi_offset 4, -8
 1182              		.cfi_offset 5, -4
 1183              		.loc 1 622 0
 1184 000c 83B1     		cbz	r3, .L80
 1185              		.loc 1 625 0
 1186 000e 0028     		cmp	r0, #0
ARM GAS  /tmp/cc7HrsJa.s 			page 22


 1187 0010 10DD     		ble	.L82
 1188              		.loc 1 628 0
 1189 0012 4FF4A052 		mov	r2, #5120
 1190 0016 C4F20102 		movt	r2, 16385
 1191              		.loc 1 631 0
 1192 001a 00F07F00 		and	r0, r0, #127
 1193              	.LVL96:
 1194              		.loc 1 627 0
 1195 001e 0025     		movs	r5, #0
 1196              		.loc 1 628 0
 1197 0020 8024     		movs	r4, #128
 1198              		.loc 1 630 0
 1199 0022 4FF48071 		mov	r1, #256
 1200              		.loc 1 627 0
 1201 0026 A3F84050 		strh	r5, [r3, #64]	@ movhi
 1202              		.loc 1 628 0
 1203 002a 5461     		str	r4, [r2, #20]
 1204              	.LVL97:
 1205              		.loc 1 630 0
 1206 002c 1161     		str	r1, [r2, #16]
 1207              		.loc 1 631 0
 1208 002e 9887     		strh	r0, [r3, #60]	@ movhi
 1209              	.L80:
 1210              		.loc 1 649 0
 1211 0030 30BC     		pop	{r4, r5}
 1212 0032 7047     		bx	lr
 1213              	.LVL98:
 1214              	.L82:
 1215              		.loc 1 634 0
 1216 0034 0DD1     		bne	.L87
 1217              		.loc 1 646 0
 1218 0036 4FF4A052 		mov	r2, #5120
 1219 003a C4F20102 		movt	r2, 16385
 1220 003e 8024     		movs	r4, #128
 1221              		.loc 1 647 0
 1222 0040 4FF48071 		mov	r1, #256
 1223              		.loc 1 644 0
 1224 0044 9887     		strh	r0, [r3, #60]	@ movhi
 1225              		.loc 1 645 0
 1226 0046 A3F84000 		strh	r0, [r3, #64]	@ movhi
 1227              		.loc 1 646 0
 1228 004a 5461     		str	r4, [r2, #20]
 1229              		.loc 1 647 0
 1230 004c 5161     		str	r1, [r2, #20]
 1231              		.loc 1 649 0
 1232 004e 30BC     		pop	{r4, r5}
 1233 0050 7047     		bx	lr
 1234              	.L87:
 1235              		.loc 1 638 0
 1236 0052 4042     		negs	r0, r0
 1237              	.LVL99:
 1238              		.loc 1 637 0
 1239 0054 4FF4A052 		mov	r2, #5120
 1240 0058 C4F20102 		movt	r2, 16385
 1241              		.loc 1 640 0
 1242 005c 00F07F00 		and	r0, r0, #127
 1243              		.loc 1 636 0
ARM GAS  /tmp/cc7HrsJa.s 			page 23


 1244 0060 0025     		movs	r5, #0
 1245              		.loc 1 637 0
 1246 0062 4FF48074 		mov	r4, #256
 1247              		.loc 1 639 0
 1248 0066 8021     		movs	r1, #128
 1249              		.loc 1 636 0
 1250 0068 9D87     		strh	r5, [r3, #60]	@ movhi
 1251              		.loc 1 637 0
 1252 006a 5461     		str	r4, [r2, #20]
 1253              		.loc 1 639 0
 1254 006c 1161     		str	r1, [r2, #16]
 1255              		.loc 1 640 0
 1256 006e A3F84000 		strh	r0, [r3, #64]	@ movhi
 1257 0072 DDE7     		b	.L80
 1258              		.cfi_endproc
 1259              	.LFE81:
 1260              		.size	_vexMotorPwmSet_9, .-_vexMotorPwmSet_9
 1261 0074 AFF30080 		.section	.text.VectorB8,"ax",%progbits
 1261      AFF30080 
 1261      AFF30080 
 1262              		.align	2
 1263              		.p2align 4,,15
 1264              		.global	VectorB8
 1265              		.thumb
 1266              		.thumb_func
 1267              		.type	VectorB8, %function
 1268              	VectorB8:
 1269              	.LFB78:
 1270              		.loc 1 392 0
 1271              		.cfi_startproc
 1272              		@ args = 0, pretend = 0, frame = 0
 1273              		@ frame_needed = 0, uses_anonymous_args = 0
 1274              		.loc 1 398 0
 1275 0000 40F20003 		movw	r3, #:lower16:.LANCHOR1
 1276 0004 C0F20003 		movt	r3, #:upper16:.LANCHOR1
 1277 0008 1B68     		ldr	r3, [r3]
 1278 000a 0022     		movs	r2, #0
 1279              		.loc 1 392 0
 1280 000c 70B5     		push	{r4, r5, r6, lr}
 1281              		.cfi_def_cfa_offset 16
 1282              		.cfi_offset 4, -16
 1283              		.cfi_offset 5, -12
 1284              		.cfi_offset 6, -8
 1285              		.cfi_offset 14, -4
 1286              		.loc 1 398 0
 1287 000e 1A82     		strh	r2, [r3, #16]	@ movhi
 1288              	.LBB36:
 1289              		.loc 1 400 0
 1290 0010 2023     		movs	r3, #32
 1291              	@ 400 "../../fw/vexmotor.c" 1
 1292 0012 83F31188 		msr     BASEPRI, r3
 1293              	@ 0 "" 2
 1294              		.thumb
 1295              	.LBE36:
 1296              		.loc 1 403 0
 1297 0016 40F20004 		movw	r4, #:lower16:.LANCHOR0
 1298 001a C0F20004 		movt	r4, #:upper16:.LANCHOR0
ARM GAS  /tmp/cc7HrsJa.s 			page 24


 1299 001e E378     		ldrb	r3, [r4, #3]	@ zero_extendqisi2
 1300              		.loc 1 404 0
 1301 0020 2688     		ldrh	r6, [r4]
 1302              		.loc 1 403 0
 1303 0022 002B     		cmp	r3, #0
 1304 0024 3FD1     		bne	.L89
 1305              		.loc 1 404 0
 1306 0026 40F20003 		movw	r3, #:lower16:.LANCHOR2
 1307 002a B6B2     		uxth	r6, r6
 1308 002c C0F20003 		movt	r3, #:upper16:.LANCHOR2
 1309 0030 1E80     		strh	r6, [r3]	@ movhi
 1310              	.L90:
 1311              		.loc 1 408 0
 1312 0032 40F20005 		movw	r5, #:lower16:.LANCHOR3
 1313 0036 C0F20005 		movt	r5, #:upper16:.LANCHOR3
 1314 003a B5F90030 		ldrsh	r3, [r5]
 1315 003e 30B2     		sxth	r0, r6
 1316 0040 8342     		cmp	r3, r0
 1317 0042 08D0     		beq	.L91
 1318              		.loc 1 411 0
 1319 0044 002E     		cmp	r6, #0
 1320 0046 46D0     		beq	.L94
 1321              		.loc 1 417 0
 1322 0048 0028     		cmp	r0, #0
 1323 004a 42DD     		ble	.L93
 1324              		.loc 1 418 0
 1325 004c 002B     		cmp	r3, #0
 1326 004e 42DB     		blt	.L94
 1327              	.L101:
 1328              		.loc 1 431 0
 1329 0050 FFF7FEFF 		bl	_vexMotorPwmSet_0
 1330              	.LVL100:
 1331              		.loc 1 432 0
 1332 0054 2E80     		strh	r6, [r5]	@ movhi
 1333              	.L91:
 1334              		.loc 1 442 0
 1335 0056 40F20003 		movw	r3, #:lower16:.LANCHOR0
 1336 005a 94F8B720 		ldrb	r2, [r4, #183]	@ zero_extendqisi2
 1337 005e C0F20003 		movt	r3, #:upper16:.LANCHOR0
 1338              		.loc 1 443 0
 1339 0062 B3F8B450 		ldrh	r5, [r3, #180]
 1340 0066 40F20003 		movw	r3, #:lower16:.LANCHOR4
 1341              		.loc 1 442 0
 1342 006a 02B1     		cbz	r2, .L102
 1343              		.loc 1 445 0
 1344 006c 6D42     		negs	r5, r5
 1345              	.L102:
 1346              		.loc 1 446 0
 1347 006e 40F20004 		movw	r4, #:lower16:.LANCHOR5
 1348              		.loc 1 445 0
 1349 0072 ADB2     		uxth	r5, r5
 1350 0074 C0F20003 		movt	r3, #:upper16:.LANCHOR4
 1351              		.loc 1 446 0
 1352 0078 C0F20004 		movt	r4, #:upper16:.LANCHOR5
 1353              		.loc 1 445 0
 1354 007c 1D80     		strh	r5, [r3]	@ movhi
 1355              		.loc 1 446 0
ARM GAS  /tmp/cc7HrsJa.s 			page 25


 1356 007e B4F90030 		ldrsh	r3, [r4]
 1357 0082 28B2     		sxth	r0, r5
 1358 0084 8342     		cmp	r3, r0
 1359 0086 07D0     		beq	.L97
 1360              		.loc 1 449 0
 1361 0088 BDB1     		cbz	r5, .L100
 1362              		.loc 1 455 0
 1363 008a 0028     		cmp	r0, #0
 1364 008c 13DD     		ble	.L99
 1365              		.loc 1 456 0
 1366 008e 002B     		cmp	r3, #0
 1367 0090 13DB     		blt	.L100
 1368              	.L103:
 1369              		.loc 1 469 0
 1370 0092 FFF7FEFF 		bl	_vexMotorPwmSet_9
 1371              	.LVL101:
 1372              		.loc 1 470 0
 1373 0096 2580     		strh	r5, [r4]	@ movhi
 1374              	.L97:
 1375              	.LBB37:
 1376              		.loc 1 480 0
 1377 0098 0023     		movs	r3, #0
 1378              	@ 480 "../../fw/vexmotor.c" 1
 1379 009a 83F31188 		msr     BASEPRI, r3
 1380              	@ 0 "" 2
 1381              		.thumb
 1382              	.LBE37:
 1383              		.loc 1 483 0
 1384 009e BDE87040 		pop	{r4, r5, r6, lr}
 1385              		.loc 1 482 0
 1386 00a2 FFF7FEBF 		b	_port_irq_epilogue
 1387              	.LVL102:
 1388              	.L89:
 1389              		.loc 1 406 0
 1390 00a6 40F20003 		movw	r3, #:lower16:.LANCHOR2
 1391 00aa 7642     		negs	r6, r6
 1392 00ac B6B2     		uxth	r6, r6
 1393 00ae C0F20003 		movt	r3, #:upper16:.LANCHOR2
 1394 00b2 1E80     		strh	r6, [r3]	@ movhi
 1395 00b4 BDE7     		b	.L90
 1396              	.L99:
 1397              		.loc 1 468 0
 1398 00b6 002B     		cmp	r3, #0
 1399 00b8 EBDD     		ble	.L103
 1400              	.L100:
 1401              		.loc 1 450 0
 1402 00ba 0020     		movs	r0, #0
 1403 00bc FFF7FEFF 		bl	_vexMotorPwmSet_9
 1404              	.LVL103:
 1405              		.loc 1 451 0
 1406 00c0 0023     		movs	r3, #0
 1407 00c2 2380     		strh	r3, [r4]	@ movhi
 1408              	.LBB38:
 1409              		.loc 1 480 0
 1410 00c4 0023     		movs	r3, #0
 1411              	@ 480 "../../fw/vexmotor.c" 1
 1412 00c6 83F31188 		msr     BASEPRI, r3
ARM GAS  /tmp/cc7HrsJa.s 			page 26


 1413              	@ 0 "" 2
 1414              		.thumb
 1415              	.LBE38:
 1416              		.loc 1 483 0
 1417 00ca BDE87040 		pop	{r4, r5, r6, lr}
 1418              		.loc 1 482 0
 1419 00ce FFF7FEBF 		b	_port_irq_epilogue
 1420              	.LVL104:
 1421              	.L93:
 1422              		.loc 1 430 0
 1423 00d2 002B     		cmp	r3, #0
 1424 00d4 BCDD     		ble	.L101
 1425              	.L94:
 1426              		.loc 1 412 0
 1427 00d6 0020     		movs	r0, #0
 1428 00d8 FFF7FEFF 		bl	_vexMotorPwmSet_0
 1429              	.LVL105:
 1430              		.loc 1 413 0
 1431 00dc 0023     		movs	r3, #0
 1432 00de 2B80     		strh	r3, [r5]	@ movhi
 1433 00e0 B9E7     		b	.L91
 1434              		.cfi_endproc
 1435              	.LFE78:
 1436              		.size	VectorB8, .-VectorB8
 1437 00e2 00BFAFF3 		.section	.bss.m0_cur_value,"aw",%nobits
 1437      0080AFF3 
 1437      0080AFF3 
 1437      0080
 1438              		.align	1
 1439              		.set	.LANCHOR3,. + 0
 1440              		.type	m0_cur_value, %object
 1441              		.size	m0_cur_value, 2
 1442              	m0_cur_value:
 1443 0000 0000     		.space	2
 1444              		.section	.bss.m9_new_value,"aw",%nobits
 1445              		.align	1
 1446              		.set	.LANCHOR4,. + 0
 1447              		.type	m9_new_value, %object
 1448              		.size	m9_new_value, 2
 1449              	m9_new_value:
 1450 0000 0000     		.space	2
 1451              		.section	.bss.m9_cur_value,"aw",%nobits
 1452              		.align	1
 1453              		.set	.LANCHOR5,. + 0
 1454              		.type	m9_cur_value, %object
 1455              		.size	m9_cur_value, 2
 1456              	m9_cur_value:
 1457 0000 0000     		.space	2
 1458              		.section	.bss.vexMotors,"aw",%nobits
 1459              		.align	2
 1460              		.set	.LANCHOR0,. + 0
 1461              		.type	vexMotors, %object
 1462              		.size	vexMotors, 200
 1463              	vexMotors:
 1464 0000 00000000 		.space	200
 1464      00000000 
 1464      00000000 
ARM GAS  /tmp/cc7HrsJa.s 			page 27


 1464      00000000 
 1464      00000000 
 1465              		.section	.bss.m0_new_value,"aw",%nobits
 1466              		.align	1
 1467              		.set	.LANCHOR2,. + 0
 1468              		.type	m0_new_value, %object
 1469              		.size	m0_new_value, 2
 1470              	m0_new_value:
 1471 0000 0000     		.space	2
 1472              		.section	.rodata.str1.4,"aMS",%progbits,1
 1473              		.align	2
 1474              	.LC0:
 1475 0000 4D6F746F 		.ascii	"Motor  Speed  Position Rev   ID\015\012\000"
 1475      72202053 
 1475      70656564 
 1475      2020506F 
 1475      73697469 
 1476 0022 0000     		.space	2
 1477              	.LC1:
 1478 0024 4D5F2564 		.ascii	"M_%d  %4d %7d      \000"
 1478      20202534 
 1478      64202537 
 1478      64202020 
 1478      20202000 
 1479              	.LC2:
 1480 0038 74727565 		.ascii	"true  \000"
 1480      202000
 1481 003f 00       		.space	1
 1482              	.LC3:
 1483 0040 66616C73 		.ascii	"false \000"
 1483      652000
 1484 0047 00       		.space	1
 1485              	.LC4:
 1486 0048 25640D0A 		.ascii	"%d\015\012\000"
 1486      00
 1487 004d 000000   		.space	3
 1488              	.LC5:
 1489 0050 73657420 		.ascii	"set motor %d to %d\015\012\000"
 1489      6D6F746F 
 1489      72202564 
 1489      20746F20 
 1489      25640D0A 
 1490 0065 000000   		.section	.bss.PwmTimer,"aw",%nobits
 1491              		.align	2
 1492              		.set	.LANCHOR1,. + 0
 1493              		.type	PwmTimer, %object
 1494              		.size	PwmTimer, 4
 1495              	PwmTimer:
 1496 0000 00000000 		.space	4
 1497              		.text
 1498              	.Letext0:
 1499              		.file 2 "/usr/lib/gcc/arm-none-eabi/4.8.2/include/stddef.h"
 1500              		.file 3 "/usr/include/newlib/machine/_default_types.h"
 1501              		.file 4 "/usr/include/newlib/stdint.h"
 1502              		.file 5 "../../../../ChibiOS_2.6.2/os/ports/GCC/ARMCMx/chtypes.h"
 1503              		.file 6 "../../../../ChibiOS_2.6.2/os/kernel/include/chstreams.h"
 1504              		.file 7 "../../../../ChibiOS_2.6.2/os/hal/platforms/STM32F1xx/stm32f10x.h"
ARM GAS  /tmp/cc7HrsJa.s 			page 28


 1505              		.file 8 "../../../../ChibiOS_2.6.2/os/hal/platforms/STM32/GPIOv1/pal_lld.h"
 1506              		.file 9 "../../fw/vexcompat.h"
 1507              		.file 10 "../../fw/vexdigital.h"
 1508              		.file 11 "../../fw/vexmotor.h"
 1509              		.file 12 "../../fw/vexime.h"
 1510              		.file 13 "/usr/include/newlib/stdlib.h"
 1511              		.file 14 "../../fw/vexprintf.h"
 1512              		.file 15 "../../../../ChibiOS_2.6.2/os/ports/common/ARMCMx/nvic.h"
 1513              		.file 16 "../../../../ChibiOS_2.6.2/os/ports/common/ARMCMx/CMSIS/include/core_cm3.h"
 1514              		.file 17 "../../../../ChibiOS_2.6.2/os/ports/GCC/ARMCMx/chcore_v7m.h"