ARM GAS  /tmp/ccJ2adiV.s 			page 1


   1              		.syntax unified
   2              		.cpu cortex-m3
   3              		.fpu softvfp
   4              		.eabi_attribute 20, 1
   5              		.eabi_attribute 21, 1
   6              		.eabi_attribute 23, 3
   7              		.eabi_attribute 24, 1
   8              		.eabi_attribute 25, 1
   9              		.eabi_attribute 26, 1
  10              		.eabi_attribute 30, 2
  11              		.eabi_attribute 34, 1
  12              		.eabi_attribute 18, 4
  13              		.thumb
  14              		.file	"vexprintf.c"
  15              		.text
  16              	.Ltext0:
  17              		.cfi_sections	.debug_frame
  18              		.section	.text.vex_printc,"ax",%progbits
  19              		.align	2
  20              		.p2align 4,,15
  21              		.thumb
  22              		.thumb_func
  23              		.type	vex_printc, %function
  24              	vex_printc:
  25              	.LFB65:
  26              		.file 1 "../../fw/vexprintf.c"
  27              		.loc 1 233 0
  28              		.cfi_startproc
  29              		@ args = 0, pretend = 0, frame = 8
  30              		@ frame_needed = 0, uses_anonymous_args = 0
  31              	.LVL0:
  32 0000 30B5     		push	{r4, r5, lr}
  33              		.cfi_def_cfa_offset 12
  34              		.cfi_offset 4, -12
  35              		.cfi_offset 5, -8
  36              		.cfi_offset 14, -4
  37              		.loc 1 235 0
  38 0002 C368     		ldr	r3, [r0, #12]
  39              		.loc 1 233 0
  40 0004 83B0     		sub	sp, sp, #12
  41              		.cfi_def_cfa_offset 24
  42              		.loc 1 235 0
  43 0006 002B     		cmp	r3, #0
  44              		.loc 1 233 0
  45 0008 0446     		mov	r4, r0
  46              		.loc 1 235 0
  47 000a 02DB     		blt	.L2
  48              		.loc 1 235 0 is_stmt 0 discriminator 1
  49 000c 0269     		ldr	r2, [r0, #16]
  50 000e 9342     		cmp	r3, r2
  51 0010 0ADD     		ble	.L1
  52              	.L2:
  53              		.loc 1 239 0 is_stmt 1
  54 0012 6368     		ldr	r3, [r4, #4]
  55 0014 53B1     		cbz	r3, .L4
  56              		.loc 1 240 0
  57 0016 1B68     		ldr	r3, [r3]
ARM GAS  /tmp/ccJ2adiV.s 			page 2


  58 0018 1970     		strb	r1, [r3]
  59              		.loc 1 241 0
  60 001a 6368     		ldr	r3, [r4, #4]
  61              		.loc 1 242 0
  62 001c 2169     		ldr	r1, [r4, #16]
  63              	.LVL1:
  64              		.loc 1 241 0
  65 001e 1A68     		ldr	r2, [r3]
  66              		.loc 1 242 0
  67 0020 0131     		adds	r1, r1, #1
  68              		.loc 1 241 0
  69 0022 0132     		adds	r2, r2, #1
  70 0024 1A60     		str	r2, [r3]
  71              		.loc 1 242 0
  72 0026 2161     		str	r1, [r4, #16]
  73              	.L1:
  74              		.loc 1 283 0
  75 0028 03B0     		add	sp, sp, #12
  76              		@ sp needed
  77 002a 30BD     		pop	{r4, r5, pc}
  78              	.LVL2:
  79              	.L4:
  80              	.LBB7:
  81              	.LBB8:
  82              		.loc 1 246 0
  83 002c 40F20005 		movw	r5, #:lower16:vtlist
  84 0030 C0F20005 		movt	r5, #:upper16:vtlist
  85 0034 E868     		ldr	r0, [r5, #12]
  86              	.LVL3:
  87 0036 A26D     		ldr	r2, [r4, #88]
  88 0038 821A     		subs	r2, r0, r2
  89              		.loc 1 249 0
  90 003a 1D2A     		cmp	r2, #29
  91              		.loc 1 246 0
  92 003c E265     		str	r2, [r4, #92]
  93              		.loc 1 274 0
  94 003e 88BF     		it	hi
  95 0040 A4F85430 		strhhi	r3, [r4, #84]	@ movhi
  96              		.loc 1 249 0
  97 0044 09D8     		bhi	.L8
  98              		.loc 1 252 0
  99 0046 082A     		cmp	r2, #8
 100              		.loc 1 256 0
 101 0048 B4F85430 		ldrh	r3, [r4, #84]
 102              		.loc 1 252 0
 103 004c 11D8     		bhi	.L10
 104              	.L7:
 105              		.loc 1 263 0
 106 004e 0133     		adds	r3, r3, #1
 107 0050 9BB2     		uxth	r3, r3
 108 0052 802B     		cmp	r3, #128
 109 0054 A4F85430 		strh	r3, [r4, #84]	@ movhi
 110 0058 15D0     		beq	.L11
 111              	.LVL4:
 112              	.L8:
 113              		.loc 1 281 0
 114 005a 206E     		ldr	r0, [r4, #96]
ARM GAS  /tmp/ccJ2adiV.s 			page 3


 115              		.loc 1 280 0
 116 005c 2269     		ldr	r2, [r4, #16]
 117              		.loc 1 277 0
 118 005e EB68     		ldr	r3, [r5, #12]
 119              		.loc 1 281 0
 120 0060 0568     		ldr	r5, [r0]
 121              		.loc 1 280 0
 122 0062 0132     		adds	r2, r2, #1
 123              		.loc 1 277 0
 124 0064 A365     		str	r3, [r4, #88]
 125              		.loc 1 281 0
 126 0066 C9B2     		uxtb	r1, r1
 127 0068 AB68     		ldr	r3, [r5, #8]
 128              		.loc 1 280 0
 129 006a 2261     		str	r2, [r4, #16]
 130              		.loc 1 281 0
 131 006c 9847     		blx	r3
 132              	.LVL5:
 133              	.LBE8:
 134              	.LBE7:
 135              		.loc 1 283 0
 136 006e 03B0     		add	sp, sp, #12
 137              		@ sp needed
 138 0070 30BD     		pop	{r4, r5, pc}
 139              	.LVL6:
 140              	.L10:
 141              	.LBB10:
 142              	.LBB9:
 143              		.loc 1 256 0
 144 0072 A3EB8203 		sub	r3, r3, r2, lsl #2
 145 0076 9BB2     		uxth	r3, r3
 146              		.loc 1 258 0
 147 0078 1804     		lsls	r0, r3, #16
 148              		.loc 1 263 0
 149 007a 44BF     		itt	mi
 150 007c 0123     		movmi	r3, #1
 151 007e A4F85430 		strhmi	r3, [r4, #84]	@ movhi
 152              		.loc 1 258 0
 153 0082 EAD4     		bmi	.L8
 154 0084 E3E7     		b	.L7
 155              	.L11:
 156              		.loc 1 268 0
 157 0086 4FF61843 		movw	r3, #64536
 158 008a CFF6FF73 		movt	r3, 65535
 159 008e 03FB02F3 		mul	r3, r3, r2
 160 0092 44F6D350 		movw	r0, #19923
 161 0096 03F5EA43 		add	r3, r3, #29952
 162 009a 2F33     		adds	r3, r3, #47
 163 009c C1F26200 		movt	r0, 4194
 164 00a0 A0FB0320 		umull	r2, r0, r0, r3
 165 00a4 8009     		lsrs	r0, r0, #6
 166 00a6 0130     		adds	r0, r0, #1
 167 00a8 0191     		str	r1, [sp, #4]
 168 00aa FFF7FEFF 		bl	chThdSleep
 169              	.LVL7:
 170              		.loc 1 269 0
 171 00ae 0023     		movs	r3, #0
ARM GAS  /tmp/ccJ2adiV.s 			page 4


 172 00b0 A4F85430 		strh	r3, [r4, #84]	@ movhi
 173 00b4 0199     		ldr	r1, [sp, #4]
 174 00b6 D0E7     		b	.L8
 175              	.LBE9:
 176              	.LBE10:
 177              		.cfi_endproc
 178              	.LFE65:
 179              		.size	vex_printc, .-vex_printc
 180 00b8 AFF30080 		.section	.text.vex_prints,"ax",%progbits
 180      AFF30080 
 181              		.align	2
 182              		.p2align 4,,15
 183              		.thumb
 184              		.thumb_func
 185              		.type	vex_prints, %function
 186              	vex_prints:
 187              	.LFB66:
 188              		.loc 1 302 0
 189              		.cfi_startproc
 190              		@ args = 0, pretend = 0, frame = 0
 191              		@ frame_needed = 0, uses_anonymous_args = 0
 192              	.LVL8:
 193 0000 2DE9F843 		push	{r3, r4, r5, r6, r7, r8, r9, lr}
 194              		.cfi_def_cfa_offset 32
 195              		.cfi_offset 3, -32
 196              		.cfi_offset 4, -28
 197              		.cfi_offset 5, -24
 198              		.cfi_offset 6, -20
 199              		.cfi_offset 7, -16
 200              		.cfi_offset 8, -12
 201              		.cfi_offset 9, -8
 202              		.cfi_offset 14, -4
 203              		.loc 1 305 0
 204 0004 B2F10008 		subs	r8, r2, #0
 205              		.loc 1 302 0
 206 0008 0546     		mov	r5, r0
 207              	.LVL9:
 208 000a 0C46     		mov	r4, r1
 209              		.loc 1 305 0
 210 000c 40DD     		ble	.L25
 211              	.LVL10:
 212              	.LBB11:
 213              		.loc 1 308 0 discriminator 1
 214 000e 0978     		ldrb	r1, [r1]	@ zero_extendqisi2
 215              	.LVL11:
 216 0010 0029     		cmp	r1, #0
 217 0012 39D0     		beq	.L26
 218 0014 2246     		mov	r2, r4
 219              	.LVL12:
 220              		.loc 1 308 0 is_stmt 0
 221 0016 0020     		movs	r0, #0
 222              	.LVL13:
 223              	.L16:
 224              		.loc 1 308 0 discriminator 2
 225 0018 12F8017F 		ldrb	r7, [r2, #1]!	@ zero_extendqisi2
 226              		.loc 1 309 0 is_stmt 1 discriminator 2
 227 001c 0130     		adds	r0, r0, #1
ARM GAS  /tmp/ccJ2adiV.s 			page 5


 228              	.LVL14:
 229              		.loc 1 308 0 discriminator 2
 230 001e 002F     		cmp	r7, #0
 231 0020 FAD1     		bne	.L16
 232              		.loc 1 310 0
 233 0022 4045     		cmp	r0, r8
 234              		.loc 1 311 0
 235 0024 A8BF     		it	ge
 236 0026 B846     		movge	r8, r7
 237              	.LVL15:
 238              		.loc 1 310 0
 239 0028 2FDB     		blt	.L14
 240              	.LVL16:
 241              	.L17:
 242              	.LBE11:
 243              		.loc 1 303 0
 244 002a 13F0020F 		tst	r3, #2
 245 002e 14BF     		ite	ne
 246 0030 3027     		movne	r7, #48
 247 0032 2027     		moveq	r7, #32
 248              	.LVL17:
 249              		.loc 1 317 0
 250 0034 13F00103 		ands	r3, r3, #1
 251              	.LVL18:
 252 0038 24D1     		bne	.L29
 253              		.loc 1 318 0 discriminator 1
 254 003a B8F1000F 		cmp	r8, #0
 255 003e 21DD     		ble	.L29
 256              		.loc 1 318 0 is_stmt 0
 257 0040 C146     		mov	r9, r8
 258              	.LVL19:
 259              	.L19:
 260              		.loc 1 319 0 is_stmt 1 discriminator 2
 261 0042 2846     		mov	r0, r5
 262 0044 3946     		mov	r1, r7
 263 0046 FFF7FEFF 		bl	vex_printc
 264              	.LVL20:
 265              		.loc 1 318 0 discriminator 2
 266 004a B9F10109 		subs	r9, r9, #1
 267              	.LVL21:
 268 004e F8D1     		bne	.L19
 269 0050 2178     		ldrb	r1, [r4]	@ zero_extendqisi2
 270 0052 4646     		mov	r6, r8
 271              		.loc 1 318 0 is_stmt 0
 272 0054 C846     		mov	r8, r9
 273              	.LVL22:
 274              	.L38:
 275              		.loc 1 323 0 is_stmt 1 discriminator 2
 276 0056 39B1     		cbz	r1, .L39
 277              	.LVL23:
 278              	.L21:
 279              		.loc 1 324 0 discriminator 2
 280 0058 2846     		mov	r0, r5
 281 005a FFF7FEFF 		bl	vex_printc
 282              	.LVL24:
 283              		.loc 1 323 0 discriminator 2
 284 005e 14F8011F 		ldrb	r1, [r4, #1]!	@ zero_extendqisi2
ARM GAS  /tmp/ccJ2adiV.s 			page 6


 285              		.loc 1 325 0 discriminator 2
 286 0062 0136     		adds	r6, r6, #1
 287              	.LVL25:
 288              		.loc 1 323 0 discriminator 2
 289 0064 0029     		cmp	r1, #0
 290 0066 F7D1     		bne	.L21
 291              	.L39:
 292              	.LVL26:
 293              		.loc 1 327 0 discriminator 1
 294 0068 B8F1000F 		cmp	r8, #0
 295 006c 07DD     		ble	.L22
 296              		.loc 1 327 0 is_stmt 0
 297 006e 4446     		mov	r4, r8
 298              	.LVL27:
 299              	.L24:
 300              		.loc 1 328 0 is_stmt 1 discriminator 2
 301 0070 2846     		mov	r0, r5
 302 0072 3946     		mov	r1, r7
 303 0074 FFF7FEFF 		bl	vex_printc
 304              	.LVL28:
 305              		.loc 1 327 0 discriminator 2
 306 0078 013C     		subs	r4, r4, #1
 307              	.LVL29:
 308 007a F9D1     		bne	.L24
 309 007c 4644     		add	r6, r6, r8
 310              	.LVL30:
 311              	.L22:
 312              		.loc 1 332 0
 313 007e 3046     		mov	r0, r6
 314 0080 BDE8F883 		pop	{r3, r4, r5, r6, r7, r8, r9, pc}
 315              	.LVL31:
 316              	.L29:
 317              		.loc 1 303 0
 318 0084 0026     		movs	r6, #0
 319 0086 E6E7     		b	.L38
 320              	.LVL32:
 321              	.L26:
 322              	.LBB12:
 323              		.loc 1 308 0
 324 0088 0846     		mov	r0, r1
 325              	.LVL33:
 326              	.L14:
 327              		.loc 1 313 0
 328 008a C0EB0808 		rsb	r8, r0, r8
 329              	.LVL34:
 330 008e CCE7     		b	.L17
 331              	.LVL35:
 332              	.L25:
 333              	.LBE12:
 334              		.loc 1 303 0
 335 0090 2027     		movs	r7, #32
 336 0092 0026     		movs	r6, #0
 337 0094 0978     		ldrb	r1, [r1]	@ zero_extendqisi2
 338              	.LVL36:
 339 0096 DEE7     		b	.L38
 340              		.cfi_endproc
 341              	.LFE66:
ARM GAS  /tmp/ccJ2adiV.s 			page 7


 342              		.size	vex_prints, .-vex_prints
 343 0098 AFF30080 		.section	.text.vex_printi,"ax",%progbits
 343      AFF30080 
 344              		.align	2
 345              		.p2align 4,,15
 346              		.thumb
 347              		.thumb_func
 348              		.type	vex_printi, %function
 349              	vex_printi:
 350              	.LFB67:
 351              		.loc 1 348 0
 352              		.cfi_startproc
 353              		@ args = 12, pretend = 0, frame = 8
 354              		@ frame_needed = 0, uses_anonymous_args = 0
 355              	.LVL37:
 356 0000 2DE9F043 		push	{r4, r5, r6, r7, r8, r9, lr}
 357              		.cfi_def_cfa_offset 28
 358              		.cfi_offset 4, -28
 359              		.cfi_offset 5, -24
 360              		.cfi_offset 6, -20
 361              		.cfi_offset 7, -16
 362              		.cfi_offset 8, -12
 363              		.cfi_offset 9, -8
 364              		.cfi_offset 14, -4
 365              		.loc 1 351 0
 366 0004 0C46     		mov	r4, r1
 367              	.LVL38:
 368              		.loc 1 348 0
 369 0006 83B0     		sub	sp, sp, #12
 370              		.cfi_def_cfa_offset 40
 371              		.loc 1 348 0
 372 0008 1946     		mov	r1, r3
 373              	.LVL39:
 374 000a 8046     		mov	r8, r0
 375 000c DDF82890 		ldr	r9, [sp, #40]
 376 0010 0B9B     		ldr	r3, [sp, #44]
 377              	.LVL40:
 378 0012 0C9D     		ldr	r5, [sp, #48]
 379              		.loc 1 353 0
 380 0014 002C     		cmp	r4, #0
 381 0016 50D0     		beq	.L64
 382              		.loc 1 356 0
 383 0018 0031     		adds	r1, r1, #0
 384 001a 18BF     		it	ne
 385 001c 0121     		movne	r1, #1
 386              	.LVL41:
 387 001e 0A2A     		cmp	r2, #10
 388 0020 18BF     		it	ne
 389 0022 0021     		movne	r1, #0
 390 0024 0029     		cmp	r1, #0
 391 0026 3CD1     		bne	.L65
 392              	.LVL42:
 393              	.L50:
 394              		.loc 1 350 0
 395 0028 0020     		movs	r0, #0
 396              	.L42:
 397              	.LVL43:
ARM GAS  /tmp/ccJ2adiV.s 			page 8


 398              		.loc 1 363 0
 399 002a 0021     		movs	r1, #0
 400 002c 88F82310 		strb	r1, [r8, #35]
 401              		.loc 1 362 0
 402 0030 08F12307 		add	r7, r8, #35
 403              	.LVL44:
 404              		.loc 1 365 0
 405 0034 94B1     		cbz	r4, .L43
 406              		.loc 1 369 0
 407 0036 A5F13A0E 		sub	lr, r5, #58
 408 003a 08F12205 		add	r5, r8, #34
 409              	.LVL45:
 410              	.L45:
 411              		.loc 1 367 0
 412 003e B4FBF2F1 		udiv	r1, r4, r2
 413 0042 02FB1144 		mls	r4, r2, r1, r4
 414              	.LVL46:
 415              		.loc 1 368 0
 416 0046 092C     		cmp	r4, #9
 417              		.loc 1 369 0
 418 0048 C8BF     		it	gt
 419 004a 7444     		addgt	r4, r4, lr
 420              	.LVL47:
 421              		.loc 1 370 0
 422 004c 04F13006 		add	r6, r4, #48
 423 0050 2F46     		mov	r7, r5
 424              	.LVL48:
 425              		.loc 1 365 0
 426 0052 0C46     		mov	r4, r1
 427              	.LVL49:
 428              		.loc 1 370 0
 429 0054 05F80169 		strb	r6, [r5], #-1
 430              	.LVL50:
 431              		.loc 1 365 0
 432 0058 0029     		cmp	r1, #0
 433 005a F0D1     		bne	.L45
 434              	.LVL51:
 435              	.L43:
 436              		.loc 1 374 0
 437 005c B0B1     		cbz	r0, .L46
 438              		.loc 1 376 0
 439 005e B9F1000F 		cmp	r9, #0
 440 0062 24D0     		beq	.L47
 441              		.loc 1 376 0 is_stmt 0 discriminator 1
 442 0064 9C07     		lsls	r4, r3, #30
 443 0066 22D5     		bpl	.L47
 444              		.loc 1 378 0 is_stmt 1
 445 0068 4046     		mov	r0, r8
 446              	.LVL52:
 447 006a 2D21     		movs	r1, #45
 448 006c 0193     		str	r3, [sp, #4]
 449 006e FFF7FEFF 		bl	vex_printc
 450              	.LVL53:
 451              		.loc 1 380 0
 452 0072 019B     		ldr	r3, [sp, #4]
 453 0074 09F1FF39 		add	r9, r9, #-1
 454              	.LVL54:
ARM GAS  /tmp/ccJ2adiV.s 			page 9


 455              		.loc 1 379 0
 456 0078 0124     		movs	r4, #1
 457              	.LVL55:
 458              	.L48:
 459              		.loc 1 394 0
 460 007a 4046     		mov	r0, r8
 461 007c 3946     		mov	r1, r7
 462 007e 4A46     		mov	r2, r9
 463 0080 FFF7FEFF 		bl	vex_prints
 464              	.LVL56:
 465              		.loc 1 395 0
 466 0084 2044     		add	r0, r0, r4
 467 0086 03B0     		add	sp, sp, #12
 468              		@ sp needed
 469 0088 BDE8F083 		pop	{r4, r5, r6, r7, r8, r9, pc}
 470              	.LVL57:
 471              	.L46:
 472              		.loc 1 389 0
 473 008c D8F80820 		ldr	r2, [r8, #8]
 474              	.LVL58:
 475              		.loc 1 350 0
 476 0090 0446     		mov	r4, r0
 477              		.loc 1 389 0
 478 0092 002A     		cmp	r2, #0
 479 0094 F1D0     		beq	.L48
 480              	.LVL59:
 481              		.loc 1 390 0
 482 0096 2B22     		movs	r2, #43
 483 0098 07F8012C 		strb	r2, [r7, #-1]
 484              		.loc 1 350 0
 485 009c 0446     		mov	r4, r0
 486              		.loc 1 390 0
 487 009e 013F     		subs	r7, r7, #1
 488              	.LVL60:
 489 00a0 EBE7     		b	.L48
 490              	.LVL61:
 491              	.L65:
 492              		.loc 1 356 0 discriminator 1
 493 00a2 002C     		cmp	r4, #0
 494              		.loc 1 359 0 discriminator 1
 495 00a4 BCBF     		itt	lt
 496 00a6 6442     		rsblt	r4, r4, #0
 497              	.LVL62:
 498              		.loc 1 358 0 discriminator 1
 499 00a8 0120     		movlt	r0, #1
 500              	.LVL63:
 501              		.loc 1 356 0 discriminator 1
 502 00aa BDDA     		bge	.L50
 503 00ac BDE7     		b	.L42
 504              	.LVL64:
 505              	.L47:
 506              		.loc 1 384 0
 507 00ae 2D22     		movs	r2, #45
 508              	.LVL65:
 509 00b0 07F8012C 		strb	r2, [r7, #-1]
 510              		.loc 1 350 0
 511 00b4 0024     		movs	r4, #0
ARM GAS  /tmp/ccJ2adiV.s 			page 10


 512              		.loc 1 384 0
 513 00b6 013F     		subs	r7, r7, #1
 514              	.LVL66:
 515 00b8 DFE7     		b	.L48
 516              	.LVL67:
 517              	.L64:
 518              		.loc 1 354 0
 519 00ba 40F20001 		movw	r1, #:lower16:.LC0
 520              	.LVL68:
 521 00be 4A46     		mov	r2, r9
 522              	.LVL69:
 523 00c0 C0F20001 		movt	r1, #:upper16:.LC0
 524              		.loc 1 395 0
 525 00c4 03B0     		add	sp, sp, #12
 526              		@ sp needed
 527 00c6 BDE8F043 		pop	{r4, r5, r6, r7, r8, r9, lr}
 528              	.LVL70:
 529              		.loc 1 354 0
 530 00ca FFF7FEBF 		b	vex_prints
 531              	.LVL71:
 532              		.cfi_endproc
 533              	.LFE67:
 534              		.size	vex_printi, .-vex_printi
 535              		.global	__aeabi_dcmplt
 536              		.global	__aeabi_dadd
 537              		.global	__aeabi_ui2d
 538              		.global	__aeabi_d2uiz
 539              		.global	__aeabi_dsub
 540              		.global	__aeabi_dmul
 541 00ce 00BF     		.section	.text.vex_print,"ax",%progbits
 542              		.align	2
 543              		.p2align 4,,15
 544              		.thumb
 545              		.thumb_func
 546              		.type	vex_print, %function
 547              	vex_print:
 548              	.LFB70:
 549              		.loc 1 523 0
 550              		.cfi_startproc
 551              		@ args = 0, pretend = 0, frame = 48
 552              		@ frame_needed = 0, uses_anonymous_args = 0
 553              	.LVL72:
 554 0000 2DE9F04F 		push	{r4, r5, r6, r7, r8, r9, r10, fp, lr}
 555              		.cfi_def_cfa_offset 36
 556              		.cfi_offset 4, -36
 557              		.cfi_offset 5, -32
 558              		.cfi_offset 6, -28
 559              		.cfi_offset 7, -24
 560              		.cfi_offset 8, -20
 561              		.cfi_offset 9, -16
 562              		.cfi_offset 10, -12
 563              		.cfi_offset 11, -8
 564              		.cfi_offset 14, -4
 565 0004 8146     		mov	r9, r0
 566              		.loc 1 530 0
 567 0006 0020     		movs	r0, #0
 568              	.LVL73:
ARM GAS  /tmp/ccJ2adiV.s 			page 11


 569 0008 C9F80800 		str	r0, [r9, #8]
 570              		.loc 1 531 0
 571 000c C9F81000 		str	r0, [r9, #16]
 572              		.loc 1 523 0
 573 0010 0B46     		mov	r3, r1
 574              		.loc 1 533 0
 575 0012 0978     		ldrb	r1, [r1]	@ zero_extendqisi2
 576              	.LVL74:
 577              		.loc 1 523 0
 578 0014 91B0     		sub	sp, sp, #68
 579              		.cfi_def_cfa_offset 104
 580              		.loc 1 523 0
 581 0016 9246     		mov	r10, r2
 582              	.LVL75:
 583              		.loc 1 533 0
 584 0018 0029     		cmp	r1, #0
 585 001a 00F0E781 		beq	.L116
 586              	.LBB20:
 587              	.LBB21:
 588              	.LBB22:
 589              	.LBB23:
 590              		.loc 1 424 0
 591 001e 40F20002 		movw	r2, #:lower16:.LANCHOR0
 592              	.LVL76:
 593              	.LBE23:
 594              	.LBE22:
 595              	.LBE21:
 596              	.LBE20:
 597              	.LBB44:
 598              		.loc 1 598 0
 599 0022 40F2000E 		movw	lr, #:lower16:.LC1
 600              	.LBE44:
 601              	.LBB45:
 602              	.LBB38:
 603              	.LBB31:
 604              	.LBB24:
 605              		.loc 1 463 0
 606 0026 4CF6CD48 		movw	r8, #52429
 607              		.loc 1 424 0
 608 002a C0F20002 		movt	r2, #:upper16:.LANCHOR0
 609              	.LBE24:
 610              	.LBE31:
 611              	.LBE38:
 612              	.LBE45:
 613              	.LBB46:
 614              		.loc 1 598 0
 615 002e C0F2000E 		movt	lr, #:upper16:.LC1
 616              	.LBE46:
 617              		.loc 1 527 0
 618 0032 8346     		mov	fp, r0
 619              	.LBB47:
 620              	.LBB39:
 621              	.LBB32:
 622              	.LBB25:
 623              		.loc 1 463 0
 624 0034 CCF6CC48 		movt	r8, 52428
 625              		.loc 1 424 0
ARM GAS  /tmp/ccJ2adiV.s 			page 12


 626 0038 0792     		str	r2, [sp, #28]
 627              	.LBE25:
 628              	.LBE32:
 629              	.LBE39:
 630              	.LBE47:
 631              	.LBB48:
 632              		.loc 1 598 0
 633 003a CDF818E0 		str	lr, [sp, #24]
 634              	.LVL77:
 635              	.L114:
 636              	.LBE48:
 637              		.loc 1 535 0
 638 003e 2529     		cmp	r1, #37
 639 0040 49D1     		bne	.L68
 640              	.LVL78:
 641              		.loc 1 541 0
 642 0042 5A78     		ldrb	r2, [r3, #1]	@ zero_extendqisi2
 643              		.loc 1 538 0
 644 0044 5C1C     		adds	r4, r3, #1
 645              	.LVL79:
 646              		.loc 1 541 0
 647 0046 002A     		cmp	r2, #0
 648 0048 50D0     		beq	.L67
 649              		.loc 1 543 0
 650 004a 252A     		cmp	r2, #37
 651 004c 45D0     		beq	.L69
 652              		.loc 1 545 0
 653 004e 2D2A     		cmp	r2, #45
 654 0050 03BF     		ittte	eq
 655 0052 9A78     		ldrbeq	r2, [r3, #2]	@ zero_extendqisi2
 656              		.loc 1 546 0
 657 0054 9C1C     		addeq	r4, r3, #2
 658              	.LVL80:
 659              		.loc 1 547 0
 660 0056 0125     		moveq	r5, #1
 661              		.loc 1 539 0
 662 0058 0025     		movne	r5, #0
 663              	.LVL81:
 664              		.loc 1 549 0
 665 005a 2B2A     		cmp	r2, #43
 666              		.loc 1 551 0
 667 005c 01BF     		itttt	eq
 668 005e 0123     		moveq	r3, #1
 669 0060 C9F80830 		streq	r3, [r9, #8]
 670 0064 6278     		ldrbeq	r2, [r4, #1]	@ zero_extendqisi2
 671              		.loc 1 550 0
 672 0066 E418     		addeq	r4, r4, r3
 673              	.LVL82:
 674              		.loc 1 553 0
 675 0068 302A     		cmp	r2, #48
 676 006a 07D1     		bne	.L72
 677 006c 631C     		adds	r3, r4, #1
 678              	.LVL83:
 679              	.L73:
 680              		.loc 1 554 0
 681 006e 1C46     		mov	r4, r3
 682              	.LVL84:
ARM GAS  /tmp/ccJ2adiV.s 			page 13


 683              		.loc 1 553 0
 684 0070 13F8012B 		ldrb	r2, [r3], #1	@ zero_extendqisi2
 685              	.LVL85:
 686              		.loc 1 555 0
 687 0074 45F00205 		orr	r5, r5, #2
 688              	.LVL86:
 689              		.loc 1 553 0
 690 0078 302A     		cmp	r2, #48
 691 007a F8D0     		beq	.L73
 692              	.L72:
 693              	.LVL87:
 694              		.loc 1 559 0
 695 007c A2F13007 		sub	r7, r2, #48
 696 0080 FFB2     		uxtb	r7, r7
 697 0082 2E2A     		cmp	r2, #46
 698 0084 18BF     		it	ne
 699 0086 092F     		cmpne	r7, #9
 700 0088 8CBF     		ite	hi
 701 008a 0027     		movhi	r7, #0
 702 008c 0127     		movls	r7, #1
 703 008e 84BF     		itt	hi
 704 0090 1346     		movhi	r3, r2
 705              		.loc 1 537 0
 706 0092 0626     		movhi	r6, #6
 707              		.loc 1 559 0
 708 0094 37D8     		bhi	.L74
 709 0096 0027     		movs	r7, #0
 710 0098 1346     		mov	r3, r2
 711 009a 2A46     		mov	r2, r5
 712 009c 2146     		mov	r1, r4
 713 009e 0626     		movs	r6, #6
 714 00a0 3D46     		mov	r5, r7
 715              	.LVL88:
 716 00a2 9646     		mov	lr, r2
 717 00a4 03E0     		b	.L75
 718              	.LVL89:
 719              	.L152:
 720              		.loc 1 575 0
 721 00a6 00EB4406 		add	r6, r0, r4, lsl #1
 722              	.LVL90:
 723              	.L76:
 724 00aa 11F8013F 		ldrb	r3, [r1, #1]!	@ zero_extendqisi2
 725              	.L75:
 726              		.loc 1 570 0
 727 00ae A3F13002 		sub	r2, r3, #48
 728              		.loc 1 563 0
 729 00b2 2E2B     		cmp	r3, #46
 730              		.loc 1 570 0
 731 00b4 D0B2     		uxtb	r0, r2
 732 00b6 0C46     		mov	r4, r1
 733              	.LVL91:
 734              		.loc 1 563 0
 735 00b8 0AD0     		beq	.L121
 736              		.loc 1 570 0
 737 00ba 0928     		cmp	r0, #9
 738 00bc 22D8     		bhi	.L147
 739              		.loc 1 574 0
ARM GAS  /tmp/ccJ2adiV.s 			page 14


 740 00be 06EB8604 		add	r4, r6, r6, lsl #2
 741              	.LVL92:
 742              		.loc 1 579 0
 743 00c2 07EB8703 		add	r3, r7, r7, lsl #2
 744              	.LVL93:
 745              		.loc 1 572 0
 746 00c6 002D     		cmp	r5, #0
 747 00c8 EDD1     		bne	.L152
 748              		.loc 1 580 0
 749 00ca 02EB4307 		add	r7, r2, r3, lsl #1
 750              	.LVL94:
 751 00ce ECE7     		b	.L76
 752              	.LVL95:
 753              	.L121:
 754              		.loc 1 566 0
 755 00d0 0026     		movs	r6, #0
 756              	.LVL96:
 757              		.loc 1 565 0
 758 00d2 0125     		movs	r5, #1
 759              	.LVL97:
 760 00d4 E9E7     		b	.L76
 761              	.LVL98:
 762              	.L68:
 763 00d6 1978     		ldrb	r1, [r3]	@ zero_extendqisi2
 764              		.loc 1 535 0
 765 00d8 1C46     		mov	r4, r3
 766              	.LVL99:
 767              	.L69:
 768              		.loc 1 644 0
 769 00da 4846     		mov	r0, r9
 770 00dc FFF7FEFF 		bl	vex_printc
 771              	.LVL100:
 772              		.loc 1 645 0
 773 00e0 0BF1010B 		add	fp, fp, #1
 774              	.LVL101:
 775              	.L90:
 776              		.loc 1 533 0
 777 00e4 6178     		ldrb	r1, [r4, #1]	@ zero_extendqisi2
 778 00e6 631C     		adds	r3, r4, #1
 779              	.LVL102:
 780 00e8 0029     		cmp	r1, #0
 781 00ea A8D1     		bne	.L114
 782              	.LVL103:
 783              	.L67:
 784              		.loc 1 649 0
 785 00ec D9F80430 		ldr	r3, [r9, #4]
 786 00f0 13B1     		cbz	r3, .L115
 787              		.loc 1 650 0
 788 00f2 1B68     		ldr	r3, [r3]
 789 00f4 0022     		movs	r2, #0
 790              	.LVL104:
 791 00f6 1A70     		strb	r2, [r3]
 792              	.LVL105:
 793              	.L115:
 794              	.LBB49:
 795              	.LBB50:
 796              		.loc 1 210 0
ARM GAS  /tmp/ccJ2adiV.s 			page 15


 797 00f8 FFF7FEFF 		bl	chMtxUnlock
 798              	.LVL106:
 799              	.LBE50:
 800              	.LBE49:
 801              		.loc 1 656 0
 802 00fc 5846     		mov	r0, fp
 803 00fe 11B0     		add	sp, sp, #68
 804              		@ sp needed
 805 0100 BDE8F08F 		pop	{r4, r5, r6, r7, r8, r9, r10, fp, pc}
 806              	.LVL107:
 807              	.L147:
 808 0104 7546     		mov	r5, lr
 809              	.LVL108:
 810              	.L74:
 811              		.loc 1 591 0
 812 0106 6C2B     		cmp	r3, #108
 813 0108 04BF     		itt	eq
 814 010a 6378     		ldrbeq	r3, [r4, #1]	@ zero_extendqisi2
 815              		.loc 1 592 0
 816 010c 0134     		addeq	r4, r4, #1
 817              	.LVL109:
 818              		.loc 1 593 0
 819 010e 583B     		subs	r3, r3, #88
 820 0110 202B     		cmp	r3, #32
 821 0112 00F23E81 		bhi	.L80
 822 0116 DFE813F0 		tbh	[pc, r3, lsl #1]
 823              	.L82:
 824 011a 3801     		.2byte	(.L81-.L82)/2
 825 011c 3C01     		.2byte	(.L80-.L82)/2
 826 011e 3C01     		.2byte	(.L80-.L82)/2
 827 0120 3C01     		.2byte	(.L80-.L82)/2
 828 0122 3C01     		.2byte	(.L80-.L82)/2
 829 0124 3C01     		.2byte	(.L80-.L82)/2
 830 0126 3C01     		.2byte	(.L80-.L82)/2
 831 0128 3C01     		.2byte	(.L80-.L82)/2
 832 012a 3C01     		.2byte	(.L80-.L82)/2
 833 012c 3C01     		.2byte	(.L80-.L82)/2
 834 012e 3C01     		.2byte	(.L80-.L82)/2
 835 0130 2501     		.2byte	(.L83-.L82)/2
 836 0132 1B01     		.2byte	(.L84-.L82)/2
 837 0134 3C01     		.2byte	(.L80-.L82)/2
 838 0136 4F00     		.2byte	(.L85-.L82)/2
 839 0138 3C01     		.2byte	(.L80-.L82)/2
 840 013a 3C01     		.2byte	(.L80-.L82)/2
 841 013c 3C01     		.2byte	(.L80-.L82)/2
 842 013e 3C01     		.2byte	(.L80-.L82)/2
 843 0140 3C01     		.2byte	(.L80-.L82)/2
 844 0142 3C01     		.2byte	(.L80-.L82)/2
 845 0144 3C01     		.2byte	(.L80-.L82)/2
 846 0146 3C01     		.2byte	(.L80-.L82)/2
 847 0148 3C01     		.2byte	(.L80-.L82)/2
 848 014a 4600     		.2byte	(.L86-.L82)/2
 849 014c 3C01     		.2byte	(.L80-.L82)/2
 850 014e 3C01     		.2byte	(.L80-.L82)/2
 851 0150 3300     		.2byte	(.L87-.L82)/2
 852 0152 3C01     		.2byte	(.L80-.L82)/2
 853 0154 4600     		.2byte	(.L86-.L82)/2
ARM GAS  /tmp/ccJ2adiV.s 			page 16


 854 0156 3C01     		.2byte	(.L80-.L82)/2
 855 0158 3C01     		.2byte	(.L80-.L82)/2
 856 015a 2100     		.2byte	(.L88-.L82)/2
 857              	.L88:
 858              		.loc 1 607 0
 859 015c DAF80010 		ldr	r1, [r10]
 860 0160 6123     		movs	r3, #97
 861              	.L151:
 862              		.loc 1 611 0
 863 0162 0097     		str	r7, [sp]
 864 0164 0195     		str	r5, [sp, #4]
 865 0166 0293     		str	r3, [sp, #8]
 866 0168 4846     		mov	r0, r9
 867 016a 1022     		movs	r2, #16
 868              	.LVL110:
 869              	.L150:
 870              		.loc 1 616 0
 871 016c 0023     		movs	r3, #0
 872              	.L149:
 873 016e FFF7FEFF 		bl	vex_printi
 874              	.LVL111:
 875              		.loc 1 617 0
 876 0172 0023     		movs	r3, #0
 877              		.loc 1 616 0
 878 0174 0AF1040A 		add	r10, r10, #4
 879              	.LVL112:
 880 0178 8344     		add	fp, fp, r0
 881              	.LVL113:
 882              		.loc 1 617 0
 883 017a C9F80830 		str	r3, [r9, #8]
 884              		.loc 1 618 0
 885 017e B1E7     		b	.L90
 886              	.L87:
 887              	.LBB51:
 888              		.loc 1 597 0
 889 0180 DAF80010 		ldr	r1, [r10]
 890              		.loc 1 598 0
 891 0184 DDF818E0 		ldr	lr, [sp, #24]
 892 0188 2B46     		mov	r3, r5
 893 018a 3A46     		mov	r2, r7
 894 018c 0029     		cmp	r1, #0
 895 018e 08BF     		it	eq
 896 0190 7146     		moveq	r1, lr
 897 0192 4846     		mov	r0, r9
 898 0194 FFF7FEFF 		bl	vex_prints
 899              	.LVL114:
 900              		.loc 1 599 0
 901 0198 0023     		movs	r3, #0
 902              		.loc 1 597 0
 903 019a 0AF1040A 		add	r10, r10, #4
 904              	.LVL115:
 905              		.loc 1 598 0
 906 019e 8344     		add	fp, fp, r0
 907              	.LVL116:
 908              		.loc 1 599 0
 909 01a0 C9F80830 		str	r3, [r9, #8]
 910              	.LBE51:
ARM GAS  /tmp/ccJ2adiV.s 			page 17


 911              		.loc 1 601 0
 912 01a4 9EE7     		b	.L90
 913              	.L86:
 914              		.loc 1 616 0
 915 01a6 6123     		movs	r3, #97
 916 01a8 DAF80010 		ldr	r1, [r10]
 917 01ac 4846     		mov	r0, r9
 918 01ae 0097     		str	r7, [sp]
 919 01b0 0195     		str	r5, [sp, #4]
 920 01b2 0293     		str	r3, [sp, #8]
 921 01b4 0A22     		movs	r2, #10
 922 01b6 D9E7     		b	.L150
 923              	.L85:
 924              		.loc 1 629 0
 925 01b8 0AF1070A 		add	r10, r10, #7
 926              	.LVL117:
 927 01bc 2AF0070A 		bic	r10, r10, #7
 928              	.LVL118:
 929 01c0 DAF80400 		ldr	r0, [r10, #4]
 930 01c4 DAF80010 		ldr	r1, [r10]
 931 01c8 0890     		str	r0, [sp, #32]
 932 01ca 0991     		str	r1, [sp, #36]
 933              	.LBB52:
 934              	.LBB40:
 935              	.LBB33:
 936              	.LBB26:
 937              		.loc 1 413 0
 938 01cc 0846     		mov	r0, r1
 939              		.loc 1 410 0
 940 01ce 09F1240E 		add	lr, r9, #36
 941              		.loc 1 413 0
 942 01d2 0899     		ldr	r1, [sp, #32]
 943 01d4 0022     		movs	r2, #0
 944 01d6 0023     		movs	r3, #0
 945              	.LBE26:
 946              	.LBE33:
 947              	.LBE40:
 948              	.LBE52:
 949              		.loc 1 629 0
 950 01d8 0AF1080A 		add	r10, r10, #8
 951              	.LVL119:
 952              	.LBB53:
 953              	.LBB41:
 954              	.LBB34:
 955              	.LBB27:
 956              		.loc 1 410 0
 957 01dc CDF82CE0 		str	lr, [sp, #44]
 958              	.LVL120:
 959              		.loc 1 413 0
 960 01e0 FFF7FEFF 		bl	__aeabi_dcmplt
 961              	.LVL121:
 962 01e4 0028     		cmp	r0, #0
 963 01e6 40F0E980 		bne	.L153
 964              		.loc 1 417 0
 965 01ea D9F80830 		ldr	r3, [r9, #8]
 966 01ee 002B     		cmp	r3, #0
 967 01f0 00F0E180 		beq	.L123
ARM GAS  /tmp/ccJ2adiV.s 			page 18


 968              		.loc 1 418 0
 969 01f4 2B23     		movs	r3, #43
 970 01f6 09F12502 		add	r2, r9, #37
 971 01fa 89F82430 		strb	r3, [r9, #36]
 972 01fe 0A92     		str	r2, [sp, #40]
 973              	.LVL122:
 974              	.L93:
 975              		.loc 1 423 0
 976 0200 072E     		cmp	r6, #7
 977 0202 0ED8     		bhi	.L94
 978              		.loc 1 424 0
 979 0204 DDF81CE0 		ldr	lr, [sp, #28]
 980 0208 0998     		ldr	r0, [sp, #36]
 981 020a 0EEBC603 		add	r3, lr, r6, lsl #3
 982 020e 0899     		ldr	r1, [sp, #32]
 983 0210 D3E90023 		ldrd	r2, [r3]
 984 0214 FFF7FEFF 		bl	__aeabi_dadd
 985              	.LVL123:
 986 0218 0990     		str	r0, [sp, #36]
 987              	.LVL124:
 988 021a 0891     		str	r1, [sp, #32]
 989              	.LVL125:
 990              		.loc 1 430 0
 991 021c 002E     		cmp	r6, #0
 992 021e 00F0DE80 		beq	.L124
 993              	.LVL126:
 994              	.L94:
 995 0222 0023     		movs	r3, #0
 996              		.loc 1 428 0
 997 0224 0120     		movs	r0, #1
 998              	.LVL127:
 999              	.L97:
 1000              		.loc 1 430 0
 1001 0226 0133     		adds	r3, r3, #1
 1002              	.LVL128:
 1003 0228 9BB2     		uxth	r3, r3
 1004              	.LVL129:
 1005              		.loc 1 431 0
 1006 022a 00EB8000 		add	r0, r0, r0, lsl #2
 1007              	.LVL130:
 1008              		.loc 1 430 0
 1009 022e 9E42     		cmp	r6, r3
 1010              		.loc 1 431 0
 1011 0230 4FEA4000 		lsl	r0, r0, #1
 1012              	.LVL131:
 1013              		.loc 1 430 0
 1014 0234 F7D8     		bhi	.L97
 1015 0236 FFF7FEFF 		bl	__aeabi_ui2d
 1016              	.LVL132:
 1017 023a CDE90C01 		strd	r0, [sp, #48]
 1018              	.LVL133:
 1019              	.L95:
 1020              		.loc 1 433 0
 1021 023e 0998     		ldr	r0, [sp, #36]
 1022 0240 0899     		ldr	r1, [sp, #32]
 1023 0242 FFF7FEFF 		bl	__aeabi_d2uiz
 1024              	.LVL134:
ARM GAS  /tmp/ccJ2adiV.s 			page 19


 1025              		.loc 1 438 0
 1026 0246 0022     		movs	r2, #0
 1027              		.loc 1 439 0
 1028 0248 0346     		mov	r3, r0
 1029 024a 0028     		cmp	r0, #0
 1030 024c 00F0AD80 		beq	.L102
 1031              	.LVL135:
 1032              	.L101:
 1033              		.loc 1 440 0
 1034 0250 A8FB03E1 		umull	lr, r1, r8, r3
 1035 0254 C908     		lsrs	r1, r1, #3
 1036 0256 01EB810E 		add	lr, r1, r1, lsl #2
 1037 025a A3EB4E03 		sub	r3, r3, lr, lsl #1
 1038              	.LVL136:
 1039 025e 03F1300E 		add	lr, r3, #48
 1040              		.loc 1 439 0
 1041 0262 0B46     		mov	r3, r1
 1042              		.loc 1 440 0
 1043 0264 09EB0201 		add	r1, r9, r2
 1044 0268 0132     		adds	r2, r2, #1
 1045              	.LVL137:
 1046 026a 81F814E0 		strb	lr, [r1, #20]
 1047 026e 92B2     		uxth	r2, r2
 1048              	.LVL138:
 1049              		.loc 1 439 0
 1050 0270 002B     		cmp	r3, #0
 1051 0272 EDD1     		bne	.L101
 1052              		.loc 1 440 0
 1053 0274 9646     		mov	lr, r2
 1054              		.loc 1 445 0
 1055 0276 002A     		cmp	r2, #0
 1056 0278 00F09780 		beq	.L102
 1057 027c 0A9B     		ldr	r3, [sp, #40]
 1058              	.LVL139:
 1059              	.L104:
 1060              		.loc 1 449 0
 1061 027e 09EB0201 		add	r1, r9, r2
 1062 0282 C97C     		ldrb	r1, [r1, #19]	@ zero_extendqisi2
 1063              		.loc 1 450 0
 1064 0284 013A     		subs	r2, r2, #1
 1065              	.LVL140:
 1066 0286 92B2     		uxth	r2, r2
 1067              	.LVL141:
 1068              		.loc 1 449 0
 1069 0288 03F8011B 		strb	r1, [r3], #1
 1070              	.LVL142:
 1071              		.loc 1 448 0
 1072 028c 002A     		cmp	r2, #0
 1073 028e F6D1     		bne	.L104
 1074 0290 0EF1FF3E 		add	lr, lr, #-1
 1075 0294 1FFA8EFC 		uxth	ip, lr
 1076 0298 0A99     		ldr	r1, [sp, #40]
 1077 029a 0CF1010C 		add	ip, ip, #1
 1078 029e 8C44     		add	ip, ip, r1
 1079              	.LVL143:
 1080              	.L99:
 1081              		.loc 1 455 0
ARM GAS  /tmp/ccJ2adiV.s 			page 20


 1082 02a0 002E     		cmp	r6, #0
 1083 02a2 49D0     		beq	.L105
 1084              		.loc 1 434 0
 1085 02a4 CDF814C0 		str	ip, [sp, #20]
 1086 02a8 FFF7FEFF 		bl	__aeabi_ui2d
 1087              	.LVL144:
 1088 02ac 0246     		mov	r2, r0
 1089 02ae 0B46     		mov	r3, r1
 1090 02b0 0998     		ldr	r0, [sp, #36]
 1091 02b2 0899     		ldr	r1, [sp, #32]
 1092 02b4 FFF7FEFF 		bl	__aeabi_dsub
 1093              	.LVL145:
 1094 02b8 DDE90C23 		ldrd	r2, [sp, #48]
 1095 02bc FFF7FEFF 		bl	__aeabi_dmul
 1096              	.LVL146:
 1097 02c0 FFF7FEFF 		bl	__aeabi_d2uiz
 1098              	.LVL147:
 1099              		.loc 1 457 0
 1100 02c4 DDF814C0 		ldr	ip, [sp, #20]
 1101              	.LVL148:
 1102 02c8 2E23     		movs	r3, #46
 1103 02ca 8CF80030 		strb	r3, [ip]
 1104              	.LVL149:
 1105              		.loc 1 462 0
 1106 02ce 0028     		cmp	r0, #0
 1107 02d0 00F08E80 		beq	.L125
 1108              		.loc 1 461 0
 1109 02d4 0023     		movs	r3, #0
 1110              	.LVL150:
 1111              	.L108:
 1112              		.loc 1 463 0
 1113 02d6 A8FB00E2 		umull	lr, r2, r8, r0
 1114 02da D208     		lsrs	r2, r2, #3
 1115 02dc 02EB8201 		add	r1, r2, r2, lsl #2
 1116 02e0 A0EB4100 		sub	r0, r0, r1, lsl #1
 1117              	.LVL151:
 1118 02e4 00F13001 		add	r1, r0, #48
 1119              		.loc 1 462 0
 1120 02e8 1046     		mov	r0, r2
 1121              		.loc 1 463 0
 1122 02ea 09EB0302 		add	r2, r9, r3
 1123 02ee 0133     		adds	r3, r3, #1
 1124              	.LVL152:
 1125 02f0 1175     		strb	r1, [r2, #20]
 1126 02f2 9BB2     		uxth	r3, r3
 1127              	.LVL153:
 1128              		.loc 1 462 0
 1129 02f4 0028     		cmp	r0, #0
 1130 02f6 EED1     		bne	.L108
 1131 02f8 1846     		mov	r0, r3
 1132              	.LVL154:
 1133              	.L106:
 1134              		.loc 1 469 0
 1135 02fa 8642     		cmp	r6, r0
 1136 02fc 7AD9     		bls	.L126
 1137              		.loc 1 470 0
 1138 02fe 3021     		movs	r1, #48
ARM GAS  /tmp/ccJ2adiV.s 			page 21


 1139 0300 00E0     		b	.L110
 1140              	.LVL155:
 1141              	.L154:
 1142 0302 1346     		mov	r3, r2
 1143              	.LVL156:
 1144              	.L110:
 1145 0304 5A1C     		adds	r2, r3, #1
 1146 0306 92B2     		uxth	r2, r2
 1147              	.LVL157:
 1148 0308 4B44     		add	r3, r3, r9
 1149              		.loc 1 469 0
 1150 030a 9642     		cmp	r6, r2
 1151              		.loc 1 470 0
 1152 030c 1975     		strb	r1, [r3, #20]
 1153              		.loc 1 469 0
 1154 030e F8D8     		bhi	.L154
 1155              	.LVL158:
 1156              	.L109:
 1157              		.loc 1 457 0
 1158 0310 0CF10100 		add	r0, ip, #1
 1159 0314 1346     		mov	r3, r2
 1160              		.loc 1 474 0
 1161 0316 002A     		cmp	r2, #0
 1162 0318 5BD0     		beq	.L155
 1163              	.LVL159:
 1164              	.L113:
 1165              		.loc 1 478 0
 1166 031a 09EB0301 		add	r1, r9, r3
 1167 031e C97C     		ldrb	r1, [r1, #19]	@ zero_extendqisi2
 1168              		.loc 1 479 0
 1169 0320 013B     		subs	r3, r3, #1
 1170              	.LVL160:
 1171 0322 9BB2     		uxth	r3, r3
 1172              	.LVL161:
 1173              		.loc 1 478 0
 1174 0324 0CF8011F 		strb	r1, [ip, #1]!
 1175              	.LVL162:
 1176              		.loc 1 477 0
 1177 0328 002B     		cmp	r3, #0
 1178 032a F6D1     		bne	.L113
 1179 032c 013A     		subs	r2, r2, #1
 1180 032e 1FFA82FC 		uxth	ip, r2
 1181              	.LVL163:
 1182 0332 0CF1010C 		add	ip, ip, #1
 1183 0336 8444     		add	ip, ip, r0
 1184              	.LVL164:
 1185              	.L105:
 1186              		.loc 1 485 0
 1187 0338 0026     		movs	r6, #0
 1188              	.LVL165:
 1189              	.LBE27:
 1190              	.LBE34:
 1191              		.loc 1 507 0
 1192 033a 0B99     		ldr	r1, [sp, #44]
 1193 033c 3A46     		mov	r2, r7
 1194 033e 2B46     		mov	r3, r5
 1195              	.LBB35:
ARM GAS  /tmp/ccJ2adiV.s 			page 22


 1196              	.LBB28:
 1197              		.loc 1 485 0
 1198 0340 8CF80060 		strb	r6, [ip]
 1199              	.LBE28:
 1200              	.LBE35:
 1201              		.loc 1 507 0
 1202 0344 4846     		mov	r0, r9
 1203 0346 FFF7FEFF 		bl	vex_prints
 1204              	.LVL166:
 1205              	.LBE41:
 1206              	.LBE53:
 1207              		.loc 1 630 0
 1208 034a C9F80860 		str	r6, [r9, #8]
 1209              		.loc 1 632 0
 1210 034e C9E6     		b	.L90
 1211              	.LVL167:
 1212              	.L84:
 1213              		.loc 1 603 0
 1214 0350 6123     		movs	r3, #97
 1215 0352 DAF80010 		ldr	r1, [r10]
 1216 0356 4846     		mov	r0, r9
 1217 0358 0293     		str	r3, [sp, #8]
 1218 035a 0097     		str	r7, [sp]
 1219 035c 0195     		str	r5, [sp, #4]
 1220 035e 0A22     		movs	r2, #10
 1221 0360 0123     		movs	r3, #1
 1222 0362 04E7     		b	.L149
 1223              	.L83:
 1224              		.loc 1 621 0
 1225 0364 DAF80060 		ldr	r6, [r10]
 1226              	.LVL168:
 1227              		.loc 1 623 0
 1228 0368 2B46     		mov	r3, r5
 1229 036a 3A46     		mov	r2, r7
 1230              		.loc 1 622 0
 1231 036c 0025     		movs	r5, #0
 1232              	.LVL169:
 1233              		.loc 1 623 0
 1234 036e 4846     		mov	r0, r9
 1235 0370 0FA9     		add	r1, sp, #60
 1236              		.loc 1 621 0
 1237 0372 8DF83C60 		strb	r6, [sp, #60]
 1238              		.loc 1 622 0
 1239 0376 8DF83D50 		strb	r5, [sp, #61]
 1240              		.loc 1 623 0
 1241 037a FFF7FEFF 		bl	vex_prints
 1242              	.LVL170:
 1243              		.loc 1 621 0
 1244 037e 0AF1040A 		add	r10, r10, #4
 1245              	.LVL171:
 1246              		.loc 1 623 0
 1247 0382 8344     		add	fp, fp, r0
 1248              	.LVL172:
 1249              		.loc 1 624 0
 1250 0384 C9F80850 		str	r5, [r9, #8]
 1251              		.loc 1 625 0
 1252 0388 ACE6     		b	.L90
ARM GAS  /tmp/ccJ2adiV.s 			page 23


 1253              	.LVL173:
 1254              	.L81:
 1255              		.loc 1 611 0
 1256 038a DAF80010 		ldr	r1, [r10]
 1257 038e 4123     		movs	r3, #65
 1258 0390 E7E6     		b	.L151
 1259              	.L80:
 1260              		.loc 1 635 0
 1261 0392 4846     		mov	r0, r9
 1262 0394 2521     		movs	r1, #37
 1263 0396 FFF7FEFF 		bl	vex_printc
 1264              	.LVL174:
 1265              		.loc 1 636 0
 1266 039a 4846     		mov	r0, r9
 1267 039c 2178     		ldrb	r1, [r4]	@ zero_extendqisi2
 1268 039e FFF7FEFF 		bl	vex_printc
 1269              	.LVL175:
 1270              		.loc 1 637 0
 1271 03a2 0023     		movs	r3, #0
 1272 03a4 C9F80830 		str	r3, [r9, #8]
 1273              		.loc 1 638 0
 1274 03a8 9CE6     		b	.L90
 1275              	.LVL176:
 1276              	.L102:
 1277              	.LBB54:
 1278              	.LBB42:
 1279              	.LBB36:
 1280              	.LBB29:
 1281              		.loc 1 446 0
 1282 03aa 0A99     		ldr	r1, [sp, #40]
 1283 03ac 3023     		movs	r3, #48
 1284 03ae 0B70     		strb	r3, [r1]
 1285 03b0 01F1010C 		add	ip, r1, #1
 1286              	.LVL177:
 1287 03b4 74E7     		b	.L99
 1288              	.LVL178:
 1289              	.L123:
 1290              		.loc 1 410 0
 1291 03b6 0B9B     		ldr	r3, [sp, #44]
 1292 03b8 0A93     		str	r3, [sp, #40]
 1293 03ba 21E7     		b	.L93
 1294              	.L153:
 1295              		.loc 1 415 0
 1296 03bc 0898     		ldr	r0, [sp, #32]
 1297              		.loc 1 414 0
 1298 03be 2D23     		movs	r3, #45
 1299              		.loc 1 415 0
 1300 03c0 00F10040 		add	r0, r0, #-2147483648
 1301              		.loc 1 414 0
 1302 03c4 09F12501 		add	r1, r9, #37
 1303              		.loc 1 415 0
 1304 03c8 0890     		str	r0, [sp, #32]
 1305              	.LVL179:
 1306              		.loc 1 414 0
 1307 03ca 89F82430 		strb	r3, [r9, #36]
 1308 03ce 0A91     		str	r1, [sp, #40]
 1309              	.LVL180:
ARM GAS  /tmp/ccJ2adiV.s 			page 24


 1310 03d0 16E7     		b	.L93
 1311              	.LVL181:
 1312              	.L155:
 1313              		.loc 1 475 0
 1314 03d2 3023     		movs	r3, #48
 1315 03d4 8CF80130 		strb	r3, [ip, #1]
 1316 03d8 0CF1020C 		add	ip, ip, #2
 1317              	.LVL182:
 1318 03dc ACE7     		b	.L105
 1319              	.LVL183:
 1320              	.L124:
 1321              		.loc 1 430 0
 1322 03de 0021     		movs	r1, #0
 1323              	.LVL184:
 1324 03e0 0020     		movs	r0, #0
 1325              	.LVL185:
 1326 03e2 C3F6F071 		movt	r1, 16368
 1327 03e6 CDE90C01 		strd	r0, [sp, #48]
 1328 03ea 28E7     		b	.L95
 1329              	.LVL186:
 1330              	.L116:
 1331              	.LBE29:
 1332              	.LBE36:
 1333              	.LBE42:
 1334              	.LBE54:
 1335              		.loc 1 527 0
 1336 03ec 8B46     		mov	fp, r1
 1337 03ee 7DE6     		b	.L67
 1338              	.LVL187:
 1339              	.L125:
 1340              	.LBB55:
 1341              	.LBB43:
 1342              	.LBB37:
 1343              	.LBB30:
 1344              		.loc 1 461 0
 1345 03f0 0346     		mov	r3, r0
 1346 03f2 82E7     		b	.L106
 1347              	.LVL188:
 1348              	.L126:
 1349              		.loc 1 469 0
 1350 03f4 1A46     		mov	r2, r3
 1351 03f6 8BE7     		b	.L109
 1352              	.LBE30:
 1353              	.LBE37:
 1354              	.LBE43:
 1355              	.LBE55:
 1356              		.cfi_endproc
 1357              	.LFE70:
 1358              		.size	vex_print, .-vex_print
 1359 03f8 AFF30080 		.section	.text.vex_print_acquire,"ax",%progbits
 1359      AFF30080 
 1360              		.align	2
 1361              		.p2align 4,,15
 1362              		.global	vex_print_acquire
 1363              		.thumb
 1364              		.thumb_func
 1365              		.type	vex_print_acquire, %function
ARM GAS  /tmp/ccJ2adiV.s 			page 25


 1366              	vex_print_acquire:
 1367              	.LFB63:
 1368              		.loc 1 176 0
 1369              		.cfi_startproc
 1370              		@ args = 0, pretend = 0, frame = 0
 1371              		@ frame_needed = 0, uses_anonymous_args = 0
 1372              	.LVL189:
 1373 0000 70B5     		push	{r4, r5, r6, lr}
 1374              		.cfi_def_cfa_offset 16
 1375              		.cfi_offset 4, -16
 1376              		.cfi_offset 5, -12
 1377              		.cfi_offset 6, -8
 1378              		.cfi_offset 14, -4
 1379              		.loc 1 177 0
 1380 0002 0668     		ldr	r6, [r0]
 1381              		.loc 1 176 0
 1382 0004 0446     		mov	r4, r0
 1383 0006 00F14405 		add	r5, r0, #68
 1384              		.loc 1 177 0
 1385 000a 76B9     		cbnz	r6, .L158
 1386              		.loc 1 179 0
 1387 000c 0123     		movs	r3, #1
 1388 000e 0546     		mov	r5, r0
 1389 0010 45F8443B 		str	r3, [r5], #68
 1390              		.loc 1 182 0
 1391 0014 2846     		mov	r0, r5
 1392              	.LVL190:
 1393 0016 FFF7FEFF 		bl	chMtxInit
 1394              	.LVL191:
 1395              		.loc 1 189 0
 1396 001a 40F20003 		movw	r3, #:lower16:SD1
 1397 001e C0F20003 		movt	r3, #:upper16:SD1
 1398              		.loc 1 187 0
 1399 0022 A4F85460 		strh	r6, [r4, #84]	@ movhi
 1400              		.loc 1 188 0
 1401 0026 A665     		str	r6, [r4, #88]
 1402              		.loc 1 189 0
 1403 0028 2366     		str	r3, [r4, #96]
 1404              	.L158:
 1405              		.loc 1 193 0
 1406 002a 2846     		mov	r0, r5
 1407              		.loc 1 197 0
 1408 002c BDE87040 		pop	{r4, r5, r6, lr}
 1409              	.LVL192:
 1410              		.loc 1 193 0
 1411 0030 FFF7FEBF 		b	chMtxLock
 1412              	.LVL193:
 1413              		.cfi_endproc
 1414              	.LFE63:
 1415              		.size	vex_print_acquire, .-vex_print_acquire
 1416 0034 AFF30080 		.section	.text.vex_print_release,"ax",%progbits
 1416      AFF30080 
 1416      AFF30080 
 1417              		.align	2
 1418              		.p2align 4,,15
 1419              		.global	vex_print_release
 1420              		.thumb
ARM GAS  /tmp/ccJ2adiV.s 			page 26


 1421              		.thumb_func
 1422              		.type	vex_print_release, %function
 1423              	vex_print_release:
 1424              	.LFB64:
 1425              		.loc 1 206 0
 1426              		.cfi_startproc
 1427              		@ args = 0, pretend = 0, frame = 0
 1428              		@ frame_needed = 0, uses_anonymous_args = 0
 1429              		@ link register save eliminated.
 1430              	.LVL194:
 1431              		.loc 1 210 0
 1432 0000 FFF7FEBF 		b	chMtxUnlock
 1433              	.LVL195:
 1434              		.cfi_endproc
 1435              	.LFE64:
 1436              		.size	vex_print_release, .-vex_print_release
 1437 0004 AFF30080 		.section	.text.vex_printf,"ax",%progbits
 1437      AFF30080 
 1437      AFF30080 
 1438              		.align	2
 1439              		.p2align 4,,15
 1440              		.global	vex_printf
 1441              		.thumb
 1442              		.thumb_func
 1443              		.type	vex_printf, %function
 1444              	vex_printf:
 1445              	.LFB71:
 1446              		.loc 1 668 0
 1447              		.cfi_startproc
 1448              		@ args = 4, pretend = 16, frame = 8
 1449              		@ frame_needed = 0, uses_anonymous_args = 1
 1450              	.LVL196:
 1451 0000 0FB4     		push	{r0, r1, r2, r3}
 1452              		.cfi_def_cfa_offset 16
 1453              		.cfi_offset 0, -16
 1454              		.cfi_offset 1, -12
 1455              		.cfi_offset 2, -8
 1456              		.cfi_offset 3, -4
 1457 0002 F0B5     		push	{r4, r5, r6, r7, lr}
 1458              		.cfi_def_cfa_offset 36
 1459              		.cfi_offset 4, -36
 1460              		.cfi_offset 5, -32
 1461              		.cfi_offset 6, -28
 1462              		.cfi_offset 7, -24
 1463              		.cfi_offset 14, -20
 1464              	.LBB58:
 1465              	.LBB59:
 1466              		.loc 1 177 0
 1467 0004 40F20004 		movw	r4, #:lower16:.LANCHOR1
 1468 0008 C0F20004 		movt	r4, #:upper16:.LANCHOR1
 1469 000c 2768     		ldr	r7, [r4]
 1470              	.LBE59:
 1471              	.LBE58:
 1472              		.loc 1 668 0
 1473 000e 83B0     		sub	sp, sp, #12
 1474              		.cfi_def_cfa_offset 48
 1475 0010 40F20005 		movw	r5, #:lower16:SD1
ARM GAS  /tmp/ccJ2adiV.s 			page 27


 1476              		.loc 1 668 0
 1477 0014 089E     		ldr	r6, [sp, #32]
 1478 0016 C0F20005 		movt	r5, #:upper16:SD1
 1479              	.LBB61:
 1480              	.LBB60:
 1481              		.loc 1 177 0
 1482 001a 6FB9     		cbnz	r7, .L161
 1483              		.loc 1 179 0
 1484 001c 0123     		movs	r3, #1
 1485 001e 2046     		mov	r0, r4
 1486              		.loc 1 189 0
 1487 0020 40F20005 		movw	r5, #:lower16:SD1
 1488              		.loc 1 179 0
 1489 0024 40F8443B 		str	r3, [r0], #68
 1490              		.loc 1 189 0
 1491 0028 C0F20005 		movt	r5, #:upper16:SD1
 1492              		.loc 1 182 0
 1493 002c FFF7FEFF 		bl	chMtxInit
 1494              	.LVL197:
 1495              		.loc 1 187 0
 1496 0030 A4F85470 		strh	r7, [r4, #84]	@ movhi
 1497              		.loc 1 188 0
 1498 0034 A765     		str	r7, [r4, #88]
 1499              		.loc 1 189 0
 1500 0036 2566     		str	r5, [r4, #96]
 1501              	.L161:
 1502              		.loc 1 193 0
 1503 0038 0B48     		ldr	r0, .L164
 1504 003a FFF7FEFF 		bl	chMtxLock
 1505              	.LVL198:
 1506              	.LBE60:
 1507              	.LBE61:
 1508              		.loc 1 677 0
 1509 003e 09AB     		add	r3, sp, #36
 1510              		.loc 1 678 0
 1511 0040 40F20000 		movw	r0, #:lower16:.LANCHOR1
 1512 0044 3146     		mov	r1, r6
 1513 0046 1A46     		mov	r2, r3
 1514              		.loc 1 673 0
 1515 0048 0027     		movs	r7, #0
 1516              		.loc 1 674 0
 1517 004a 4FF0FF36 		mov	r6, #-1
 1518              		.loc 1 678 0
 1519 004e C0F20000 		movt	r0, #:upper16:.LANCHOR1
 1520              		.loc 1 675 0
 1521 0052 2566     		str	r5, [r4, #96]
 1522              		.loc 1 677 0
 1523 0054 0193     		str	r3, [sp, #4]
 1524              		.loc 1 673 0
 1525 0056 6760     		str	r7, [r4, #4]
 1526              		.loc 1 674 0
 1527 0058 E660     		str	r6, [r4, #12]
 1528              		.loc 1 678 0
 1529 005a FFF7FEFF 		bl	vex_print
 1530              	.LVL199:
 1531              		.loc 1 679 0
 1532 005e 03B0     		add	sp, sp, #12
ARM GAS  /tmp/ccJ2adiV.s 			page 28


 1533              		@ sp needed
 1534 0060 BDE8F040 		pop	{r4, r5, r6, r7, lr}
 1535 0064 04B0     		add	sp, sp, #16
 1536 0066 7047     		bx	lr
 1537              	.L165:
 1538              		.align	2
 1539              	.L164:
 1540 0068 44000000 		.word	.LANCHOR1+68
 1541              		.cfi_endproc
 1542              	.LFE71:
 1543              		.size	vex_printf, .-vex_printf
 1544 006c AFF30080 		.section	.text.vex_chprintf,"ax",%progbits
 1545              		.align	2
 1546              		.p2align 4,,15
 1547              		.global	vex_chprintf
 1548              		.thumb
 1549              		.thumb_func
 1550              		.type	vex_chprintf, %function
 1551              	vex_chprintf:
 1552              	.LFB72:
 1553              		.loc 1 692 0
 1554              		.cfi_startproc
 1555              		@ args = 4, pretend = 12, frame = 8
 1556              		@ frame_needed = 0, uses_anonymous_args = 1
 1557              	.LVL200:
 1558 0000 0EB4     		push	{r1, r2, r3}
 1559              		.cfi_def_cfa_offset 12
 1560              		.cfi_offset 1, -12
 1561              		.cfi_offset 2, -8
 1562              		.cfi_offset 3, -4
 1563 0002 F0B5     		push	{r4, r5, r6, r7, lr}
 1564              		.cfi_def_cfa_offset 32
 1565              		.cfi_offset 4, -32
 1566              		.cfi_offset 5, -28
 1567              		.cfi_offset 6, -24
 1568              		.cfi_offset 7, -20
 1569              		.cfi_offset 14, -16
 1570              	.LBB64:
 1571              	.LBB65:
 1572              		.loc 1 177 0
 1573 0004 40F20004 		movw	r4, #:lower16:.LANCHOR1
 1574 0008 C0F20004 		movt	r4, #:upper16:.LANCHOR1
 1575 000c 2568     		ldr	r5, [r4]
 1576              	.LBE65:
 1577              	.LBE64:
 1578              		.loc 1 692 0
 1579 000e 82B0     		sub	sp, sp, #8
 1580              		.cfi_def_cfa_offset 40
 1581              		.loc 1 692 0
 1582 0010 0746     		mov	r7, r0
 1583 0012 079E     		ldr	r6, [sp, #28]
 1584              	.LBB67:
 1585              	.LBB66:
 1586              		.loc 1 177 0
 1587 0014 6DB9     		cbnz	r5, .L167
 1588              		.loc 1 179 0
 1589 0016 0123     		movs	r3, #1
ARM GAS  /tmp/ccJ2adiV.s 			page 29


 1590 0018 2046     		mov	r0, r4
 1591              	.LVL201:
 1592 001a 40F8443B 		str	r3, [r0], #68
 1593              		.loc 1 182 0
 1594 001e FFF7FEFF 		bl	chMtxInit
 1595              	.LVL202:
 1596              		.loc 1 189 0
 1597 0022 40F20003 		movw	r3, #:lower16:SD1
 1598 0026 C0F20003 		movt	r3, #:upper16:SD1
 1599              		.loc 1 187 0
 1600 002a A4F85450 		strh	r5, [r4, #84]	@ movhi
 1601              		.loc 1 188 0
 1602 002e A565     		str	r5, [r4, #88]
 1603              		.loc 1 189 0
 1604 0030 2366     		str	r3, [r4, #96]
 1605              	.L167:
 1606              		.loc 1 193 0
 1607 0032 0C48     		ldr	r0, .L168
 1608 0034 FFF7FEFF 		bl	chMtxLock
 1609              	.LVL203:
 1610              	.LBE66:
 1611              	.LBE67:
 1612              		.loc 1 701 0
 1613 0038 08AB     		add	r3, sp, #32
 1614              		.loc 1 702 0
 1615 003a 40F20000 		movw	r0, #:lower16:.LANCHOR1
 1616 003e 3146     		mov	r1, r6
 1617 0040 1A46     		mov	r2, r3
 1618              		.loc 1 697 0
 1619 0042 0026     		movs	r6, #0
 1620              		.loc 1 698 0
 1621 0044 4FF0FF35 		mov	r5, #-1
 1622              		.loc 1 702 0
 1623 0048 C0F20000 		movt	r0, #:upper16:.LANCHOR1
 1624              		.loc 1 699 0
 1625 004c 2766     		str	r7, [r4, #96]
 1626              		.loc 1 701 0
 1627 004e 0193     		str	r3, [sp, #4]
 1628              		.loc 1 697 0
 1629 0050 6660     		str	r6, [r4, #4]
 1630              		.loc 1 698 0
 1631 0052 E560     		str	r5, [r4, #12]
 1632              		.loc 1 702 0
 1633 0054 FFF7FEFF 		bl	vex_print
 1634              	.LVL204:
 1635              		.loc 1 703 0
 1636 0058 02B0     		add	sp, sp, #8
 1637              		@ sp needed
 1638 005a BDE8F040 		pop	{r4, r5, r6, r7, lr}
 1639              	.LVL205:
 1640 005e 03B0     		add	sp, sp, #12
 1641 0060 7047     		bx	lr
 1642              	.L169:
 1643 0062 00BF     		.align	2
 1644              	.L168:
 1645 0064 44000000 		.word	.LANCHOR1+68
 1646              		.cfi_endproc
ARM GAS  /tmp/ccJ2adiV.s 			page 30


 1647              	.LFE72:
 1648              		.size	vex_chprintf, .-vex_chprintf
 1649 0068 AFF30080 		.section	.text.vex_vprintf,"ax",%progbits
 1649      AFF30080 
 1650              		.align	2
 1651              		.p2align 4,,15
 1652              		.global	vex_vprintf
 1653              		.thumb
 1654              		.thumb_func
 1655              		.type	vex_vprintf, %function
 1656              	vex_vprintf:
 1657              	.LFB73:
 1658              		.loc 1 716 0
 1659              		.cfi_startproc
 1660              		@ args = 0, pretend = 0, frame = 0
 1661              		@ frame_needed = 0, uses_anonymous_args = 0
 1662              	.LVL206:
 1663 0000 2DE9F041 		push	{r4, r5, r6, r7, r8, lr}
 1664              		.cfi_def_cfa_offset 24
 1665              		.cfi_offset 4, -24
 1666              		.cfi_offset 5, -20
 1667              		.cfi_offset 6, -16
 1668              		.cfi_offset 7, -12
 1669              		.cfi_offset 8, -8
 1670              		.cfi_offset 14, -4
 1671              	.LBB70:
 1672              	.LBB71:
 1673              		.loc 1 177 0
 1674 0004 40F20004 		movw	r4, #:lower16:.LANCHOR1
 1675 0008 C0F20004 		movt	r4, #:upper16:.LANCHOR1
 1676 000c 2668     		ldr	r6, [r4]
 1677 000e 40F20005 		movw	r5, #:lower16:SD1
 1678              	.LBE71:
 1679              	.LBE70:
 1680              		.loc 1 716 0
 1681 0012 8046     		mov	r8, r0
 1682 0014 0F46     		mov	r7, r1
 1683 0016 C0F20005 		movt	r5, #:upper16:SD1
 1684              	.LBB73:
 1685              	.LBB72:
 1686              		.loc 1 177 0
 1687 001a 6EB9     		cbnz	r6, .L171
 1688              		.loc 1 179 0
 1689 001c 0123     		movs	r3, #1
 1690 001e 2046     		mov	r0, r4
 1691              	.LVL207:
 1692              		.loc 1 189 0
 1693 0020 40F20005 		movw	r5, #:lower16:SD1
 1694              		.loc 1 179 0
 1695 0024 40F8443B 		str	r3, [r0], #68
 1696              		.loc 1 189 0
 1697 0028 C0F20005 		movt	r5, #:upper16:SD1
 1698              		.loc 1 182 0
 1699 002c FFF7FEFF 		bl	chMtxInit
 1700              	.LVL208:
 1701              		.loc 1 187 0
 1702 0030 A4F85460 		strh	r6, [r4, #84]	@ movhi
ARM GAS  /tmp/ccJ2adiV.s 			page 31


 1703              		.loc 1 188 0
 1704 0034 A665     		str	r6, [r4, #88]
 1705              		.loc 1 189 0
 1706 0036 2566     		str	r5, [r4, #96]
 1707              	.LVL209:
 1708              	.L171:
 1709              		.loc 1 193 0
 1710 0038 0948     		ldr	r0, .L174
 1711 003a FFF7FEFF 		bl	chMtxLock
 1712              	.LVL210:
 1713              	.LBE72:
 1714              	.LBE73:
 1715              		.loc 1 719 0
 1716 003e 0026     		movs	r6, #0
 1717              		.loc 1 723 0
 1718 0040 40F20000 		movw	r0, #:lower16:.LANCHOR1
 1719              		.loc 1 720 0
 1720 0044 4FF0FF33 		mov	r3, #-1
 1721              		.loc 1 723 0
 1722 0048 4146     		mov	r1, r8
 1723              	.LVL211:
 1724 004a 3A46     		mov	r2, r7
 1725              		.loc 1 721 0
 1726 004c 2566     		str	r5, [r4, #96]
 1727              		.loc 1 719 0
 1728 004e 6660     		str	r6, [r4, #4]
 1729              		.loc 1 720 0
 1730 0050 E360     		str	r3, [r4, #12]
 1731              		.loc 1 723 0
 1732 0052 C0F20000 		movt	r0, #:upper16:.LANCHOR1
 1733              		.loc 1 724 0
 1734 0056 BDE8F041 		pop	{r4, r5, r6, r7, r8, lr}
 1735              	.LVL212:
 1736              		.loc 1 723 0
 1737 005a FFF7FEBF 		b	vex_print
 1738              	.LVL213:
 1739              	.L175:
 1740 005e 00BF     		.align	2
 1741              	.L174:
 1742 0060 44000000 		.word	.LANCHOR1+68
 1743              		.cfi_endproc
 1744              	.LFE73:
 1745              		.size	vex_vprintf, .-vex_vprintf
 1746 0064 AFF30080 		.section	.text.vex_vchprintf,"ax",%progbits
 1746      AFF30080 
 1746      AFF30080 
 1747              		.align	2
 1748              		.p2align 4,,15
 1749              		.global	vex_vchprintf
 1750              		.thumb
 1751              		.thumb_func
 1752              		.type	vex_vchprintf, %function
 1753              	vex_vchprintf:
 1754              	.LFB74:
 1755              		.loc 1 739 0
 1756              		.cfi_startproc
 1757              		@ args = 0, pretend = 0, frame = 0
ARM GAS  /tmp/ccJ2adiV.s 			page 32


 1758              		@ frame_needed = 0, uses_anonymous_args = 0
 1759              	.LVL214:
 1760 0000 2DE9F041 		push	{r4, r5, r6, r7, r8, lr}
 1761              		.cfi_def_cfa_offset 24
 1762              		.cfi_offset 4, -24
 1763              		.cfi_offset 5, -20
 1764              		.cfi_offset 6, -16
 1765              		.cfi_offset 7, -12
 1766              		.cfi_offset 8, -8
 1767              		.cfi_offset 14, -4
 1768              	.LBB76:
 1769              	.LBB77:
 1770              		.loc 1 177 0
 1771 0004 40F20004 		movw	r4, #:lower16:.LANCHOR1
 1772 0008 C0F20004 		movt	r4, #:upper16:.LANCHOR1
 1773 000c 2568     		ldr	r5, [r4]
 1774              	.LBE77:
 1775              	.LBE76:
 1776              		.loc 1 739 0
 1777 000e 0646     		mov	r6, r0
 1778 0010 8846     		mov	r8, r1
 1779 0012 1746     		mov	r7, r2
 1780              	.LBB79:
 1781              	.LBB78:
 1782              		.loc 1 177 0
 1783 0014 6DB9     		cbnz	r5, .L177
 1784              		.loc 1 179 0
 1785 0016 0123     		movs	r3, #1
 1786 0018 2046     		mov	r0, r4
 1787              	.LVL215:
 1788 001a 40F8443B 		str	r3, [r0], #68
 1789              		.loc 1 182 0
 1790 001e FFF7FEFF 		bl	chMtxInit
 1791              	.LVL216:
 1792              		.loc 1 189 0
 1793 0022 40F20003 		movw	r3, #:lower16:SD1
 1794 0026 C0F20003 		movt	r3, #:upper16:SD1
 1795              		.loc 1 187 0
 1796 002a A4F85450 		strh	r5, [r4, #84]	@ movhi
 1797              		.loc 1 188 0
 1798 002e A565     		str	r5, [r4, #88]
 1799              		.loc 1 189 0
 1800 0030 2366     		str	r3, [r4, #96]
 1801              	.LVL217:
 1802              	.L177:
 1803              		.loc 1 193 0
 1804 0032 0948     		ldr	r0, .L178
 1805 0034 FFF7FEFF 		bl	chMtxLock
 1806              	.LVL218:
 1807              	.LBE78:
 1808              	.LBE79:
 1809              		.loc 1 742 0
 1810 0038 0025     		movs	r5, #0
 1811              		.loc 1 746 0
 1812 003a 40F20000 		movw	r0, #:lower16:.LANCHOR1
 1813              		.loc 1 743 0
 1814 003e 4FF0FF33 		mov	r3, #-1
ARM GAS  /tmp/ccJ2adiV.s 			page 33


 1815              		.loc 1 746 0
 1816 0042 4146     		mov	r1, r8
 1817              	.LVL219:
 1818 0044 3A46     		mov	r2, r7
 1819              		.loc 1 744 0
 1820 0046 2666     		str	r6, [r4, #96]
 1821              		.loc 1 742 0
 1822 0048 6560     		str	r5, [r4, #4]
 1823              		.loc 1 743 0
 1824 004a E360     		str	r3, [r4, #12]
 1825              		.loc 1 746 0
 1826 004c C0F20000 		movt	r0, #:upper16:.LANCHOR1
 1827              		.loc 1 747 0
 1828 0050 BDE8F041 		pop	{r4, r5, r6, r7, r8, lr}
 1829              	.LVL220:
 1830              		.loc 1 746 0
 1831 0054 FFF7FEBF 		b	vex_print
 1832              	.LVL221:
 1833              	.L179:
 1834              		.align	2
 1835              	.L178:
 1836 0058 44000000 		.word	.LANCHOR1+68
 1837              		.cfi_endproc
 1838              	.LFE74:
 1839              		.size	vex_vchprintf, .-vex_vchprintf
 1840 005c AFF30080 		.section	.text.vex_sprintf,"ax",%progbits
 1841              		.align	2
 1842              		.p2align 4,,15
 1843              		.global	vex_sprintf
 1844              		.thumb
 1845              		.thumb_func
 1846              		.type	vex_sprintf, %function
 1847              	vex_sprintf:
 1848              	.LFB75:
 1849              		.loc 1 760 0
 1850              		.cfi_startproc
 1851              		@ args = 4, pretend = 12, frame = 16
 1852              		@ frame_needed = 0, uses_anonymous_args = 1
 1853              	.LVL222:
 1854 0000 0EB4     		push	{r1, r2, r3}
 1855              		.cfi_def_cfa_offset 12
 1856              		.cfi_offset 1, -12
 1857              		.cfi_offset 2, -8
 1858              		.cfi_offset 3, -4
 1859 0002 70B5     		push	{r4, r5, r6, lr}
 1860              		.cfi_def_cfa_offset 28
 1861              		.cfi_offset 4, -28
 1862              		.cfi_offset 5, -24
 1863              		.cfi_offset 6, -20
 1864              		.cfi_offset 14, -16
 1865              	.LBB82:
 1866              	.LBB83:
 1867              		.loc 1 177 0
 1868 0004 40F20004 		movw	r4, #:lower16:.LANCHOR2
 1869 0008 C0F20004 		movt	r4, #:upper16:.LANCHOR2
 1870 000c 2568     		ldr	r5, [r4]
 1871              	.LBE83:
ARM GAS  /tmp/ccJ2adiV.s 			page 34


 1872              	.LBE82:
 1873              		.loc 1 760 0
 1874 000e 85B0     		sub	sp, sp, #20
 1875              		.cfi_def_cfa_offset 48
 1876              		.loc 1 760 0
 1877 0010 0190     		str	r0, [sp, #4]
 1878 0012 099E     		ldr	r6, [sp, #36]
 1879              	.LBB85:
 1880              	.LBB84:
 1881              		.loc 1 177 0
 1882 0014 6DB9     		cbnz	r5, .L181
 1883              		.loc 1 179 0
 1884 0016 0123     		movs	r3, #1
 1885 0018 2046     		mov	r0, r4
 1886              	.LVL223:
 1887 001a 40F8443B 		str	r3, [r0], #68
 1888              		.loc 1 182 0
 1889 001e FFF7FEFF 		bl	chMtxInit
 1890              	.LVL224:
 1891              		.loc 1 189 0
 1892 0022 40F20003 		movw	r3, #:lower16:SD1
 1893 0026 C0F20003 		movt	r3, #:upper16:SD1
 1894              		.loc 1 187 0
 1895 002a A4F85450 		strh	r5, [r4, #84]	@ movhi
 1896              		.loc 1 188 0
 1897 002e A565     		str	r5, [r4, #88]
 1898              		.loc 1 189 0
 1899 0030 2366     		str	r3, [r4, #96]
 1900              	.L181:
 1901              		.loc 1 193 0
 1902 0032 0B48     		ldr	r0, .L182
 1903 0034 FFF7FEFF 		bl	chMtxLock
 1904              	.LVL225:
 1905              	.LBE84:
 1906              	.LBE85:
 1907              		.loc 1 768 0
 1908 0038 0AAB     		add	r3, sp, #40
 1909              		.loc 1 769 0
 1910 003a 40F20000 		movw	r0, #:lower16:.LANCHOR2
 1911 003e 3146     		mov	r1, r6
 1912 0040 1A46     		mov	r2, r3
 1913              		.loc 1 765 0
 1914 0042 01AE     		add	r6, sp, #4
 1915              	.LVL226:
 1916              		.loc 1 766 0
 1917 0044 4FF0FF35 		mov	r5, #-1
 1918              		.loc 1 769 0
 1919 0048 C0F20000 		movt	r0, #:upper16:.LANCHOR2
 1920              		.loc 1 768 0
 1921 004c 0393     		str	r3, [sp, #12]
 1922              		.loc 1 765 0
 1923 004e 6660     		str	r6, [r4, #4]
 1924              		.loc 1 766 0
 1925 0050 E560     		str	r5, [r4, #12]
 1926              		.loc 1 769 0
 1927 0052 FFF7FEFF 		bl	vex_print
 1928              	.LVL227:
ARM GAS  /tmp/ccJ2adiV.s 			page 35


 1929              		.loc 1 770 0
 1930 0056 05B0     		add	sp, sp, #20
 1931              		@ sp needed
 1932 0058 BDE87040 		pop	{r4, r5, r6, lr}
 1933              	.LVL228:
 1934 005c 03B0     		add	sp, sp, #12
 1935 005e 7047     		bx	lr
 1936              	.L183:
 1937              		.align	2
 1938              	.L182:
 1939 0060 44000000 		.word	.LANCHOR2+68
 1940              		.cfi_endproc
 1941              	.LFE75:
 1942              		.size	vex_sprintf, .-vex_sprintf
 1943 0064 AFF30080 		.section	.text.vex_snprintf,"ax",%progbits
 1943      AFF30080 
 1943      AFF30080 
 1944              		.align	2
 1945              		.p2align 4,,15
 1946              		.global	vex_snprintf
 1947              		.thumb
 1948              		.thumb_func
 1949              		.type	vex_snprintf, %function
 1950              	vex_snprintf:
 1951              	.LFB76:
 1952              		.loc 1 784 0
 1953              		.cfi_startproc
 1954              		@ args = 4, pretend = 8, frame = 16
 1955              		@ frame_needed = 0, uses_anonymous_args = 1
 1956              	.LVL229:
 1957 0000 0CB4     		push	{r2, r3}
 1958              		.cfi_def_cfa_offset 8
 1959              		.cfi_offset 2, -8
 1960              		.cfi_offset 3, -4
 1961 0002 F0B5     		push	{r4, r5, r6, r7, lr}
 1962              		.cfi_def_cfa_offset 28
 1963              		.cfi_offset 4, -28
 1964              		.cfi_offset 5, -24
 1965              		.cfi_offset 6, -20
 1966              		.cfi_offset 7, -16
 1967              		.cfi_offset 14, -12
 1968              	.LBB88:
 1969              	.LBB89:
 1970              		.loc 1 177 0
 1971 0004 40F20004 		movw	r4, #:lower16:.LANCHOR2
 1972 0008 C0F20004 		movt	r4, #:upper16:.LANCHOR2
 1973 000c 2768     		ldr	r7, [r4]
 1974              	.LBE89:
 1975              	.LBE88:
 1976              		.loc 1 784 0
 1977 000e 85B0     		sub	sp, sp, #20
 1978              		.cfi_def_cfa_offset 48
 1979              		.loc 1 784 0
 1980 0010 0190     		str	r0, [sp, #4]
 1981 0012 0D46     		mov	r5, r1
 1982 0014 0A9E     		ldr	r6, [sp, #40]
 1983              	.LBB91:
ARM GAS  /tmp/ccJ2adiV.s 			page 36


 1984              	.LBB90:
 1985              		.loc 1 177 0
 1986 0016 6FB9     		cbnz	r7, .L185
 1987              		.loc 1 179 0
 1988 0018 0123     		movs	r3, #1
 1989 001a 2046     		mov	r0, r4
 1990              	.LVL230:
 1991 001c 40F8443B 		str	r3, [r0], #68
 1992              		.loc 1 182 0
 1993 0020 FFF7FEFF 		bl	chMtxInit
 1994              	.LVL231:
 1995              		.loc 1 189 0
 1996 0024 40F20003 		movw	r3, #:lower16:SD1
 1997 0028 C0F20003 		movt	r3, #:upper16:SD1
 1998              		.loc 1 187 0
 1999 002c A4F85470 		strh	r7, [r4, #84]	@ movhi
 2000              		.loc 1 188 0
 2001 0030 A765     		str	r7, [r4, #88]
 2002              		.loc 1 189 0
 2003 0032 2366     		str	r3, [r4, #96]
 2004              	.L185:
 2005              		.loc 1 193 0
 2006 0034 0B48     		ldr	r0, .L186
 2007 0036 FFF7FEFF 		bl	chMtxLock
 2008              	.LVL232:
 2009              	.LBE90:
 2010              	.LBE91:
 2011              		.loc 1 794 0
 2012 003a 0BAB     		add	r3, sp, #44
 2013              		.loc 1 796 0
 2014 003c 40F20000 		movw	r0, #:lower16:.LANCHOR2
 2015 0040 3146     		mov	r1, r6
 2016 0042 1A46     		mov	r2, r3
 2017              		.loc 1 791 0
 2018 0044 01AE     		add	r6, sp, #4
 2019              	.LVL233:
 2020              		.loc 1 796 0
 2021 0046 C0F20000 		movt	r0, #:upper16:.LANCHOR2
 2022              		.loc 1 792 0
 2023 004a E560     		str	r5, [r4, #12]
 2024              		.loc 1 794 0
 2025 004c 0393     		str	r3, [sp, #12]
 2026              		.loc 1 791 0
 2027 004e 6660     		str	r6, [r4, #4]
 2028              		.loc 1 796 0
 2029 0050 FFF7FEFF 		bl	vex_print
 2030              	.LVL234:
 2031              		.loc 1 802 0
 2032 0054 A842     		cmp	r0, r5
 2033 0056 A8BF     		it	ge
 2034 0058 2846     		movge	r0, r5
 2035              	.LVL235:
 2036 005a 05B0     		add	sp, sp, #20
 2037              		@ sp needed
 2038 005c BDE8F040 		pop	{r4, r5, r6, r7, lr}
 2039              	.LVL236:
 2040 0060 02B0     		add	sp, sp, #8
ARM GAS  /tmp/ccJ2adiV.s 			page 37


 2041 0062 7047     		bx	lr
 2042              	.L187:
 2043              		.align	2
 2044              	.L186:
 2045 0064 44000000 		.word	.LANCHOR2+68
 2046              		.cfi_endproc
 2047              	.LFE76:
 2048              		.size	vex_snprintf, .-vex_snprintf
 2049 0068 AFF30080 		.section	.text.vex_vsprintf,"ax",%progbits
 2049      AFF30080 
 2050              		.align	2
 2051              		.p2align 4,,15
 2052              		.global	vex_vsprintf
 2053              		.thumb
 2054              		.thumb_func
 2055              		.type	vex_vsprintf, %function
 2056              	vex_vsprintf:
 2057              	.LFB77:
 2058              		.loc 1 816 0
 2059              		.cfi_startproc
 2060              		@ args = 0, pretend = 0, frame = 8
 2061              		@ frame_needed = 0, uses_anonymous_args = 0
 2062              	.LVL237:
 2063 0000 F0B5     		push	{r4, r5, r6, r7, lr}
 2064              		.cfi_def_cfa_offset 20
 2065              		.cfi_offset 4, -20
 2066              		.cfi_offset 5, -16
 2067              		.cfi_offset 6, -12
 2068              		.cfi_offset 7, -8
 2069              		.cfi_offset 14, -4
 2070              	.LBB94:
 2071              	.LBB95:
 2072              		.loc 1 177 0
 2073 0002 40F20004 		movw	r4, #:lower16:.LANCHOR2
 2074 0006 C0F20004 		movt	r4, #:upper16:.LANCHOR2
 2075 000a 2568     		ldr	r5, [r4]
 2076              	.LBE95:
 2077              	.LBE94:
 2078              		.loc 1 816 0
 2079 000c 83B0     		sub	sp, sp, #12
 2080              		.cfi_def_cfa_offset 32
 2081              		.loc 1 816 0
 2082 000e 0190     		str	r0, [sp, #4]
 2083 0010 0F46     		mov	r7, r1
 2084 0012 1646     		mov	r6, r2
 2085              	.LBB97:
 2086              	.LBB96:
 2087              		.loc 1 177 0
 2088 0014 6DB9     		cbnz	r5, .L189
 2089              		.loc 1 179 0
 2090 0016 0123     		movs	r3, #1
 2091 0018 2046     		mov	r0, r4
 2092              	.LVL238:
 2093 001a 40F8443B 		str	r3, [r0], #68
 2094              		.loc 1 182 0
 2095 001e FFF7FEFF 		bl	chMtxInit
 2096              	.LVL239:
ARM GAS  /tmp/ccJ2adiV.s 			page 38


 2097              		.loc 1 189 0
 2098 0022 40F20003 		movw	r3, #:lower16:SD1
 2099 0026 C0F20003 		movt	r3, #:upper16:SD1
 2100              		.loc 1 187 0
 2101 002a A4F85450 		strh	r5, [r4, #84]	@ movhi
 2102              		.loc 1 188 0
 2103 002e A565     		str	r5, [r4, #88]
 2104              		.loc 1 189 0
 2105 0030 2366     		str	r3, [r4, #96]
 2106              	.LVL240:
 2107              	.L189:
 2108              		.loc 1 193 0
 2109 0032 0948     		ldr	r0, .L190
 2110 0034 FFF7FEFF 		bl	chMtxLock
 2111              	.LVL241:
 2112              	.LBE96:
 2113              	.LBE97:
 2114              		.loc 1 822 0
 2115 0038 40F20000 		movw	r0, #:lower16:.LANCHOR2
 2116              		.loc 1 820 0
 2117 003c 4FF0FF33 		mov	r3, #-1
 2118              		.loc 1 822 0
 2119 0040 3946     		mov	r1, r7
 2120              	.LVL242:
 2121 0042 3246     		mov	r2, r6
 2122              		.loc 1 819 0
 2123 0044 01AD     		add	r5, sp, #4
 2124              	.LVL243:
 2125              		.loc 1 822 0
 2126 0046 C0F20000 		movt	r0, #:upper16:.LANCHOR2
 2127              		.loc 1 819 0
 2128 004a 6560     		str	r5, [r4, #4]
 2129              		.loc 1 820 0
 2130 004c E360     		str	r3, [r4, #12]
 2131              		.loc 1 822 0
 2132 004e FFF7FEFF 		bl	vex_print
 2133              	.LVL244:
 2134              		.loc 1 823 0
 2135 0052 03B0     		add	sp, sp, #12
 2136              		@ sp needed
 2137 0054 F0BD     		pop	{r4, r5, r6, r7, pc}
 2138              	.LVL245:
 2139              	.L191:
 2140 0056 00BF     		.align	2
 2141              	.L190:
 2142 0058 44000000 		.word	.LANCHOR2+68
 2143              		.cfi_endproc
 2144              	.LFE77:
 2145              		.size	vex_vsprintf, .-vex_vsprintf
 2146 005c AFF30080 		.section	.text.vex_vsnprintf,"ax",%progbits
 2147              		.align	2
 2148              		.p2align 4,,15
 2149              		.global	vex_vsnprintf
 2150              		.thumb
 2151              		.thumb_func
 2152              		.type	vex_vsnprintf, %function
 2153              	vex_vsnprintf:
ARM GAS  /tmp/ccJ2adiV.s 			page 39


 2154              	.LFB78:
 2155              		.loc 1 838 0
 2156              		.cfi_startproc
 2157              		@ args = 0, pretend = 0, frame = 8
 2158              		@ frame_needed = 0, uses_anonymous_args = 0
 2159              	.LVL246:
 2160 0000 2DE9F041 		push	{r4, r5, r6, r7, r8, lr}
 2161              		.cfi_def_cfa_offset 24
 2162              		.cfi_offset 4, -24
 2163              		.cfi_offset 5, -20
 2164              		.cfi_offset 6, -16
 2165              		.cfi_offset 7, -12
 2166              		.cfi_offset 8, -8
 2167              		.cfi_offset 14, -4
 2168              	.LBB100:
 2169              	.LBB101:
 2170              		.loc 1 177 0
 2171 0004 40F20004 		movw	r4, #:lower16:.LANCHOR2
 2172 0008 C0F20004 		movt	r4, #:upper16:.LANCHOR2
 2173 000c 2668     		ldr	r6, [r4]
 2174              	.LBE101:
 2175              	.LBE100:
 2176              		.loc 1 838 0
 2177 000e 82B0     		sub	sp, sp, #8
 2178              		.cfi_def_cfa_offset 32
 2179              		.loc 1 838 0
 2180 0010 0190     		str	r0, [sp, #4]
 2181 0012 0D46     		mov	r5, r1
 2182 0014 9046     		mov	r8, r2
 2183 0016 1F46     		mov	r7, r3
 2184              	.LBB103:
 2185              	.LBB102:
 2186              		.loc 1 177 0
 2187 0018 6EB9     		cbnz	r6, .L193
 2188              		.loc 1 179 0
 2189 001a 0123     		movs	r3, #1
 2190              	.LVL247:
 2191 001c 2046     		mov	r0, r4
 2192              	.LVL248:
 2193 001e 40F8443B 		str	r3, [r0], #68
 2194              		.loc 1 182 0
 2195 0022 FFF7FEFF 		bl	chMtxInit
 2196              	.LVL249:
 2197              		.loc 1 189 0
 2198 0026 40F20003 		movw	r3, #:lower16:SD1
 2199 002a C0F20003 		movt	r3, #:upper16:SD1
 2200              		.loc 1 187 0
 2201 002e A4F85460 		strh	r6, [r4, #84]	@ movhi
 2202              		.loc 1 188 0
 2203 0032 A665     		str	r6, [r4, #88]
 2204              		.loc 1 189 0
 2205 0034 2366     		str	r3, [r4, #96]
 2206              	.LVL250:
 2207              	.L193:
 2208              		.loc 1 193 0
 2209 0036 0A48     		ldr	r0, .L194
 2210 0038 FFF7FEFF 		bl	chMtxLock
ARM GAS  /tmp/ccJ2adiV.s 			page 40


 2211              	.LVL251:
 2212              	.LBE102:
 2213              	.LBE103:
 2214              		.loc 1 846 0
 2215 003c 40F20000 		movw	r0, #:lower16:.LANCHOR2
 2216              		.loc 1 843 0
 2217 0040 01AB     		add	r3, sp, #4
 2218              	.LVL252:
 2219              		.loc 1 846 0
 2220 0042 4146     		mov	r1, r8
 2221              	.LVL253:
 2222 0044 3A46     		mov	r2, r7
 2223 0046 C0F20000 		movt	r0, #:upper16:.LANCHOR2
 2224              		.loc 1 844 0
 2225 004a E560     		str	r5, [r4, #12]
 2226              		.loc 1 843 0
 2227 004c 6360     		str	r3, [r4, #4]
 2228              		.loc 1 846 0
 2229 004e FFF7FEFF 		bl	vex_print
 2230              	.LVL254:
 2231              		.loc 1 852 0
 2232 0052 A842     		cmp	r0, r5
 2233 0054 A8BF     		it	ge
 2234 0056 2846     		movge	r0, r5
 2235              	.LVL255:
 2236 0058 02B0     		add	sp, sp, #8
 2237              		@ sp needed
 2238 005a BDE8F081 		pop	{r4, r5, r6, r7, r8, pc}
 2239              	.LVL256:
 2240              	.L195:
 2241 005e 00BF     		.align	2
 2242              	.L194:
 2243 0060 44000000 		.word	.LANCHOR2+68
 2244              		.cfi_endproc
 2245              	.LFE78:
 2246              		.size	vex_vsnprintf, .-vex_vsnprintf
 2247 0064 AFF30080 		.section	.bss.pdefs1,"aw",%nobits
 2247      AFF30080 
 2247      AFF30080 
 2248              		.align	2
 2249              		.set	.LANCHOR1,. + 0
 2250              		.type	pdefs1, %object
 2251              		.size	pdefs1, 100
 2252              	pdefs1:
 2253 0000 00000000 		.space	100
 2253      00000000 
 2253      00000000 
 2253      00000000 
 2253      00000000 
 2254              		.section	.bss.pdefs2,"aw",%nobits
 2255              		.align	2
 2256              		.set	.LANCHOR2,. + 0
 2257              		.type	pdefs2, %object
 2258              		.size	pdefs2, 100
 2259              	pdefs2:
 2260 0000 00000000 		.space	100
 2260      00000000 
ARM GAS  /tmp/ccJ2adiV.s 			page 41


 2260      00000000 
 2260      00000000 
 2260      00000000 
 2261              		.section	.rodata.str1.4,"aMS",%progbits,1
 2262              		.align	2
 2263              	.LC0:
 2264 0000 3000     		.ascii	"0\000"
 2265 0002 0000     		.space	2
 2266              	.LC1:
 2267 0004 286E756C 		.ascii	"(null)\000"
 2267      6C2900
 2268 000b 00       		.section	.rodata.round_nums,"a",%progbits
 2269              		.align	3
 2270              		.set	.LANCHOR0,. + 0
 2271              		.type	round_nums, %object
 2272              		.size	round_nums, 64
 2273              	round_nums:
 2274 0000 00000000 		.word	0
 2275 0004 0000E03F 		.word	1071644672
 2276 0008 9A999999 		.word	2576980378
 2277 000c 9999A93F 		.word	1068079513
 2278 0010 7B14AE47 		.word	1202590843
 2279 0014 E17A743F 		.word	1064598241
 2280 0018 FCA9F1D2 		.word	3539053052
 2281 001c 4D62403F 		.word	1061184077
 2282 0020 2D431CEB 		.word	3944497965
 2283 0024 E2360A3F 		.word	1057634018
 2284 0028 F168E388 		.word	2296604913
 2285 002c B5F8D43E 		.word	1054144693
 2286 0030 8DEDB5A0 		.word	2696277389
 2287 0034 F7C6A03E 		.word	1050724087
 2288 0038 48AFBC9A 		.word	2596056904
 2289 003c F2D76A3E 		.word	1047189490
 2290              		.text
 2291              	.Letext0:
 2292              		.file 2 "/usr/lib/gcc/arm-none-eabi/4.8.2/include/stddef.h"
 2293              		.file 3 "/usr/include/newlib/machine/_default_types.h"
 2294              		.file 4 "/usr/lib/gcc/arm-none-eabi/4.8.2/include/stdarg.h"
 2295              		.file 5 "/usr/include/newlib/stdint.h"
 2296              		.file 6 "../../../../ChibiOS_2.6.2/os/ports/GCC/ARMCMx/chtypes.h"
 2297              		.file 7 "../../../../ChibiOS_2.6.2/os/kernel/include/chlists.h"
 2298              		.file 8 "<built-in>"
 2299              		.file 9 "../../../../ChibiOS_2.6.2/os/kernel/include/chthreads.h"
 2300              		.file 10 "../../../../ChibiOS_2.6.2/os/ports/GCC/ARMCMx/chcore_v7m.h"
 2301              		.file 11 "../../../../ChibiOS_2.6.2/os/kernel/include/chvt.h"
 2302              		.file 12 "../../../../ChibiOS_2.6.2/os/kernel/include/chmtx.h"
 2303              		.file 13 "../../../../ChibiOS_2.6.2/os/kernel/include/chevents.h"
 2304              		.file 14 "../../../../ChibiOS_2.6.2/os/kernel/include/chqueues.h"
 2305              		.file 15 "../../../../ChibiOS_2.6.2/os/kernel/include/chstreams.h"
 2306              		.file 16 "../../../../ChibiOS_2.6.2/os/hal/platforms/STM32F1xx/stm32f10x.h"
 2307              		.file 17 "../../../../ChibiOS_2.6.2/os/hal/include/serial.h"
 2308              		.file 18 "../../fw/vexcompat.h"
 2309              		.file 19 "../../fw/vexdigital.h"
 2310              		.file 20 "../../fw/vexime.h"
 2311              		.file 21 "../../../../ChibiOS_2.6.2/os/ports/common/ARMCMx/CMSIS/include/core_cm3.h"
 2312              		.file 22 "../../../../ChibiOS_2.6.2/os/hal/platforms/STM32/USARTv1/serial_lld.h"