ARM GAS  /tmp/cc5bcYEW.s 			page 1


   1              		.syntax unified
   2              		.cpu cortex-m3
   3              		.fpu softvfp
   4              		.eabi_attribute 20, 1
   5              		.eabi_attribute 21, 1
   6              		.eabi_attribute 23, 3
   7              		.eabi_attribute 24, 1
   8              		.eabi_attribute 25, 1
   9              		.eabi_attribute 26, 1
  10              		.eabi_attribute 30, 2
  11              		.eabi_attribute 34, 1
  12              		.eabi_attribute 18, 4
  13              		.thumb
  14              		.file	"vexrttl.c"
  15              		.text
  16              	.Ltext0:
  17              		.cfi_sections	.debug_frame
  18              		.section	.text.vexAudioPlayRtttl,"ax",%progbits
  19              		.align	2
  20              		.p2align 4,,15
  21              		.global	vexAudioPlayRtttl
  22              		.thumb
  23              		.thumb_func
  24              		.type	vexAudioPlayRtttl, %function
  25              	vexAudioPlayRtttl:
  26              	.LFB64:
  27              		.file 1 "../../fw/vexrttl.c"
  28              		.loc 1 113 0
  29              		.cfi_startproc
  30              		@ args = 0, pretend = 0, frame = 8
  31              		@ frame_needed = 0, uses_anonymous_args = 0
  32              	.LVL0:
  33 0000 2DE9F04F 		push	{r4, r5, r6, r7, r8, r9, r10, fp, lr}
  34              		.cfi_def_cfa_offset 36
  35              		.cfi_offset 4, -36
  36              		.cfi_offset 5, -32
  37              		.cfi_offset 6, -28
  38              		.cfi_offset 7, -24
  39              		.cfi_offset 8, -20
  40              		.cfi_offset 9, -16
  41              		.cfi_offset 10, -12
  42              		.cfi_offset 11, -8
  43              		.cfi_offset 14, -4
  44              		.loc 1 123 0
  45 0004 0378     		ldrb	r3, [r0]	@ zero_extendqisi2
  46              		.loc 1 113 0
  47 0006 83B0     		sub	sp, sp, #12
  48              		.cfi_def_cfa_offset 48
  49              		.loc 1 123 0
  50 0008 3A2B     		cmp	r3, #58
  51 000a 18BF     		it	ne
  52 000c 002B     		cmpne	r3, #0
  53              		.loc 1 113 0
  54 000e 0F46     		mov	r7, r1
  55 0010 0192     		str	r2, [sp, #4]
  56              		.loc 1 123 0
  57 0012 00F08181 		beq	.L55
ARM GAS  /tmp/cc5bcYEW.s 			page 2


  58 0016 804A     		ldr	r2, .L95
  59              	.LVL1:
  60 0018 411C     		adds	r1, r0, #1
  61              	.LVL2:
  62              	.L3:
  63              		.loc 1 125 0
  64 001a 02F8013C 		strb	r3, [r2, #-1]
  65 001e 0846     		mov	r0, r1
  66              		.loc 1 123 0
  67 0020 11F8013B 		ldrb	r3, [r1], #1	@ zero_extendqisi2
  68              		.loc 1 125 0
  69 0024 1446     		mov	r4, r2
  70              	.LVL3:
  71              		.loc 1 123 0
  72 0026 3A2B     		cmp	r3, #58
  73 0028 18BF     		it	ne
  74 002a 002B     		cmpne	r3, #0
  75 002c 02F10102 		add	r2, r2, #1
  76              	.LVL4:
  77 0030 F3D1     		bne	.L3
  78              	.LVL5:
  79              	.L2:
  80              		.loc 1 127 0
  81 0032 0023     		movs	r3, #0
  82 0034 2370     		strb	r3, [r4]
  83              		.loc 1 129 0
  84 0036 0378     		ldrb	r3, [r0]	@ zero_extendqisi2
  85 0038 002B     		cmp	r3, #0
  86 003a 00F0E380 		beq	.L59
  87              		.loc 1 130 0
  88 003e 00F10108 		add	r8, r0, #1
  89              	.LVL6:
  90              		.loc 1 133 0
  91 0042 98F80040 		ldrb	r4, [r8]	@ zero_extendqisi2
  92              		.loc 1 118 0
  93 0046 4FF03F09 		mov	r9, #63
  94              	.LVL7:
  95              		.loc 1 117 0
  96 004a 0626     		movs	r6, #6
  97              		.loc 1 116 0
  98 004c 0425     		movs	r5, #4
  99              	.LBB7:
 100              		.loc 1 151 0
 101 004e 4FF0200C 		mov	ip, #32
 102              	.LBE7:
 103              		.loc 1 133 0
 104 0052 002C     		cmp	r4, #0
 105 0054 49D0     		beq	.L9
 106              	.L94:
 107              	.LBB8:
 108              		.loc 1 138 0 discriminator 1
 109 0056 202C     		cmp	r4, #32
 110 0058 0AD1     		bne	.L20
 111 005a 08F10103 		add	r3, r8, #1
 112              	.L21:
 113              	.LVL8:
 114              		.loc 1 138 0 is_stmt 0 discriminator 2
ARM GAS  /tmp/cc5bcYEW.s 			page 3


 115 005e 1C78     		ldrb	r4, [r3]	@ zero_extendqisi2
 116 0060 9846     		mov	r8, r3
 117              	.LVL9:
 118 0062 202C     		cmp	r4, #32
 119 0064 03F10103 		add	r3, r3, #1
 120              	.LVL10:
 121 0068 F9D0     		beq	.L21
 122              		.loc 1 139 0 is_stmt 1
 123 006a 002C     		cmp	r4, #0
 124 006c 00F0CA80 		beq	.L59
 125              	.L20:
 126              		.loc 1 140 0
 127 0070 3A2C     		cmp	r4, #58
 128 0072 3AD0     		beq	.L9
 129              	.LVL11:
 130              		.loc 1 143 0
 131 0074 98F80130 		ldrb	r3, [r8, #1]	@ zero_extendqisi2
 132 0078 3D2B     		cmp	r3, #61
 133 007a 40F0C380 		bne	.L59
 134              		.loc 1 147 0
 135 007e 98F80230 		ldrb	r3, [r8, #2]	@ zero_extendqisi2
 136              		.loc 1 145 0
 137 0082 08F10200 		add	r0, r8, #2
 138              	.LVL12:
 139              		.loc 1 147 0
 140 0086 A3F13002 		sub	r2, r3, #48
 141 008a D1B2     		uxtb	r1, r2
 142 008c 0929     		cmp	r1, #9
 143 008e 00F2C080 		bhi	.L56
 144 0092 08F10300 		add	r0, r8, #3
 145              	.LVL13:
 146              		.loc 1 146 0
 147 0096 0021     		movs	r1, #0
 148              	.LVL14:
 149              	.L11:
 150              		.loc 1 147 0 discriminator 2
 151 0098 8046     		mov	r8, r0
 152              	.LVL15:
 153 009a 10F8013B 		ldrb	r3, [r0], #1	@ zero_extendqisi2
 154              	.LVL16:
 155 009e 01EB8101 		add	r1, r1, r1, lsl #2
 156              	.LVL17:
 157 00a2 02EB4101 		add	r1, r2, r1, lsl #1
 158              	.LVL18:
 159 00a6 A3F13002 		sub	r2, r3, #48
 160 00aa 5FFA82FA 		uxtb	r10, r2
 161 00ae BAF1090F 		cmp	r10, #9
 162 00b2 F1D9     		bls	.L11
 163              	.LVL19:
 164              	.L10:
 165              		.loc 1 149 0
 166 00b4 642C     		cmp	r4, #100
 167 00b6 00F0A280 		beq	.L13
 168 00ba 6F2C     		cmp	r4, #111
 169 00bc 08BF     		it	eq
 170 00be 0E46     		moveq	r6, r1
 171 00c0 02D0     		beq	.L14
ARM GAS  /tmp/cc5bcYEW.s 			page 4


 172              		.loc 1 153 0
 173 00c2 622C     		cmp	r4, #98
 174 00c4 08BF     		it	eq
 175 00c6 8946     		moveq	r9, r1
 176              	.LVL20:
 177              	.L14:
 178              		.loc 1 156 0 discriminator 1
 179 00c8 202B     		cmp	r3, #32
 180 00ca 06D1     		bne	.L17
 181 00cc 08F10102 		add	r2, r8, #1
 182              	.LVL21:
 183              	.L18:
 184              		.loc 1 156 0 is_stmt 0 discriminator 2
 185 00d0 9046     		mov	r8, r2
 186              	.LVL22:
 187 00d2 12F8013B 		ldrb	r3, [r2], #1	@ zero_extendqisi2
 188              	.LVL23:
 189 00d6 202B     		cmp	r3, #32
 190 00d8 FAD0     		beq	.L18
 191              	.L17:
 192              		.loc 1 157 0 is_stmt 1
 193 00da 2C2B     		cmp	r3, #44
 194 00dc 08BF     		it	eq
 195 00de 08F10108 		addeq	r8, r8, #1
 196              	.LVL24:
 197              	.LBE8:
 198              		.loc 1 133 0
 199 00e2 98F80040 		ldrb	r4, [r8]	@ zero_extendqisi2
 200              	.LVL25:
 201 00e6 002C     		cmp	r4, #0
 202 00e8 B5D1     		bne	.L94
 203              	.L9:
 204              		.loc 1 163 0
 205 00ea 98F80120 		ldrb	r2, [r8, #1]	@ zero_extendqisi2
 206              		.loc 1 159 0
 207 00ee 08F10104 		add	r4, r8, #1
 208              	.LVL26:
 209              		.loc 1 163 0
 210 00f2 002A     		cmp	r2, #0
 211 00f4 00F0F380 		beq	.L22
 212 00f8 2146     		mov	r1, r4
 213 00fa 1346     		mov	r3, r2
 214 00fc 0120     		movs	r0, #1
 215              	.LVL27:
 216              	.L25:
 217              		.loc 1 165 0
 218 00fe 2C2B     		cmp	r3, #44
 219              		.loc 1 163 0
 220 0100 11F8013F 		ldrb	r3, [r1, #1]!	@ zero_extendqisi2
 221              	.LVL28:
 222              		.loc 1 166 0
 223 0104 08BF     		it	eq
 224 0106 0130     		addeq	r0, r0, #1
 225              	.LVL29:
 226              		.loc 1 163 0
 227 0108 002B     		cmp	r3, #0
 228 010a F8D1     		bne	.L25
ARM GAS  /tmp/cc5bcYEW.s 			page 5


 229              		.loc 1 169 0
 230 010c 0128     		cmp	r0, #1
 231 010e 07D0     		beq	.L26
 232              		.loc 1 170 0
 233 0110 0130     		adds	r0, r0, #1
 234              	.LVL30:
 235 0112 FFF7FEFF 		bl	vexAudioInitChipToneSong
 236              	.LVL31:
 237 0116 98F80120 		ldrb	r2, [r8, #1]	@ zero_extendqisi2
 238              		.loc 1 173 0
 239 011a 002A     		cmp	r2, #0
 240 011c 00F0DF80 		beq	.L22
 241              	.L26:
 242              	.LBB9:
 243              	.LBB10:
 244              	.LBB11:
 245              		.loc 1 100 0
 246 0120 40F20008 		movw	r8, #:lower16:.LANCHOR1
 247 0124 4AF6AB2A 		movw	r10, #43691
 248              	.LBE11:
 249              	.LBE10:
 250              		.loc 1 242 0
 251 0128 4FEAC909 		lsl	r9, r9, #3
 252              	.LVL32:
 253              	.LBB14:
 254              	.LBB12:
 255              		.loc 1 100 0
 256 012c C0F20008 		movt	r8, #:upper16:.LANCHOR1
 257 0130 C2F6AA2A 		movt	r10, 10922
 258              	.LBE12:
 259              	.LBE14:
 260              	.LBB15:
 261              		.loc 1 191 0
 262 0134 4FF0200B 		mov	fp, #32
 263              	.L27:
 264              	.LBE15:
 265              		.loc 1 182 0 discriminator 1
 266 0138 202A     		cmp	r2, #32
 267 013a 05D1     		bne	.L53
 268 013c 631C     		adds	r3, r4, #1
 269              	.L54:
 270              	.LVL33:
 271              		.loc 1 182 0 is_stmt 0 discriminator 2
 272 013e 1C46     		mov	r4, r3
 273              	.LVL34:
 274 0140 13F8012B 		ldrb	r2, [r3], #1	@ zero_extendqisi2
 275              	.LVL35:
 276 0144 202A     		cmp	r2, #32
 277 0146 FAD0     		beq	.L54
 278              	.L53:
 279              		.loc 1 183 0 is_stmt 1
 280 0148 002A     		cmp	r2, #0
 281 014a 5BD0     		beq	.L59
 282              		.loc 1 186 0
 283 014c 303A     		subs	r2, r2, #48
 284 014e D2B2     		uxtb	r2, r2
 285 0150 092A     		cmp	r2, #9
ARM GAS  /tmp/cc5bcYEW.s 			page 6


 286              	.LBB16:
 287              		.loc 1 189 0
 288 0152 2078     		ldrb	r0, [r4]	@ zero_extendqisi2
 289              	.LBE16:
 290              		.loc 1 186 0
 291 0154 88BF     		it	hi
 292 0156 2946     		movhi	r1, r5
 293 0158 17D8     		bhi	.L30
 294              	.LVL36:
 295              	.LBB17:
 296              		.loc 1 189 0 discriminator 1
 297 015a A0F13002 		sub	r2, r0, #48
 298 015e D3B2     		uxtb	r3, r2
 299 0160 092B     		cmp	r3, #9
 300 0162 00F2DE80 		bhi	.L58
 301 0166 611C     		adds	r1, r4, #1
 302              		.loc 1 189 0 is_stmt 0
 303 0168 0023     		movs	r3, #0
 304              	.LVL37:
 305              	.L32:
 306              		.loc 1 189 0 discriminator 2
 307 016a 0C46     		mov	r4, r1
 308              	.LVL38:
 309 016c 11F8010B 		ldrb	r0, [r1], #1	@ zero_extendqisi2
 310              	.LVL39:
 311 0170 03EB8303 		add	r3, r3, r3, lsl #2
 312              	.LVL40:
 313 0174 02EB4303 		add	r3, r2, r3, lsl #1
 314              	.LVL41:
 315 0178 A0F13002 		sub	r2, r0, #48
 316 017c 5FFA82FC 		uxtb	ip, r2
 317 0180 BCF1090F 		cmp	ip, #9
 318 0184 F1D9     		bls	.L32
 319              	.LVL42:
 320              	.L31:
 321              		.loc 1 191 0 is_stmt 1
 322 0186 9BFBF3F1 		sdiv	r1, fp, r3
 323              	.LVL43:
 324              	.L30:
 325              	.LBE17:
 326              		.loc 1 195 0
 327 018a 6828     		cmp	r0, #104
 328 018c 00F2C180 		bhi	.L33
 329 0190 DFE800F0 		tbb	[pc, r0]
 330              	.L34:
 331 0194 38       		.byte	(.L59-.L34)/2
 332 0195 BF       		.byte	(.L33-.L34)/2
 333 0196 BF       		.byte	(.L33-.L34)/2
 334 0197 BF       		.byte	(.L33-.L34)/2
 335 0198 BF       		.byte	(.L33-.L34)/2
 336 0199 BF       		.byte	(.L33-.L34)/2
 337 019a BF       		.byte	(.L33-.L34)/2
 338 019b BF       		.byte	(.L33-.L34)/2
 339 019c BF       		.byte	(.L33-.L34)/2
 340 019d BF       		.byte	(.L33-.L34)/2
 341 019e BF       		.byte	(.L33-.L34)/2
 342 019f BF       		.byte	(.L33-.L34)/2
ARM GAS  /tmp/cc5bcYEW.s 			page 7


 343 01a0 BF       		.byte	(.L33-.L34)/2
 344 01a1 BF       		.byte	(.L33-.L34)/2
 345 01a2 BF       		.byte	(.L33-.L34)/2
 346 01a3 BF       		.byte	(.L33-.L34)/2
 347 01a4 BF       		.byte	(.L33-.L34)/2
 348 01a5 BF       		.byte	(.L33-.L34)/2
 349 01a6 BF       		.byte	(.L33-.L34)/2
 350 01a7 BF       		.byte	(.L33-.L34)/2
 351 01a8 BF       		.byte	(.L33-.L34)/2
 352 01a9 BF       		.byte	(.L33-.L34)/2
 353 01aa BF       		.byte	(.L33-.L34)/2
 354 01ab BF       		.byte	(.L33-.L34)/2
 355 01ac BF       		.byte	(.L33-.L34)/2
 356 01ad BF       		.byte	(.L33-.L34)/2
 357 01ae BF       		.byte	(.L33-.L34)/2
 358 01af BF       		.byte	(.L33-.L34)/2
 359 01b0 BF       		.byte	(.L33-.L34)/2
 360 01b1 BF       		.byte	(.L33-.L34)/2
 361 01b2 BF       		.byte	(.L33-.L34)/2
 362 01b3 BF       		.byte	(.L33-.L34)/2
 363 01b4 BF       		.byte	(.L33-.L34)/2
 364 01b5 BF       		.byte	(.L33-.L34)/2
 365 01b6 BF       		.byte	(.L33-.L34)/2
 366 01b7 BF       		.byte	(.L33-.L34)/2
 367 01b8 BF       		.byte	(.L33-.L34)/2
 368 01b9 BF       		.byte	(.L33-.L34)/2
 369 01ba BF       		.byte	(.L33-.L34)/2
 370 01bb BF       		.byte	(.L33-.L34)/2
 371 01bc BF       		.byte	(.L33-.L34)/2
 372 01bd BF       		.byte	(.L33-.L34)/2
 373 01be BF       		.byte	(.L33-.L34)/2
 374 01bf BF       		.byte	(.L33-.L34)/2
 375 01c0 BF       		.byte	(.L33-.L34)/2
 376 01c1 BF       		.byte	(.L33-.L34)/2
 377 01c2 BF       		.byte	(.L33-.L34)/2
 378 01c3 BF       		.byte	(.L33-.L34)/2
 379 01c4 BF       		.byte	(.L33-.L34)/2
 380 01c5 BF       		.byte	(.L33-.L34)/2
 381 01c6 BF       		.byte	(.L33-.L34)/2
 382 01c7 BF       		.byte	(.L33-.L34)/2
 383 01c8 BF       		.byte	(.L33-.L34)/2
 384 01c9 BF       		.byte	(.L33-.L34)/2
 385 01ca BF       		.byte	(.L33-.L34)/2
 386 01cb BF       		.byte	(.L33-.L34)/2
 387 01cc BF       		.byte	(.L33-.L34)/2
 388 01cd BF       		.byte	(.L33-.L34)/2
 389 01ce BF       		.byte	(.L33-.L34)/2
 390 01cf BF       		.byte	(.L33-.L34)/2
 391 01d0 BF       		.byte	(.L33-.L34)/2
 392 01d1 BF       		.byte	(.L33-.L34)/2
 393 01d2 BF       		.byte	(.L33-.L34)/2
 394 01d3 BF       		.byte	(.L33-.L34)/2
 395 01d4 BF       		.byte	(.L33-.L34)/2
 396 01d5 BD       		.byte	(.L35-.L34)/2
 397 01d6 44       		.byte	(.L36-.L34)/2
 398 01d7 B3       		.byte	(.L60-.L34)/2
 399 01d8 BB       		.byte	(.L38-.L34)/2
ARM GAS  /tmp/cc5bcYEW.s 			page 8


 400 01d9 B9       		.byte	(.L39-.L34)/2
 401 01da B7       		.byte	(.L40-.L34)/2
 402 01db B5       		.byte	(.L41-.L34)/2
 403 01dc 44       		.byte	(.L36-.L34)/2
 404 01dd BF       		.byte	(.L33-.L34)/2
 405 01de BF       		.byte	(.L33-.L34)/2
 406 01df BF       		.byte	(.L33-.L34)/2
 407 01e0 BF       		.byte	(.L33-.L34)/2
 408 01e1 BF       		.byte	(.L33-.L34)/2
 409 01e2 BF       		.byte	(.L33-.L34)/2
 410 01e3 BF       		.byte	(.L33-.L34)/2
 411 01e4 BF       		.byte	(.L33-.L34)/2
 412 01e5 BF       		.byte	(.L33-.L34)/2
 413 01e6 BF       		.byte	(.L33-.L34)/2
 414 01e7 BF       		.byte	(.L33-.L34)/2
 415 01e8 BF       		.byte	(.L33-.L34)/2
 416 01e9 BF       		.byte	(.L33-.L34)/2
 417 01ea BF       		.byte	(.L33-.L34)/2
 418 01eb BF       		.byte	(.L33-.L34)/2
 419 01ec BF       		.byte	(.L33-.L34)/2
 420 01ed BF       		.byte	(.L33-.L34)/2
 421 01ee BF       		.byte	(.L33-.L34)/2
 422 01ef BF       		.byte	(.L33-.L34)/2
 423 01f0 BF       		.byte	(.L33-.L34)/2
 424 01f1 BF       		.byte	(.L33-.L34)/2
 425 01f2 BF       		.byte	(.L33-.L34)/2
 426 01f3 BF       		.byte	(.L33-.L34)/2
 427 01f4 BF       		.byte	(.L33-.L34)/2
 428 01f5 BD       		.byte	(.L35-.L34)/2
 429 01f6 44       		.byte	(.L36-.L34)/2
 430 01f7 B3       		.byte	(.L60-.L34)/2
 431 01f8 BB       		.byte	(.L38-.L34)/2
 432 01f9 B9       		.byte	(.L39-.L34)/2
 433 01fa B7       		.byte	(.L40-.L34)/2
 434 01fb B5       		.byte	(.L41-.L34)/2
 435 01fc 44       		.byte	(.L36-.L34)/2
 436 01fd 00       		.align	1
 437              	.LVL44:
 438              	.L13:
 439              	.LBE9:
 440              	.LBB20:
 441              		.loc 1 151 0
 442 01fe 9CFBF1F5 		sdiv	r5, ip, r1
 443              	.LVL45:
 444 0202 61E7     		b	.L14
 445              	.LVL46:
 446              	.L59:
 447              	.LBE20:
 448              	.LBB21:
 449              		.loc 1 197 0
 450 0204 40F20000 		movw	r0, #:lower16:.LC0
 451 0208 C0F20000 		movt	r0, #:upper16:.LC0
 452              	.L5:
 453              	.LBE21:
 454              		.loc 1 258 0
 455 020c 03B0     		add	sp, sp, #12
 456              		@ sp needed
ARM GAS  /tmp/cc5bcYEW.s 			page 9


 457 020e BDE8F08F 		pop	{r4, r5, r6, r7, r8, r9, r10, fp, pc}
 458              	.LVL47:
 459              	.L56:
 460              	.LBB22:
 461              		.loc 1 145 0
 462 0212 8046     		mov	r8, r0
 463              		.loc 1 146 0
 464 0214 0021     		movs	r1, #0
 465 0216 4DE7     		b	.L10
 466              	.L96:
 467              		.align	2
 468              	.L95:
 469 0218 01000000 		.word	.LANCHOR0+1
 470              	.LVL48:
 471              	.L36:
 472              	.LBE22:
 473              	.LBB23:
 474              		.loc 1 205 0
 475 021c 0B20     		movs	r0, #11
 476              	.LVL49:
 477              	.L37:
 478              		.loc 1 209 0
 479 021e 6278     		ldrb	r2, [r4, #1]	@ zero_extendqisi2
 480 0220 232A     		cmp	r2, #35
 481 0222 09BF     		itett	eq
 482 0224 A278     		ldrbeq	r2, [r4, #2]	@ zero_extendqisi2
 483              		.loc 1 208 0
 484 0226 0134     		addne	r4, r4, #1
 485              	.LVL50:
 486              		.loc 1 212 0
 487 0228 0234     		addeq	r4, r4, #2
 488              		.loc 1 211 0
 489 022a 0130     		addeq	r0, r0, #1
 490              	.LVL51:
 491              		.loc 1 214 0
 492 022c 622A     		cmp	r2, #98
 493 022e 02BF     		ittt	eq
 494 0230 6278     		ldrbeq	r2, [r4, #1]	@ zero_extendqisi2
 495              		.loc 1 216 0
 496 0232 00F1FF30 		addeq	r0, r0, #-1
 497              	.LVL52:
 498              		.loc 1 217 0
 499 0236 0134     		addeq	r4, r4, #1
 500              	.LVL53:
 501              		.loc 1 221 0
 502 0238 2E2A     		cmp	r2, #46
 503 023a 02BF     		ittt	eq
 504 023c 6278     		ldrbeq	r2, [r4, #1]	@ zero_extendqisi2
 505              		.loc 1 223 0
 506 023e 01EBD173 		addeq	r3, r1, r1, lsr #31
 507 0242 01EB6301 		addeq	r1, r1, r3, asr #1
 508              	.LVL54:
 509              		.loc 1 228 0
 510 0246 A2F13003 		sub	r3, r2, #48
 511 024a 5FFA83FE 		uxtb	lr, r3
 512              		.loc 1 224 0
 513 024e 08BF     		it	eq
ARM GAS  /tmp/cc5bcYEW.s 			page 10


 514 0250 0134     		addeq	r4, r4, #1
 515              	.LVL55:
 516              		.loc 1 228 0
 517 0252 BEF1090F 		cmp	lr, #9
 518 0256 9DBF     		ittte	ls
 519 0258 6278     		ldrbls	r2, [r4, #1]	@ zero_extendqisi2
 520 025a 9E46     		movls	lr, r3
 521              	.LVL56:
 522 025c 0134     		addls	r4, r4, #1
 523              	.LVL57:
 524 025e B646     		movhi	lr, r6
 525              	.LVL58:
 526              		.loc 1 231 0
 527 0260 2E2A     		cmp	r2, #46
 528 0262 01BF     		itttt	eq
 529 0264 6278     		ldrbeq	r2, [r4, #1]	@ zero_extendqisi2
 530              		.loc 1 233 0
 531 0266 01EBD173 		addeq	r3, r1, r1, lsr #31
 532 026a 01EB6301 		addeq	r1, r1, r3, asr #1
 533              	.LVL59:
 534              		.loc 1 234 0
 535 026e 0134     		addeq	r4, r4, #1
 536              	.LVL60:
 537              		.loc 1 238 0
 538 0270 202A     		cmp	r2, #32
 539 0272 05D1     		bne	.L49
 540 0274 631C     		adds	r3, r4, #1
 541              	.LVL61:
 542              	.L50:
 543              		.loc 1 238 0 is_stmt 0 discriminator 2
 544 0276 1C46     		mov	r4, r3
 545              	.LVL62:
 546 0278 13F8012B 		ldrb	r2, [r3], #1	@ zero_extendqisi2
 547              	.LVL63:
 548 027c 202A     		cmp	r2, #32
 549 027e FAD0     		beq	.L50
 550              	.L49:
 551              		.loc 1 239 0 is_stmt 1
 552 0280 2C2A     		cmp	r2, #44
 553              		.loc 1 242 0
 554 0282 4EF66022 		movw	r2, #60000
 555 0286 02FB01F2 		mul	r2, r2, r1
 556              		.loc 1 239 0
 557 028a 08BF     		it	eq
 558 028c 0134     		addeq	r4, r4, #1
 559              	.LVL64:
 560              		.loc 1 243 0
 561 028e 431C     		adds	r3, r0, #1
 562              		.loc 1 242 0
 563 0290 92FBF9F2 		sdiv	r2, r2, r9
 564              	.LVL65:
 565              		.loc 1 244 0
 566 0294 08BF     		it	eq
 567 0296 0020     		moveq	r0, #0
 568              	.LVL66:
 569              		.loc 1 243 0
 570 0298 1AD0     		beq	.L52
ARM GAS  /tmp/cc5bcYEW.s 			page 11


 571              		.loc 1 246 0
 572 029a 0EF1010E 		add	lr, lr, #1
 573              	.LVL67:
 574 029e 0EEB4E0E 		add	lr, lr, lr, lsl #1
 575              	.LVL68:
 576 02a2 00EB8E00 		add	r0, r0, lr, lsl #2
 577              	.LVL69:
 578              	.LBB18:
 579              	.LBB13:
 580              		.loc 1 100 0
 581 02a6 8AFB0013 		smull	r1, r3, r10, r0
 582              	.LVL70:
 583 02aa C117     		asrs	r1, r0, #31
 584 02ac 5B10     		asrs	r3, r3, #1
 585 02ae C3EB010E 		rsb	lr, r3, r1
 586 02b2 0EF1090E 		add	lr, lr, #9
 587 02b6 4FF0010C 		mov	ip, #1
 588 02ba 0CFA0EFE 		lsl	lr, ip, lr
 589 02be 5B1A     		subs	r3, r3, r1
 590 02c0 03EB4303 		add	r3, r3, r3, lsl #1
 591 02c4 A0EB8300 		sub	r0, r0, r3, lsl #2
 592              	.LVL71:
 593 02c8 58F82000 		ldr	r0, [r8, r0, lsl #2]
 594 02cc 90FBFEF0 		sdiv	r0, r0, lr
 595              	.L52:
 596              	.LVL72:
 597              	.LBE13:
 598              	.LBE18:
 599              		.loc 1 248 0
 600 02d0 3946     		mov	r1, r7
 601 02d2 FFF7FEFF 		bl	vexAudioSetNextChipTone
 602              	.LVL73:
 603              	.LBE23:
 604              		.loc 1 173 0
 605 02d6 2278     		ldrb	r2, [r4]	@ zero_extendqisi2
 606 02d8 002A     		cmp	r2, #0
 607 02da 7FF42DAF 		bne	.L27
 608              	.L22:
 609              		.loc 1 252 0
 610 02de 0020     		movs	r0, #0
 611 02e0 0146     		mov	r1, r0
 612 02e2 4FF4FA72 		mov	r2, #500
 613 02e6 FFF7FEFF 		bl	vexAudioSetNextChipTone
 614              	.LVL74:
 615              		.loc 1 255 0
 616 02ea 0198     		ldr	r0, [sp, #4]
 617 02ec FFF7FEFF 		bl	vexAudioStartChipToneSong
 618              	.LVL75:
 619              		.loc 1 257 0
 620 02f0 40F20000 		movw	r0, #:lower16:.LANCHOR0
 621 02f4 C0F20000 		movt	r0, #:upper16:.LANCHOR0
 622 02f8 88E7     		b	.L5
 623              	.LVL76:
 624              	.L60:
 625              	.LBB24:
 626              		.loc 1 198 0
 627 02fa 0020     		movs	r0, #0
ARM GAS  /tmp/cc5bcYEW.s 			page 12


 628 02fc 8FE7     		b	.L37
 629              	.L41:
 630              	.LVL77:
 631              		.loc 1 202 0
 632 02fe 0720     		movs	r0, #7
 633 0300 8DE7     		b	.L37
 634              	.LVL78:
 635              	.L40:
 636              		.loc 1 201 0
 637 0302 0520     		movs	r0, #5
 638 0304 8BE7     		b	.L37
 639              	.LVL79:
 640              	.L39:
 641              		.loc 1 200 0
 642 0306 0420     		movs	r0, #4
 643 0308 89E7     		b	.L37
 644              	.LVL80:
 645              	.L38:
 646              		.loc 1 199 0
 647 030a 0220     		movs	r0, #2
 648 030c 87E7     		b	.L37
 649              	.LVL81:
 650              	.L35:
 651              		.loc 1 203 0
 652 030e 0920     		movs	r0, #9
 653 0310 85E7     		b	.L37
 654              	.LVL82:
 655              	.L33:
 656              		.loc 1 175 0
 657 0312 4FF0FF30 		mov	r0, #-1
 658 0316 82E7     		b	.L37
 659              	.LVL83:
 660              	.L55:
 661              	.LBE24:
 662              		.loc 1 122 0
 663 0318 40F20004 		movw	r4, #:lower16:.LANCHOR0
 664 031c C0F20004 		movt	r4, #:upper16:.LANCHOR0
 665 0320 87E6     		b	.L2
 666              	.LVL84:
 667              	.L58:
 668              	.LBB25:
 669              	.LBB19:
 670              		.loc 1 189 0
 671 0322 0023     		movs	r3, #0
 672 0324 2FE7     		b	.L31
 673              	.LBE19:
 674              	.LBE25:
 675              		.cfi_endproc
 676              	.LFE64:
 677              		.size	vexAudioPlayRtttl, .-vexAudioPlayRtttl
 678 0326 00BFAFF3 		.section	.rodata.notefreq,"a",%progbits
 678      0080AFF3 
 678      0080
 679              		.align	2
 680              		.set	.LANCHOR1,. + 0
 681              		.type	notefreq, %object
 682              		.size	notefreq, 48
ARM GAS  /tmp/cc5bcYEW.s 			page 13


 683              	notefreq:
 684 0000 5A100000 		.word	4186
 685 0004 52110000 		.word	4434
 686 0008 5A120000 		.word	4698
 687 000c 72130000 		.word	4978
 688 0010 9A140000 		.word	5274
 689 0014 D3150000 		.word	5587
 690 0018 1F170000 		.word	5919
 691 001c 7F180000 		.word	6271
 692 0020 F4190000 		.word	6644
 693 0024 801B0000 		.word	7040
 694 0028 221D0000 		.word	7458
 695 002c DE1E0000 		.word	7902
 696              		.section	.rodata.str1.4,"aMS",%progbits,1
 697              		.align	2
 698              	.LC0:
 699 0000 00       		.ascii	"\000"
 700 0001 000000   		.section	.bss.name,"aw",%nobits
 701              		.align	2
 702              		.set	.LANCHOR0,. + 0
 703              		.type	name, %object
 704              		.size	name, 48
 705              	name:
 706 0000 00000000 		.space	48
 706      00000000 
 706      00000000 
 706      00000000 
 706      00000000 
 707              		.text
 708              	.Letext0:
 709              		.file 2 "/usr/include/newlib/machine/_default_types.h"
 710              		.file 3 "/usr/include/newlib/stdint.h"
 711              		.file 4 "../../fw/vexdigital.h"
 712              		.file 5 "../../fw/vexime.h"
 713              		.file 6 "../../../../ChibiOS_2.6.2/os/ports/common/ARMCMx/CMSIS/include/core_cm3.h"
 714              		.file 7 "../../fw/vexaudio.h"
 715              		.section	.debug_info,"",%progbits
 716              	.Ldebug_info0:
 717 0000 9A030000 		.4byte	0x39a
 718 0004 0400     		.2byte	0x4
 719 0006 00000000 		.4byte	.Ldebug_abbrev0
 720 000a 04       		.byte	0x4
 721 000b 01       		.uleb128 0x1
 722 000c FF000000 		.4byte	.LASF53
 723 0010 01       		.byte	0x1
 724 0011 EC000000 		.4byte	.LASF54
 725 0015 65030000 		.4byte	.LASF55
 726 0019 A0000000 		.4byte	.Ldebug_ranges0+0xa0
 727 001d 00000000 		.4byte	0
 728 0021 00000000 		.4byte	.Ldebug_line0
 729 0025 02       		.uleb128 0x2
 730 0026 04       		.byte	0x4
 731 0027 05       		.byte	0x5
 732 0028 696E7400 		.ascii	"int\000"
 733 002c 03       		.uleb128 0x3
 734 002d 04       		.byte	0x4
 735 002e 07       		.byte	0x7
ARM GAS  /tmp/cc5bcYEW.s 			page 14


 736 002f DC030000 		.4byte	.LASF0
 737 0033 03       		.uleb128 0x3
 738 0034 01       		.byte	0x1
 739 0035 06       		.byte	0x6
 740 0036 1C020000 		.4byte	.LASF1
 741 003a 03       		.uleb128 0x3
 742 003b 01       		.byte	0x1
 743 003c 08       		.byte	0x8
 744 003d 0E020000 		.4byte	.LASF2
 745 0041 03       		.uleb128 0x3
 746 0042 02       		.byte	0x2
 747 0043 05       		.byte	0x5
 748 0044 83000000 		.4byte	.LASF3
 749 0048 03       		.uleb128 0x3
 750 0049 02       		.byte	0x2
 751 004a 07       		.byte	0x7
 752 004b 83020000 		.4byte	.LASF4
 753 004f 04       		.uleb128 0x4
 754 0050 5B030000 		.4byte	.LASF9
 755 0054 02       		.byte	0x2
 756 0055 37       		.byte	0x37
 757 0056 5A000000 		.4byte	0x5a
 758 005a 03       		.uleb128 0x3
 759 005b 04       		.byte	0x4
 760 005c 05       		.byte	0x5
 761 005d DC010000 		.4byte	.LASF5
 762 0061 03       		.uleb128 0x3
 763 0062 04       		.byte	0x4
 764 0063 07       		.byte	0x7
 765 0064 2B030000 		.4byte	.LASF6
 766 0068 03       		.uleb128 0x3
 767 0069 08       		.byte	0x8
 768 006a 05       		.byte	0x5
 769 006b CE010000 		.4byte	.LASF7
 770 006f 03       		.uleb128 0x3
 771 0070 08       		.byte	0x8
 772 0071 07       		.byte	0x7
 773 0072 32020000 		.4byte	.LASF8
 774 0076 04       		.uleb128 0x4
 775 0077 B7020000 		.4byte	.LASF10
 776 007b 03       		.byte	0x3
 777 007c 41       		.byte	0x41
 778 007d 4F000000 		.4byte	0x4f
 779 0081 03       		.uleb128 0x3
 780 0082 01       		.byte	0x1
 781 0083 02       		.byte	0x2
 782 0084 13030000 		.4byte	.LASF11
 783 0088 03       		.uleb128 0x3
 784 0089 04       		.byte	0x4
 785 008a 07       		.byte	0x7
 786 008b 8D000000 		.4byte	.LASF12
 787 008f 03       		.uleb128 0x3
 788 0090 01       		.byte	0x1
 789 0091 08       		.byte	0x8
 790 0092 96020000 		.4byte	.LASF13
 791 0096 05       		.uleb128 0x5
 792 0097 76000000 		.4byte	0x76
ARM GAS  /tmp/cc5bcYEW.s 			page 15


 793 009b 06       		.uleb128 0x6
 794 009c 01       		.byte	0x1
 795 009d 04       		.byte	0x4
 796 009e 8D       		.byte	0x8d
 797 009f F8000000 		.4byte	0xf8
 798 00a3 07       		.uleb128 0x7
 799 00a4 00000000 		.4byte	.LASF14
 800 00a8 7F       		.sleb128 -1
 801 00a9 07       		.uleb128 0x7
 802 00aa 9B020000 		.4byte	.LASF15
 803 00ae 00       		.sleb128 0
 804 00af 07       		.uleb128 0x7
 805 00b0 A9020000 		.4byte	.LASF16
 806 00b4 01       		.sleb128 1
 807 00b5 07       		.uleb128 0x7
 808 00b6 4F020000 		.4byte	.LASF17
 809 00ba 02       		.sleb128 2
 810 00bb 07       		.uleb128 0x7
 811 00bc BF020000 		.4byte	.LASF18
 812 00c0 03       		.sleb128 3
 813 00c1 07       		.uleb128 0x7
 814 00c2 CD020000 		.4byte	.LASF19
 815 00c6 04       		.sleb128 4
 816 00c7 07       		.uleb128 0x7
 817 00c8 DB020000 		.4byte	.LASF20
 818 00cc 05       		.sleb128 5
 819 00cd 07       		.uleb128 0x7
 820 00ce E9020000 		.4byte	.LASF21
 821 00d2 06       		.sleb128 6
 822 00d3 07       		.uleb128 0x7
 823 00d4 F7020000 		.4byte	.LASF22
 824 00d8 07       		.sleb128 7
 825 00d9 07       		.uleb128 0x7
 826 00da 05030000 		.4byte	.LASF23
 827 00de 08       		.sleb128 8
 828 00df 07       		.uleb128 0x7
 829 00e0 9C010000 		.4byte	.LASF24
 830 00e4 09       		.sleb128 9
 831 00e5 07       		.uleb128 0x7
 832 00e6 AB010000 		.4byte	.LASF25
 833 00ea 0A       		.sleb128 10
 834 00eb 07       		.uleb128 0x7
 835 00ec BA010000 		.4byte	.LASF26
 836 00f0 0B       		.sleb128 11
 837 00f1 07       		.uleb128 0x7
 838 00f2 BA030000 		.4byte	.LASF27
 839 00f6 0C       		.sleb128 12
 840 00f7 00       		.byte	0
 841 00f8 06       		.uleb128 0x6
 842 00f9 01       		.byte	0x1
 843 00fa 04       		.byte	0x4
 844 00fb A2       		.byte	0xa2
 845 00fc 0D010000 		.4byte	0x10d
 846 0100 07       		.uleb128 0x7
 847 0101 EA010000 		.4byte	.LASF28
 848 0105 00       		.sleb128 0
 849 0106 07       		.uleb128 0x7
ARM GAS  /tmp/cc5bcYEW.s 			page 16


 850 0107 D4000000 		.4byte	.LASF29
 851 010b 01       		.sleb128 1
 852 010c 00       		.byte	0
 853 010d 06       		.uleb128 0x6
 854 010e 01       		.byte	0x1
 855 010f 05       		.byte	0x5
 856 0110 46       		.byte	0x46
 857 0111 53010000 		.4byte	0x153
 858 0115 07       		.uleb128 0x7
 859 0116 00020000 		.4byte	.LASF30
 860 011a 00       		.sleb128 0
 861 011b 07       		.uleb128 0x7
 862 011c 21000000 		.4byte	.LASF31
 863 0120 01       		.sleb128 1
 864 0121 07       		.uleb128 0x7
 865 0122 2F000000 		.4byte	.LASF32
 866 0126 02       		.sleb128 2
 867 0127 07       		.uleb128 0x7
 868 0128 3D000000 		.4byte	.LASF33
 869 012c 03       		.sleb128 3
 870 012d 07       		.uleb128 0x7
 871 012e 4B000000 		.4byte	.LASF34
 872 0132 04       		.sleb128 4
 873 0133 07       		.uleb128 0x7
 874 0134 59000000 		.4byte	.LASF35
 875 0138 05       		.sleb128 5
 876 0139 07       		.uleb128 0x7
 877 013a 67000000 		.4byte	.LASF36
 878 013e 06       		.sleb128 6
 879 013f 07       		.uleb128 0x7
 880 0140 75000000 		.4byte	.LASF37
 881 0144 07       		.sleb128 7
 882 0145 07       		.uleb128 0x7
 883 0146 96000000 		.4byte	.LASF38
 884 014a 08       		.sleb128 8
 885 014b 07       		.uleb128 0x7
 886 014c 11000000 		.4byte	.LASF39
 887 0150 E300     		.sleb128 99
 888 0152 00       		.byte	0
 889 0153 08       		.uleb128 0x8
 890 0154 04       		.byte	0x4
 891 0155 8F000000 		.4byte	0x8f
 892 0159 09       		.uleb128 0x9
 893 015a A9000000 		.4byte	.LASF56
 894 015e 01       		.byte	0x1
 895 015f 62       		.byte	0x62
 896 0160 25000000 		.4byte	0x25
 897 0164 01       		.byte	0x1
 898 0165 75010000 		.4byte	0x175
 899 0169 0A       		.uleb128 0xa
 900 016a E5010000 		.4byte	.LASF48
 901 016e 01       		.byte	0x1
 902 016f 62       		.byte	0x62
 903 0170 25000000 		.4byte	0x25
 904 0174 00       		.byte	0
 905 0175 0B       		.uleb128 0xb
 906 0176 19030000 		.4byte	.LASF57
ARM GAS  /tmp/cc5bcYEW.s 			page 17


 907 017a 01       		.byte	0x1
 908 017b 70       		.byte	0x70
 909 017c 53010000 		.4byte	0x153
 910 0180 00000000 		.4byte	.LFB64
 911 0184 26030000 		.4byte	.LFE64-.LFB64
 912 0188 01       		.uleb128 0x1
 913 0189 9C       		.byte	0x9c
 914 018a 0D030000 		.4byte	0x30d
 915 018e 0C       		.uleb128 0xc
 916 018f CA030000 		.4byte	.LASF40
 917 0193 01       		.byte	0x1
 918 0194 70       		.byte	0x70
 919 0195 53010000 		.4byte	0x153
 920 0199 00000000 		.4byte	.LLST0
 921 019d 0C       		.uleb128 0xc
 922 019e 28020000 		.4byte	.LASF41
 923 01a2 01       		.byte	0x1
 924 01a3 70       		.byte	0x70
 925 01a4 25000000 		.4byte	0x25
 926 01a8 3A000000 		.4byte	.LLST1
 927 01ac 0C       		.uleb128 0xc
 928 01ad B3000000 		.4byte	.LASF42
 929 01b1 01       		.byte	0x1
 930 01b2 70       		.byte	0x70
 931 01b3 25000000 		.4byte	0x25
 932 01b7 6E000000 		.4byte	.LLST2
 933 01bb 0D       		.uleb128 0xd
 934 01bc 7000     		.ascii	"p\000"
 935 01be 01       		.byte	0x1
 936 01bf 72       		.byte	0x72
 937 01c0 53010000 		.4byte	0x153
 938 01c4 A4000000 		.4byte	.LLST3
 939 01c8 0D       		.uleb128 0xd
 940 01c9 7100     		.ascii	"q\000"
 941 01cb 01       		.byte	0x1
 942 01cc 73       		.byte	0x73
 943 01cd 53010000 		.4byte	0x153
 944 01d1 66020000 		.4byte	.LLST4
 945 01d5 0E       		.uleb128 0xe
 946 01d6 7C020000 		.4byte	.LASF43
 947 01da 01       		.byte	0x1
 948 01db 74       		.byte	0x74
 949 01dc 25000000 		.4byte	0x25
 950 01e0 DF020000 		.4byte	.LLST5
 951 01e4 0E       		.uleb128 0xe
 952 01e5 A0000000 		.4byte	.LASF44
 953 01e9 01       		.byte	0x1
 954 01ea 75       		.byte	0x75
 955 01eb 25000000 		.4byte	0x25
 956 01ef 0A030000 		.4byte	.LLST6
 957 01f3 0D       		.uleb128 0xd
 958 01f4 62706D00 		.ascii	"bpm\000"
 959 01f8 01       		.byte	0x1
 960 01f9 76       		.byte	0x76
 961 01fa 25000000 		.4byte	0x25
 962 01fe 2A030000 		.4byte	.LLST7
 963 0202 0E       		.uleb128 0xe
ARM GAS  /tmp/cc5bcYEW.s 			page 18


 964 0203 55030000 		.4byte	.LASF45
 965 0207 01       		.byte	0x1
 966 0208 77       		.byte	0x77
 967 0209 25000000 		.4byte	0x25
 968 020d 78030000 		.4byte	.LLST8
 969 0211 0F       		.uleb128 0xf
 970 0212 00000000 		.4byte	.Ldebug_ranges0+0
 971 0216 39020000 		.4byte	0x239
 972 021a 0E       		.uleb128 0xe
 973 021b 76020000 		.4byte	.LASF46
 974 021f 01       		.byte	0x1
 975 0220 87       		.byte	0x87
 976 0221 8F000000 		.4byte	0x8f
 977 0225 D4030000 		.4byte	.LLST9
 978 0229 0E       		.uleb128 0xe
 979 022a E6000000 		.4byte	.LASF47
 980 022e 01       		.byte	0x1
 981 022f 88       		.byte	0x88
 982 0230 25000000 		.4byte	0x25
 983 0234 FD030000 		.4byte	.LLST10
 984 0238 00       		.byte	0
 985 0239 0F       		.uleb128 0xf
 986 023a 28000000 		.4byte	.Ldebug_ranges0+0x28
 987 023e D3020000 		.4byte	0x2d3
 988 0242 0E       		.uleb128 0xe
 989 0243 E5010000 		.4byte	.LASF48
 990 0247 01       		.byte	0x1
 991 0248 AF       		.byte	0xaf
 992 0249 25000000 		.4byte	0x25
 993 024d 33040000 		.4byte	.LLST11
 994 0251 0E       		.uleb128 0xe
 995 0252 49020000 		.4byte	.LASF49
 996 0256 01       		.byte	0x1
 997 0257 B0       		.byte	0xb0
 998 0258 25000000 		.4byte	0x25
 999 025c 9B040000 		.4byte	.LLST12
 1000 0260 0D       		.uleb128 0xd
 1001 0261 64757200 		.ascii	"dur\000"
 1002 0265 01       		.byte	0x1
 1003 0266 B1       		.byte	0xb1
 1004 0267 25000000 		.4byte	0x25
 1005 026b C6040000 		.4byte	.LLST13
 1006 026f 0D       		.uleb128 0xd
 1007 0270 6D7300   		.ascii	"ms\000"
 1008 0273 01       		.byte	0x1
 1009 0274 B2       		.byte	0xb2
 1010 0275 25000000 		.4byte	0x25
 1011 0279 EF040000 		.4byte	.LLST14
 1012 027d 0E       		.uleb128 0xe
 1013 027e C9010000 		.4byte	.LASF50
 1014 0282 01       		.byte	0x1
 1015 0283 B3       		.byte	0xb3
 1016 0284 25000000 		.4byte	0x25
 1017 0288 02050000 		.4byte	.LLST15
 1018 028c 10       		.uleb128 0x10
 1019 028d 59010000 		.4byte	0x159
 1020 0291 20010000 		.4byte	.LBB10
ARM GAS  /tmp/cc5bcYEW.s 			page 19


 1021 0295 58000000 		.4byte	.Ldebug_ranges0+0x58
 1022 0299 01       		.byte	0x1
 1023 029a F6       		.byte	0xf6
 1024 029b A9020000 		.4byte	0x2a9
 1025 029f 11       		.uleb128 0x11
 1026 02a0 69010000 		.4byte	0x169
 1027 02a4 15050000 		.4byte	.LLST16
 1028 02a8 00       		.byte	0
 1029 02a9 0F       		.uleb128 0xf
 1030 02aa 78000000 		.4byte	.Ldebug_ranges0+0x78
 1031 02ae C2020000 		.4byte	0x2c2
 1032 02b2 0E       		.uleb128 0xe
 1033 02b3 E6000000 		.4byte	.LASF47
 1034 02b7 01       		.byte	0x1
 1035 02b8 BC       		.byte	0xbc
 1036 02b9 25000000 		.4byte	0x25
 1037 02bd 28050000 		.4byte	.LLST17
 1038 02c1 00       		.byte	0
 1039 02c2 12       		.uleb128 0x12
 1040 02c3 D6020000 		.4byte	.LVL73
 1041 02c7 60030000 		.4byte	0x360
 1042 02cb 13       		.uleb128 0x13
 1043 02cc 01       		.uleb128 0x1
 1044 02cd 51       		.byte	0x51
 1045 02ce 02       		.uleb128 0x2
 1046 02cf 77       		.byte	0x77
 1047 02d0 00       		.sleb128 0
 1048 02d1 00       		.byte	0
 1049 02d2 00       		.byte	0
 1050 02d3 14       		.uleb128 0x14
 1051 02d4 16010000 		.4byte	.LVL31
 1052 02d8 7B030000 		.4byte	0x37b
 1053 02dc 15       		.uleb128 0x15
 1054 02dd EA020000 		.4byte	.LVL74
 1055 02e1 60030000 		.4byte	0x360
 1056 02e5 FB020000 		.4byte	0x2fb
 1057 02e9 13       		.uleb128 0x13
 1058 02ea 01       		.uleb128 0x1
 1059 02eb 52       		.byte	0x52
 1060 02ec 03       		.uleb128 0x3
 1061 02ed 0A       		.byte	0xa
 1062 02ee F401     		.2byte	0x1f4
 1063 02f0 13       		.uleb128 0x13
 1064 02f1 01       		.uleb128 0x1
 1065 02f2 51       		.byte	0x51
 1066 02f3 01       		.uleb128 0x1
 1067 02f4 30       		.byte	0x30
 1068 02f5 13       		.uleb128 0x13
 1069 02f6 01       		.uleb128 0x1
 1070 02f7 50       		.byte	0x50
 1071 02f8 01       		.uleb128 0x1
 1072 02f9 30       		.byte	0x30
 1073 02fa 00       		.byte	0
 1074 02fb 12       		.uleb128 0x12
 1075 02fc F0020000 		.4byte	.LVL75
 1076 0300 90030000 		.4byte	0x390
 1077 0304 13       		.uleb128 0x13
ARM GAS  /tmp/cc5bcYEW.s 			page 20


 1078 0305 01       		.uleb128 0x1
 1079 0306 50       		.byte	0x50
 1080 0307 03       		.uleb128 0x3
 1081 0308 91       		.byte	0x91
 1082 0309 54       		.sleb128 -44
 1083 030a 06       		.byte	0x6
 1084 030b 00       		.byte	0
 1085 030c 00       		.byte	0
 1086 030d 16       		.uleb128 0x16
 1087 030e 25000000 		.4byte	0x25
 1088 0312 1D030000 		.4byte	0x31d
 1089 0316 17       		.uleb128 0x17
 1090 0317 88000000 		.4byte	0x88
 1091 031b 0B       		.byte	0xb
 1092 031c 00       		.byte	0
 1093 031d 18       		.uleb128 0x18
 1094 031e E9030000 		.4byte	.LASF51
 1095 0322 01       		.byte	0x1
 1096 0323 5C       		.byte	0x5c
 1097 0324 2E030000 		.4byte	0x32e
 1098 0328 05       		.uleb128 0x5
 1099 0329 03       		.byte	0x3
 1100 032a 00000000 		.4byte	notefreq
 1101 032e 19       		.uleb128 0x19
 1102 032f 0D030000 		.4byte	0x30d
 1103 0333 16       		.uleb128 0x16
 1104 0334 8F000000 		.4byte	0x8f
 1105 0338 43030000 		.4byte	0x343
 1106 033c 17       		.uleb128 0x17
 1107 033d 88000000 		.4byte	0x88
 1108 0341 2F       		.byte	0x2f
 1109 0342 00       		.byte	0
 1110 0343 18       		.uleb128 0x18
 1111 0344 FB010000 		.4byte	.LASF52
 1112 0348 01       		.byte	0x1
 1113 0349 5F       		.byte	0x5f
 1114 034a 33030000 		.4byte	0x333
 1115 034e 05       		.uleb128 0x5
 1116 034f 03       		.byte	0x3
 1117 0350 00000000 		.4byte	name
 1118 0354 1A       		.uleb128 0x1a
 1119 0355 CF030000 		.4byte	.LASF58
 1120 0359 06       		.byte	0x6
 1121 035a 0706     		.2byte	0x607
 1122 035c 96000000 		.4byte	0x96
 1123 0360 1B       		.uleb128 0x1b
 1124 0361 3D030000 		.4byte	.LASF59
 1125 0365 07       		.byte	0x7
 1126 0366 4C       		.byte	0x4c
 1127 0367 7B030000 		.4byte	0x37b
 1128 036b 1C       		.uleb128 0x1c
 1129 036c 25000000 		.4byte	0x25
 1130 0370 1C       		.uleb128 0x1c
 1131 0371 25000000 		.4byte	0x25
 1132 0375 1C       		.uleb128 0x1c
 1133 0376 25000000 		.4byte	0x25
 1134 037a 00       		.byte	0
ARM GAS  /tmp/cc5bcYEW.s 			page 21


 1135 037b 1D       		.uleb128 0x1d
 1136 037c 5D020000 		.4byte	.LASF60
 1137 0380 07       		.byte	0x7
 1138 0381 48       		.byte	0x48
 1139 0382 25000000 		.4byte	0x25
 1140 0386 90030000 		.4byte	0x390
 1141 038a 1C       		.uleb128 0x1c
 1142 038b 25000000 		.4byte	0x25
 1143 038f 00       		.byte	0
 1144 0390 1E       		.uleb128 0x1e
 1145 0391 BA000000 		.4byte	.LASF61
 1146 0395 07       		.byte	0x7
 1147 0396 4A       		.byte	0x4a
 1148 0397 1C       		.uleb128 0x1c
 1149 0398 25000000 		.4byte	0x25
 1150 039c 00       		.byte	0
 1151 039d 00       		.byte	0
 1152              		.section	.debug_abbrev,"",%progbits
 1153              	.Ldebug_abbrev0:
 1154 0000 01       		.uleb128 0x1
 1155 0001 11       		.uleb128 0x11
 1156 0002 01       		.byte	0x1
 1157 0003 25       		.uleb128 0x25
 1158 0004 0E       		.uleb128 0xe
 1159 0005 13       		.uleb128 0x13
 1160 0006 0B       		.uleb128 0xb
 1161 0007 03       		.uleb128 0x3
 1162 0008 0E       		.uleb128 0xe
 1163 0009 1B       		.uleb128 0x1b
 1164 000a 0E       		.uleb128 0xe
 1165 000b 55       		.uleb128 0x55
 1166 000c 17       		.uleb128 0x17
 1167 000d 11       		.uleb128 0x11
 1168 000e 01       		.uleb128 0x1
 1169 000f 10       		.uleb128 0x10
 1170 0010 17       		.uleb128 0x17
 1171 0011 00       		.byte	0
 1172 0012 00       		.byte	0
 1173 0013 02       		.uleb128 0x2
 1174 0014 24       		.uleb128 0x24
 1175 0015 00       		.byte	0
 1176 0016 0B       		.uleb128 0xb
 1177 0017 0B       		.uleb128 0xb
 1178 0018 3E       		.uleb128 0x3e
 1179 0019 0B       		.uleb128 0xb
 1180 001a 03       		.uleb128 0x3
 1181 001b 08       		.uleb128 0x8
 1182 001c 00       		.byte	0
 1183 001d 00       		.byte	0
 1184 001e 03       		.uleb128 0x3
 1185 001f 24       		.uleb128 0x24
 1186 0020 00       		.byte	0
 1187 0021 0B       		.uleb128 0xb
 1188 0022 0B       		.uleb128 0xb
 1189 0023 3E       		.uleb128 0x3e
 1190 0024 0B       		.uleb128 0xb
 1191 0025 03       		.uleb128 0x3
ARM GAS  /tmp/cc5bcYEW.s 			page 22


 1192 0026 0E       		.uleb128 0xe
 1193 0027 00       		.byte	0
 1194 0028 00       		.byte	0
 1195 0029 04       		.uleb128 0x4
 1196 002a 16       		.uleb128 0x16
 1197 002b 00       		.byte	0
 1198 002c 03       		.uleb128 0x3
 1199 002d 0E       		.uleb128 0xe
 1200 002e 3A       		.uleb128 0x3a
 1201 002f 0B       		.uleb128 0xb
 1202 0030 3B       		.uleb128 0x3b
 1203 0031 0B       		.uleb128 0xb
 1204 0032 49       		.uleb128 0x49
 1205 0033 13       		.uleb128 0x13
 1206 0034 00       		.byte	0
 1207 0035 00       		.byte	0
 1208 0036 05       		.uleb128 0x5
 1209 0037 35       		.uleb128 0x35
 1210 0038 00       		.byte	0
 1211 0039 49       		.uleb128 0x49
 1212 003a 13       		.uleb128 0x13
 1213 003b 00       		.byte	0
 1214 003c 00       		.byte	0
 1215 003d 06       		.uleb128 0x6
 1216 003e 04       		.uleb128 0x4
 1217 003f 01       		.byte	0x1
 1218 0040 0B       		.uleb128 0xb
 1219 0041 0B       		.uleb128 0xb
 1220 0042 3A       		.uleb128 0x3a
 1221 0043 0B       		.uleb128 0xb
 1222 0044 3B       		.uleb128 0x3b
 1223 0045 0B       		.uleb128 0xb
 1224 0046 01       		.uleb128 0x1
 1225 0047 13       		.uleb128 0x13
 1226 0048 00       		.byte	0
 1227 0049 00       		.byte	0
 1228 004a 07       		.uleb128 0x7
 1229 004b 28       		.uleb128 0x28
 1230 004c 00       		.byte	0
 1231 004d 03       		.uleb128 0x3
 1232 004e 0E       		.uleb128 0xe
 1233 004f 1C       		.uleb128 0x1c
 1234 0050 0D       		.uleb128 0xd
 1235 0051 00       		.byte	0
 1236 0052 00       		.byte	0
 1237 0053 08       		.uleb128 0x8
 1238 0054 0F       		.uleb128 0xf
 1239 0055 00       		.byte	0
 1240 0056 0B       		.uleb128 0xb
 1241 0057 0B       		.uleb128 0xb
 1242 0058 49       		.uleb128 0x49
 1243 0059 13       		.uleb128 0x13
 1244 005a 00       		.byte	0
 1245 005b 00       		.byte	0
 1246 005c 09       		.uleb128 0x9
 1247 005d 2E       		.uleb128 0x2e
 1248 005e 01       		.byte	0x1
ARM GAS  /tmp/cc5bcYEW.s 			page 23


 1249 005f 03       		.uleb128 0x3
 1250 0060 0E       		.uleb128 0xe
 1251 0061 3A       		.uleb128 0x3a
 1252 0062 0B       		.uleb128 0xb
 1253 0063 3B       		.uleb128 0x3b
 1254 0064 0B       		.uleb128 0xb
 1255 0065 27       		.uleb128 0x27
 1256 0066 19       		.uleb128 0x19
 1257 0067 49       		.uleb128 0x49
 1258 0068 13       		.uleb128 0x13
 1259 0069 20       		.uleb128 0x20
 1260 006a 0B       		.uleb128 0xb
 1261 006b 01       		.uleb128 0x1
 1262 006c 13       		.uleb128 0x13
 1263 006d 00       		.byte	0
 1264 006e 00       		.byte	0
 1265 006f 0A       		.uleb128 0xa
 1266 0070 05       		.uleb128 0x5
 1267 0071 00       		.byte	0
 1268 0072 03       		.uleb128 0x3
 1269 0073 0E       		.uleb128 0xe
 1270 0074 3A       		.uleb128 0x3a
 1271 0075 0B       		.uleb128 0xb
 1272 0076 3B       		.uleb128 0x3b
 1273 0077 0B       		.uleb128 0xb
 1274 0078 49       		.uleb128 0x49
 1275 0079 13       		.uleb128 0x13
 1276 007a 00       		.byte	0
 1277 007b 00       		.byte	0
 1278 007c 0B       		.uleb128 0xb
 1279 007d 2E       		.uleb128 0x2e
 1280 007e 01       		.byte	0x1
 1281 007f 3F       		.uleb128 0x3f
 1282 0080 19       		.uleb128 0x19
 1283 0081 03       		.uleb128 0x3
 1284 0082 0E       		.uleb128 0xe
 1285 0083 3A       		.uleb128 0x3a
 1286 0084 0B       		.uleb128 0xb
 1287 0085 3B       		.uleb128 0x3b
 1288 0086 0B       		.uleb128 0xb
 1289 0087 27       		.uleb128 0x27
 1290 0088 19       		.uleb128 0x19
 1291 0089 49       		.uleb128 0x49
 1292 008a 13       		.uleb128 0x13
 1293 008b 11       		.uleb128 0x11
 1294 008c 01       		.uleb128 0x1
 1295 008d 12       		.uleb128 0x12
 1296 008e 06       		.uleb128 0x6
 1297 008f 40       		.uleb128 0x40
 1298 0090 18       		.uleb128 0x18
 1299 0091 9742     		.uleb128 0x2117
 1300 0093 19       		.uleb128 0x19
 1301 0094 01       		.uleb128 0x1
 1302 0095 13       		.uleb128 0x13
 1303 0096 00       		.byte	0
 1304 0097 00       		.byte	0
 1305 0098 0C       		.uleb128 0xc
ARM GAS  /tmp/cc5bcYEW.s 			page 24


 1306 0099 05       		.uleb128 0x5
 1307 009a 00       		.byte	0
 1308 009b 03       		.uleb128 0x3
 1309 009c 0E       		.uleb128 0xe
 1310 009d 3A       		.uleb128 0x3a
 1311 009e 0B       		.uleb128 0xb
 1312 009f 3B       		.uleb128 0x3b
 1313 00a0 0B       		.uleb128 0xb
 1314 00a1 49       		.uleb128 0x49
 1315 00a2 13       		.uleb128 0x13
 1316 00a3 02       		.uleb128 0x2
 1317 00a4 17       		.uleb128 0x17
 1318 00a5 00       		.byte	0
 1319 00a6 00       		.byte	0
 1320 00a7 0D       		.uleb128 0xd
 1321 00a8 34       		.uleb128 0x34
 1322 00a9 00       		.byte	0
 1323 00aa 03       		.uleb128 0x3
 1324 00ab 08       		.uleb128 0x8
 1325 00ac 3A       		.uleb128 0x3a
 1326 00ad 0B       		.uleb128 0xb
 1327 00ae 3B       		.uleb128 0x3b
 1328 00af 0B       		.uleb128 0xb
 1329 00b0 49       		.uleb128 0x49
 1330 00b1 13       		.uleb128 0x13
 1331 00b2 02       		.uleb128 0x2
 1332 00b3 17       		.uleb128 0x17
 1333 00b4 00       		.byte	0
 1334 00b5 00       		.byte	0
 1335 00b6 0E       		.uleb128 0xe
 1336 00b7 34       		.uleb128 0x34
 1337 00b8 00       		.byte	0
 1338 00b9 03       		.uleb128 0x3
 1339 00ba 0E       		.uleb128 0xe
 1340 00bb 3A       		.uleb128 0x3a
 1341 00bc 0B       		.uleb128 0xb
 1342 00bd 3B       		.uleb128 0x3b
 1343 00be 0B       		.uleb128 0xb
 1344 00bf 49       		.uleb128 0x49
 1345 00c0 13       		.uleb128 0x13
 1346 00c1 02       		.uleb128 0x2
 1347 00c2 17       		.uleb128 0x17
 1348 00c3 00       		.byte	0
 1349 00c4 00       		.byte	0
 1350 00c5 0F       		.uleb128 0xf
 1351 00c6 0B       		.uleb128 0xb
 1352 00c7 01       		.byte	0x1
 1353 00c8 55       		.uleb128 0x55
 1354 00c9 17       		.uleb128 0x17
 1355 00ca 01       		.uleb128 0x1
 1356 00cb 13       		.uleb128 0x13
 1357 00cc 00       		.byte	0
 1358 00cd 00       		.byte	0
 1359 00ce 10       		.uleb128 0x10
 1360 00cf 1D       		.uleb128 0x1d
 1361 00d0 01       		.byte	0x1
 1362 00d1 31       		.uleb128 0x31
ARM GAS  /tmp/cc5bcYEW.s 			page 25


 1363 00d2 13       		.uleb128 0x13
 1364 00d3 52       		.uleb128 0x52
 1365 00d4 01       		.uleb128 0x1
 1366 00d5 55       		.uleb128 0x55
 1367 00d6 17       		.uleb128 0x17
 1368 00d7 58       		.uleb128 0x58
 1369 00d8 0B       		.uleb128 0xb
 1370 00d9 59       		.uleb128 0x59
 1371 00da 0B       		.uleb128 0xb
 1372 00db 01       		.uleb128 0x1
 1373 00dc 13       		.uleb128 0x13
 1374 00dd 00       		.byte	0
 1375 00de 00       		.byte	0
 1376 00df 11       		.uleb128 0x11
 1377 00e0 05       		.uleb128 0x5
 1378 00e1 00       		.byte	0
 1379 00e2 31       		.uleb128 0x31
 1380 00e3 13       		.uleb128 0x13
 1381 00e4 02       		.uleb128 0x2
 1382 00e5 17       		.uleb128 0x17
 1383 00e6 00       		.byte	0
 1384 00e7 00       		.byte	0
 1385 00e8 12       		.uleb128 0x12
 1386 00e9 898201   		.uleb128 0x4109
 1387 00ec 01       		.byte	0x1
 1388 00ed 11       		.uleb128 0x11
 1389 00ee 01       		.uleb128 0x1
 1390 00ef 31       		.uleb128 0x31
 1391 00f0 13       		.uleb128 0x13
 1392 00f1 00       		.byte	0
 1393 00f2 00       		.byte	0
 1394 00f3 13       		.uleb128 0x13
 1395 00f4 8A8201   		.uleb128 0x410a
 1396 00f7 00       		.byte	0
 1397 00f8 02       		.uleb128 0x2
 1398 00f9 18       		.uleb128 0x18
 1399 00fa 9142     		.uleb128 0x2111
 1400 00fc 18       		.uleb128 0x18
 1401 00fd 00       		.byte	0
 1402 00fe 00       		.byte	0
 1403 00ff 14       		.uleb128 0x14
 1404 0100 898201   		.uleb128 0x4109
 1405 0103 00       		.byte	0
 1406 0104 11       		.uleb128 0x11
 1407 0105 01       		.uleb128 0x1
 1408 0106 31       		.uleb128 0x31
 1409 0107 13       		.uleb128 0x13
 1410 0108 00       		.byte	0
 1411 0109 00       		.byte	0
 1412 010a 15       		.uleb128 0x15
 1413 010b 898201   		.uleb128 0x4109
 1414 010e 01       		.byte	0x1
 1415 010f 11       		.uleb128 0x11
 1416 0110 01       		.uleb128 0x1
 1417 0111 31       		.uleb128 0x31
 1418 0112 13       		.uleb128 0x13
 1419 0113 01       		.uleb128 0x1
ARM GAS  /tmp/cc5bcYEW.s 			page 26


 1420 0114 13       		.uleb128 0x13
 1421 0115 00       		.byte	0
 1422 0116 00       		.byte	0
 1423 0117 16       		.uleb128 0x16
 1424 0118 01       		.uleb128 0x1
 1425 0119 01       		.byte	0x1
 1426 011a 49       		.uleb128 0x49
 1427 011b 13       		.uleb128 0x13
 1428 011c 01       		.uleb128 0x1
 1429 011d 13       		.uleb128 0x13
 1430 011e 00       		.byte	0
 1431 011f 00       		.byte	0
 1432 0120 17       		.uleb128 0x17
 1433 0121 21       		.uleb128 0x21
 1434 0122 00       		.byte	0
 1435 0123 49       		.uleb128 0x49
 1436 0124 13       		.uleb128 0x13
 1437 0125 2F       		.uleb128 0x2f
 1438 0126 0B       		.uleb128 0xb
 1439 0127 00       		.byte	0
 1440 0128 00       		.byte	0
 1441 0129 18       		.uleb128 0x18
 1442 012a 34       		.uleb128 0x34
 1443 012b 00       		.byte	0
 1444 012c 03       		.uleb128 0x3
 1445 012d 0E       		.uleb128 0xe
 1446 012e 3A       		.uleb128 0x3a
 1447 012f 0B       		.uleb128 0xb
 1448 0130 3B       		.uleb128 0x3b
 1449 0131 0B       		.uleb128 0xb
 1450 0132 49       		.uleb128 0x49
 1451 0133 13       		.uleb128 0x13
 1452 0134 02       		.uleb128 0x2
 1453 0135 18       		.uleb128 0x18
 1454 0136 00       		.byte	0
 1455 0137 00       		.byte	0
 1456 0138 19       		.uleb128 0x19
 1457 0139 26       		.uleb128 0x26
 1458 013a 00       		.byte	0
 1459 013b 49       		.uleb128 0x49
 1460 013c 13       		.uleb128 0x13
 1461 013d 00       		.byte	0
 1462 013e 00       		.byte	0
 1463 013f 1A       		.uleb128 0x1a
 1464 0140 34       		.uleb128 0x34
 1465 0141 00       		.byte	0
 1466 0142 03       		.uleb128 0x3
 1467 0143 0E       		.uleb128 0xe
 1468 0144 3A       		.uleb128 0x3a
 1469 0145 0B       		.uleb128 0xb
 1470 0146 3B       		.uleb128 0x3b
 1471 0147 05       		.uleb128 0x5
 1472 0148 49       		.uleb128 0x49
 1473 0149 13       		.uleb128 0x13
 1474 014a 3F       		.uleb128 0x3f
 1475 014b 19       		.uleb128 0x19
 1476 014c 3C       		.uleb128 0x3c
ARM GAS  /tmp/cc5bcYEW.s 			page 27


 1477 014d 19       		.uleb128 0x19
 1478 014e 00       		.byte	0
 1479 014f 00       		.byte	0
 1480 0150 1B       		.uleb128 0x1b
 1481 0151 2E       		.uleb128 0x2e
 1482 0152 01       		.byte	0x1
 1483 0153 3F       		.uleb128 0x3f
 1484 0154 19       		.uleb128 0x19
 1485 0155 03       		.uleb128 0x3
 1486 0156 0E       		.uleb128 0xe
 1487 0157 3A       		.uleb128 0x3a
 1488 0158 0B       		.uleb128 0xb
 1489 0159 3B       		.uleb128 0x3b
 1490 015a 0B       		.uleb128 0xb
 1491 015b 27       		.uleb128 0x27
 1492 015c 19       		.uleb128 0x19
 1493 015d 3C       		.uleb128 0x3c
 1494 015e 19       		.uleb128 0x19
 1495 015f 01       		.uleb128 0x1
 1496 0160 13       		.uleb128 0x13
 1497 0161 00       		.byte	0
 1498 0162 00       		.byte	0
 1499 0163 1C       		.uleb128 0x1c
 1500 0164 05       		.uleb128 0x5
 1501 0165 00       		.byte	0
 1502 0166 49       		.uleb128 0x49
 1503 0167 13       		.uleb128 0x13
 1504 0168 00       		.byte	0
 1505 0169 00       		.byte	0
 1506 016a 1D       		.uleb128 0x1d
 1507 016b 2E       		.uleb128 0x2e
 1508 016c 01       		.byte	0x1
 1509 016d 3F       		.uleb128 0x3f
 1510 016e 19       		.uleb128 0x19
 1511 016f 03       		.uleb128 0x3
 1512 0170 0E       		.uleb128 0xe
 1513 0171 3A       		.uleb128 0x3a
 1514 0172 0B       		.uleb128 0xb
 1515 0173 3B       		.uleb128 0x3b
 1516 0174 0B       		.uleb128 0xb
 1517 0175 27       		.uleb128 0x27
 1518 0176 19       		.uleb128 0x19
 1519 0177 49       		.uleb128 0x49
 1520 0178 13       		.uleb128 0x13
 1521 0179 3C       		.uleb128 0x3c
 1522 017a 19       		.uleb128 0x19
 1523 017b 01       		.uleb128 0x1
 1524 017c 13       		.uleb128 0x13
 1525 017d 00       		.byte	0
 1526 017e 00       		.byte	0
 1527 017f 1E       		.uleb128 0x1e
 1528 0180 2E       		.uleb128 0x2e
 1529 0181 01       		.byte	0x1
 1530 0182 3F       		.uleb128 0x3f
 1531 0183 19       		.uleb128 0x19
 1532 0184 03       		.uleb128 0x3
 1533 0185 0E       		.uleb128 0xe
ARM GAS  /tmp/cc5bcYEW.s 			page 28


 1534 0186 3A       		.uleb128 0x3a
 1535 0187 0B       		.uleb128 0xb
 1536 0188 3B       		.uleb128 0x3b
 1537 0189 0B       		.uleb128 0xb
 1538 018a 27       		.uleb128 0x27
 1539 018b 19       		.uleb128 0x19
 1540 018c 3C       		.uleb128 0x3c
 1541 018d 19       		.uleb128 0x19
 1542 018e 00       		.byte	0
 1543 018f 00       		.byte	0
 1544 0190 00       		.byte	0
 1545              		.section	.debug_loc,"",%progbits
 1546              	.Ldebug_loc0:
 1547              	.LLST0:
 1548 0000 00000000 		.4byte	.LVL0
 1549 0004 1A000000 		.4byte	.LVL2
 1550 0008 0100     		.2byte	0x1
 1551 000a 50       		.byte	0x50
 1552 000b 1A000000 		.4byte	.LVL2
 1553 000f 18030000 		.4byte	.LVL83
 1554 0013 0400     		.2byte	0x4
 1555 0015 F3       		.byte	0xf3
 1556 0016 01       		.uleb128 0x1
 1557 0017 50       		.byte	0x50
 1558 0018 9F       		.byte	0x9f
 1559 0019 18030000 		.4byte	.LVL83
 1560 001d 22030000 		.4byte	.LVL84
 1561 0021 0100     		.2byte	0x1
 1562 0023 50       		.byte	0x50
 1563 0024 22030000 		.4byte	.LVL84
 1564 0028 26030000 		.4byte	.LFE64
 1565 002c 0400     		.2byte	0x4
 1566 002e F3       		.byte	0xf3
 1567 002f 01       		.uleb128 0x1
 1568 0030 50       		.byte	0x50
 1569 0031 9F       		.byte	0x9f
 1570 0032 00000000 		.4byte	0
 1571 0036 00000000 		.4byte	0
 1572              	.LLST1:
 1573 003a 00000000 		.4byte	.LVL0
 1574 003e 1A000000 		.4byte	.LVL2
 1575 0042 0100     		.2byte	0x1
 1576 0044 51       		.byte	0x51
 1577 0045 1A000000 		.4byte	.LVL2
 1578 0049 18030000 		.4byte	.LVL83
 1579 004d 0100     		.2byte	0x1
 1580 004f 57       		.byte	0x57
 1581 0050 18030000 		.4byte	.LVL83
 1582 0054 22030000 		.4byte	.LVL84
 1583 0058 0100     		.2byte	0x1
 1584 005a 51       		.byte	0x51
 1585 005b 22030000 		.4byte	.LVL84
 1586 005f 26030000 		.4byte	.LFE64
 1587 0063 0100     		.2byte	0x1
 1588 0065 57       		.byte	0x57
 1589 0066 00000000 		.4byte	0
 1590 006a 00000000 		.4byte	0
ARM GAS  /tmp/cc5bcYEW.s 			page 29


 1591              	.LLST2:
 1592 006e 00000000 		.4byte	.LVL0
 1593 0072 18000000 		.4byte	.LVL1
 1594 0076 0100     		.2byte	0x1
 1595 0078 52       		.byte	0x52
 1596 0079 18000000 		.4byte	.LVL1
 1597 007d 18030000 		.4byte	.LVL83
 1598 0081 0200     		.2byte	0x2
 1599 0083 91       		.byte	0x91
 1600 0084 54       		.sleb128 -44
 1601 0085 18030000 		.4byte	.LVL83
 1602 0089 22030000 		.4byte	.LVL84
 1603 008d 0100     		.2byte	0x1
 1604 008f 52       		.byte	0x52
 1605 0090 22030000 		.4byte	.LVL84
 1606 0094 26030000 		.4byte	.LFE64
 1607 0098 0200     		.2byte	0x2
 1608 009a 91       		.byte	0x91
 1609 009b 54       		.sleb128 -44
 1610 009c 00000000 		.4byte	0
 1611 00a0 00000000 		.4byte	0
 1612              	.LLST3:
 1613 00a4 00000000 		.4byte	.LVL0
 1614 00a8 1A000000 		.4byte	.LVL2
 1615 00ac 0100     		.2byte	0x1
 1616 00ae 50       		.byte	0x50
 1617 00af 42000000 		.4byte	.LVL6
 1618 00b3 5E000000 		.4byte	.LVL8
 1619 00b7 0100     		.2byte	0x1
 1620 00b9 58       		.byte	0x58
 1621 00ba 5E000000 		.4byte	.LVL8
 1622 00be 62000000 		.4byte	.LVL9
 1623 00c2 0300     		.2byte	0x3
 1624 00c4 73       		.byte	0x73
 1625 00c5 7F       		.sleb128 -1
 1626 00c6 9F       		.byte	0x9f
 1627 00c7 62000000 		.4byte	.LVL9
 1628 00cb 68000000 		.4byte	.LVL10
 1629 00cf 0100     		.2byte	0x1
 1630 00d1 53       		.byte	0x53
 1631 00d2 68000000 		.4byte	.LVL10
 1632 00d6 74000000 		.4byte	.LVL11
 1633 00da 0100     		.2byte	0x1
 1634 00dc 58       		.byte	0x58
 1635 00dd 74000000 		.4byte	.LVL11
 1636 00e1 86000000 		.4byte	.LVL12
 1637 00e5 0300     		.2byte	0x3
 1638 00e7 78       		.byte	0x78
 1639 00e8 01       		.sleb128 1
 1640 00e9 9F       		.byte	0x9f
 1641 00ea 86000000 		.4byte	.LVL12
 1642 00ee 96000000 		.4byte	.LVL13
 1643 00f2 0100     		.2byte	0x1
 1644 00f4 50       		.byte	0x50
 1645 00f5 96000000 		.4byte	.LVL13
 1646 00f9 98000000 		.4byte	.LVL14
 1647 00fd 0300     		.2byte	0x3
ARM GAS  /tmp/cc5bcYEW.s 			page 30


 1648 00ff 78       		.byte	0x78
 1649 0100 02       		.sleb128 2
 1650 0101 9F       		.byte	0x9f
 1651 0102 98000000 		.4byte	.LVL14
 1652 0106 9A000000 		.4byte	.LVL15
 1653 010a 0300     		.2byte	0x3
 1654 010c 70       		.byte	0x70
 1655 010d 7F       		.sleb128 -1
 1656 010e 9F       		.byte	0x9f
 1657 010f 9A000000 		.4byte	.LVL15
 1658 0113 9E000000 		.4byte	.LVL16
 1659 0117 0100     		.2byte	0x1
 1660 0119 50       		.byte	0x50
 1661 011a 9E000000 		.4byte	.LVL16
 1662 011e A6000000 		.4byte	.LVL18
 1663 0122 0100     		.2byte	0x1
 1664 0124 58       		.byte	0x58
 1665 0125 C8000000 		.4byte	.LVL20
 1666 0129 D0000000 		.4byte	.LVL21
 1667 012d 0100     		.2byte	0x1
 1668 012f 58       		.byte	0x58
 1669 0130 D0000000 		.4byte	.LVL21
 1670 0134 D2000000 		.4byte	.LVL22
 1671 0138 0300     		.2byte	0x3
 1672 013a 72       		.byte	0x72
 1673 013b 7F       		.sleb128 -1
 1674 013c 9F       		.byte	0x9f
 1675 013d D2000000 		.4byte	.LVL22
 1676 0141 D6000000 		.4byte	.LVL23
 1677 0145 0100     		.2byte	0x1
 1678 0147 52       		.byte	0x52
 1679 0148 D6000000 		.4byte	.LVL23
 1680 014c F2000000 		.4byte	.LVL26
 1681 0150 0100     		.2byte	0x1
 1682 0152 58       		.byte	0x58
 1683 0153 F2000000 		.4byte	.LVL26
 1684 0157 3E010000 		.4byte	.LVL33
 1685 015b 0100     		.2byte	0x1
 1686 015d 54       		.byte	0x54
 1687 015e 3E010000 		.4byte	.LVL33
 1688 0162 40010000 		.4byte	.LVL34
 1689 0166 0300     		.2byte	0x3
 1690 0168 73       		.byte	0x73
 1691 0169 7F       		.sleb128 -1
 1692 016a 9F       		.byte	0x9f
 1693 016b 40010000 		.4byte	.LVL34
 1694 016f 44010000 		.4byte	.LVL35
 1695 0173 0100     		.2byte	0x1
 1696 0175 53       		.byte	0x53
 1697 0176 44010000 		.4byte	.LVL35
 1698 017a 6A010000 		.4byte	.LVL37
 1699 017e 0100     		.2byte	0x1
 1700 0180 54       		.byte	0x54
 1701 0181 6A010000 		.4byte	.LVL37
 1702 0185 6C010000 		.4byte	.LVL38
 1703 0189 0300     		.2byte	0x3
 1704 018b 71       		.byte	0x71
ARM GAS  /tmp/cc5bcYEW.s 			page 31


 1705 018c 7F       		.sleb128 -1
 1706 018d 9F       		.byte	0x9f
 1707 018e 6C010000 		.4byte	.LVL38
 1708 0192 70010000 		.4byte	.LVL39
 1709 0196 0100     		.2byte	0x1
 1710 0198 51       		.byte	0x51
 1711 0199 70010000 		.4byte	.LVL39
 1712 019d 78010000 		.4byte	.LVL41
 1713 01a1 0100     		.2byte	0x1
 1714 01a3 54       		.byte	0x54
 1715 01a4 8A010000 		.4byte	.LVL43
 1716 01a8 FE010000 		.4byte	.LVL44
 1717 01ac 0100     		.2byte	0x1
 1718 01ae 54       		.byte	0x54
 1719 01af 12020000 		.4byte	.LVL47
 1720 01b3 1C020000 		.4byte	.LVL48
 1721 01b7 0100     		.2byte	0x1
 1722 01b9 50       		.byte	0x50
 1723 01ba 1C020000 		.4byte	.LVL48
 1724 01be 1E020000 		.4byte	.LVL49
 1725 01c2 0100     		.2byte	0x1
 1726 01c4 54       		.byte	0x54
 1727 01c5 1E020000 		.4byte	.LVL49
 1728 01c9 28020000 		.4byte	.LVL50
 1729 01cd 0300     		.2byte	0x3
 1730 01cf 74       		.byte	0x74
 1731 01d0 01       		.sleb128 1
 1732 01d1 9F       		.byte	0x9f
 1733 01d2 2C020000 		.4byte	.LVL51
 1734 01d6 36020000 		.4byte	.LVL52
 1735 01da 0100     		.2byte	0x1
 1736 01dc 54       		.byte	0x54
 1737 01dd 36020000 		.4byte	.LVL52
 1738 01e1 38020000 		.4byte	.LVL53
 1739 01e5 0300     		.2byte	0x3
 1740 01e7 74       		.byte	0x74
 1741 01e8 01       		.sleb128 1
 1742 01e9 9F       		.byte	0x9f
 1743 01ea 38020000 		.4byte	.LVL53
 1744 01ee 46020000 		.4byte	.LVL54
 1745 01f2 0100     		.2byte	0x1
 1746 01f4 54       		.byte	0x54
 1747 01f5 46020000 		.4byte	.LVL54
 1748 01f9 5E020000 		.4byte	.LVL57
 1749 01fd 0300     		.2byte	0x3
 1750 01ff 74       		.byte	0x74
 1751 0200 01       		.sleb128 1
 1752 0201 9F       		.byte	0x9f
 1753 0202 60020000 		.4byte	.LVL58
 1754 0206 6E020000 		.4byte	.LVL59
 1755 020a 0100     		.2byte	0x1
 1756 020c 54       		.byte	0x54
 1757 020d 6E020000 		.4byte	.LVL59
 1758 0211 70020000 		.4byte	.LVL60
 1759 0215 0300     		.2byte	0x3
 1760 0217 74       		.byte	0x74
 1761 0218 01       		.sleb128 1
ARM GAS  /tmp/cc5bcYEW.s 			page 32


 1762 0219 9F       		.byte	0x9f
 1763 021a 70020000 		.4byte	.LVL60
 1764 021e 76020000 		.4byte	.LVL61
 1765 0222 0100     		.2byte	0x1
 1766 0224 54       		.byte	0x54
 1767 0225 76020000 		.4byte	.LVL61
 1768 0229 78020000 		.4byte	.LVL62
 1769 022d 0300     		.2byte	0x3
 1770 022f 73       		.byte	0x73
 1771 0230 7F       		.sleb128 -1
 1772 0231 9F       		.byte	0x9f
 1773 0232 78020000 		.4byte	.LVL62
 1774 0236 7C020000 		.4byte	.LVL63
 1775 023a 0100     		.2byte	0x1
 1776 023c 53       		.byte	0x53
 1777 023d 7C020000 		.4byte	.LVL63
 1778 0241 18030000 		.4byte	.LVL83
 1779 0245 0100     		.2byte	0x1
 1780 0247 54       		.byte	0x54
 1781 0248 18030000 		.4byte	.LVL83
 1782 024c 22030000 		.4byte	.LVL84
 1783 0250 0100     		.2byte	0x1
 1784 0252 50       		.byte	0x50
 1785 0253 22030000 		.4byte	.LVL84
 1786 0257 26030000 		.4byte	.LFE64
 1787 025b 0100     		.2byte	0x1
 1788 025d 54       		.byte	0x54
 1789 025e 00000000 		.4byte	0
 1790 0262 00000000 		.4byte	0
 1791              	.LLST4:
 1792 0266 00000000 		.4byte	.LVL0
 1793 026a 1A000000 		.4byte	.LVL2
 1794 026e 0600     		.2byte	0x6
 1795 0270 03       		.byte	0x3
 1796 0271 00000000 		.4byte	name
 1797 0275 9F       		.byte	0x9f
 1798 0276 1A000000 		.4byte	.LVL2
 1799 027a 26000000 		.4byte	.LVL3
 1800 027e 0300     		.2byte	0x3
 1801 0280 72       		.byte	0x72
 1802 0281 7F       		.sleb128 -1
 1803 0282 9F       		.byte	0x9f
 1804 0283 26000000 		.4byte	.LVL3
 1805 0287 30000000 		.4byte	.LVL4
 1806 028b 0100     		.2byte	0x1
 1807 028d 52       		.byte	0x52
 1808 028e 30000000 		.4byte	.LVL4
 1809 0292 32000000 		.4byte	.LVL5
 1810 0296 0100     		.2byte	0x1
 1811 0298 54       		.byte	0x54
 1812 0299 F2000000 		.4byte	.LVL26
 1813 029d FE000000 		.4byte	.LVL27
 1814 02a1 0100     		.2byte	0x1
 1815 02a3 54       		.byte	0x54
 1816 02a4 FE000000 		.4byte	.LVL27
 1817 02a8 04010000 		.4byte	.LVL28
 1818 02ac 0100     		.2byte	0x1
ARM GAS  /tmp/cc5bcYEW.s 			page 33


 1819 02ae 51       		.byte	0x51
 1820 02af 04010000 		.4byte	.LVL28
 1821 02b3 08010000 		.4byte	.LVL29
 1822 02b7 0300     		.2byte	0x3
 1823 02b9 71       		.byte	0x71
 1824 02ba 7F       		.sleb128 -1
 1825 02bb 9F       		.byte	0x9f
 1826 02bc 08010000 		.4byte	.LVL29
 1827 02c0 15010000 		.4byte	.LVL31-1
 1828 02c4 0100     		.2byte	0x1
 1829 02c6 51       		.byte	0x51
 1830 02c7 18030000 		.4byte	.LVL83
 1831 02cb 22030000 		.4byte	.LVL84
 1832 02cf 0600     		.2byte	0x6
 1833 02d1 03       		.byte	0x3
 1834 02d2 00000000 		.4byte	name
 1835 02d6 9F       		.byte	0x9f
 1836 02d7 00000000 		.4byte	0
 1837 02db 00000000 		.4byte	0
 1838              	.LLST5:
 1839 02df 00000000 		.4byte	.LVL0
 1840 02e3 4A000000 		.4byte	.LVL7
 1841 02e7 0200     		.2byte	0x2
 1842 02e9 34       		.byte	0x34
 1843 02ea 9F       		.byte	0x9f
 1844 02eb 02020000 		.4byte	.LVL45
 1845 02ef 04020000 		.4byte	.LVL46
 1846 02f3 0100     		.2byte	0x1
 1847 02f5 55       		.byte	0x55
 1848 02f6 18030000 		.4byte	.LVL83
 1849 02fa 22030000 		.4byte	.LVL84
 1850 02fe 0200     		.2byte	0x2
 1851 0300 34       		.byte	0x34
 1852 0301 9F       		.byte	0x9f
 1853 0302 00000000 		.4byte	0
 1854 0306 00000000 		.4byte	0
 1855              	.LLST6:
 1856 030a 00000000 		.4byte	.LVL0
 1857 030e 4A000000 		.4byte	.LVL7
 1858 0312 0200     		.2byte	0x2
 1859 0314 36       		.byte	0x36
 1860 0315 9F       		.byte	0x9f
 1861 0316 18030000 		.4byte	.LVL83
 1862 031a 22030000 		.4byte	.LVL84
 1863 031e 0200     		.2byte	0x2
 1864 0320 36       		.byte	0x36
 1865 0321 9F       		.byte	0x9f
 1866 0322 00000000 		.4byte	0
 1867 0326 00000000 		.4byte	0
 1868              	.LLST7:
 1869 032a 00000000 		.4byte	.LVL0
 1870 032e 4A000000 		.4byte	.LVL7
 1871 0332 0300     		.2byte	0x3
 1872 0334 08       		.byte	0x8
 1873 0335 3F       		.byte	0x3f
 1874 0336 9F       		.byte	0x9f
 1875 0337 4A000000 		.4byte	.LVL7
ARM GAS  /tmp/cc5bcYEW.s 			page 34


 1876 033b D0000000 		.4byte	.LVL21
 1877 033f 0100     		.2byte	0x1
 1878 0341 59       		.byte	0x59
 1879 0342 E2000000 		.4byte	.LVL24
 1880 0346 2C010000 		.4byte	.LVL32
 1881 034a 0100     		.2byte	0x1
 1882 034c 59       		.byte	0x59
 1883 034d FE010000 		.4byte	.LVL44
 1884 0351 04020000 		.4byte	.LVL46
 1885 0355 0100     		.2byte	0x1
 1886 0357 59       		.byte	0x59
 1887 0358 12020000 		.4byte	.LVL47
 1888 035c 1C020000 		.4byte	.LVL48
 1889 0360 0100     		.2byte	0x1
 1890 0362 59       		.byte	0x59
 1891 0363 18030000 		.4byte	.LVL83
 1892 0367 22030000 		.4byte	.LVL84
 1893 036b 0300     		.2byte	0x3
 1894 036d 08       		.byte	0x8
 1895 036e 3F       		.byte	0x3f
 1896 036f 9F       		.byte	0x9f
 1897 0370 00000000 		.4byte	0
 1898 0374 00000000 		.4byte	0
 1899              	.LLST8:
 1900 0378 00000000 		.4byte	.LVL0
 1901 037c F2000000 		.4byte	.LVL26
 1902 0380 0200     		.2byte	0x2
 1903 0382 30       		.byte	0x30
 1904 0383 9F       		.byte	0x9f
 1905 0384 F2000000 		.4byte	.LVL26
 1906 0388 FE000000 		.4byte	.LVL27
 1907 038c 0200     		.2byte	0x2
 1908 038e 31       		.byte	0x31
 1909 038f 9F       		.byte	0x9f
 1910 0390 FE000000 		.4byte	.LVL27
 1911 0394 12010000 		.4byte	.LVL30
 1912 0398 0100     		.2byte	0x1
 1913 039a 50       		.byte	0x50
 1914 039b 12010000 		.4byte	.LVL30
 1915 039f 15010000 		.4byte	.LVL31-1
 1916 03a3 0300     		.2byte	0x3
 1917 03a5 70       		.byte	0x70
 1918 03a6 7F       		.sleb128 -1
 1919 03a7 9F       		.byte	0x9f
 1920 03a8 FE010000 		.4byte	.LVL44
 1921 03ac 04020000 		.4byte	.LVL46
 1922 03b0 0200     		.2byte	0x2
 1923 03b2 30       		.byte	0x30
 1924 03b3 9F       		.byte	0x9f
 1925 03b4 12020000 		.4byte	.LVL47
 1926 03b8 1C020000 		.4byte	.LVL48
 1927 03bc 0200     		.2byte	0x2
 1928 03be 30       		.byte	0x30
 1929 03bf 9F       		.byte	0x9f
 1930 03c0 18030000 		.4byte	.LVL83
 1931 03c4 22030000 		.4byte	.LVL84
 1932 03c8 0200     		.2byte	0x2
ARM GAS  /tmp/cc5bcYEW.s 			page 35


 1933 03ca 30       		.byte	0x30
 1934 03cb 9F       		.byte	0x9f
 1935 03cc 00000000 		.4byte	0
 1936 03d0 00000000 		.4byte	0
 1937              	.LLST9:
 1938 03d4 74000000 		.4byte	.LVL11
 1939 03d8 E6000000 		.4byte	.LVL25
 1940 03dc 0100     		.2byte	0x1
 1941 03de 54       		.byte	0x54
 1942 03df FE010000 		.4byte	.LVL44
 1943 03e3 04020000 		.4byte	.LVL46
 1944 03e7 0100     		.2byte	0x1
 1945 03e9 54       		.byte	0x54
 1946 03ea 12020000 		.4byte	.LVL47
 1947 03ee 1C020000 		.4byte	.LVL48
 1948 03f2 0100     		.2byte	0x1
 1949 03f4 54       		.byte	0x54
 1950 03f5 00000000 		.4byte	0
 1951 03f9 00000000 		.4byte	0
 1952              	.LLST10:
 1953 03fd 86000000 		.4byte	.LVL12
 1954 0401 98000000 		.4byte	.LVL14
 1955 0405 0200     		.2byte	0x2
 1956 0407 30       		.byte	0x30
 1957 0408 9F       		.byte	0x9f
 1958 0409 98000000 		.4byte	.LVL14
 1959 040d A2000000 		.4byte	.LVL17
 1960 0411 0100     		.2byte	0x1
 1961 0413 51       		.byte	0x51
 1962 0414 A6000000 		.4byte	.LVL18
 1963 0418 B4000000 		.4byte	.LVL19
 1964 041c 0100     		.2byte	0x1
 1965 041e 51       		.byte	0x51
 1966 041f 12020000 		.4byte	.LVL47
 1967 0423 1C020000 		.4byte	.LVL48
 1968 0427 0200     		.2byte	0x2
 1969 0429 30       		.byte	0x30
 1970 042a 9F       		.byte	0x9f
 1971 042b 00000000 		.4byte	0
 1972 042f 00000000 		.4byte	0
 1973              	.LLST11:
 1974 0433 1C020000 		.4byte	.LVL48
 1975 0437 1E020000 		.4byte	.LVL49
 1976 043b 0200     		.2byte	0x2
 1977 043d 3B       		.byte	0x3b
 1978 043e 9F       		.byte	0x9f
 1979 043f 1E020000 		.4byte	.LVL49
 1980 0443 98020000 		.4byte	.LVL66
 1981 0447 0100     		.2byte	0x1
 1982 0449 50       		.byte	0x50
 1983 044a 98020000 		.4byte	.LVL66
 1984 044e AA020000 		.4byte	.LVL70
 1985 0452 0300     		.2byte	0x3
 1986 0454 73       		.byte	0x73
 1987 0455 7F       		.sleb128 -1
 1988 0456 9F       		.byte	0x9f
 1989 0457 FE020000 		.4byte	.LVL77
ARM GAS  /tmp/cc5bcYEW.s 			page 36


 1990 045b 02030000 		.4byte	.LVL78
 1991 045f 0200     		.2byte	0x2
 1992 0461 37       		.byte	0x37
 1993 0462 9F       		.byte	0x9f
 1994 0463 02030000 		.4byte	.LVL78
 1995 0467 06030000 		.4byte	.LVL79
 1996 046b 0200     		.2byte	0x2
 1997 046d 35       		.byte	0x35
 1998 046e 9F       		.byte	0x9f
 1999 046f 06030000 		.4byte	.LVL79
 2000 0473 0A030000 		.4byte	.LVL80
 2001 0477 0200     		.2byte	0x2
 2002 0479 34       		.byte	0x34
 2003 047a 9F       		.byte	0x9f
 2004 047b 0A030000 		.4byte	.LVL80
 2005 047f 0E030000 		.4byte	.LVL81
 2006 0483 0200     		.2byte	0x2
 2007 0485 32       		.byte	0x32
 2008 0486 9F       		.byte	0x9f
 2009 0487 0E030000 		.4byte	.LVL81
 2010 048b 12030000 		.4byte	.LVL82
 2011 048f 0200     		.2byte	0x2
 2012 0491 39       		.byte	0x39
 2013 0492 9F       		.byte	0x9f
 2014 0493 00000000 		.4byte	0
 2015 0497 00000000 		.4byte	0
 2016              	.LLST12:
 2017 049b 5C020000 		.4byte	.LVL56
 2018 049f 60020000 		.4byte	.LVL58
 2019 04a3 0100     		.2byte	0x1
 2020 04a5 53       		.byte	0x53
 2021 04a6 60020000 		.4byte	.LVL58
 2022 04aa 9E020000 		.4byte	.LVL67
 2023 04ae 0100     		.2byte	0x1
 2024 04b0 5E       		.byte	0x5e
 2025 04b1 9E020000 		.4byte	.LVL67
 2026 04b5 A2020000 		.4byte	.LVL68
 2027 04b9 0300     		.2byte	0x3
 2028 04bb 7E       		.byte	0x7e
 2029 04bc 7F       		.sleb128 -1
 2030 04bd 9F       		.byte	0x9f
 2031 04be 00000000 		.4byte	0
 2032 04c2 00000000 		.4byte	0
 2033              	.LLST13:
 2034 04c6 8A010000 		.4byte	.LVL43
 2035 04ca FE010000 		.4byte	.LVL44
 2036 04ce 0100     		.2byte	0x1
 2037 04d0 51       		.byte	0x51
 2038 04d1 1C020000 		.4byte	.LVL48
 2039 04d5 76020000 		.4byte	.LVL61
 2040 04d9 0100     		.2byte	0x1
 2041 04db 51       		.byte	0x51
 2042 04dc FA020000 		.4byte	.LVL76
 2043 04e0 18030000 		.4byte	.LVL83
 2044 04e4 0100     		.2byte	0x1
 2045 04e6 51       		.byte	0x51
 2046 04e7 00000000 		.4byte	0
ARM GAS  /tmp/cc5bcYEW.s 			page 37


 2047 04eb 00000000 		.4byte	0
 2048              	.LLST14:
 2049 04ef 94020000 		.4byte	.LVL65
 2050 04f3 D5020000 		.4byte	.LVL73-1
 2051 04f7 0100     		.2byte	0x1
 2052 04f9 52       		.byte	0x52
 2053 04fa 00000000 		.4byte	0
 2054 04fe 00000000 		.4byte	0
 2055              	.LLST15:
 2056 0502 D0020000 		.4byte	.LVL72
 2057 0506 D5020000 		.4byte	.LVL73-1
 2058 050a 0100     		.2byte	0x1
 2059 050c 50       		.byte	0x50
 2060 050d 00000000 		.4byte	0
 2061 0511 00000000 		.4byte	0
 2062              	.LLST16:
 2063 0515 A6020000 		.4byte	.LVL69
 2064 0519 C8020000 		.4byte	.LVL71
 2065 051d 0100     		.2byte	0x1
 2066 051f 50       		.byte	0x50
 2067 0520 00000000 		.4byte	0
 2068 0524 00000000 		.4byte	0
 2069              	.LLST17:
 2070 0528 5A010000 		.4byte	.LVL36
 2071 052c 6A010000 		.4byte	.LVL37
 2072 0530 0200     		.2byte	0x2
 2073 0532 30       		.byte	0x30
 2074 0533 9F       		.byte	0x9f
 2075 0534 6A010000 		.4byte	.LVL37
 2076 0538 74010000 		.4byte	.LVL40
 2077 053c 0100     		.2byte	0x1
 2078 053e 53       		.byte	0x53
 2079 053f 78010000 		.4byte	.LVL41
 2080 0543 86010000 		.4byte	.LVL42
 2081 0547 0100     		.2byte	0x1
 2082 0549 53       		.byte	0x53
 2083 054a 22030000 		.4byte	.LVL84
 2084 054e 26030000 		.4byte	.LFE64
 2085 0552 0200     		.2byte	0x2
 2086 0554 30       		.byte	0x30
 2087 0555 9F       		.byte	0x9f
 2088 0556 00000000 		.4byte	0
 2089 055a 00000000 		.4byte	0
 2090              		.section	.debug_aranges,"",%progbits
 2091 0000 1C000000 		.4byte	0x1c
 2092 0004 0200     		.2byte	0x2
 2093 0006 00000000 		.4byte	.Ldebug_info0
 2094 000a 04       		.byte	0x4
 2095 000b 00       		.byte	0
 2096 000c 0000     		.2byte	0
 2097 000e 0000     		.2byte	0
 2098 0010 00000000 		.4byte	.LFB64
 2099 0014 26030000 		.4byte	.LFE64-.LFB64
 2100 0018 00000000 		.4byte	0
 2101 001c 00000000 		.4byte	0
 2102              		.section	.debug_ranges,"",%progbits
 2103              	.Ldebug_ranges0:
ARM GAS  /tmp/cc5bcYEW.s 			page 38


 2104 0000 4E000000 		.4byte	.LBB7
 2105 0004 52000000 		.4byte	.LBE7
 2106 0008 56000000 		.4byte	.LBB8
 2107 000c E2000000 		.4byte	.LBE8
 2108 0010 FE010000 		.4byte	.LBB20
 2109 0014 04020000 		.4byte	.LBE20
 2110 0018 12020000 		.4byte	.LBB22
 2111 001c 1C020000 		.4byte	.LBE22
 2112 0020 00000000 		.4byte	0
 2113 0024 00000000 		.4byte	0
 2114 0028 20010000 		.4byte	.LBB9
 2115 002c FE010000 		.4byte	.LBE9
 2116 0030 04020000 		.4byte	.LBB21
 2117 0034 0C020000 		.4byte	.LBE21
 2118 0038 1C020000 		.4byte	.LBB23
 2119 003c D6020000 		.4byte	.LBE23
 2120 0040 FA020000 		.4byte	.LBB24
 2121 0044 18030000 		.4byte	.LBE24
 2122 0048 22030000 		.4byte	.LBB25
 2123 004c 26030000 		.4byte	.LBE25
 2124 0050 00000000 		.4byte	0
 2125 0054 00000000 		.4byte	0
 2126 0058 20010000 		.4byte	.LBB10
 2127 005c 28010000 		.4byte	.LBE10
 2128 0060 2C010000 		.4byte	.LBB14
 2129 0064 34010000 		.4byte	.LBE14
 2130 0068 A6020000 		.4byte	.LBB18
 2131 006c D0020000 		.4byte	.LBE18
 2132 0070 00000000 		.4byte	0
 2133 0074 00000000 		.4byte	0
 2134 0078 34010000 		.4byte	.LBB15
 2135 007c 38010000 		.4byte	.LBE15
 2136 0080 52010000 		.4byte	.LBB16
 2137 0084 54010000 		.4byte	.LBE16
 2138 0088 5A010000 		.4byte	.LBB17
 2139 008c 8A010000 		.4byte	.LBE17
 2140 0090 22030000 		.4byte	.LBB19
 2141 0094 26030000 		.4byte	.LBE19
 2142 0098 00000000 		.4byte	0
 2143 009c 00000000 		.4byte	0
 2144 00a0 00000000 		.4byte	.LFB64
 2145 00a4 26030000 		.4byte	.LFE64
 2146 00a8 00000000 		.4byte	0
 2147 00ac 00000000 		.4byte	0
 2148              		.section	.debug_line,"",%progbits
 2149              	.Ldebug_line0:
 2150 0000 E6010000 		.section	.debug_str,"MS",%progbits,1
 2150      0200F000 
 2150      00000201 
 2150      FB0E0D00 
 2150      01010101 
 2151              	.LASF14:
 2152 0000 6B566578 		.ascii	"kVexDigital_None\000"
 2152      44696769 
 2152      74616C5F 
 2152      4E6F6E65 
 2152      00
ARM GAS  /tmp/cc5bcYEW.s 			page 39


 2153              	.LASF39:
 2154 0011 6B496D65 		.ascii	"kImeChannelNone\000"
 2154      4368616E 
 2154      6E656C4E 
 2154      6F6E6500 
 2155              	.LASF31:
 2156 0021 6B496D65 		.ascii	"kImeChannel_2\000"
 2156      4368616E 
 2156      6E656C5F 
 2156      3200
 2157              	.LASF32:
 2158 002f 6B496D65 		.ascii	"kImeChannel_3\000"
 2158      4368616E 
 2158      6E656C5F 
 2158      3300
 2159              	.LASF33:
 2160 003d 6B496D65 		.ascii	"kImeChannel_4\000"
 2160      4368616E 
 2160      6E656C5F 
 2160      3400
 2161              	.LASF34:
 2162 004b 6B496D65 		.ascii	"kImeChannel_5\000"
 2162      4368616E 
 2162      6E656C5F 
 2162      3500
 2163              	.LASF35:
 2164 0059 6B496D65 		.ascii	"kImeChannel_6\000"
 2164      4368616E 
 2164      6E656C5F 
 2164      3600
 2165              	.LASF36:
 2166 0067 6B496D65 		.ascii	"kImeChannel_7\000"
 2166      4368616E 
 2166      6E656C5F 
 2166      3700
 2167              	.LASF37:
 2168 0075 6B496D65 		.ascii	"kImeChannel_8\000"
 2168      4368616E 
 2168      6E656C5F 
 2168      3800
 2169              	.LASF3:
 2170 0083 73686F72 		.ascii	"short int\000"
 2170      7420696E 
 2170      7400
 2171              	.LASF12:
 2172 008d 73697A65 		.ascii	"sizetype\000"
 2172      74797065 
 2172      00
 2173              	.LASF38:
 2174 0096 6B496D65 		.ascii	"kImeTotal\000"
 2174      546F7461 
 2174      6C00
 2175              	.LASF44:
 2176 00a0 64656673 		.ascii	"defscale\000"
 2176      63616C65 
 2176      00
 2177              	.LASF56:
ARM GAS  /tmp/cc5bcYEW.s 			page 40


 2178 00a9 6E6F7465 		.ascii	"note2freq\000"
 2178      32667265 
 2178      7100
 2179              	.LASF42:
 2180 00b3 72657065 		.ascii	"repeat\000"
 2180      617400
 2181              	.LASF61:
 2182 00ba 76657841 		.ascii	"vexAudioStartChipToneSong\000"
 2182      7564696F 
 2182      53746172 
 2182      74436869 
 2182      70546F6E 
 2183              	.LASF29:
 2184 00d4 6B566578 		.ascii	"kVexDigitalOutput\000"
 2184      44696769 
 2184      74616C4F 
 2184      75747075 
 2184      7400
 2185              	.LASF47:
 2186 00e6 76616C75 		.ascii	"value\000"
 2186      6500
 2187              	.LASF54:
 2188 00ec 2E2E2F2E 		.ascii	"../../fw/vexrttl.c\000"
 2188      2E2F6677 
 2188      2F766578 
 2188      7274746C 
 2188      2E6300
 2189              	.LASF53:
 2190 00ff 474E5520 		.ascii	"GNU C 4.8.2 -mcpu=cortex-m3 -mno-thumb-interwork -m"
 2190      4320342E 
 2190      382E3220 
 2190      2D6D6370 
 2190      753D636F 
 2191 0132 7468756D 		.ascii	"thumb -ggdb -O2 -fomit-frame-pointer -falign-functi"
 2191      62202D67 
 2191      67646220 
 2191      2D4F3220 
 2191      2D666F6D 
 2192 0165 6F6E733D 		.ascii	"ons=16 -ffunction-sections -fdata-sections -fno-com"
 2192      3136202D 
 2192      6666756E 
 2192      6374696F 
 2192      6E2D7365 
 2193 0198 6D6F6E00 		.ascii	"mon\000"
 2194              	.LASF24:
 2195 019c 6B566578 		.ascii	"kVexDigital_10\000"
 2195      44696769 
 2195      74616C5F 
 2195      313000
 2196              	.LASF25:
 2197 01ab 6B566578 		.ascii	"kVexDigital_11\000"
 2197      44696769 
 2197      74616C5F 
 2197      313100
 2198              	.LASF26:
 2199 01ba 6B566578 		.ascii	"kVexDigital_12\000"
 2199      44696769 
ARM GAS  /tmp/cc5bcYEW.s 			page 41


 2199      74616C5F 
 2199      313200
 2200              	.LASF50:
 2201 01c9 66726571 		.ascii	"freq\000"
 2201      00
 2202              	.LASF7:
 2203 01ce 6C6F6E67 		.ascii	"long long int\000"
 2203      206C6F6E 
 2203      6720696E 
 2203      7400
 2204              	.LASF5:
 2205 01dc 6C6F6E67 		.ascii	"long int\000"
 2205      20696E74 
 2205      00
 2206              	.LASF48:
 2207 01e5 6E6F7465 		.ascii	"note\000"
 2207      00
 2208              	.LASF28:
 2209 01ea 6B566578 		.ascii	"kVexDigitalInput\000"
 2209      44696769 
 2209      74616C49 
 2209      6E707574 
 2209      00
 2210              	.LASF52:
 2211 01fb 6E616D65 		.ascii	"name\000"
 2211      00
 2212              	.LASF30:
 2213 0200 6B496D65 		.ascii	"kImeChannel_1\000"
 2213      4368616E 
 2213      6E656C5F 
 2213      3100
 2214              	.LASF2:
 2215 020e 756E7369 		.ascii	"unsigned char\000"
 2215      676E6564 
 2215      20636861 
 2215      7200
 2216              	.LASF1:
 2217 021c 7369676E 		.ascii	"signed char\000"
 2217      65642063 
 2217      68617200 
 2218              	.LASF41:
 2219 0228 616D706C 		.ascii	"amplitude\000"
 2219      69747564 
 2219      6500
 2220              	.LASF8:
 2221 0232 6C6F6E67 		.ascii	"long long unsigned int\000"
 2221      206C6F6E 
 2221      6720756E 
 2221      7369676E 
 2221      65642069 
 2222              	.LASF49:
 2223 0249 7363616C 		.ascii	"scale\000"
 2223      6500
 2224              	.LASF17:
 2225 024f 6B566578 		.ascii	"kVexDigital_3\000"
 2225      44696769 
 2225      74616C5F 
ARM GAS  /tmp/cc5bcYEW.s 			page 42


 2225      3300
 2226              	.LASF60:
 2227 025d 76657841 		.ascii	"vexAudioInitChipToneSong\000"
 2227      7564696F 
 2227      496E6974 
 2227      43686970 
 2227      546F6E65 
 2228              	.LASF46:
 2229 0276 70617261 		.ascii	"param\000"
 2229      6D00
 2230              	.LASF43:
 2231 027c 64656664 		.ascii	"defdur\000"
 2231      757200
 2232              	.LASF4:
 2233 0283 73686F72 		.ascii	"short unsigned int\000"
 2233      7420756E 
 2233      7369676E 
 2233      65642069 
 2233      6E7400
 2234              	.LASF13:
 2235 0296 63686172 		.ascii	"char\000"
 2235      00
 2236              	.LASF15:
 2237 029b 6B566578 		.ascii	"kVexDigital_1\000"
 2237      44696769 
 2237      74616C5F 
 2237      3100
 2238              	.LASF16:
 2239 02a9 6B566578 		.ascii	"kVexDigital_2\000"
 2239      44696769 
 2239      74616C5F 
 2239      3200
 2240              	.LASF10:
 2241 02b7 696E7433 		.ascii	"int32_t\000"
 2241      325F7400 
 2242              	.LASF18:
 2243 02bf 6B566578 		.ascii	"kVexDigital_4\000"
 2243      44696769 
 2243      74616C5F 
 2243      3400
 2244              	.LASF19:
 2245 02cd 6B566578 		.ascii	"kVexDigital_5\000"
 2245      44696769 
 2245      74616C5F 
 2245      3500
 2246              	.LASF20:
 2247 02db 6B566578 		.ascii	"kVexDigital_6\000"
 2247      44696769 
 2247      74616C5F 
 2247      3600
 2248              	.LASF21:
 2249 02e9 6B566578 		.ascii	"kVexDigital_7\000"
 2249      44696769 
 2249      74616C5F 
 2249      3700
 2250              	.LASF22:
 2251 02f7 6B566578 		.ascii	"kVexDigital_8\000"
ARM GAS  /tmp/cc5bcYEW.s 			page 43


 2251      44696769 
 2251      74616C5F 
 2251      3800
 2252              	.LASF23:
 2253 0305 6B566578 		.ascii	"kVexDigital_9\000"
 2253      44696769 
 2253      74616C5F 
 2253      3900
 2254              	.LASF11:
 2255 0313 5F426F6F 		.ascii	"_Bool\000"
 2255      6C00
 2256              	.LASF57:
 2257 0319 76657841 		.ascii	"vexAudioPlayRtttl\000"
 2257      7564696F 
 2257      506C6179 
 2257      52747474 
 2257      6C00
 2258              	.LASF6:
 2259 032b 6C6F6E67 		.ascii	"long unsigned int\000"
 2259      20756E73 
 2259      69676E65 
 2259      6420696E 
 2259      7400
 2260              	.LASF59:
 2261 033d 76657841 		.ascii	"vexAudioSetNextChipTone\000"
 2261      7564696F 
 2261      5365744E 
 2261      65787443 
 2261      68697054 
 2262              	.LASF45:
 2263 0355 636F756E 		.ascii	"count\000"
 2263      7400
 2264              	.LASF9:
 2265 035b 5F5F696E 		.ascii	"__int32_t\000"
 2265      7433325F 
 2265      7400
 2266              	.LASF55:
 2267 0365 2F6D6E74 		.ascii	"/mnt/c/Users/DQ Sullivan/Downloads/Convex/convex/co"
 2267      2F632F55 
 2267      73657273 
 2267      2F445120 
 2267      53756C6C 
 2268 0398 72746578 		.ascii	"rtex/projects/Vex2016 CyberBrains\000"
 2268      2F70726F 
 2268      6A656374 
 2268      732F5665 
 2268      78323031 
 2269              	.LASF27:
 2270 03ba 6B566578 		.ascii	"kVexDigital_Num\000"
 2270      44696769 
 2270      74616C5F 
 2270      4E756D00 
 2271              	.LASF40:
 2272 03ca 736F6E67 		.ascii	"song\000"
 2272      00
 2273              	.LASF58:
 2274 03cf 49544D5F 		.ascii	"ITM_RxBuffer\000"
ARM GAS  /tmp/cc5bcYEW.s 			page 44


 2274      52784275 
 2274      66666572 
 2274      00
 2275              	.LASF0:
 2276 03dc 756E7369 		.ascii	"unsigned int\000"
 2276      676E6564 
 2276      20696E74 
 2276      00
 2277              	.LASF51:
 2278 03e9 6E6F7465 		.ascii	"notefreq\000"
 2278      66726571 
 2278      00
 2279              		.ident	"GCC: (4.8.2-14ubuntu1+6) 4.8.2"
ARM GAS  /tmp/cc5bcYEW.s 			page 45


DEFINED SYMBOLS
                            *ABS*:0000000000000000 vexrttl.c
     /tmp/cc5bcYEW.s:19     .text.vexAudioPlayRtttl:0000000000000000 $t
     /tmp/cc5bcYEW.s:25     .text.vexAudioPlayRtttl:0000000000000000 vexAudioPlayRtttl
     /tmp/cc5bcYEW.s:680    .rodata.notefreq:0000000000000000 .LANCHOR1
     /tmp/cc5bcYEW.s:331    .text.vexAudioPlayRtttl:0000000000000194 $d
     /tmp/cc5bcYEW.s:698    .rodata.str1.4:0000000000000000 .LC0
     /tmp/cc5bcYEW.s:469    .text.vexAudioPlayRtttl:0000000000000218 $d
     /tmp/cc5bcYEW.s:475    .text.vexAudioPlayRtttl:000000000000021c $t
     /tmp/cc5bcYEW.s:702    .bss.name:0000000000000000 .LANCHOR0
     /tmp/cc5bcYEW.s:679    .rodata.notefreq:0000000000000000 $d
     /tmp/cc5bcYEW.s:683    .rodata.notefreq:0000000000000000 notefreq
     /tmp/cc5bcYEW.s:697    .rodata.str1.4:0000000000000000 $d
     /tmp/cc5bcYEW.s:701    .bss.name:0000000000000000 $d
     /tmp/cc5bcYEW.s:705    .bss.name:0000000000000000 name
                     .debug_frame:0000000000000010 $d
     /tmp/cc5bcYEW.s:436    .text.vexAudioPlayRtttl:00000000000001fd $d
     /tmp/cc5bcYEW.s:436    .text.vexAudioPlayRtttl:00000000000001fe $t

UNDEFINED SYMBOLS
vexAudioInitChipToneSong
vexAudioSetNextChipTone
vexAudioStartChipToneSong
