ARM GAS  /tmp/cc5bcYEW.s 			page 1


   1              		.syntax unified
   2              		.cpu cortex-m3
   3              		.fpu softvfp
   4              		.eabi_attribute 20, 1
   5              		.eabi_attribute 21, 1
   6              		.eabi_attribute 23, 3
   7              		.eabi_attribute 24, 1
   8              		.eabi_attribute 25, 1
   9              		.eabi_attribute 26, 1
  10              		.eabi_attribute 30, 2
  11              		.eabi_attribute 34, 1
  12              		.eabi_attribute 18, 4
  13              		.thumb
  14              		.file	"vexrttl.c"
  15              		.text
  16              	.Ltext0:
  17              		.cfi_sections	.debug_frame
  18              		.section	.text.vexAudioPlayRtttl,"ax",%progbits
  19              		.align	2
  20              		.p2align 4,,15
  21              		.global	vexAudioPlayRtttl
  22              		.thumb
  23              		.thumb_func
  24              		.type	vexAudioPlayRtttl, %function
  25              	vexAudioPlayRtttl:
  26              	.LFB64:
  27              		.file 1 "../../fw/vexrttl.c"
  28              		.loc 1 113 0
  29              		.cfi_startproc
  30              		@ args = 0, pretend = 0, frame = 8
  31              		@ frame_needed = 0, uses_anonymous_args = 0
  32              	.LVL0:
  33 0000 2DE9F04F 		push	{r4, r5, r6, r7, r8, r9, r10, fp, lr}
  34              		.cfi_def_cfa_offset 36
  35              		.cfi_offset 4, -36
  36              		.cfi_offset 5, -32
  37              		.cfi_offset 6, -28
  38              		.cfi_offset 7, -24
  39              		.cfi_offset 8, -20
  40              		.cfi_offset 9, -16
  41              		.cfi_offset 10, -12
  42              		.cfi_offset 11, -8
  43              		.cfi_offset 14, -4
  44              		.loc 1 123 0
  45 0004 0378     		ldrb	r3, [r0]	@ zero_extendqisi2
  46              		.loc 1 113 0
  47 0006 83B0     		sub	sp, sp, #12
  48              		.cfi_def_cfa_offset 48
  49              		.loc 1 123 0
  50 0008 3A2B     		cmp	r3, #58
  51 000a 18BF     		it	ne
  52 000c 002B     		cmpne	r3, #0
  53              		.loc 1 113 0
  54 000e 0F46     		mov	r7, r1
  55 0010 0192     		str	r2, [sp, #4]
  56              		.loc 1 123 0
  57 0012 00F08181 		beq	.L55
ARM GAS  /tmp/cc5bcYEW.s 			page 2


  58 0016 804A     		ldr	r2, .L95
  59              	.LVL1:
  60 0018 411C     		adds	r1, r0, #1
  61              	.LVL2:
  62              	.L3:
  63              		.loc 1 125 0
  64 001a 02F8013C 		strb	r3, [r2, #-1]
  65 001e 0846     		mov	r0, r1
  66              		.loc 1 123 0
  67 0020 11F8013B 		ldrb	r3, [r1], #1	@ zero_extendqisi2
  68              		.loc 1 125 0
  69 0024 1446     		mov	r4, r2
  70              	.LVL3:
  71              		.loc 1 123 0
  72 0026 3A2B     		cmp	r3, #58
  73 0028 18BF     		it	ne
  74 002a 002B     		cmpne	r3, #0
  75 002c 02F10102 		add	r2, r2, #1
  76              	.LVL4:
  77 0030 F3D1     		bne	.L3
  78              	.LVL5:
  79              	.L2:
  80              		.loc 1 127 0
  81 0032 0023     		movs	r3, #0
  82 0034 2370     		strb	r3, [r4]
  83              		.loc 1 129 0
  84 0036 0378     		ldrb	r3, [r0]	@ zero_extendqisi2
  85 0038 002B     		cmp	r3, #0
  86 003a 00F0E380 		beq	.L59
  87              		.loc 1 130 0
  88 003e 00F10108 		add	r8, r0, #1
  89              	.LVL6:
  90              		.loc 1 133 0
  91 0042 98F80040 		ldrb	r4, [r8]	@ zero_extendqisi2
  92              		.loc 1 118 0
  93 0046 4FF03F09 		mov	r9, #63
  94              	.LVL7:
  95              		.loc 1 117 0
  96 004a 0626     		movs	r6, #6
  97              		.loc 1 116 0
  98 004c 0425     		movs	r5, #4
  99              	.LBB7:
 100              		.loc 1 151 0
 101 004e 4FF0200C 		mov	ip, #32
 102              	.LBE7:
 103              		.loc 1 133 0
 104 0052 002C     		cmp	r4, #0
 105 0054 49D0     		beq	.L9
 106              	.L94:
 107              	.LBB8:
 108              		.loc 1 138 0 discriminator 1
 109 0056 202C     		cmp	r4, #32
 110 0058 0AD1     		bne	.L20
 111 005a 08F10103 		add	r3, r8, #1
 112              	.L21:
 113              	.LVL8:
 114              		.loc 1 138 0 is_stmt 0 discriminator 2
ARM GAS  /tmp/cc5bcYEW.s 			page 3


 115 005e 1C78     		ldrb	r4, [r3]	@ zero_extendqisi2
 116 0060 9846     		mov	r8, r3
 117              	.LVL9:
 118 0062 202C     		cmp	r4, #32
 119 0064 03F10103 		add	r3, r3, #1
 120              	.LVL10:
 121 0068 F9D0     		beq	.L21
 122              		.loc 1 139 0 is_stmt 1
 123 006a 002C     		cmp	r4, #0
 124 006c 00F0CA80 		beq	.L59
 125              	.L20:
 126              		.loc 1 140 0
 127 0070 3A2C     		cmp	r4, #58
 128 0072 3AD0     		beq	.L9
 129              	.LVL11:
 130              		.loc 1 143 0
 131 0074 98F80130 		ldrb	r3, [r8, #1]	@ zero_extendqisi2
 132 0078 3D2B     		cmp	r3, #61
 133 007a 40F0C380 		bne	.L59
 134              		.loc 1 147 0
 135 007e 98F80230 		ldrb	r3, [r8, #2]	@ zero_extendqisi2
 136              		.loc 1 145 0
 137 0082 08F10200 		add	r0, r8, #2
 138              	.LVL12:
 139              		.loc 1 147 0
 140 0086 A3F13002 		sub	r2, r3, #48
 141 008a D1B2     		uxtb	r1, r2
 142 008c 0929     		cmp	r1, #9
 143 008e 00F2C080 		bhi	.L56
 144 0092 08F10300 		add	r0, r8, #3
 145              	.LVL13:
 146              		.loc 1 146 0
 147 0096 0021     		movs	r1, #0
 148              	.LVL14:
 149              	.L11:
 150              		.loc 1 147 0 discriminator 2
 151 0098 8046     		mov	r8, r0
 152              	.LVL15:
 153 009a 10F8013B 		ldrb	r3, [r0], #1	@ zero_extendqisi2
 154              	.LVL16:
 155 009e 01EB8101 		add	r1, r1, r1, lsl #2
 156              	.LVL17:
 157 00a2 02EB4101 		add	r1, r2, r1, lsl #1
 158              	.LVL18:
 159 00a6 A3F13002 		sub	r2, r3, #48
 160 00aa 5FFA82FA 		uxtb	r10, r2
 161 00ae BAF1090F 		cmp	r10, #9
 162 00b2 F1D9     		bls	.L11
 163              	.LVL19:
 164              	.L10:
 165              		.loc 1 149 0
 166 00b4 642C     		cmp	r4, #100
 167 00b6 00F0A280 		beq	.L13
 168 00ba 6F2C     		cmp	r4, #111
 169 00bc 08BF     		it	eq
 170 00be 0E46     		moveq	r6, r1
 171 00c0 02D0     		beq	.L14
ARM GAS  /tmp/cc5bcYEW.s 			page 4


 172              		.loc 1 153 0
 173 00c2 622C     		cmp	r4, #98
 174 00c4 08BF     		it	eq
 175 00c6 8946     		moveq	r9, r1
 176              	.LVL20:
 177              	.L14:
 178              		.loc 1 156 0 discriminator 1
 179 00c8 202B     		cmp	r3, #32
 180 00ca 06D1     		bne	.L17
 181 00cc 08F10102 		add	r2, r8, #1
 182              	.LVL21:
 183              	.L18:
 184              		.loc 1 156 0 is_stmt 0 discriminator 2
 185 00d0 9046     		mov	r8, r2
 186              	.LVL22:
 187 00d2 12F8013B 		ldrb	r3, [r2], #1	@ zero_extendqisi2
 188              	.LVL23:
 189 00d6 202B     		cmp	r3, #32
 190 00d8 FAD0     		beq	.L18
 191              	.L17:
 192              		.loc 1 157 0 is_stmt 1
 193 00da 2C2B     		cmp	r3, #44
 194 00dc 08BF     		it	eq
 195 00de 08F10108 		addeq	r8, r8, #1
 196              	.LVL24:
 197              	.LBE8:
 198              		.loc 1 133 0
 199 00e2 98F80040 		ldrb	r4, [r8]	@ zero_extendqisi2
 200              	.LVL25:
 201 00e6 002C     		cmp	r4, #0
 202 00e8 B5D1     		bne	.L94
 203              	.L9:
 204              		.loc 1 163 0
 205 00ea 98F80120 		ldrb	r2, [r8, #1]	@ zero_extendqisi2
 206              		.loc 1 159 0
 207 00ee 08F10104 		add	r4, r8, #1
 208              	.LVL26:
 209              		.loc 1 163 0
 210 00f2 002A     		cmp	r2, #0
 211 00f4 00F0F380 		beq	.L22
 212 00f8 2146     		mov	r1, r4
 213 00fa 1346     		mov	r3, r2
 214 00fc 0120     		movs	r0, #1
 215              	.LVL27:
 216              	.L25:
 217              		.loc 1 165 0
 218 00fe 2C2B     		cmp	r3, #44
 219              		.loc 1 163 0
 220 0100 11F8013F 		ldrb	r3, [r1, #1]!	@ zero_extendqisi2
 221              	.LVL28:
 222              		.loc 1 166 0
 223 0104 08BF     		it	eq
 224 0106 0130     		addeq	r0, r0, #1
 225              	.LVL29:
 226              		.loc 1 163 0
 227 0108 002B     		cmp	r3, #0
 228 010a F8D1     		bne	.L25
ARM GAS  /tmp/cc5bcYEW.s 			page 5


 229              		.loc 1 169 0
 230 010c 0128     		cmp	r0, #1
 231 010e 07D0     		beq	.L26
 232              		.loc 1 170 0
 233 0110 0130     		adds	r0, r0, #1
 234              	.LVL30:
 235 0112 FFF7FEFF 		bl	vexAudioInitChipToneSong
 236              	.LVL31:
 237 0116 98F80120 		ldrb	r2, [r8, #1]	@ zero_extendqisi2
 238              		.loc 1 173 0
 239 011a 002A     		cmp	r2, #0
 240 011c 00F0DF80 		beq	.L22
 241              	.L26:
 242              	.LBB9:
 243              	.LBB10:
 244              	.LBB11:
 245              		.loc 1 100 0
 246 0120 40F20008 		movw	r8, #:lower16:.LANCHOR1
 247 0124 4AF6AB2A 		movw	r10, #43691
 248              	.LBE11:
 249              	.LBE10:
 250              		.loc 1 242 0
 251 0128 4FEAC909 		lsl	r9, r9, #3
 252              	.LVL32:
 253              	.LBB14:
 254              	.LBB12:
 255              		.loc 1 100 0
 256 012c C0F20008 		movt	r8, #:upper16:.LANCHOR1
 257 0130 C2F6AA2A 		movt	r10, 10922
 258              	.LBE12:
 259              	.LBE14:
 260              	.LBB15:
 261              		.loc 1 191 0
 262 0134 4FF0200B 		mov	fp, #32
 263              	.L27:
 264              	.LBE15:
 265              		.loc 1 182 0 discriminator 1
 266 0138 202A     		cmp	r2, #32
 267 013a 05D1     		bne	.L53
 268 013c 631C     		adds	r3, r4, #1
 269              	.L54:
 270              	.LVL33:
 271              		.loc 1 182 0 is_stmt 0 discriminator 2
 272 013e 1C46     		mov	r4, r3
 273              	.LVL34:
 274 0140 13F8012B 		ldrb	r2, [r3], #1	@ zero_extendqisi2
 275              	.LVL35:
 276 0144 202A     		cmp	r2, #32
 277 0146 FAD0     		beq	.L54
 278              	.L53:
 279              		.loc 1 183 0 is_stmt 1
 280 0148 002A     		cmp	r2, #0
 281 014a 5BD0     		beq	.L59
 282              		.loc 1 186 0
 283 014c 303A     		subs	r2, r2, #48
 284 014e D2B2     		uxtb	r2, r2
 285 0150 092A     		cmp	r2, #9
ARM GAS  /tmp/cc5bcYEW.s 			page 6


 286              	.LBB16:
 287              		.loc 1 189 0
 288 0152 2078     		ldrb	r0, [r4]	@ zero_extendqisi2
 289              	.LBE16:
 290              		.loc 1 186 0
 291 0154 88BF     		it	hi
 292 0156 2946     		movhi	r1, r5
 293 0158 17D8     		bhi	.L30
 294              	.LVL36:
 295              	.LBB17:
 296              		.loc 1 189 0 discriminator 1
 297 015a A0F13002 		sub	r2, r0, #48
 298 015e D3B2     		uxtb	r3, r2
 299 0160 092B     		cmp	r3, #9
 300 0162 00F2DE80 		bhi	.L58
 301 0166 611C     		adds	r1, r4, #1
 302              		.loc 1 189 0 is_stmt 0
 303 0168 0023     		movs	r3, #0
 304              	.LVL37:
 305              	.L32:
 306              		.loc 1 189 0 discriminator 2
 307 016a 0C46     		mov	r4, r1
 308              	.LVL38:
 309 016c 11F8010B 		ldrb	r0, [r1], #1	@ zero_extendqisi2
 310              	.LVL39:
 311 0170 03EB8303 		add	r3, r3, r3, lsl #2
 312              	.LVL40:
 313 0174 02EB4303 		add	r3, r2, r3, lsl #1
 314              	.LVL41:
 315 0178 A0F13002 		sub	r2, r0, #48
 316 017c 5FFA82FC 		uxtb	ip, r2
 317 0180 BCF1090F 		cmp	ip, #9
 318 0184 F1D9     		bls	.L32
 319              	.LVL42:
 320              	.L31:
 321              		.loc 1 191 0 is_stmt 1
 322 0186 9BFBF3F1 		sdiv	r1, fp, r3
 323              	.LVL43:
 324              	.L30:
 325              	.LBE17:
 326              		.loc 1 195 0
 327 018a 6828     		cmp	r0, #104
 328 018c 00F2C180 		bhi	.L33
 329 0190 DFE800F0 		tbb	[pc, r0]
 330              	.L34:
 331 0194 38       		.byte	(.L59-.L34)/2
 332 0195 BF       		.byte	(.L33-.L34)/2
 333 0196 BF       		.byte	(.L33-.L34)/2
 334 0197 BF       		.byte	(.L33-.L34)/2
 335 0198 BF       		.byte	(.L33-.L34)/2
 336 0199 BF       		.byte	(.L33-.L34)/2
 337 019a BF       		.byte	(.L33-.L34)/2
 338 019b BF       		.byte	(.L33-.L34)/2
 339 019c BF       		.byte	(.L33-.L34)/2
 340 019d BF       		.byte	(.L33-.L34)/2
 341 019e BF       		.byte	(.L33-.L34)/2
 342 019f BF       		.byte	(.L33-.L34)/2
ARM GAS  /tmp/cc5bcYEW.s 			page 7


 343 01a0 BF       		.byte	(.L33-.L34)/2
 344 01a1 BF       		.byte	(.L33-.L34)/2
 345 01a2 BF       		.byte	(.L33-.L34)/2
 346 01a3 BF       		.byte	(.L33-.L34)/2
 347 01a4 BF       		.byte	(.L33-.L34)/2
 348 01a5 BF       		.byte	(.L33-.L34)/2
 349 01a6 BF       		.byte	(.L33-.L34)/2
 350 01a7 BF       		.byte	(.L33-.L34)/2
 351 01a8 BF       		.byte	(.L33-.L34)/2
 352 01a9 BF       		.byte	(.L33-.L34)/2
 353 01aa BF       		.byte	(.L33-.L34)/2
 354 01ab BF       		.byte	(.L33-.L34)/2
 355 01ac BF       		.byte	(.L33-.L34)/2
 356 01ad BF       		.byte	(.L33-.L34)/2
 357 01ae BF       		.byte	(.L33-.L34)/2
 358 01af BF       		.byte	(.L33-.L34)/2
 359 01b0 BF       		.byte	(.L33-.L34)/2
 360 01b1 BF       		.byte	(.L33-.L34)/2
 361 01b2 BF       		.byte	(.L33-.L34)/2
 362 01b3 BF       		.byte	(.L33-.L34)/2
 363 01b4 BF       		.byte	(.L33-.L34)/2
 364 01b5 BF       		.byte	(.L33-.L34)/2
 365 01b6 BF       		.byte	(.L33-.L34)/2
 366 01b7 BF       		.byte	(.L33-.L34)/2
 367 01b8 BF       		.byte	(.L33-.L34)/2
 368 01b9 BF       		.byte	(.L33-.L34)/2
 369 01ba BF       		.byte	(.L33-.L34)/2
 370 01bb BF       		.byte	(.L33-.L34)/2
 371 01bc BF       		.byte	(.L33-.L34)/2
 372 01bd BF       		.byte	(.L33-.L34)/2
 373 01be BF       		.byte	(.L33-.L34)/2
 374 01bf BF       		.byte	(.L33-.L34)/2
 375 01c0 BF       		.byte	(.L33-.L34)/2
 376 01c1 BF       		.byte	(.L33-.L34)/2
 377 01c2 BF       		.byte	(.L33-.L34)/2
 378 01c3 BF       		.byte	(.L33-.L34)/2
 379 01c4 BF       		.byte	(.L33-.L34)/2
 380 01c5 BF       		.byte	(.L33-.L34)/2
 381 01c6 BF       		.byte	(.L33-.L34)/2
 382 01c7 BF       		.byte	(.L33-.L34)/2
 383 01c8 BF       		.byte	(.L33-.L34)/2
 384 01c9 BF       		.byte	(.L33-.L34)/2
 385 01ca BF       		.byte	(.L33-.L34)/2
 386 01cb BF       		.byte	(.L33-.L34)/2
 387 01cc BF       		.byte	(.L33-.L34)/2
 388 01cd BF       		.byte	(.L33-.L34)/2
 389 01ce BF       		.byte	(.L33-.L34)/2
 390 01cf BF       		.byte	(.L33-.L34)/2
 391 01d0 BF       		.byte	(.L33-.L34)/2
 392 01d1 BF       		.byte	(.L33-.L34)/2
 393 01d2 BF       		.byte	(.L33-.L34)/2
 394 01d3 BF       		.byte	(.L33-.L34)/2
 395 01d4 BF       		.byte	(.L33-.L34)/2
 396 01d5 BD       		.byte	(.L35-.L34)/2
 397 01d6 44       		.byte	(.L36-.L34)/2
 398 01d7 B3       		.byte	(.L60-.L34)/2
 399 01d8 BB       		.byte	(.L38-.L34)/2
ARM GAS  /tmp/cc5bcYEW.s 			page 8


 400 01d9 B9       		.byte	(.L39-.L34)/2
 401 01da B7       		.byte	(.L40-.L34)/2
 402 01db B5       		.byte	(.L41-.L34)/2
 403 01dc 44       		.byte	(.L36-.L34)/2
 404 01dd BF       		.byte	(.L33-.L34)/2
 405 01de BF       		.byte	(.L33-.L34)/2
 406 01df BF       		.byte	(.L33-.L34)/2
 407 01e0 BF       		.byte	(.L33-.L34)/2
 408 01e1 BF       		.byte	(.L33-.L34)/2
 409 01e2 BF       		.byte	(.L33-.L34)/2
 410 01e3 BF       		.byte	(.L33-.L34)/2
 411 01e4 BF       		.byte	(.L33-.L34)/2
 412 01e5 BF       		.byte	(.L33-.L34)/2
 413 01e6 BF       		.byte	(.L33-.L34)/2
 414 01e7 BF       		.byte	(.L33-.L34)/2
 415 01e8 BF       		.byte	(.L33-.L34)/2
 416 01e9 BF       		.byte	(.L33-.L34)/2
 417 01ea BF       		.byte	(.L33-.L34)/2
 418 01eb BF       		.byte	(.L33-.L34)/2
 419 01ec BF       		.byte	(.L33-.L34)/2
 420 01ed BF       		.byte	(.L33-.L34)/2
 421 01ee BF       		.byte	(.L33-.L34)/2
 422 01ef BF       		.byte	(.L33-.L34)/2
 423 01f0 BF       		.byte	(.L33-.L34)/2
 424 01f1 BF       		.byte	(.L33-.L34)/2
 425 01f2 BF       		.byte	(.L33-.L34)/2
 426 01f3 BF       		.byte	(.L33-.L34)/2
 427 01f4 BF       		.byte	(.L33-.L34)/2
 428 01f5 BD       		.byte	(.L35-.L34)/2
 429 01f6 44       		.byte	(.L36-.L34)/2
 430 01f7 B3       		.byte	(.L60-.L34)/2
 431 01f8 BB       		.byte	(.L38-.L34)/2
 432 01f9 B9       		.byte	(.L39-.L34)/2
 433 01fa B7       		.byte	(.L40-.L34)/2
 434 01fb B5       		.byte	(.L41-.L34)/2
 435 01fc 44       		.byte	(.L36-.L34)/2
 436 01fd 00       		.align	1
 437              	.LVL44:
 438              	.L13:
 439              	.LBE9:
 440              	.LBB20:
 441              		.loc 1 151 0
 442 01fe 9CFBF1F5 		sdiv	r5, ip, r1
 443              	.LVL45:
 444 0202 61E7     		b	.L14
 445              	.LVL46:
 446              	.L59:
 447              	.LBE20:
 448              	.LBB21:
 449              		.loc 1 197 0
 450 0204 40F20000 		movw	r0, #:lower16:.LC0
 451 0208 C0F20000 		movt	r0, #:upper16:.LC0
 452              	.L5:
 453              	.LBE21:
 454              		.loc 1 258 0
 455 020c 03B0     		add	sp, sp, #12
 456              		@ sp needed
ARM GAS  /tmp/cc5bcYEW.s 			page 9


 457 020e BDE8F08F 		pop	{r4, r5, r6, r7, r8, r9, r10, fp, pc}
 458              	.LVL47:
 459              	.L56:
 460              	.LBB22:
 461              		.loc 1 145 0
 462 0212 8046     		mov	r8, r0
 463              		.loc 1 146 0
 464 0214 0021     		movs	r1, #0
 465 0216 4DE7     		b	.L10
 466              	.L96:
 467              		.align	2
 468              	.L95:
 469 0218 01000000 		.word	.LANCHOR0+1
 470              	.LVL48:
 471              	.L36:
 472              	.LBE22:
 473              	.LBB23:
 474              		.loc 1 205 0
 475 021c 0B20     		movs	r0, #11
 476              	.LVL49:
 477              	.L37:
 478              		.loc 1 209 0
 479 021e 6278     		ldrb	r2, [r4, #1]	@ zero_extendqisi2
 480 0220 232A     		cmp	r2, #35
 481 0222 09BF     		itett	eq
 482 0224 A278     		ldrbeq	r2, [r4, #2]	@ zero_extendqisi2
 483              		.loc 1 208 0
 484 0226 0134     		addne	r4, r4, #1
 485              	.LVL50:
 486              		.loc 1 212 0
 487 0228 0234     		addeq	r4, r4, #2
 488              		.loc 1 211 0
 489 022a 0130     		addeq	r0, r0, #1
 490              	.LVL51:
 491              		.loc 1 214 0
 492 022c 622A     		cmp	r2, #98
 493 022e 02BF     		ittt	eq
 494 0230 6278     		ldrbeq	r2, [r4, #1]	@ zero_extendqisi2
 495              		.loc 1 216 0
 496 0232 00F1FF30 		addeq	r0, r0, #-1
 497              	.LVL52:
 498              		.loc 1 217 0
 499 0236 0134     		addeq	r4, r4, #1
 500              	.LVL53:
 501              		.loc 1 221 0
 502 0238 2E2A     		cmp	r2, #46
 503 023a 02BF     		ittt	eq
 504 023c 6278     		ldrbeq	r2, [r4, #1]	@ zero_extendqisi2
 505              		.loc 1 223 0
 506 023e 01EBD173 		addeq	r3, r1, r1, lsr #31
 507 0242 01EB6301 		addeq	r1, r1, r3, asr #1
 508              	.LVL54:
 509              		.loc 1 228 0
 510 0246 A2F13003 		sub	r3, r2, #48
 511 024a 5FFA83FE 		uxtb	lr, r3
 512              		.loc 1 224 0
 513 024e 08BF     		it	eq
ARM GAS  /tmp/cc5bcYEW.s 			page 10


 514 0250 0134     		addeq	r4, r4, #1
 515              	.LVL55:
 516              		.loc 1 228 0
 517 0252 BEF1090F 		cmp	lr, #9
 518 0256 9DBF     		ittte	ls
 519 0258 6278     		ldrbls	r2, [r4, #1]	@ zero_extendqisi2
 520 025a 9E46     		movls	lr, r3
 521              	.LVL56:
 522 025c 0134     		addls	r4, r4, #1
 523              	.LVL57:
 524 025e B646     		movhi	lr, r6
 525              	.LVL58:
 526              		.loc 1 231 0
 527 0260 2E2A     		cmp	r2, #46
 528 0262 01BF     		itttt	eq
 529 0264 6278     		ldrbeq	r2, [r4, #1]	@ zero_extendqisi2
 530              		.loc 1 233 0
 531 0266 01EBD173 		addeq	r3, r1, r1, lsr #31
 532 026a 01EB6301 		addeq	r1, r1, r3, asr #1
 533              	.LVL59:
 534              		.loc 1 234 0
 535 026e 0134     		addeq	r4, r4, #1
 536              	.LVL60:
 537              		.loc 1 238 0
 538 0270 202A     		cmp	r2, #32
 539 0272 05D1     		bne	.L49
 540 0274 631C     		adds	r3, r4, #1
 541              	.LVL61:
 542              	.L50:
 543              		.loc 1 238 0 is_stmt 0 discriminator 2
 544 0276 1C46     		mov	r4, r3
 545              	.LVL62:
 546 0278 13F8012B 		ldrb	r2, [r3], #1	@ zero_extendqisi2
 547              	.LVL63:
 548 027c 202A     		cmp	r2, #32
 549 027e FAD0     		beq	.L50
 550              	.L49:
 551              		.loc 1 239 0 is_stmt 1
 552 0280 2C2A     		cmp	r2, #44
 553              		.loc 1 242 0
 554 0282 4EF66022 		movw	r2, #60000
 555 0286 02FB01F2 		mul	r2, r2, r1
 556              		.loc 1 239 0
 557 028a 08BF     		it	eq
 558 028c 0134     		addeq	r4, r4, #1
 559              	.LVL64:
 560              		.loc 1 243 0
 561 028e 431C     		adds	r3, r0, #1
 562              		.loc 1 242 0
 563 0290 92FBF9F2 		sdiv	r2, r2, r9
 564              	.LVL65:
 565              		.loc 1 244 0
 566 0294 08BF     		it	eq
 567 0296 0020     		moveq	r0, #0
 568              	.LVL66:
 569              		.loc 1 243 0
 570 0298 1AD0     		beq	.L52
ARM GAS  /tmp/cc5bcYEW.s 			page 11


 571              		.loc 1 246 0
 572 029a 0EF1010E 		add	lr, lr, #1
 573              	.LVL67:
 574 029e 0EEB4E0E 		add	lr, lr, lr, lsl #1
 575              	.LVL68:
 576 02a2 00EB8E00 		add	r0, r0, lr, lsl #2
 577              	.LVL69:
 578              	.LBB18:
 579              	.LBB13:
 580              		.loc 1 100 0
 581 02a6 8AFB0013 		smull	r1, r3, r10, r0
 582              	.LVL70:
 583 02aa C117     		asrs	r1, r0, #31
 584 02ac 5B10     		asrs	r3, r3, #1
 585 02ae C3EB010E 		rsb	lr, r3, r1
 586 02b2 0EF1090E 		add	lr, lr, #9
 587 02b6 4FF0010C 		mov	ip, #1
 588 02ba 0CFA0EFE 		lsl	lr, ip, lr
 589 02be 5B1A     		subs	r3, r3, r1
 590 02c0 03EB4303 		add	r3, r3, r3, lsl #1
 591 02c4 A0EB8300 		sub	r0, r0, r3, lsl #2
 592              	.LVL71:
 593 02c8 58F82000 		ldr	r0, [r8, r0, lsl #2]
 594 02cc 90FBFEF0 		sdiv	r0, r0, lr
 595              	.L52:
 596              	.LVL72:
 597              	.LBE13:
 598              	.LBE18:
 599              		.loc 1 248 0
 600 02d0 3946     		mov	r1, r7
 601 02d2 FFF7FEFF 		bl	vexAudioSetNextChipTone
 602              	.LVL73:
 603              	.LBE23:
 604              		.loc 1 173 0
 605 02d6 2278     		ldrb	r2, [r4]	@ zero_extendqisi2
 606 02d8 002A     		cmp	r2, #0
 607 02da 7FF42DAF 		bne	.L27
 608              	.L22:
 609              		.loc 1 252 0
 610 02de 0020     		movs	r0, #0
 611 02e0 0146     		mov	r1, r0
 612 02e2 4FF4FA72 		mov	r2, #500
 613 02e6 FFF7FEFF 		bl	vexAudioSetNextChipTone
 614              	.LVL74:
 615              		.loc 1 255 0
 616 02ea 0198     		ldr	r0, [sp, #4]
 617 02ec FFF7FEFF 		bl	vexAudioStartChipToneSong
 618              	.LVL75:
 619              		.loc 1 257 0
 620 02f0 40F20000 		movw	r0, #:lower16:.LANCHOR0
 621 02f4 C0F20000 		movt	r0, #:upper16:.LANCHOR0
 622 02f8 88E7     		b	.L5
 623              	.LVL76:
 624              	.L60:
 625              	.LBB24:
 626              		.loc 1 198 0
 627 02fa 0020     		movs	r0, #0
ARM GAS  /tmp/cc5bcYEW.s 			page 12


 628 02fc 8FE7     		b	.L37
 629              	.L41:
 630              	.LVL77:
 631              		.loc 1 202 0
 632 02fe 0720     		movs	r0, #7
 633 0300 8DE7     		b	.L37
 634              	.LVL78:
 635              	.L40:
 636              		.loc 1 201 0
 637 0302 0520     		movs	r0, #5
 638 0304 8BE7     		b	.L37
 639              	.LVL79:
 640              	.L39:
 641              		.loc 1 200 0
 642 0306 0420     		movs	r0, #4
 643 0308 89E7     		b	.L37
 644              	.LVL80:
 645              	.L38:
 646              		.loc 1 199 0
 647 030a 0220     		movs	r0, #2
 648 030c 87E7     		b	.L37
 649              	.LVL81:
 650              	.L35:
 651              		.loc 1 203 0
 652 030e 0920     		movs	r0, #9
 653 0310 85E7     		b	.L37
 654              	.LVL82:
 655              	.L33:
 656              		.loc 1 175 0
 657 0312 4FF0FF30 		mov	r0, #-1
 658 0316 82E7     		b	.L37
 659              	.LVL83:
 660              	.L55:
 661              	.LBE24:
 662              		.loc 1 122 0
 663 0318 40F20004 		movw	r4, #:lower16:.LANCHOR0
 664 031c C0F20004 		movt	r4, #:upper16:.LANCHOR0
 665 0320 87E6     		b	.L2
 666              	.LVL84:
 667              	.L58:
 668              	.LBB25:
 669              	.LBB19:
 670              		.loc 1 189 0
 671 0322 0023     		movs	r3, #0
 672 0324 2FE7     		b	.L31
 673              	.LBE19:
 674              	.LBE25:
 675              		.cfi_endproc
 676              	.LFE64:
 677              		.size	vexAudioPlayRtttl, .-vexAudioPlayRtttl
 678 0326 00BFAFF3 		.section	.rodata.notefreq,"a",%progbits
 678      0080AFF3 
 678      0080
 679              		.align	2
 680              		.set	.LANCHOR1,. + 0
 681              		.type	notefreq, %object
 682              		.size	notefreq, 48
ARM GAS  /tmp/cc5bcYEW.s 			page 13


 683              	notefreq:
 684 0000 5A100000 		.word	4186
 685 0004 52110000 		.word	4434
 686 0008 5A120000 		.word	4698
 687 000c 72130000 		.word	4978
 688 0010 9A140000 		.word	5274
 689 0014 D3150000 		.word	5587
 690 0018 1F170000 		.word	5919
 691 001c 7F180000 		.word	6271
 692 0020 F4190000 		.word	6644
 693 0024 801B0000 		.word	7040
 694 0028 221D0000 		.word	7458
 695 002c DE1E0000 		.word	7902
 696              		.section	.rodata.str1.4,"aMS",%progbits,1
 697              		.align	2
 698              	.LC0:
 699 0000 00       		.ascii	"\000"
 700 0001 000000   		.section	.bss.name,"aw",%nobits
 701              		.align	2
 702              		.set	.LANCHOR0,. + 0
 703              		.type	name, %object
 704              		.size	name, 48
 705              	name:
 706 0000 00000000 		.space	48
 706      00000000 
 706      00000000 
 706      00000000 
 706      00000000 
 707              		.text
 708              	.Letext0:
 709              		.file 2 "/usr/include/newlib/machine/_default_types.h"
 710              		.file 3 "/usr/include/newlib/stdint.h"
 711              		.file 4 "../../fw/vexdigital.h"
 712              		.file 5 "../../fw/vexime.h"
 713              		.file 6 "../../../../ChibiOS_2.6.2/os/ports/common/ARMCMx/CMSIS/include/core_cm3.h"
 714              		.file 7 "../../fw/vexaudio.h"