ARM GAS  /tmp/ccPWKzv5.s 			page 1


   1              		.syntax unified
   2              		.cpu cortex-m3
   3              		.fpu softvfp
   4              		.eabi_attribute 20, 1
   5              		.eabi_attribute 21, 1
   6              		.eabi_attribute 23, 3
   7              		.eabi_attribute 24, 1
   8              		.eabi_attribute 25, 1
   9              		.eabi_attribute 26, 1
  10              		.eabi_attribute 30, 2
  11              		.eabi_attribute 34, 1
  12              		.eabi_attribute 18, 4
  13              		.thumb
  14              		.file	"vexsensor.c"
  15              		.text
  16              	.Ltext0:
  17              		.cfi_sections	.debug_frame
  18              		.section	.text.vexSensorIsAnalog,"ax",%progbits
  19              		.align	2
  20              		.p2align 4,,15
  21              		.global	vexSensorIsAnalog
  22              		.thumb
  23              		.thumb_func
  24              		.type	vexSensorIsAnalog, %function
  25              	vexSensorIsAnalog:
  26              	.LFB63:
  27              		.file 1 "../../fw/vexsensor.c"
  28              		.loc 1 63 0
  29              		.cfi_startproc
  30              		@ args = 0, pretend = 0, frame = 0
  31              		@ frame_needed = 0, uses_anonymous_args = 0
  32              		@ link register save eliminated.
  33              	.LVL0:
  34              		.loc 1 64 0
  35 0000 C0B2     		uxtb	r0, r0
  36              		.loc 1 68 0
  37 0002 0728     		cmp	r0, #7
  38 0004 8CBF     		ite	hi
  39 0006 0020     		movhi	r0, #0
  40              	.LVL1:
  41 0008 0120     		movls	r0, #1
  42 000a 7047     		bx	lr
  43              		.cfi_endproc
  44              	.LFE63:
  45              		.size	vexSensorIsAnalog, .-vexSensorIsAnalog
  46 000c AFF30080 		.section	.text.vexSensorValueGet,"ax",%progbits
  47              		.align	2
  48              		.p2align 4,,15
  49              		.global	vexSensorValueGet
  50              		.thumb
  51              		.thumb_func
  52              		.type	vexSensorValueGet, %function
  53              	vexSensorValueGet:
  54              	.LFB64:
  55              		.loc 1 79 0
  56              		.cfi_startproc
  57              		@ args = 0, pretend = 0, frame = 0
ARM GAS  /tmp/ccPWKzv5.s 			page 2


  58              		@ frame_needed = 0, uses_anonymous_args = 0
  59              	.LVL2:
  60              		.loc 1 80 0
  61 0000 0728     		cmp	r0, #7
  62              		.loc 1 79 0
  63 0002 10B5     		push	{r4, lr}
  64              		.cfi_def_cfa_offset 8
  65              		.cfi_offset 4, -8
  66              		.cfi_offset 14, -4
  67              		.loc 1 80 0
  68 0004 26DD     		ble	.L16
  69              		.loc 1 83 0
  70 0006 1328     		cmp	r0, #19
  71 0008 08DD     		ble	.L17
  72              		.loc 1 119 0
  73 000a 1B28     		cmp	r0, #27
  74 000c 01DD     		ble	.L18
  75              	.LVL3:
  76              	.L14:
  77              		.loc 1 125 0
  78 000e 0020     		movs	r0, #0
  79              		.loc 1 126 0
  80 0010 10BD     		pop	{r4, pc}
  81              	.LVL4:
  82              	.L18:
  83              	.LBB2:
  84              		.loc 1 122 0
  85 0012 1438     		subs	r0, r0, #20
  86              	.LVL5:
  87              	.LBE2:
  88              		.loc 1 126 0
  89 0014 BDE81040 		pop	{r4, lr}
  90              	.LBB3:
  91              		.loc 1 122 0
  92 0018 FFF7FEBF 		b	vexImeGetCount
  93              	.LVL6:
  94              	.L17:
  95              	.LBE3:
  96              	.LBB4:
  97              		.loc 1 86 0
  98 001c A0F10803 		sub	r3, r0, #8
  99              	.LVL7:
 100              		.loc 1 87 0
 101 0020 5CB2     		sxtb	r4, r3
 102 0022 2046     		mov	r0, r4
 103              	.LVL8:
 104 0024 FFF7FEFF 		bl	vexDigitalTypeGet
 105              	.LVL9:
 106              		.loc 1 89 0
 107 0028 0138     		subs	r0, r0, #1
 108              	.LVL10:
 109 002a 0728     		cmp	r0, #7
 110 002c EFD8     		bhi	.L14
 111 002e 01A3     		adr	r3, .L7
 112 0030 53F820F0 		ldr	pc, [r3, r0, lsl #2]
 113              		.p2align 2
 114              	.L7:
ARM GAS  /tmp/ccPWKzv5.s 			page 3


 115 0034 5B000000 		.word	.L12+1
 116 0038 5B000000 		.word	.L12+1
 117 003c 63000000 		.word	.L9+1
 118 0040 81000000 		.word	.L10+1
 119 0044 73000000 		.word	.L11+1
 120 0048 0F000000 		.word	.L14+1
 121 004c 0F000000 		.word	.L14+1
 122 0050 5B000000 		.word	.L12+1
 123              	.LVL11:
 124              	.L16:
 125              	.LBE4:
 126              		.loc 1 81 0
 127 0054 FFF7FEFF 		bl	vexAdcGet
 128              	.LVL12:
 129 0058 10BD     		pop	{r4, pc}
 130              	.L12:
 131              	.LBB5:
 132              		.loc 1 100 0
 133 005a 2046     		mov	r0, r4
 134 005c FFF7FEFF 		bl	vexDigitalPinGet
 135              	.LVL13:
 136 0060 10BD     		pop	{r4, pc}
 137              	.L9:
 138              		.loc 1 103 0
 139 0062 2046     		mov	r0, r4
 140 0064 FFF7FEFF 		bl	vexDigitalChannelGet
 141              	.LVL14:
 142              	.LBE5:
 143              		.loc 1 126 0
 144 0068 BDE81040 		pop	{r4, lr}
 145              	.LBB6:
 146              		.loc 1 104 0
 147 006c 00B2     		sxth	r0, r0
 148 006e FFF7FEBF 		b	vexEncoderGet
 149              	.LVL15:
 150              	.L11:
 151              		.loc 1 111 0
 152 0072 2046     		mov	r0, r4
 153 0074 FFF7FEFF 		bl	vexDigitalChannelGet
 154              	.LVL16:
 155              		.loc 1 112 0
 156 0078 C0B2     		uxtb	r0, r0
 157              	.LVL17:
 158 007a FFF7FEFF 		bl	vexSonarGetInch
 159              	.LVL18:
 160 007e 10BD     		pop	{r4, pc}
 161              	.L10:
 162              		.loc 1 107 0
 163 0080 2046     		mov	r0, r4
 164 0082 FFF7FEFF 		bl	vexDigitalChannelGet
 165              	.LVL19:
 166              		.loc 1 108 0
 167 0086 C0B2     		uxtb	r0, r0
 168              	.LVL20:
 169 0088 FFF7FEFF 		bl	vexSonarGetCm
 170              	.LVL21:
 171 008c 10BD     		pop	{r4, pc}
ARM GAS  /tmp/ccPWKzv5.s 			page 4


 172              	.LBE6:
 173              		.cfi_endproc
 174              	.LFE64:
 175              		.size	vexSensorValueGet, .-vexSensorValueGet
 176 008e 00BF     		.section	.text.vexSensorValueSet,"ax",%progbits
 177              		.align	2
 178              		.p2align 4,,15
 179              		.global	vexSensorValueSet
 180              		.thumb
 181              		.thumb_func
 182              		.type	vexSensorValueSet, %function
 183              	vexSensorValueSet:
 184              	.LFB65:
 185              		.loc 1 138 0
 186              		.cfi_startproc
 187              		@ args = 0, pretend = 0, frame = 0
 188              		@ frame_needed = 0, uses_anonymous_args = 0
 189              	.LVL22:
 190              		.loc 1 139 0
 191 0000 0728     		cmp	r0, #7
 192              		.loc 1 138 0
 193 0002 38B5     		push	{r3, r4, r5, lr}
 194              		.cfi_def_cfa_offset 16
 195              		.cfi_offset 3, -16
 196              		.cfi_offset 4, -12
 197              		.cfi_offset 5, -8
 198              		.cfi_offset 14, -4
 199              		.loc 1 138 0
 200 0004 0C46     		mov	r4, r1
 201              		.loc 1 139 0
 202 0006 03DD     		ble	.L19
 203              		.loc 1 142 0
 204 0008 1328     		cmp	r0, #19
 205 000a 02DD     		ble	.L24
 206              		.loc 1 172 0
 207 000c 1B28     		cmp	r0, #27
 208 000e 0ADD     		ble	.L25
 209              	.L19:
 210 0010 38BD     		pop	{r3, r4, r5, pc}
 211              	.L24:
 212              	.LBB7:
 213              		.loc 1 145 0
 214 0012 0838     		subs	r0, r0, #8
 215              	.LVL23:
 216              		.loc 1 146 0
 217 0014 45B2     		sxtb	r5, r0
 218 0016 2846     		mov	r0, r5
 219              	.LVL24:
 220 0018 FFF7FEFF 		bl	vexDigitalTypeGet
 221              	.LVL25:
 222              		.loc 1 148 0
 223 001c 0228     		cmp	r0, #2
 224 001e 10D0     		beq	.L22
 225 0020 0328     		cmp	r0, #3
 226 0022 05D0     		beq	.L23
 227 0024 38BD     		pop	{r3, r4, r5, pc}
 228              	.LVL26:
ARM GAS  /tmp/ccPWKzv5.s 			page 5


 229              	.L25:
 230              	.LBE7:
 231              	.LBB8:
 232              		.loc 1 175 0
 233 0026 1438     		subs	r0, r0, #20
 234              	.LVL27:
 235              	.LBE8:
 236              		.loc 1 179 0
 237 0028 BDE83840 		pop	{r3, r4, r5, lr}
 238              	.LBB9:
 239              		.loc 1 175 0
 240 002c FFF7FEBF 		b	vexImeSetCount
 241              	.LVL28:
 242              	.L23:
 243              	.LBE9:
 244              	.LBB10:
 245              		.loc 1 160 0
 246 0030 2846     		mov	r0, r5
 247              	.LVL29:
 248 0032 FFF7FEFF 		bl	vexDigitalChannelGet
 249              	.LVL30:
 250              		.loc 1 161 0
 251 0036 2146     		mov	r1, r4
 252 0038 00B2     		sxth	r0, r0
 253              	.LBE10:
 254              		.loc 1 179 0
 255 003a BDE83840 		pop	{r3, r4, r5, lr}
 256              	.LVL31:
 257              	.LBB11:
 258              		.loc 1 161 0
 259 003e FFF7FEBF 		b	vexEncoderSet
 260              	.LVL32:
 261              	.L22:
 262              		.loc 1 157 0
 263 0042 2846     		mov	r0, r5
 264              	.LVL33:
 265 0044 E1B2     		uxtb	r1, r4
 266              	.LBE11:
 267              		.loc 1 179 0
 268 0046 BDE83840 		pop	{r3, r4, r5, lr}
 269              	.LVL34:
 270              	.LBB12:
 271              		.loc 1 157 0
 272 004a FFF7FEBF 		b	vexDigitalPinSet
 273              	.LVL35:
 274              	.LBE12:
 275              		.cfi_endproc
 276              	.LFE65:
 277              		.size	vexSensorValueSet, .-vexSensorValueSet
 278 004e 00BF     		.text
 279              	.Letext0:
 280              		.file 2 "/usr/include/newlib/machine/_default_types.h"
 281              		.file 3 "/usr/include/newlib/stdint.h"
 282              		.file 4 "../../../../ChibiOS_2.6.2/os/ports/GCC/ARMCMx/chtypes.h"
 283              		.file 5 "../../fw/vexdigital.h"
 284              		.file 6 "../../fw/vexsonar.h"
 285              		.file 7 "../../fw/vexconfig.h"
ARM GAS  /tmp/ccPWKzv5.s 			page 6


 286              		.file 8 "../../fw/vexsensor.h"
 287              		.file 9 "../../fw/vexime.h"
 288              		.file 10 "../../fw/vexencoder.h"
 289              		.file 11 "../../fw/vexanalog.h"
 290              		.file 12 "../../../../ChibiOS_2.6.2/os/ports/common/ARMCMx/CMSIS/include/core_cm3.h"