ARM GAS  /tmp/ccs4ODSO.s 			page 1


   1              		.syntax unified
   2              		.cpu cortex-m3
   3              		.fpu softvfp
   4              		.eabi_attribute 20, 1
   5              		.eabi_attribute 21, 1
   6              		.eabi_attribute 23, 3
   7              		.eabi_attribute 24, 1
   8              		.eabi_attribute 25, 1
   9              		.eabi_attribute 26, 1
  10              		.eabi_attribute 30, 2
  11              		.eabi_attribute 34, 1
  12              		.eabi_attribute 18, 4
  13              		.thumb
  14              		.file	"vexsonar.c"
  15              		.text
  16              	.Ltext0:
  17              		.cfi_sections	.debug_frame
  18              		.section	.text._vs_echo_cb,"ax",%progbits
  19              		.align	2
  20              		.p2align 4,,15
  21              		.thumb
  22              		.thumb_func
  23              		.type	_vs_echo_cb, %function
  24              	_vs_echo_cb:
  25              	.LFB65:
  26              		.file 1 "../../fw/vexsonar.c"
  27              		.loc 1 202 0
  28              		.cfi_startproc
  29              		@ args = 0, pretend = 0, frame = 0
  30              		@ frame_needed = 0, uses_anonymous_args = 0
  31              		@ link register save eliminated.
  32              	.LVL0:
  33 0000 10B4     		push	{r4}
  34              		.cfi_def_cfa_offset 4
  35              		.cfi_offset 4, -4
  36              	.LBB2:
  37              		.loc 1 206 0
  38 0002 2023     		movs	r3, #32
  39              	@ 206 "../../fw/vexsonar.c" 1
  40 0004 83F31188 		msr     BASEPRI, r3
  41              	@ 0 "" 2
  42              		.thumb
  43              	.LBE2:
  44              		.loc 1 208 0
  45 0008 40F20003 		movw	r3, #:lower16:.LANCHOR0
  46 000c C0F20003 		movt	r3, #:upper16:.LANCHOR0
  47 0010 1978     		ldrb	r1, [r3]	@ zero_extendqisi2
  48              	.LVL1:
  49 0012 40F20003 		movw	r3, #:lower16:.LANCHOR1
  50 0016 4901     		lsls	r1, r1, #5
  51 0018 C0F20003 		movt	r3, #:upper16:.LANCHOR1
  52 001c 5A18     		adds	r2, r3, r1
  53 001e 9069     		ldr	r0, [r2, #24]
  54              	.LVL2:
  55 0020 B2F91C40 		ldrsh	r4, [r2, #28]
  56 0024 8068     		ldr	r0, [r0, #8]
  57 0026 E040     		lsrs	r0, r0, r4
ARM GAS  /tmp/ccs4ODSO.s 			page 2


  58 0028 C007     		lsls	r0, r0, #31
  59 002a 12D4     		bmi	.L5
  60              		.loc 1 212 0
  61 002c 40F20003 		movw	r3, #:lower16:GPTD5
  62 0030 C0F20003 		movt	r3, #:upper16:GPTD5
  63 0034 D968     		ldr	r1, [r3, #12]
  64              		.loc 1 213 0
  65 0036 40F20003 		movw	r3, #:lower16:.LANCHOR2
  66              		.loc 1 212 0
  67 003a 486A     		ldr	r0, [r1, #36]
  68              		.loc 1 213 0
  69 003c C0F20003 		movt	r3, #:upper16:.LANCHOR2
  70 0040 0221     		movs	r1, #2
  71 0042 1970     		strb	r1, [r3]
  72              		.loc 1 212 0
  73 0044 5080     		strh	r0, [r2, #2]	@ movhi
  74              	.LBB3:
  75              		.loc 1 216 0
  76 0046 0023     		movs	r3, #0
  77              	@ 216 "../../fw/vexsonar.c" 1
  78 0048 83F31188 		msr     BASEPRI, r3
  79              	@ 0 "" 2
  80              		.thumb
  81              	.LBE3:
  82              		.loc 1 217 0
  83 004c 5DF8044B 		ldr	r4, [sp], #4
  84 0050 7047     		bx	lr
  85              	.L5:
  86              		.loc 1 209 0
  87 0052 40F20002 		movw	r2, #:lower16:GPTD5
  88 0056 C0F20002 		movt	r2, #:upper16:GPTD5
  89 005a D268     		ldr	r2, [r2, #12]
  90 005c 526A     		ldr	r2, [r2, #36]
  91 005e 5A52     		strh	r2, [r3, r1]	@ movhi
  92              	.LBB4:
  93              		.loc 1 216 0
  94 0060 0023     		movs	r3, #0
  95              	@ 216 "../../fw/vexsonar.c" 1
  96 0062 83F31188 		msr     BASEPRI, r3
  97              	@ 0 "" 2
  98              		.thumb
  99              	.LBE4:
 100              		.loc 1 217 0
 101 0066 5DF8044B 		ldr	r4, [sp], #4
 102 006a 7047     		bx	lr
 103              		.cfi_endproc
 104              	.LFE65:
 105              		.size	_vs_echo_cb, .-_vs_echo_cb
 106 006c AFF30080 		.section	.text._vs_gpt_cb,"ax",%progbits
 107              		.align	2
 108              		.p2align 4,,15
 109              		.thumb
 110              		.thumb_func
 111              		.type	_vs_gpt_cb, %function
 112              	_vs_gpt_cb:
 113              	.LFB63:
 114              		.loc 1 95 0
ARM GAS  /tmp/ccs4ODSO.s 			page 3


 115              		.cfi_startproc
 116              		@ args = 0, pretend = 0, frame = 0
 117              		@ frame_needed = 0, uses_anonymous_args = 0
 118              	.LVL3:
 119 0000 70B5     		push	{r4, r5, r6, lr}
 120              		.cfi_def_cfa_offset 16
 121              		.cfi_offset 4, -16
 122              		.cfi_offset 5, -12
 123              		.cfi_offset 6, -8
 124              		.cfi_offset 14, -4
 125              	.LBB5:
 126              		.loc 1 98 0
 127 0002 2023     		movs	r3, #32
 128              	@ 98 "../../fw/vexsonar.c" 1
 129 0004 83F31188 		msr     BASEPRI, r3
 130              	@ 0 "" 2
 131              		.thumb
 132              	.LBE5:
 133              		.loc 1 100 0
 134 0008 40F20003 		movw	r3, #:lower16:.LANCHOR2
 135 000c C0F20003 		movt	r3, #:upper16:.LANCHOR2
 136 0010 1978     		ldrb	r1, [r3]	@ zero_extendqisi2
 137 0012 D9B1     		cbz	r1, .L9
 138              		.loc 1 107 0
 139 0014 0129     		cmp	r1, #1
 140 0016 03D0     		beq	.L10
 141              	.LBB6:
 142              		.loc 1 114 0
 143 0018 0023     		movs	r3, #0
 144              	@ 114 "../../fw/vexsonar.c" 1
 145 001a 83F31188 		msr     BASEPRI, r3
 146              	@ 0 "" 2
 147              		.thumb
 148 001e 70BD     		pop	{r4, r5, r6, pc}
 149              	.L10:
 150              	.LBE6:
 151              		.loc 1 109 0
 152 0020 40F20002 		movw	r2, #:lower16:.LANCHOR0
 153 0024 C0F20002 		movt	r2, #:upper16:.LANCHOR0
 154 0028 1178     		ldrb	r1, [r2]	@ zero_extendqisi2
 155 002a 40F20002 		movw	r2, #:lower16:.LANCHOR1
 156 002e 4901     		lsls	r1, r1, #5
 157 0030 C0F20002 		movt	r2, #:upper16:.LANCHOR1
 158 0034 0026     		movs	r6, #0
 159 0036 5018     		adds	r0, r2, r1
 160              	.LVL4:
 161              		.loc 1 110 0
 162 0038 49F64044 		movw	r4, #40000
 163              		.loc 1 111 0
 164 003c 0325     		movs	r5, #3
 165              		.loc 1 109 0
 166 003e 5652     		strh	r6, [r2, r1]	@ movhi
 167              		.loc 1 111 0
 168 0040 1D70     		strb	r5, [r3]
 169              		.loc 1 110 0
 170 0042 4480     		strh	r4, [r0, #2]	@ movhi
 171              	.LBB7:
ARM GAS  /tmp/ccs4ODSO.s 			page 4


 172              		.loc 1 114 0
 173 0044 0023     		movs	r3, #0
 174              	@ 114 "../../fw/vexsonar.c" 1
 175 0046 83F31188 		msr     BASEPRI, r3
 176              	@ 0 "" 2
 177              		.thumb
 178 004a 70BD     		pop	{r4, r5, r6, pc}
 179              	.LVL5:
 180              	.L9:
 181              	.LBE7:
 182              		.loc 1 103 0
 183 004c 40F20002 		movw	r2, #:lower16:.LANCHOR0
 184 0050 C0F20002 		movt	r2, #:upper16:.LANCHOR0
 185 0054 1078     		ldrb	r0, [r2]	@ zero_extendqisi2
 186              	.LVL6:
 187 0056 40F20002 		movw	r2, #:lower16:.LANCHOR1
 188 005a C0F20002 		movt	r2, #:upper16:.LANCHOR1
 189 005e 02EB4012 		add	r2, r2, r0, lsl #5
 190 0062 92F90E00 		ldrsb	r0, [r2, #14]
 191              		.loc 1 102 0
 192 0066 0122     		movs	r2, #1
 193 0068 1A70     		strb	r2, [r3]
 194              		.loc 1 103 0
 195 006a FFF7FEFF 		bl	vexDigitalPinSet
 196              	.LVL7:
 197              		.loc 1 104 0
 198 006e 40F20000 		movw	r0, #:lower16:GPTD5
 199 0072 C0F20000 		movt	r0, #:upper16:GPTD5
 200 0076 49F64041 		movw	r1, #40000
 201 007a FFF7FEFF 		bl	gptStartOneShotI
 202              	.LVL8:
 203              	.LBB8:
 204              		.loc 1 114 0
 205 007e 0023     		movs	r3, #0
 206              	@ 114 "../../fw/vexsonar.c" 1
 207 0080 83F31188 		msr     BASEPRI, r3
 208              	@ 0 "" 2
 209              		.thumb
 210 0084 70BD     		pop	{r4, r5, r6, pc}
 211              	.LBE8:
 212              		.cfi_endproc
 213              	.LFE63:
 214              		.size	_vs_gpt_cb, .-_vs_gpt_cb
 215 0086 00BFAFF3 		.section	.text.vexSonarAdd,"ax",%progbits
 215      0080AFF3 
 215      0080
 216              		.align	2
 217              		.p2align 4,,15
 218              		.global	vexSonarAdd
 219              		.thumb
 220              		.thumb_func
 221              		.type	vexSonarAdd, %function
 222              	vexSonarAdd:
 223              	.LFB66:
 224              		.loc 1 228 0
 225              		.cfi_startproc
 226              		@ args = 0, pretend = 0, frame = 0
ARM GAS  /tmp/ccs4ODSO.s 			page 5


 227              		@ frame_needed = 0, uses_anonymous_args = 0
 228              	.LVL9:
 229              		.loc 1 229 0
 230 0000 0428     		cmp	r0, #4
 231              		.loc 1 228 0
 232 0002 2DE9F041 		push	{r4, r5, r6, r7, r8, lr}
 233              		.cfi_def_cfa_offset 24
 234              		.cfi_offset 4, -24
 235              		.cfi_offset 5, -20
 236              		.cfi_offset 6, -16
 237              		.cfi_offset 7, -12
 238              		.cfi_offset 8, -8
 239              		.cfi_offset 14, -4
 240              		.loc 1 228 0
 241 0006 0546     		mov	r5, r0
 242 0008 0C46     		mov	r4, r1
 243 000a 1646     		mov	r6, r2
 244              		.loc 1 229 0
 245 000c 03D8     		bhi	.L11
 246              		.loc 1 232 0
 247 000e 0B29     		cmp	r1, #11
 248 0010 01DC     		bgt	.L11
 249              		.loc 1 234 0
 250 0012 0B2A     		cmp	r2, #11
 251 0014 01DD     		ble	.L13
 252              	.L11:
 253 0016 BDE8F081 		pop	{r4, r5, r6, r7, r8, pc}
 254              	.L13:
 255              		.loc 1 240 0
 256 001a 0846     		mov	r0, r1
 257              	.LVL10:
 258 001c 0121     		movs	r1, #1
 259              	.LVL11:
 260 001e FFF7FEFF 		bl	vexDigitalModeSet
 261              	.LVL12:
 262              		.loc 1 242 0
 263 0022 40F20007 		movw	r7, #:lower16:vexioDefinition
 264 0026 04EB4402 		add	r2, r4, r4, lsl #1
 265 002a C0F20007 		movt	r7, #:upper16:vexioDefinition
 266 002e 9200     		lsls	r2, r2, #2
 267              		.loc 1 241 0
 268 0030 40F20003 		movw	r3, #:lower16:.LANCHOR1
 269              		.loc 1 243 0
 270 0034 B918     		adds	r1, r7, r2
 271              		.loc 1 241 0
 272 0036 C0F20003 		movt	r3, #:upper16:.LANCHOR1
 273 003a 03EB4515 		add	r5, r3, r5, lsl #5
 274              		.loc 1 242 0
 275 003e BA58     		ldr	r2, [r7, r2]
 276              		.loc 1 243 0
 277 0040 8B88     		ldrh	r3, [r1, #4]
 278              		.loc 1 246 0
 279 0042 3046     		mov	r0, r6
 280 0044 0021     		movs	r1, #0
 281              		.loc 1 241 0
 282 0046 AC73     		strb	r4, [r5, #14]
 283              		.loc 1 242 0
ARM GAS  /tmp/ccs4ODSO.s 			page 6


 284 0048 2A61     		str	r2, [r5, #16]
 285              		.loc 1 243 0
 286 004a AB82     		strh	r3, [r5, #20]	@ movhi
 287              		.loc 1 246 0
 288 004c FFF7FEFF 		bl	vexDigitalModeSet
 289              	.LVL13:
 290              		.loc 1 248 0
 291 0050 06EB4603 		add	r3, r6, r6, lsl #1
 292 0054 9B00     		lsls	r3, r3, #2
 293              		.loc 1 249 0
 294 0056 FA18     		adds	r2, r7, r3
 295 0058 B2F804E0 		ldrh	lr, [r2, #4]
 296              		.loc 1 248 0
 297 005c FC58     		ldr	r4, [r7, r3]
 298              		.loc 1 250 0
 299 005e 40F20003 		movw	r3, #:lower16:_vs_echo_cb
 300 0062 C0F20003 		movt	r3, #:upper16:_vs_echo_cb
 301 0066 7146     		mov	r1, lr
 302 0068 2046     		mov	r0, r4
 303 006a 0322     		movs	r2, #3
 304              		.loc 1 247 0
 305 006c EE73     		strb	r6, [r5, #15]
 306              		.loc 1 249 0
 307 006e A5F81CE0 		strh	lr, [r5, #28]	@ movhi
 308              		.loc 1 248 0
 309 0072 AC61     		str	r4, [r5, #24]
 310              		.loc 1 250 0
 311 0074 FFF7FEFF 		bl	vexExtSet
 312              	.LVL14:
 313              		.loc 1 253 0
 314 0078 0323     		movs	r3, #3
 315 007a AB81     		strh	r3, [r5, #12]	@ movhi
 316 007c BDE8F081 		pop	{r4, r5, r6, r7, r8, pc}
 317              		.cfi_endproc
 318              	.LFE66:
 319              		.size	vexSonarAdd, .-vexSonarAdd
 320              		.section	.text.vexSonarStart,"ax",%progbits
 321              		.align	2
 322              		.p2align 4,,15
 323              		.global	vexSonarStart
 324              		.thumb
 325              		.thumb_func
 326              		.type	vexSonarStart, %function
 327              	vexSonarStart:
 328              	.LFB67:
 329              		.loc 1 263 0
 330              		.cfi_startproc
 331              		@ args = 0, pretend = 0, frame = 0
 332              		@ frame_needed = 0, uses_anonymous_args = 0
 333              		@ link register save eliminated.
 334              	.LVL15:
 335              		.loc 1 264 0
 336 0000 40F20003 		movw	r3, #:lower16:.LANCHOR1
 337 0004 C0F20003 		movt	r3, #:upper16:.LANCHOR1
 338 0008 03EB4013 		add	r3, r3, r0, lsl #5
 339 000c 9A89     		ldrh	r2, [r3, #12]
 340 000e D207     		lsls	r2, r2, #31
ARM GAS  /tmp/ccs4ODSO.s 			page 7


 341 0010 00D4     		bmi	.L16
 342 0012 7047     		bx	lr
 343              	.L16:
 344              		.loc 1 266 0
 345 0014 40F20000 		movw	r0, #:lower16:EXTD1
 346              	.LVL16:
 347 0018 B3F91C10 		ldrsh	r1, [r3, #28]
 348 001c C0F20000 		movt	r0, #:upper16:EXTD1
 349 0020 FFF7FEBF 		b	extChannelEnable
 350              	.LVL17:
 351              		.cfi_endproc
 352              	.LFE67:
 353              		.size	vexSonarStart, .-vexSonarStart
 354 0024 AFF30080 		.section	.text.vexSonarStop,"ax",%progbits
 354      AFF30080 
 354      AFF30080 
 355              		.align	2
 356              		.p2align 4,,15
 357              		.global	vexSonarStop
 358              		.thumb
 359              		.thumb_func
 360              		.type	vexSonarStop, %function
 361              	vexSonarStop:
 362              	.LFB68:
 363              		.loc 1 277 0
 364              		.cfi_startproc
 365              		@ args = 0, pretend = 0, frame = 0
 366              		@ frame_needed = 0, uses_anonymous_args = 0
 367              		@ link register save eliminated.
 368              	.LVL18:
 369              		.loc 1 278 0
 370 0000 40F20003 		movw	r3, #:lower16:.LANCHOR1
 371 0004 C0F20003 		movt	r3, #:upper16:.LANCHOR1
 372 0008 03EB4013 		add	r3, r3, r0, lsl #5
 373 000c 9A89     		ldrh	r2, [r3, #12]
 374 000e D107     		lsls	r1, r2, #31
 375 0010 00D4     		bmi	.L19
 376 0012 7047     		bx	lr
 377              	.L19:
 378              		.loc 1 280 0
 379 0014 40F20000 		movw	r0, #:lower16:EXTD1
 380              	.LVL19:
 381 0018 B3F91C10 		ldrsh	r1, [r3, #28]
 382 001c C0F20000 		movt	r0, #:upper16:EXTD1
 383 0020 FFF7FEBF 		b	extChannelDisable
 384              	.LVL20:
 385              		.cfi_endproc
 386              	.LFE68:
 387              		.size	vexSonarStop, .-vexSonarStop
 388 0024 AFF30080 		.section	.text.vexSonarStartAll,"ax",%progbits
 388      AFF30080 
 388      AFF30080 
 389              		.align	2
 390              		.p2align 4,,15
 391              		.global	vexSonarStartAll
 392              		.thumb
 393              		.thumb_func
ARM GAS  /tmp/ccs4ODSO.s 			page 8


 394              		.type	vexSonarStartAll, %function
 395              	vexSonarStartAll:
 396              	.LFB69:
 397              		.loc 1 290 0
 398              		.cfi_startproc
 399              		@ args = 0, pretend = 0, frame = 0
 400              		@ frame_needed = 0, uses_anonymous_args = 0
 401              	.LVL21:
 402 0000 10B5     		push	{r4, lr}
 403              		.cfi_def_cfa_offset 8
 404              		.cfi_offset 4, -8
 405              		.cfi_offset 14, -4
 406              		.loc 1 293 0
 407 0002 0024     		movs	r4, #0
 408              	.LVL22:
 409              	.L22:
 410              		.loc 1 294 0 discriminator 2
 411 0004 2046     		mov	r0, r4
 412              		.loc 1 293 0 discriminator 2
 413 0006 0134     		adds	r4, r4, #1
 414              	.LVL23:
 415 0008 E4B2     		uxtb	r4, r4
 416              		.loc 1 294 0 discriminator 2
 417 000a FFF7FEFF 		bl	vexSonarStart
 418              	.LVL24:
 419              		.loc 1 293 0 discriminator 2
 420 000e 052C     		cmp	r4, #5
 421 0010 F8D1     		bne	.L22
 422              		.loc 1 295 0
 423 0012 10BD     		pop	{r4, pc}
 424              		.cfi_endproc
 425              	.LFE69:
 426              		.size	vexSonarStartAll, .-vexSonarStartAll
 427 0014 AFF30080 		.section	.text.vexSonarRun,"ax",%progbits
 427      AFF30080 
 427      AFF30080 
 428              		.align	2
 429              		.p2align 4,,15
 430              		.global	vexSonarRun
 431              		.thumb
 432              		.thumb_func
 433              		.type	vexSonarRun, %function
 434              	vexSonarRun:
 435              	.LFB70:
 436              		.loc 1 303 0
 437              		.cfi_startproc
 438              		@ args = 0, pretend = 0, frame = 0
 439              		@ frame_needed = 0, uses_anonymous_args = 0
 440 0000 10B5     		push	{r4, lr}
 441              		.cfi_def_cfa_offset 8
 442              		.cfi_offset 4, -8
 443              		.cfi_offset 14, -4
 444              		.loc 1 307 0
 445 0002 40F20004 		movw	r4, #:lower16:.LANCHOR3
 446 0006 C0F20004 		movt	r4, #:upper16:.LANCHOR3
 447 000a 2368     		ldr	r3, [r4]
 448              		.loc 1 303 0
ARM GAS  /tmp/ccs4ODSO.s 			page 9


 449 000c 82B0     		sub	sp, sp, #8
 450              		.cfi_def_cfa_offset 16
 451              		.loc 1 307 0
 452 000e 0BB1     		cbz	r3, .L28
 453              	.L23:
 454              		.loc 1 319 0
 455 0010 02B0     		add	sp, sp, #8
 456              		@ sp needed
 457 0012 10BD     		pop	{r4, pc}
 458              	.L28:
 459 0014 40F20003 		movw	r3, #:lower16:.LANCHOR1
 460 0018 C0F20003 		movt	r3, #:upper16:.LANCHOR1
 461 001c 03F1A001 		add	r1, r3, #160
 462 0020 01E0     		b	.L26
 463              	.LVL25:
 464              	.L25:
 465              		.loc 1 311 0
 466 0022 8B42     		cmp	r3, r1
 467 0024 F4D0     		beq	.L23
 468              	.L26:
 469              		.loc 1 313 0
 470 0026 9A89     		ldrh	r2, [r3, #12]
 471 0028 2033     		adds	r3, r3, #32
 472 002a 9007     		lsls	r0, r2, #30
 473 002c F9D5     		bpl	.L25
 474              		.loc 1 315 0
 475 002e 0022     		movs	r2, #0
 476 0030 40F20000 		movw	r0, #:lower16:.LANCHOR4
 477 0034 40F20003 		movw	r3, #:lower16:VexSonarTask
 478 0038 0092     		str	r2, [sp]
 479 003a C0F20003 		movt	r3, #:upper16:VexSonarTask
 480 003e 4FF4C071 		mov	r1, #384
 481 0042 4822     		movs	r2, #72
 482 0044 C0F20000 		movt	r0, #:upper16:.LANCHOR4
 483 0048 FFF7FEFF 		bl	chThdCreateStatic
 484              	.LVL26:
 485 004c 2060     		str	r0, [r4]
 486              		.loc 1 319 0
 487 004e 02B0     		add	sp, sp, #8
 488              		@ sp needed
 489 0050 10BD     		pop	{r4, pc}
 490              		.cfi_endproc
 491              	.LFE70:
 492              		.size	vexSonarRun, .-vexSonarRun
 493 0052 00BFAFF3 		.section	.text.vexSonarPing,"ax",%progbits
 493      0080AFF3 
 493      0080AFF3 
 493      0080
 494              		.align	2
 495              		.p2align 4,,15
 496              		.global	vexSonarPing
 497              		.thumb
 498              		.thumb_func
 499              		.type	vexSonarPing, %function
 500              	vexSonarPing:
 501              	.LFB71:
 502              		.loc 1 329 0
ARM GAS  /tmp/ccs4ODSO.s 			page 10


 503              		.cfi_startproc
 504              		@ args = 0, pretend = 0, frame = 0
 505              		@ frame_needed = 0, uses_anonymous_args = 0
 506              	.LVL27:
 507 0000 08B5     		push	{r3, lr}
 508              		.cfi_def_cfa_offset 8
 509              		.cfi_offset 3, -8
 510              		.cfi_offset 14, -4
 511              		.loc 1 330 0
 512 0002 40F20003 		movw	r3, #:lower16:.LANCHOR1
 513 0006 C0F20003 		movt	r3, #:upper16:.LANCHOR1
 514 000a 03EB4010 		add	r0, r3, r0, lsl #5
 515              	.LVL28:
 516 000e B0F90C20 		ldrsh	r2, [r0, #12]
 517 0012 032A     		cmp	r2, #3
 518 0014 00D0     		beq	.L31
 519 0016 08BD     		pop	{r3, pc}
 520              	.L31:
 521              		.loc 1 331 0
 522 0018 90F90E00 		ldrsb	r0, [r0, #14]
 523 001c 0121     		movs	r1, #1
 524 001e FFF7FEFF 		bl	vexDigitalPinSet
 525              	.LVL29:
 526              		.loc 1 332 0
 527 0022 40F20003 		movw	r3, #:lower16:.LANCHOR2
 528 0026 C0F20003 		movt	r3, #:upper16:.LANCHOR2
 529              		.loc 1 333 0
 530 002a 40F20000 		movw	r0, #:lower16:GPTD5
 531              		.loc 1 332 0
 532 002e 0022     		movs	r2, #0
 533 0030 1A70     		strb	r2, [r3]
 534              		.loc 1 333 0
 535 0032 C0F20000 		movt	r0, #:upper16:GPTD5
 536 0036 0A21     		movs	r1, #10
 537              		.loc 1 335 0
 538 0038 BDE80840 		pop	{r3, lr}
 539              		.loc 1 333 0
 540 003c FFF7FEBF 		b	gptStartOneShot
 541              	.LVL30:
 542              		.cfi_endproc
 543              	.LFE71:
 544              		.size	vexSonarPing, .-vexSonarPing
 545              		.section	.text.VexSonarTask,"ax",%progbits
 546              		.align	2
 547              		.p2align 4,,15
 548              		.thumb
 549              		.thumb_func
 550              		.type	VexSonarTask, %function
 551              	VexSonarTask:
 552              	.LFB64:
 553              		.loc 1 137 0
 554              		.cfi_startproc
 555              		@ args = 0, pretend = 0, frame = 0
 556              		@ frame_needed = 0, uses_anonymous_args = 0
 557              	.LVL31:
 558 0000 2DE9F84F 		push	{r3, r4, r5, r6, r7, r8, r9, r10, fp, lr}
 559              		.cfi_def_cfa_offset 40
ARM GAS  /tmp/ccs4ODSO.s 			page 11


 560              		.cfi_offset 3, -40
 561              		.cfi_offset 4, -36
 562              		.cfi_offset 5, -32
 563              		.cfi_offset 6, -28
 564              		.cfi_offset 7, -24
 565              		.cfi_offset 8, -20
 566              		.cfi_offset 9, -16
 567              		.cfi_offset 10, -12
 568              		.cfi_offset 11, -8
 569              		.cfi_offset 14, -4
 570              		.loc 1 142 0
 571 0004 40F20009 		movw	r9, #:lower16:rlist
 572 0008 C0F20009 		movt	r9, #:upper16:rlist
 573 000c D9F81820 		ldr	r2, [r9, #24]
 574 0010 40F20003 		movw	r3, #:lower16:.LC0
 575 0014 C0F20003 		movt	r3, #:upper16:.LC0
 576              		.loc 1 144 0
 577 0018 40F20000 		movw	r0, #:lower16:GPTD5
 578              	.LVL32:
 579 001c 40F20001 		movw	r1, #:lower16:.LANCHOR5
 580              		.loc 1 142 0
 581 0020 9361     		str	r3, [r2, #24]
 582              		.loc 1 144 0
 583 0022 C0F20000 		movt	r0, #:upper16:GPTD5
 584 0026 C0F20001 		movt	r1, #:upper16:.LANCHOR5
 585 002a FFF7FEFF 		bl	gptStart
 586              	.LVL33:
 587              		.loc 1 148 0
 588 002e 40F20004 		movw	r4, #:lower16:.LANCHOR0
 589 0032 40F20008 		movw	r8, #:lower16:.LANCHOR1
 590              		.loc 1 156 0
 591 0036 40F20005 		movw	r5, #:lower16:vtlist
 592              		.loc 1 168 0
 593 003a 4CF60937 		movw	r7, #51977
 594              		.loc 1 169 0
 595 003e 4CF6A706 		movw	r6, #51367
 596              		.loc 1 148 0
 597 0042 C0F20004 		movt	r4, #:upper16:.LANCHOR0
 598 0046 C0F20008 		movt	r8, #:upper16:.LANCHOR1
 599              		.loc 1 156 0
 600 004a C0F20005 		movt	r5, #:upper16:vtlist
 601              		.loc 1 168 0
 602 004e C8F63D57 		movt	r7, 36157
 603              		.loc 1 169 0
 604 0052 CDF66756 		movt	r6, 56679
 605              	.L33:
 606              		.loc 1 146 0 discriminator 1
 607 0056 D9F81830 		ldr	r3, [r9, #24]
 608 005a 5B7F     		ldrb	r3, [r3, #29]	@ zero_extendqisi2
 609 005c 5B07     		lsls	r3, r3, #29
 610 005e 16D4     		bmi	.L51
 611              	.L44:
 612              		.loc 1 148 0
 613 0060 2078     		ldrb	r0, [r4]	@ zero_extendqisi2
 614 0062 40F2000B 		movw	fp, #:lower16:.LANCHOR0
 615 0066 08EB4013 		add	r3, r8, r0, lsl #5
 616 006a B3F90C30 		ldrsh	r3, [r3, #12]
ARM GAS  /tmp/ccs4ODSO.s 			page 12


 617 006e 40F2000A 		movw	r10, #:lower16:.LANCHOR1
 618 0072 032B     		cmp	r3, #3
 619 0074 C0F2000B 		movt	fp, #:upper16:.LANCHOR0
 620 0078 C0F2000A 		movt	r10, #:upper16:.LANCHOR1
 621 007c 0AD0     		beq	.L52
 622              		.loc 1 190 0
 623 007e 1920     		movs	r0, #25
 624 0080 FFF7FEFF 		bl	chThdSleep
 625              	.LVL34:
 626              		.loc 1 146 0
 627 0084 D9F81830 		ldr	r3, [r9, #24]
 628 0088 5B7F     		ldrb	r3, [r3, #29]	@ zero_extendqisi2
 629 008a 5B07     		lsls	r3, r3, #29
 630 008c E8D5     		bpl	.L44
 631              	.L51:
 632              		.loc 1 194 0
 633 008e 0020     		movs	r0, #0
 634 0090 BDE8F88F 		pop	{r3, r4, r5, r6, r7, r8, r9, r10, fp, pc}
 635              	.L52:
 636              		.loc 1 151 0
 637 0094 FFF7FEFF 		bl	vexSonarPing
 638              	.LVL35:
 639              		.loc 1 156 0
 640 0098 E868     		ldr	r0, [r5, #12]
 641 009a 3230     		adds	r0, r0, #50
 642 009c FFF7FEFF 		bl	chThdSleepUntil
 643              	.LVL36:
 644              		.loc 1 159 0
 645 00a0 9BF80030 		ldrb	r3, [fp]	@ zero_extendqisi2
 646              		.loc 1 162 0
 647 00a4 48F6B80C 		movw	ip, #35000
 648              		.loc 1 159 0
 649 00a8 5801     		lsls	r0, r3, #5
 650 00aa 0AEB0001 		add	r1, r10, r0
 651 00ae 3AF80020 		ldrh	r2, [r10, r0]
 652 00b2 B1F802A0 		ldrh	r10, [r1, #2]
 653 00b6 C2EB0A02 		rsb	r2, r2, r10
 654              		.loc 1 162 0
 655 00ba 6245     		cmp	r2, ip
 656              		.loc 1 159 0
 657 00bc 4A60     		str	r2, [r1, #4]
 658              		.loc 1 163 0
 659 00be C4BF     		itt	gt
 660 00c0 4FF0FF32 		movgt	r2, #-1
 661 00c4 4A60     		strgt	r2, [r1, #4]
 662              		.loc 1 162 0
 663 00c6 14DD     		ble	.L53
 664              	.L36:
 665              		.loc 1 173 0
 666 00c8 4044     		add	r0, r0, r8
 667 00ca 4FF6FF72 		movw	r2, #65535
 668 00ce 0281     		strh	r2, [r0, #8]	@ movhi
 669              		.loc 1 174 0
 670 00d0 4281     		strh	r2, [r0, #10]	@ movhi
 671              	.L37:
 672              	.LVL37:
 673              		.loc 1 137 0 discriminator 1
ARM GAS  /tmp/ccs4ODSO.s 			page 13


 674 00d2 0522     		movs	r2, #5
 675              	.LVL38:
 676              	.L43:
 677              		.loc 1 180 0
 678 00d4 0133     		adds	r3, r3, #1
 679 00d6 DBB2     		uxtb	r3, r3
 680 00d8 052B     		cmp	r3, #5
 681 00da 08BF     		it	eq
 682 00dc 0023     		moveq	r3, #0
 683              		.loc 1 184 0
 684 00de 08EB4311 		add	r1, r8, r3, lsl #5
 685 00e2 B1F90C10 		ldrsh	r1, [r1, #12]
 686 00e6 0329     		cmp	r1, #3
 687 00e8 01D0     		beq	.L50
 688              		.loc 1 178 0
 689 00ea 013A     		subs	r2, r2, #1
 690              	.LVL39:
 691 00ec F2D1     		bne	.L43
 692              	.LVL40:
 693              	.L50:
 694 00ee 2370     		strb	r3, [r4]
 695 00f0 B1E7     		b	.L33
 696              	.L53:
 697              		.loc 1 166 0
 698 00f2 B2F1FF3F 		cmp	r2, #-1
 699 00f6 E7D0     		beq	.L36
 700              		.loc 1 168 0
 701 00f8 87FB020C 		smull	r0, ip, r7, r2
 702              		.loc 1 169 0
 703 00fc 86FB020A 		smull	r0, r10, r6, r2
 704              		.loc 1 168 0
 705 0100 9444     		add	ip, ip, r2
 706 0102 D017     		asrs	r0, r2, #31
 707              		.loc 1 169 0
 708 0104 5244     		add	r2, r2, r10
 709              		.loc 1 168 0
 710 0106 C0EB6C1C 		rsb	ip, r0, ip, asr #5
 711              		.loc 1 169 0
 712 010a C0EBE210 		rsb	r0, r0, r2, asr #7
 713              		.loc 1 168 0
 714 010e A1F808C0 		strh	ip, [r1, #8]	@ movhi
 715              		.loc 1 169 0
 716 0112 4881     		strh	r0, [r1, #10]	@ movhi
 717 0114 DDE7     		b	.L37
 718              		.cfi_endproc
 719              	.LFE64:
 720              		.size	VexSonarTask, .-VexSonarTask
 721 0116 00BFAFF3 		.section	.text.vexSonarGetCm,"ax",%progbits
 721      0080AFF3 
 721      0080
 722              		.align	2
 723              		.p2align 4,,15
 724              		.global	vexSonarGetCm
 725              		.thumb
 726              		.thumb_func
 727              		.type	vexSonarGetCm, %function
 728              	vexSonarGetCm:
ARM GAS  /tmp/ccs4ODSO.s 			page 14


 729              	.LFB72:
 730              		.loc 1 345 0
 731              		.cfi_startproc
 732              		@ args = 0, pretend = 0, frame = 0
 733              		@ frame_needed = 0, uses_anonymous_args = 0
 734              		@ link register save eliminated.
 735              	.LVL41:
 736              		.loc 1 346 0
 737 0000 40F20003 		movw	r3, #:lower16:.LANCHOR1
 738 0004 C0F20003 		movt	r3, #:upper16:.LANCHOR1
 739 0008 03EB4010 		add	r0, r3, r0, lsl #5
 740              	.LVL42:
 741 000c 8289     		ldrh	r2, [r0, #12]
 742 000e 9307     		lsls	r3, r2, #30
 743              		.loc 1 347 0
 744 0010 4CBF     		ite	mi
 745 0012 0089     		ldrhmi	r0, [r0, #8]
 746              		.loc 1 350 0
 747 0014 4FF6FF70 		movwpl	r0, #65535
 748              		.loc 1 351 0
 749 0018 00B2     		sxth	r0, r0
 750 001a 7047     		bx	lr
 751              		.cfi_endproc
 752              	.LFE72:
 753              		.size	vexSonarGetCm, .-vexSonarGetCm
 754 001c AFF30080 		.section	.text.vexSonarGetInch,"ax",%progbits
 755              		.align	2
 756              		.p2align 4,,15
 757              		.global	vexSonarGetInch
 758              		.thumb
 759              		.thumb_func
 760              		.type	vexSonarGetInch, %function
 761              	vexSonarGetInch:
 762              	.LFB73:
 763              		.loc 1 361 0
 764              		.cfi_startproc
 765              		@ args = 0, pretend = 0, frame = 0
 766              		@ frame_needed = 0, uses_anonymous_args = 0
 767              		@ link register save eliminated.
 768              	.LVL43:
 769              		.loc 1 362 0
 770 0000 40F20003 		movw	r3, #:lower16:.LANCHOR1
 771 0004 C0F20003 		movt	r3, #:upper16:.LANCHOR1
 772 0008 03EB4010 		add	r0, r3, r0, lsl #5
 773              	.LVL44:
 774 000c 8289     		ldrh	r2, [r0, #12]
 775 000e 9207     		lsls	r2, r2, #30
 776              		.loc 1 363 0
 777 0010 4CBF     		ite	mi
 778 0012 4089     		ldrhmi	r0, [r0, #10]
 779              		.loc 1 366 0
 780 0014 4FF6FF70 		movwpl	r0, #65535
 781              		.loc 1 367 0
 782 0018 00B2     		sxth	r0, r0
 783 001a 7047     		bx	lr
 784              		.cfi_endproc
 785              	.LFE73:
ARM GAS  /tmp/ccs4ODSO.s 			page 15


 786              		.size	vexSonarGetInch, .-vexSonarGetInch
 787 001c AFF30080 		.section	.text.vexSonarDebug,"ax",%progbits
 788              		.align	2
 789              		.p2align 4,,15
 790              		.global	vexSonarDebug
 791              		.thumb
 792              		.thumb_func
 793              		.type	vexSonarDebug, %function
 794              	vexSonarDebug:
 795              	.LFB74:
 796              		.loc 1 378 0
 797              		.cfi_startproc
 798              		@ args = 0, pretend = 0, frame = 0
 799              		@ frame_needed = 0, uses_anonymous_args = 0
 800              	.LVL45:
 801 0000 F0B5     		push	{r4, r5, r6, r7, lr}
 802              		.cfi_def_cfa_offset 20
 803              		.cfi_offset 4, -20
 804              		.cfi_offset 5, -16
 805              		.cfi_offset 6, -12
 806              		.cfi_offset 7, -8
 807              		.cfi_offset 14, -4
 808 0002 164C     		ldr	r4, .L63
 809 0004 83B0     		sub	sp, sp, #12
 810              		.cfi_def_cfa_offset 32
 811              		.loc 1 378 0
 812 0006 0746     		mov	r7, r0
 813 0008 A4F10C05 		sub	r5, r4, #12
 814 000c 0026     		movs	r6, #0
 815              	.LVL46:
 816              	.L62:
 817              		.loc 1 386 0 discriminator 2
 818 000e 34F80C0C 		ldrh	r0, [r4, #-12]
 819 0012 34F80A2C 		ldrh	r2, [r4, #-10]
 820 0016 40F20001 		movw	r1, #:lower16:.LC1
 821 001a B5F90C30 		ldrsh	r3, [r5, #12]
 822 001e C0F20001 		movt	r1, #:upper16:.LC1
 823 0022 8DE80500 		stmia	sp, {r0, r2}
 824 0026 3246     		mov	r2, r6
 825 0028 3846     		mov	r0, r7
 826 002a FFF7FEFF 		bl	vex_chprintf
 827              	.LVL47:
 828              		.loc 1 387 0 discriminator 2
 829 002e B5F90A00 		ldrsh	r0, [r5, #10]
 830 0032 40F20001 		movw	r1, #:lower16:.LC2
 831 0036 B5F90830 		ldrsh	r3, [r5, #8]
 832 003a 54F8082C 		ldr	r2, [r4, #-8]
 833 003e 0090     		str	r0, [sp]
 834 0040 0136     		adds	r6, r6, #1
 835              	.LVL48:
 836 0042 C0F20001 		movt	r1, #:upper16:.LC2
 837 0046 3846     		mov	r0, r7
 838 0048 FFF7FEFF 		bl	vex_chprintf
 839              	.LVL49:
 840              		.loc 1 384 0 discriminator 2
 841 004c 052E     		cmp	r6, #5
 842 004e 04F12004 		add	r4, r4, #32
ARM GAS  /tmp/ccs4ODSO.s 			page 16


 843 0052 05F12005 		add	r5, r5, #32
 844 0056 DAD1     		bne	.L62
 845              		.loc 1 389 0
 846 0058 03B0     		add	sp, sp, #12
 847              		@ sp needed
 848 005a F0BD     		pop	{r4, r5, r6, r7, pc}
 849              	.LVL50:
 850              	.L64:
 851              		.align	2
 852              	.L63:
 853 005c 0C000000 		.word	.LANCHOR1+12
 854              		.cfi_endproc
 855              	.LFE74:
 856              		.size	vexSonarDebug, .-vexSonarDebug
 857              		.section	.bss.vexSonarThread,"aw",%nobits
 858              		.align	2
 859              		.set	.LANCHOR3,. + 0
 860              		.type	vexSonarThread, %object
 861              		.size	vexSonarThread, 4
 862              	vexSonarThread:
 863 0000 00000000 		.space	4
 864              		.section	.bss.waVexSonarTask,"aw",%nobits
 865              		.align	3
 866              		.set	.LANCHOR4,. + 0
 867              		.type	waVexSonarTask, %object
 868              		.size	waVexSonarTask, 384
 869              	waVexSonarTask:
 870 0000 00000000 		.space	384
 870      00000000 
 870      00000000 
 870      00000000 
 870      00000000 
 871              		.section	.bss.nextSonar,"aw",%nobits
 872              		.set	.LANCHOR0,. + 0
 873              		.type	nextSonar, %object
 874              		.size	nextSonar, 1
 875              	nextSonar:
 876 0000 00       		.space	1
 877              		.section	.bss.vexSonars,"aw",%nobits
 878              		.align	2
 879              		.set	.LANCHOR1,. + 0
 880              		.type	vexSonars, %object
 881              		.size	vexSonars, 160
 882              	vexSonars:
 883 0000 00000000 		.space	160
 883      00000000 
 883      00000000 
 883      00000000 
 883      00000000 
 884              		.section	.rodata.vexSonarGpt,"a",%progbits
 885              		.align	2
 886              		.set	.LANCHOR5,. + 0
 887              		.type	vexSonarGpt, %object
 888              		.size	vexSonarGpt, 12
 889              	vexSonarGpt:
 890 0000 40420F00 		.word	1000000
 891 0004 00000000 		.word	_vs_gpt_cb
ARM GAS  /tmp/ccs4ODSO.s 			page 17


 892 0008 00000000 		.word	0
 893              		.section	.rodata.str1.4,"aMS",%progbits,1
 894              		.align	2
 895              	.LC0:
 896 0000 736F6E61 		.ascii	"sonar\000"
 896      7200
 897 0006 0000     		.space	2
 898              	.LC1:
 899 0008 53256420 		.ascii	"S%d %d %5d %5d \000"
 899      25642025 
 899      35642025 
 899      35642000 
 900              	.LC2:
 901 0018 25356420 		.ascii	"%5d %4d(cm) %3d(inch)\015\012\000"
 901      25346428 
 901      636D2920 
 901      25336428 
 901      696E6368 
 902              		.section	.bss.nextState,"aw",%nobits
 903              		.set	.LANCHOR2,. + 0
 904              		.type	nextState, %object
 905              		.size	nextState, 1
 906              	nextState:
 907 0000 00       		.space	1
 908              		.text
 909              	.Letext0:
 910              		.file 2 "/usr/lib/gcc/arm-none-eabi/4.8.2/include/stddef.h"
 911              		.file 3 "/usr/include/newlib/machine/_default_types.h"
 912              		.file 4 "/usr/include/newlib/stdint.h"
 913              		.file 5 "../../../../ChibiOS_2.6.2/os/ports/GCC/ARMCMx/chtypes.h"
 914              		.file 6 "../../../../ChibiOS_2.6.2/os/kernel/include/chlists.h"
 915              		.file 7 "../../../../ChibiOS_2.6.2/os/kernel/include/chthreads.h"
 916              		.file 8 "../../../../ChibiOS_2.6.2/os/ports/GCC/ARMCMx/chcore_v7m.h"
 917              		.file 9 "../../../../ChibiOS_2.6.2/os/kernel/include/chvt.h"
 918              		.file 10 "../../../../ChibiOS_2.6.2/os/kernel/include/chschd.h"
 919              		.file 11 "../../../../ChibiOS_2.6.2/os/kernel/include/chmtx.h"
 920              		.file 12 "../../../../ChibiOS_2.6.2/os/kernel/include/chstreams.h"
 921              		.file 13 "../../../../ChibiOS_2.6.2/os/hal/platforms/STM32F1xx/stm32f10x.h"
 922              		.file 14 "../../../../ChibiOS_2.6.2/os/hal/platforms/STM32/GPIOv1/pal_lld.h"
 923              		.file 15 "../../../../ChibiOS_2.6.2/os/hal/include/ext.h"
 924              		.file 16 "../../../../ChibiOS_2.6.2/os/hal/platforms/STM32/ext_lld.h"
 925              		.file 17 "../../../../ChibiOS_2.6.2/os/hal/include/gpt.h"
 926              		.file 18 "../../../../ChibiOS_2.6.2/os/hal/platforms/STM32/TIMv1/gpt_lld.h"
 927              		.file 19 "../../../../ChibiOS_2.6.2/os/hal/platforms/STM32/TIMv1/stm32_tim.h"
 928              		.file 20 "../../fw/vexcompat.h"
 929              		.file 21 "../../fw/vexdigital.h"
 930              		.file 22 "../../fw/vexsonar.h"
 931              		.file 23 "../../fw/vexime.h"
 932              		.file 24 "../../../../ChibiOS_2.6.2/os/ports/common/ARMCMx/CMSIS/include/core_cm3.h"
 933              		.file 25 "../../fw/vexprintf.h"