ARM GAS  /tmp/ccZPHkgD.s 			page 1


   1              		.syntax unified
   2              		.cpu cortex-m3
   3              		.fpu softvfp
   4              		.eabi_attribute 20, 1
   5              		.eabi_attribute 21, 1
   6              		.eabi_attribute 23, 3
   7              		.eabi_attribute 24, 1
   8              		.eabi_attribute 25, 1
   9              		.eabi_attribute 26, 1
  10              		.eabi_attribute 30, 2
  11              		.eabi_attribute 34, 1
  12              		.eabi_attribute 18, 4
  13              		.thumb
  14              		.file	"vexshell.c"
  15              		.text
  16              	.Ltext0:
  17              		.cfi_sections	.debug_frame
  18              		.section	.text.cmd_flags,"ax",%progbits
  19              		.align	2
  20              		.p2align 4,,15
  21              		.thumb
  22              		.thumb_func
  23              		.type	cmd_flags, %function
  24              	cmd_flags:
  25              	.LFB71:
  26              		.file 1 "../../fw/vexshell.c"
  27              		.loc 1 263 0
  28              		.cfi_startproc
  29              		@ args = 0, pretend = 0, frame = 0
  30              		@ frame_needed = 0, uses_anonymous_args = 0
  31              	.LVL0:
  32              		.loc 1 264 0
  33 0000 0129     		cmp	r1, #1
  34              		.loc 1 263 0
  35 0002 70B5     		push	{r4, r5, r6, lr}
  36              		.cfi_def_cfa_offset 16
  37              		.cfi_offset 4, -16
  38              		.cfi_offset 5, -12
  39              		.cfi_offset 6, -8
  40              		.cfi_offset 14, -4
  41              		.loc 1 263 0
  42 0004 1446     		mov	r4, r2
  43 0006 0646     		mov	r6, r0
  44              		.loc 1 264 0
  45 0008 71DD     		ble	.L12
  46              		.loc 1 271 0
  47 000a 1568     		ldr	r5, [r2]
  48 000c 40F20001 		movw	r1, #:lower16:.LC3
  49              	.LVL1:
  50 0010 2846     		mov	r0, r5
  51              	.LVL2:
  52 0012 C0F20001 		movt	r1, #:upper16:.LC3
  53 0016 FFF7FEFF 		bl	strcasecmp
  54              	.LVL3:
  55 001a A0B9     		cbnz	r0, .L3
  56              		.loc 1 272 0
  57 001c 6568     		ldr	r5, [r4, #4]
ARM GAS  /tmp/ccZPHkgD.s 			page 2


  58 001e 40F20001 		movw	r1, #:lower16:.LC4
  59 0022 2846     		mov	r0, r5
  60 0024 C0F20001 		movt	r1, #:upper16:.LC4
  61 0028 FFF7FEFF 		bl	strcasecmp
  62              	.LVL4:
  63 002c 0028     		cmp	r0, #0
  64 002e 4FD0     		beq	.L13
  65              	.L4:
  66              		.loc 1 276 0
  67 0030 40F20001 		movw	r1, #:lower16:.LC6
  68 0034 2846     		mov	r0, r5
  69 0036 C0F20001 		movt	r1, #:upper16:.LC6
  70 003a FFF7FEFF 		bl	strcasecmp
  71              	.LVL5:
  72 003e 0346     		mov	r3, r0
  73 0040 0028     		cmp	r0, #0
  74 0042 38D0     		beq	.L5
  75              	.L10:
  76 0044 2568     		ldr	r5, [r4]
  77              	.L3:
  78              		.loc 1 281 0
  79 0046 40F20001 		movw	r1, #:lower16:.LC8
  80 004a 2846     		mov	r0, r5
  81 004c C0F20001 		movt	r1, #:upper16:.LC8
  82 0050 FFF7FEFF 		bl	strcasecmp
  83              	.LVL6:
  84 0054 88B9     		cbnz	r0, .L1
  85              		.loc 1 282 0
  86 0056 6568     		ldr	r5, [r4, #4]
  87 0058 40F20001 		movw	r1, #:lower16:.LC4
  88 005c 2846     		mov	r0, r5
  89 005e C0F20001 		movt	r1, #:upper16:.LC4
  90 0062 FFF7FEFF 		bl	strcasecmp
  91              	.LVL7:
  92 0066 B8B1     		cbz	r0, .L14
  93              	.L8:
  94              		.loc 1 286 0
  95 0068 40F20001 		movw	r1, #:lower16:.LC6
  96 006c 2846     		mov	r0, r5
  97 006e C0F20001 		movt	r1, #:upper16:.LC6
  98 0072 FFF7FEFF 		bl	strcasecmp
  99              	.LVL8:
 100 0076 0346     		mov	r3, r0
 101 0078 00B1     		cbz	r0, .L15
 102              	.L1:
 103 007a 70BD     		pop	{r4, r5, r6, pc}
 104              	.LVL9:
 105              	.L15:
 106              		.loc 1 287 0
 107 007c 40F20002 		movw	r2, #:lower16:.LANCHOR1
 108              		.loc 1 288 0
 109 0080 40F20001 		movw	r1, #:lower16:.LC10
 110 0084 3046     		mov	r0, r6
 111              		.loc 1 287 0
 112 0086 C0F20002 		movt	r2, #:upper16:.LANCHOR1
 113              		.loc 1 288 0
 114 008a C0F20001 		movt	r1, #:upper16:.LC10
ARM GAS  /tmp/ccZPHkgD.s 			page 3


 115              		.loc 1 291 0
 116 008e BDE87040 		pop	{r4, r5, r6, lr}
 117              	.LVL10:
 118              		.loc 1 287 0
 119 0092 1370     		strb	r3, [r2]
 120              		.loc 1 288 0
 121 0094 FFF7FEBF 		b	vex_chprintf
 122              	.LVL11:
 123              	.L14:
 124              		.loc 1 283 0
 125 0098 40F20003 		movw	r3, #:lower16:.LANCHOR1
 126              		.loc 1 284 0
 127 009c 40F20001 		movw	r1, #:lower16:.LC9
 128              		.loc 1 283 0
 129 00a0 C0F20003 		movt	r3, #:upper16:.LANCHOR1
 130 00a4 0122     		movs	r2, #1
 131              		.loc 1 284 0
 132 00a6 C0F20001 		movt	r1, #:upper16:.LC9
 133 00aa 3046     		mov	r0, r6
 134              		.loc 1 283 0
 135 00ac 1A70     		strb	r2, [r3]
 136              		.loc 1 284 0
 137 00ae FFF7FEFF 		bl	vex_chprintf
 138              	.LVL12:
 139 00b2 6568     		ldr	r5, [r4, #4]
 140 00b4 D8E7     		b	.L8
 141              	.L5:
 142              		.loc 1 277 0
 143 00b6 40F20002 		movw	r2, #:lower16:.LANCHOR0
 144              		.loc 1 278 0
 145 00ba 40F20001 		movw	r1, #:lower16:.LC7
 146              		.loc 1 277 0
 147 00be C0F20002 		movt	r2, #:upper16:.LANCHOR0
 148              		.loc 1 278 0
 149 00c2 C0F20001 		movt	r1, #:upper16:.LC7
 150 00c6 3046     		mov	r0, r6
 151              		.loc 1 277 0
 152 00c8 1370     		strb	r3, [r2]
 153              		.loc 1 278 0
 154 00ca FFF7FEFF 		bl	vex_chprintf
 155              	.LVL13:
 156 00ce B9E7     		b	.L10
 157              	.L13:
 158              		.loc 1 273 0
 159 00d0 40F20003 		movw	r3, #:lower16:.LANCHOR0
 160              		.loc 1 274 0
 161 00d4 40F20001 		movw	r1, #:lower16:.LC5
 162              		.loc 1 273 0
 163 00d8 C0F20003 		movt	r3, #:upper16:.LANCHOR0
 164 00dc 0122     		movs	r2, #1
 165              		.loc 1 274 0
 166 00de C0F20001 		movt	r1, #:upper16:.LC5
 167 00e2 3046     		mov	r0, r6
 168              		.loc 1 273 0
 169 00e4 1A70     		strb	r2, [r3]
 170              		.loc 1 274 0
 171 00e6 FFF7FEFF 		bl	vex_chprintf
ARM GAS  /tmp/ccZPHkgD.s 			page 4


 172              	.LVL14:
 173 00ea 6568     		ldr	r5, [r4, #4]
 174 00ec A0E7     		b	.L4
 175              	.LVL15:
 176              	.L12:
 177              		.loc 1 265 0
 178 00ee 40F20001 		movw	r1, #:lower16:.LC0
 179              	.LVL16:
 180 00f2 C0F20001 		movt	r1, #:upper16:.LC0
 181 00f6 FFF7FEFF 		bl	vex_chprintf
 182              	.LVL17:
 183              		.loc 1 266 0
 184 00fa 40F20001 		movw	r1, #:lower16:.LC1
 185 00fe 3046     		mov	r0, r6
 186 0100 C0F20001 		movt	r1, #:upper16:.LC1
 187 0104 FFF7FEFF 		bl	vex_chprintf
 188              	.LVL18:
 189              		.loc 1 267 0
 190 0108 40F20001 		movw	r1, #:lower16:.LC2
 191 010c 3046     		mov	r0, r6
 192 010e C0F20001 		movt	r1, #:upper16:.LC2
 193              		.loc 1 291 0
 194 0112 BDE87040 		pop	{r4, r5, r6, lr}
 195              	.LVL19:
 196              		.loc 1 267 0
 197 0116 FFF7FEBF 		b	vex_chprintf
 198              	.LVL20:
 199              		.cfi_endproc
 200              	.LFE71:
 201              		.size	cmd_flags, .-cmd_flags
 202 011a 00BFAFF3 		.section	.text.cmd_systime,"ax",%progbits
 202      0080
 203              		.align	2
 204              		.p2align 4,,15
 205              		.thumb
 206              		.thumb_func
 207              		.type	cmd_systime, %function
 208              	cmd_systime:
 209              	.LFB67:
 210              		.loc 1 172 0
 211              		.cfi_startproc
 212              		@ args = 0, pretend = 0, frame = 0
 213              		@ frame_needed = 0, uses_anonymous_args = 0
 214              		@ link register save eliminated.
 215              	.LVL21:
 216              		.loc 1 174 0
 217 0000 0029     		cmp	r1, #0
 218 0002 09DD     		ble	.L17
 219              	.LVL22:
 220              	.LBB29:
 221              	.LBB30:
 222              		.loc 1 113 0
 223 0004 40F20001 		movw	r1, #:lower16:.LC11
 224              	.LVL23:
 225 0008 40F20002 		movw	r2, #:lower16:.LC12
 226              	.LVL24:
 227 000c C0F20001 		movt	r1, #:upper16:.LC11
ARM GAS  /tmp/ccZPHkgD.s 			page 5


 228 0010 C0F20002 		movt	r2, #:upper16:.LC12
 229 0014 FFF7FEBF 		b	vex_chprintf
 230              	.LVL25:
 231              	.L17:
 232              	.LBE30:
 233              	.LBE29:
 234              	.LBB31:
 235              	.LBB32:
 236              		.loc 1 178 0
 237 0018 40F20003 		movw	r3, #:lower16:vtlist
 238 001c C0F20003 		movt	r3, #:upper16:vtlist
 239 0020 40F20001 		movw	r1, #:lower16:.LC13
 240              	.LVL26:
 241 0024 DA68     		ldr	r2, [r3, #12]
 242              	.LVL27:
 243 0026 C0F20001 		movt	r1, #:upper16:.LC13
 244 002a FFF7FEBF 		b	vex_chprintf
 245              	.LVL28:
 246              	.LBE32:
 247              	.LBE31:
 248              		.cfi_endproc
 249              	.LFE67:
 250              		.size	cmd_systime, .-cmd_systime
 251 002e 00BF     		.section	.text.cmd_info,"ax",%progbits
 252              		.align	2
 253              		.p2align 4,,15
 254              		.thumb
 255              		.thumb_func
 256              		.type	cmd_info, %function
 257              	cmd_info:
 258              	.LFB66:
 259              		.loc 1 134 0
 260              		.cfi_startproc
 261              		@ args = 0, pretend = 0, frame = 0
 262              		@ frame_needed = 0, uses_anonymous_args = 0
 263              	.LVL29:
 264 0000 30B5     		push	{r4, r5, lr}
 265              		.cfi_def_cfa_offset 12
 266              		.cfi_offset 4, -12
 267              		.cfi_offset 5, -8
 268              		.cfi_offset 14, -4
 269              		.loc 1 136 0
 270 0002 0029     		cmp	r1, #0
 271              		.loc 1 134 0
 272 0004 83B0     		sub	sp, sp, #12
 273              		.cfi_def_cfa_offset 24
 274              		.loc 1 134 0
 275 0006 0446     		mov	r4, r0
 276              		.loc 1 136 0
 277 0008 0CDD     		ble	.L19
 278              	.LVL30:
 279              	.LBB39:
 280              	.LBB40:
 281              		.loc 1 113 0
 282 000a 40F20001 		movw	r1, #:lower16:.LC11
 283              	.LVL31:
 284 000e 40F20002 		movw	r2, #:lower16:.LC14
ARM GAS  /tmp/ccZPHkgD.s 			page 6


 285              	.LVL32:
 286 0012 C0F20001 		movt	r1, #:upper16:.LC11
 287 0016 C0F20002 		movt	r2, #:upper16:.LC14
 288              	.LBE40:
 289              	.LBE39:
 290              		.loc 1 166 0
 291 001a 03B0     		add	sp, sp, #12
 292              		@ sp needed
 293 001c BDE83040 		pop	{r4, r5, lr}
 294              	.LBB42:
 295              	.LBB41:
 296              		.loc 1 113 0
 297 0020 FFF7FEBF 		b	vex_chprintf
 298              	.LVL33:
 299              	.L19:
 300              	.LBE41:
 301              	.LBE42:
 302              	.LBB43:
 303              	.LBB44:
 304              		.loc 1 141 0
 305 0024 40F20001 		movw	r1, #:lower16:.LC15
 306              	.LVL34:
 307 0028 40F20002 		movw	r2, #:lower16:.LC16
 308              	.LVL35:
 309 002c C0F20001 		movt	r1, #:upper16:.LC15
 310 0030 C0F20002 		movt	r2, #:upper16:.LC16
 311 0034 FFF7FEFF 		bl	vex_chprintf
 312              	.LVL36:
 313              		.loc 1 143 0
 314 0038 40F20001 		movw	r1, #:lower16:.LC17
 315 003c 40F20002 		movw	r2, #:lower16:.LC18
 316 0040 2046     		mov	r0, r4
 317 0042 C0F20001 		movt	r1, #:upper16:.LC17
 318 0046 C0F20002 		movt	r2, #:upper16:.LC18
 319 004a FFF7FEFF 		bl	vex_chprintf
 320              	.LVL37:
 321              		.loc 1 145 0
 322 004e 40F20001 		movw	r1, #:lower16:.LC19
 323 0052 40F20002 		movw	r2, #:lower16:.LC20
 324 0056 2046     		mov	r0, r4
 325 0058 C0F20001 		movt	r1, #:upper16:.LC19
 326 005c C0F20002 		movt	r2, #:upper16:.LC20
 327 0060 FFF7FEFF 		bl	vex_chprintf
 328              	.LVL38:
 329              		.loc 1 147 0
 330 0064 40F20001 		movw	r1, #:lower16:.LC21
 331 0068 40F20002 		movw	r2, #:lower16:.LC22
 332 006c 2046     		mov	r0, r4
 333 006e C0F20001 		movt	r1, #:upper16:.LC21
 334 0072 C0F20002 		movt	r2, #:upper16:.LC22
 335 0076 FFF7FEFF 		bl	vex_chprintf
 336              	.LVL39:
 337              		.loc 1 150 0
 338 007a 40F20001 		movw	r1, #:lower16:.LC23
 339 007e 40F20002 		movw	r2, #:lower16:.LC24
 340 0082 2046     		mov	r0, r4
 341 0084 C0F20001 		movt	r1, #:upper16:.LC23
ARM GAS  /tmp/ccZPHkgD.s 			page 7


 342 0088 C0F20002 		movt	r2, #:upper16:.LC24
 343 008c FFF7FEFF 		bl	vex_chprintf
 344              	.LVL40:
 345              		.loc 1 153 0
 346 0090 40F20001 		movw	r1, #:lower16:.LC25
 347 0094 40F20002 		movw	r2, #:lower16:.LC26
 348 0098 2046     		mov	r0, r4
 349 009a C0F20001 		movt	r1, #:upper16:.LC25
 350 009e C0F20002 		movt	r2, #:upper16:.LC26
 351 00a2 FFF7FEFF 		bl	vex_chprintf
 352              	.LVL41:
 353              		.loc 1 156 0
 354 00a6 40F20001 		movw	r1, #:lower16:.LC27
 355 00aa 40F20002 		movw	r2, #:lower16:.LC28
 356 00ae 2046     		mov	r0, r4
 357 00b0 C0F20001 		movt	r1, #:upper16:.LC27
 358 00b4 C0F20002 		movt	r2, #:upper16:.LC28
 359 00b8 FFF7FEFF 		bl	vex_chprintf
 360              	.LVL42:
 361              		.loc 1 159 0
 362 00bc 40F20001 		movw	r1, #:lower16:.LC29
 363 00c0 40F20002 		movw	r2, #:lower16:.LC30
 364 00c4 2046     		mov	r0, r4
 365 00c6 C0F20001 		movt	r1, #:upper16:.LC29
 366 00ca C0F20002 		movt	r2, #:upper16:.LC30
 367              		.loc 1 163 0
 368 00ce 40F20005 		movw	r5, #:lower16:.LC34
 369              		.loc 1 159 0
 370 00d2 FFF7FEFF 		bl	vex_chprintf
 371              	.LVL43:
 372              		.loc 1 163 0
 373 00d6 C0F20005 		movt	r5, #:upper16:.LC34
 374 00da 40F20001 		movw	r1, #:lower16:.LC31
 375 00de 40F20002 		movw	r2, #:lower16:.LC32
 376 00e2 40F20003 		movw	r3, #:lower16:.LC33
 377 00e6 2046     		mov	r0, r4
 378 00e8 0095     		str	r5, [sp]
 379 00ea C0F20001 		movt	r1, #:upper16:.LC31
 380 00ee C0F20002 		movt	r2, #:upper16:.LC32
 381 00f2 C0F20003 		movt	r3, #:upper16:.LC33
 382 00f6 FFF7FEFF 		bl	vex_chprintf
 383              	.LVL44:
 384              	.LBE44:
 385              	.LBE43:
 386              		.loc 1 166 0
 387 00fa 03B0     		add	sp, sp, #12
 388              		@ sp needed
 389 00fc 30BD     		pop	{r4, r5, pc}
 390              		.cfi_endproc
 391              	.LFE66:
 392              		.size	cmd_info, .-cmd_info
 393 00fe 00BF     		.section	.text.cmd_reboot,"ax",%progbits
 394              		.align	2
 395              		.p2align 4,,15
 396              		.thumb
 397              		.thumb_func
 398              		.type	cmd_reboot, %function
ARM GAS  /tmp/ccZPHkgD.s 			page 8


 399              	cmd_reboot:
 400              	.LFB70:
 401              		.loc 1 249 0
 402              		.cfi_startproc
 403              		@ args = 0, pretend = 0, frame = 0
 404              		@ frame_needed = 0, uses_anonymous_args = 0
 405              	.LVL45:
 406              		.loc 1 251 0
 407 0000 0029     		cmp	r1, #0
 408              		.loc 1 249 0
 409 0002 08B5     		push	{r3, lr}
 410              		.cfi_def_cfa_offset 8
 411              		.cfi_offset 3, -8
 412              		.cfi_offset 14, -4
 413              		.loc 1 251 0
 414 0004 07DD     		ble	.L21
 415              		.loc 1 258 0
 416 0006 BDE80840 		pop	{r3, lr}
 417              		.loc 1 252 0
 418 000a 40F20001 		movw	r1, #:lower16:.LC35
 419              	.LVL46:
 420 000e C0F20001 		movt	r1, #:upper16:.LC35
 421 0012 FFF7FEBF 		b	vex_chprintf
 422              	.LVL47:
 423              	.L21:
 424              	.LBB53:
 425              	.LBB54:
 426              		.loc 1 255 0
 427 0016 40F20001 		movw	r1, #:lower16:.LC36
 428              	.LVL48:
 429 001a C0F20001 		movt	r1, #:upper16:.LC36
 430 001e FFF7FEFF 		bl	vex_chprintf
 431              	.LVL49:
 432              		.loc 1 256 0
 433 0022 6420     		movs	r0, #100
 434 0024 FFF7FEFF 		bl	chThdSleep
 435              	.LVL50:
 436              	.LBB55:
 437              	.LBB56:
 438              	.LBB57:
 439              	.LBB58:
 440              		.file 2 "../../../../ChibiOS_2.6.2/os/ports/common/ARMCMx/CMSIS/include/core_cmInstr.h"
 441              		.loc 2 343 0
 442              	@ 343 "../../../../ChibiOS_2.6.2/os/ports/common/ARMCMx/CMSIS/include/core_cmInstr.h" 1
 443 0028 BFF34F8F 		dsb
 444              	@ 0 "" 2
 445              		.thumb
 446              	.LBE58:
 447              	.LBE57:
 448              		.file 3 "../../../../ChibiOS_2.6.2/os/ports/common/ARMCMx/CMSIS/include/core_cm3.h"
 449              		.loc 3 1483 0
 450 002c 4FF46D42 		mov	r2, #60672
 451 0030 CEF20002 		movt	r2, 57344
 452 0034 D168     		ldr	r1, [r2, #12]
 453 0036 0423     		movs	r3, #4
 454 0038 01F4E061 		and	r1, r1, #1792
 455 003c C0F2FA53 		movt	r3, 1530
ARM GAS  /tmp/ccZPHkgD.s 			page 9


 456 0040 0B43     		orrs	r3, r3, r1
 457              		.loc 3 1482 0
 458 0042 D360     		str	r3, [r2, #12]
 459              	.LBB59:
 460              	.LBB60:
 461              		.loc 2 343 0
 462              	@ 343 "../../../../ChibiOS_2.6.2/os/ports/common/ARMCMx/CMSIS/include/core_cmInstr.h" 1
 463 0044 BFF34F8F 		dsb
 464              	@ 0 "" 2
 465              		.thumb
 466              	.L22:
 467 0048 FEE7     		b	.L22
 468              	.LBE60:
 469              	.LBE59:
 470              	.LBE56:
 471              	.LBE55:
 472              	.LBE54:
 473              	.LBE53:
 474              		.cfi_endproc
 475              	.LFE70:
 476              		.size	cmd_reboot, .-cmd_reboot
 477 004a 00BFAFF3 		.section	.text.cmd_threads,"ax",%progbits
 477      0080
 478              		.align	2
 479              		.p2align 4,,15
 480              		.thumb
 481              		.thumb_func
 482              		.type	cmd_threads, %function
 483              	cmd_threads:
 484              	.LFB69:
 485              		.loc 1 215 0
 486              		.cfi_startproc
 487              		@ args = 0, pretend = 0, frame = 0
 488              		@ frame_needed = 0, uses_anonymous_args = 0
 489              	.LVL51:
 490 0000 70B5     		push	{r4, r5, r6, lr}
 491              		.cfi_def_cfa_offset 16
 492              		.cfi_offset 4, -16
 493              		.cfi_offset 5, -12
 494              		.cfi_offset 6, -8
 495              		.cfi_offset 14, -4
 496              		.loc 1 220 0
 497 0002 0029     		cmp	r1, #0
 498              		.loc 1 215 0
 499 0004 84B0     		sub	sp, sp, #16
 500              		.cfi_def_cfa_offset 32
 501              		.loc 1 215 0
 502 0006 0546     		mov	r5, r0
 503              		.loc 1 220 0
 504 0008 08DD     		ble	.L24
 505              		.loc 1 222 0
 506 000a 40F20001 		movw	r1, #:lower16:.LC37
 507              	.LVL52:
 508 000e C0F20001 		movt	r1, #:upper16:.LC37
 509              		.loc 1 244 0
 510 0012 04B0     		add	sp, sp, #16
 511              		@ sp needed
ARM GAS  /tmp/ccZPHkgD.s 			page 10


 512 0014 BDE87040 		pop	{r4, r5, r6, lr}
 513              		.loc 1 222 0
 514 0018 FFF7FEBF 		b	vex_chprintf
 515              	.LVL53:
 516              	.L24:
 517              	.LBB63:
 518              	.LBB64:
 519              		.loc 1 226 0
 520 001c 40F20001 		movw	r1, #:lower16:.LC38
 521              	.LVL54:
 522 0020 C0F20001 		movt	r1, #:upper16:.LC38
 523 0024 FFF7FEFF 		bl	vex_chprintf
 524              	.LVL55:
 525              		.loc 1 227 0
 526 0028 FFF7FEFF 		bl	chRegFirstThread
 527              	.LVL56:
 528 002c 40F20006 		movw	r6, #:lower16:.LANCHOR2
 529 0030 C0F20006 		movt	r6, #:upper16:.LANCHOR2
 530 0034 0446     		mov	r4, r0
 531              	.LVL57:
 532 0036 1DE0     		b	.L28
 533              	.LVL58:
 534              	.L30:
 535              		.loc 1 232 0
 536 0038 FFF7FEFF 		bl	vex_chprintf
 537              	.LVL59:
 538              	.L26:
 539              		.loc 1 236 0
 540 003c A268     		ldr	r2, [r4, #8]
 541 003e 206A     		ldr	r0, [r4, #32]
 542 0040 E368     		ldr	r3, [r4, #12]
 543 0042 0092     		str	r2, [sp]
 544              		.loc 1 238 0
 545 0044 A27F     		ldrb	r2, [r4, #30]	@ zero_extendqisi2
 546              		.loc 1 236 0
 547 0046 40F20001 		movw	r1, #:lower16:.LC41
 548              		.loc 1 238 0
 549 004a 013A     		subs	r2, r2, #1
 550              		.loc 1 236 0
 551 004c 0192     		str	r2, [sp, #4]
 552 004e 227F     		ldrb	r2, [r4, #28]	@ zero_extendqisi2
 553 0050 C0F20001 		movt	r1, #:upper16:.LC41
 554 0054 56F82220 		ldr	r2, [r6, r2, lsl #2]
 555 0058 0390     		str	r0, [sp, #12]
 556 005a 0292     		str	r2, [sp, #8]
 557 005c 2846     		mov	r0, r5
 558 005e 2246     		mov	r2, r4
 559 0060 FFF7FEFF 		bl	vex_chprintf
 560              	.LVL60:
 561              		.loc 1 241 0
 562 0064 2046     		mov	r0, r4
 563 0066 FFF7FEFF 		bl	chRegNextThread
 564              	.LVL61:
 565 006a 0446     		mov	r4, r0
 566              	.LVL62:
 567              		.loc 1 242 0
 568 006c 1420     		movs	r0, #20
ARM GAS  /tmp/ccZPHkgD.s 			page 11


 569              	.LVL63:
 570 006e FFF7FEFF 		bl	chThdSleep
 571              	.LVL64:
 572              		.loc 1 243 0
 573 0072 84B1     		cbz	r4, .L29
 574              	.L28:
 575              		.loc 1 231 0
 576 0074 A369     		ldr	r3, [r4, #24]
 577              		.loc 1 232 0
 578 0076 40F20001 		movw	r1, #:lower16:.LC39
 579 007a 2846     		mov	r0, r5
 580 007c C0F20001 		movt	r1, #:upper16:.LC39
 581 0080 1A46     		mov	r2, r3
 582              		.loc 1 231 0
 583 0082 002B     		cmp	r3, #0
 584 0084 D8D1     		bne	.L30
 585              	.LVL65:
 586              		.loc 1 234 0
 587 0086 40F20001 		movw	r1, #:lower16:.LC40
 588 008a C0F20001 		movt	r1, #:upper16:.LC40
 589 008e 2846     		mov	r0, r5
 590              	.LVL66:
 591 0090 FFF7FEFF 		bl	vex_chprintf
 592              	.LVL67:
 593 0094 D2E7     		b	.L26
 594              	.L29:
 595              	.LBE64:
 596              	.LBE63:
 597              		.loc 1 244 0
 598 0096 04B0     		add	sp, sp, #16
 599              		@ sp needed
 600 0098 70BD     		pop	{r4, r5, r6, pc}
 601              		.cfi_endproc
 602              	.LFE69:
 603              		.size	cmd_threads, .-cmd_threads
 604 009a 00BFAFF3 		.section	.text.cmd_mem,"ax",%progbits
 604      0080
 605              		.align	2
 606              		.p2align 4,,15
 607              		.thumb
 608              		.thumb_func
 609              		.type	cmd_mem, %function
 610              	cmd_mem:
 611              	.LFB68:
 612              		.loc 1 191 0
 613              		.cfi_startproc
 614              		@ args = 0, pretend = 0, frame = 8
 615              		@ frame_needed = 0, uses_anonymous_args = 0
 616              	.LVL68:
 617 0000 30B5     		push	{r4, r5, lr}
 618              		.cfi_def_cfa_offset 12
 619              		.cfi_offset 4, -12
 620              		.cfi_offset 5, -8
 621              		.cfi_offset 14, -4
 622              		.loc 1 196 0
 623 0002 0029     		cmp	r1, #0
 624              		.loc 1 191 0
ARM GAS  /tmp/ccZPHkgD.s 			page 12


 625 0004 83B0     		sub	sp, sp, #12
 626              		.cfi_def_cfa_offset 24
 627              		.loc 1 191 0
 628 0006 0446     		mov	r4, r0
 629              		.loc 1 196 0
 630 0008 07DD     		ble	.L32
 631              		.loc 1 198 0
 632 000a 40F20001 		movw	r1, #:lower16:.LC42
 633              	.LVL69:
 634 000e C0F20001 		movt	r1, #:upper16:.LC42
 635 0012 FFF7FEFF 		bl	vex_chprintf
 636              	.LVL70:
 637              		.loc 1 209 0
 638 0016 03B0     		add	sp, sp, #12
 639              		@ sp needed
 640 0018 30BD     		pop	{r4, r5, pc}
 641              	.LVL71:
 642              	.L32:
 643              	.LBB67:
 644              	.LBB68:
 645              		.loc 1 202 0
 646 001a 01A9     		add	r1, sp, #4
 647              	.LVL72:
 648 001c 0020     		movs	r0, #0
 649              	.LVL73:
 650 001e FFF7FEFF 		bl	chHeapStatus
 651              	.LVL74:
 652 0022 0546     		mov	r5, r0
 653              	.LVL75:
 654              		.loc 1 203 0
 655 0024 FFF7FEFF 		bl	chCoreStatus
 656              	.LVL76:
 657 0028 40F20001 		movw	r1, #:lower16:.LC43
 658 002c 0246     		mov	r2, r0
 659 002e C0F20001 		movt	r1, #:upper16:.LC43
 660 0032 2046     		mov	r0, r4
 661 0034 FFF7FEFF 		bl	vex_chprintf
 662              	.LVL77:
 663              		.loc 1 204 0
 664 0038 40F20001 		movw	r1, #:lower16:.LC44
 665 003c 2A46     		mov	r2, r5
 666 003e 2046     		mov	r0, r4
 667 0040 C0F20001 		movt	r1, #:upper16:.LC44
 668 0044 FFF7FEFF 		bl	vex_chprintf
 669              	.LVL78:
 670              		.loc 1 205 0
 671 0048 40F20001 		movw	r1, #:lower16:.LC45
 672 004c 019A     		ldr	r2, [sp, #4]
 673 004e 2046     		mov	r0, r4
 674 0050 C0F20001 		movt	r1, #:upper16:.LC45
 675 0054 FFF7FEFF 		bl	vex_chprintf
 676              	.LVL79:
 677              		.loc 1 207 0
 678 0058 0A49     		ldr	r1, .L34
 679 005a 40F20002 		movw	r2, #:lower16:_edata
 680 005e C0F20002 		movt	r2, #:upper16:_edata
 681 0062 40F20003 		movw	r3, #:lower16:_data
ARM GAS  /tmp/ccZPHkgD.s 			page 13


 682 0066 0A44     		add	r2, r2, r1
 683 0068 C0F20003 		movt	r3, #:upper16:_data
 684 006c D21A     		subs	r2, r2, r3
 685              	.LVL80:
 686              		.loc 1 208 0
 687 006e 40F20001 		movw	r1, #:lower16:.LC46
 688 0072 2046     		mov	r0, r4
 689 0074 1346     		mov	r3, r2
 690 0076 C0F20001 		movt	r1, #:upper16:.LC46
 691 007a FFF7FEFF 		bl	vex_chprintf
 692              	.LVL81:
 693              	.LBE68:
 694              	.LBE67:
 695              		.loc 1 209 0
 696 007e 03B0     		add	sp, sp, #12
 697              		@ sp needed
 698 0080 30BD     		pop	{r4, r5, pc}
 699              	.LVL82:
 700              	.L35:
 701 0082 00BF     		.align	2
 702              	.L34:
 703 0084 000000F8 		.word	_textdata-134217728
 704              		.cfi_endproc
 705              	.LFE68:
 706              		.size	cmd_mem, .-cmd_mem
 707 0088 AFF30080 		.section	.text._strtok.constprop.5,"ax",%progbits
 707      AFF30080 
 708              		.align	2
 709              		.p2align 4,,15
 710              		.thumb
 711              		.thumb_func
 712              		.type	_strtok.constprop.5, %function
 713              	_strtok.constprop.5:
 714              	.LFB83:
 715              		.loc 1 90 0
 716              		.cfi_startproc
 717              		@ args = 0, pretend = 0, frame = 0
 718              		@ frame_needed = 0, uses_anonymous_args = 0
 719              	.LVL83:
 720 0000 38B5     		push	{r3, r4, r5, lr}
 721              		.cfi_def_cfa_offset 16
 722              		.cfi_offset 3, -16
 723              		.cfi_offset 4, -12
 724              		.cfi_offset 5, -8
 725              		.cfi_offset 14, -4
 726              		.loc 1 93 0
 727 0002 0446     		mov	r4, r0
 728              		.loc 1 90 0
 729 0004 0D46     		mov	r5, r1
 730              		.loc 1 93 0
 731 0006 A8B1     		cbz	r0, .L37
 732              		.loc 1 94 0
 733 0008 2860     		str	r0, [r5]
 734              	.LVL84:
 735              	.L38:
 736              		.loc 1 100 0
 737 000a 40F20001 		movw	r1, #:lower16:.LANCHOR3
ARM GAS  /tmp/ccZPHkgD.s 			page 14


 738              	.LVL85:
 739 000e C0F20001 		movt	r1, #:upper16:.LANCHOR3
 740 0012 2046     		mov	r0, r4
 741              	.LVL86:
 742 0014 FFF7FEFF 		bl	strspn
 743              	.LVL87:
 744 0018 0444     		add	r4, r4, r0
 745              	.LVL88:
 746              		.loc 1 101 0
 747 001a 2046     		mov	r0, r4
 748 001c 2021     		movs	r1, #32
 749 001e FFF7FEFF 		bl	strchr
 750              	.LVL89:
 751              		.loc 1 102 0
 752 0022 60B1     		cbz	r0, .L46
 753              		.loc 1 103 0
 754 0024 421C     		adds	r2, r0, #1
 755 0026 0023     		movs	r3, #0
 756 0028 2A60     		str	r2, [r5]
 757 002a 0370     		strb	r3, [r0]
 758              	.L41:
 759              		.loc 1 105 0
 760 002c 2378     		ldrb	r3, [r4]	@ zero_extendqisi2
 761 002e 23B1     		cbz	r3, .L42
 762 0030 2046     		mov	r0, r4
 763              		.loc 1 106 0
 764 0032 38BD     		pop	{r3, r4, r5, pc}
 765              	.LVL90:
 766              	.L37:
 767              		.loc 1 95 0
 768 0034 0C68     		ldr	r4, [r1]
 769              	.LVL91:
 770              		.loc 1 97 0
 771 0036 002C     		cmp	r4, #0
 772 0038 E7D1     		bne	.L38
 773              	.LVL92:
 774              	.L42:
 775              		.loc 1 98 0
 776 003a 0020     		movs	r0, #0
 777 003c 38BD     		pop	{r3, r4, r5, pc}
 778              	.LVL93:
 779              	.L46:
 780              		.loc 1 101 0
 781 003e 2860     		str	r0, [r5]
 782 0040 F4E7     		b	.L41
 783              		.cfi_endproc
 784              	.LFE83:
 785              		.size	_strtok.constprop.5, .-_strtok.constprop.5
 786 0042 00BFAFF3 		.section	.text.shellInit,"ax",%progbits
 786      0080AFF3 
 786      0080AFF3 
 786      0080
 787              		.align	2
 788              		.p2align 4,,15
 789              		.global	shellInit
 790              		.thumb
 791              		.thumb_func
ARM GAS  /tmp/ccZPHkgD.s 			page 15


 792              		.type	shellInit, %function
 793              	shellInit:
 794              	.LFB74:
 795              		.loc 1 430 0
 796              		.cfi_startproc
 797              		@ args = 0, pretend = 0, frame = 0
 798              		@ frame_needed = 0, uses_anonymous_args = 0
 799              		@ link register save eliminated.
 800              		.loc 1 431 0
 801 0000 40F20003 		movw	r3, #:lower16:.LANCHOR4
 802 0004 C0F20003 		movt	r3, #:upper16:.LANCHOR4
 803 0008 1B60     		str	r3, [r3]
 804 000a 7047     		bx	lr
 805              		.cfi_endproc
 806              	.LFE74:
 807              		.size	shellInit, .-shellInit
 808 000c AFF30080 		.section	.text.shellCreate,"ax",%progbits
 809              		.align	2
 810              		.p2align 4,,15
 811              		.global	shellCreate
 812              		.thumb
 813              		.thumb_func
 814              		.type	shellCreate, %function
 815              	shellCreate:
 816              	.LFB75:
 817              		.loc 1 446 0
 818              		.cfi_startproc
 819              		@ args = 0, pretend = 0, frame = 0
 820              		@ frame_needed = 0, uses_anonymous_args = 0
 821              	.LVL94:
 822 0000 00B5     		push	{lr}
 823              		.cfi_def_cfa_offset 4
 824              		.cfi_offset 14, -4
 825              		.loc 1 447 0
 826 0002 40F20003 		movw	r3, #:lower16:shell_thread
 827              		.loc 1 446 0
 828 0006 83B0     		sub	sp, sp, #12
 829              		.cfi_def_cfa_offset 16
 830              		.loc 1 447 0
 831 0008 0090     		str	r0, [sp]
 832 000a C0F20003 		movt	r3, #:upper16:shell_thread
 833 000e 0020     		movs	r0, #0
 834              	.LVL95:
 835 0010 FFF7FEFF 		bl	chThdCreateFromHeap
 836              	.LVL96:
 837              		.loc 1 448 0
 838 0014 03B0     		add	sp, sp, #12
 839              		@ sp needed
 840 0016 5DF804FB 		ldr	pc, [sp], #4
 841              		.cfi_endproc
 842              	.LFE75:
 843              		.size	shellCreate, .-shellCreate
 844 001a 00BFAFF3 		.section	.text.shellCreateStatic,"ax",%progbits
 844      0080
 845              		.align	2
 846              		.p2align 4,,15
 847              		.global	shellCreateStatic
ARM GAS  /tmp/ccZPHkgD.s 			page 16


 848              		.thumb
 849              		.thumb_func
 850              		.type	shellCreateStatic, %function
 851              	shellCreateStatic:
 852              	.LFB76:
 853              		.loc 1 462 0
 854              		.cfi_startproc
 855              		@ args = 0, pretend = 0, frame = 0
 856              		@ frame_needed = 0, uses_anonymous_args = 0
 857              	.LVL97:
 858 0000 00B5     		push	{lr}
 859              		.cfi_def_cfa_offset 4
 860              		.cfi_offset 14, -4
 861 0002 83B0     		sub	sp, sp, #12
 862              		.cfi_def_cfa_offset 16
 863              		.loc 1 463 0
 864 0004 0090     		str	r0, [sp]
 865 0006 0846     		mov	r0, r1
 866              	.LVL98:
 867 0008 1146     		mov	r1, r2
 868              	.LVL99:
 869 000a 1A46     		mov	r2, r3
 870              	.LVL100:
 871 000c 40F20003 		movw	r3, #:lower16:shell_thread
 872              	.LVL101:
 873 0010 C0F20003 		movt	r3, #:upper16:shell_thread
 874 0014 FFF7FEFF 		bl	chThdCreateStatic
 875              	.LVL102:
 876              		.loc 1 464 0
 877 0018 03B0     		add	sp, sp, #12
 878              		@ sp needed
 879 001a 5DF804FB 		ldr	pc, [sp], #4
 880              		.cfi_endproc
 881              	.LFE76:
 882              		.size	shellCreateStatic, .-shellCreateStatic
 883 001e 00BF     		.section	.text.shellGetLine,"ax",%progbits
 884              		.align	2
 885              		.p2align 4,,15
 886              		.global	shellGetLine
 887              		.thumb
 888              		.thumb_func
 889              		.type	shellGetLine, %function
 890              	shellGetLine:
 891              	.LFB77:
 892              		.loc 1 476 0
 893              		.cfi_startproc
 894              		@ args = 0, pretend = 0, frame = 24
 895              		@ frame_needed = 0, uses_anonymous_args = 0
 896              	.LVL103:
 897 0000 2DE9F04F 		push	{r4, r5, r6, r7, r8, r9, r10, fp, lr}
 898              		.cfi_def_cfa_offset 36
 899              		.cfi_offset 4, -36
 900              		.cfi_offset 5, -32
 901              		.cfi_offset 6, -28
 902              		.cfi_offset 7, -24
 903              		.cfi_offset 8, -20
 904              		.cfi_offset 9, -16
ARM GAS  /tmp/ccZPHkgD.s 			page 17


 905              		.cfi_offset 10, -12
 906              		.cfi_offset 11, -8
 907              		.cfi_offset 14, -4
 908              		.loc 1 483 0
 909 0004 40F20007 		movw	r7, #:lower16:vtlist
 910 0008 C0F20007 		movt	r7, #:upper16:vtlist
 911              		.loc 1 476 0
 912 000c 0E46     		mov	r6, r1
 913              	.LBB69:
 914              		.loc 1 608 0
 915 000e 40F20003 		movw	r3, #:lower16:.LANCHOR1
 916              	.LBE69:
 917              		.loc 1 483 0
 918 0012 F968     		ldr	r1, [r7, #12]
 919              	.LVL104:
 920              		.loc 1 476 0
 921 0014 87B0     		sub	sp, sp, #28
 922              		.cfi_def_cfa_offset 64
 923              	.LBB70:
 924              		.loc 1 607 0
 925 0016 40F20008 		movw	r8, #:lower16:.LANCHOR0
 926              		.loc 1 523 0
 927 001a 40F20009 		movw	r9, #:lower16:.LANCHOR5
 928              		.loc 1 608 0
 929 001e C0F20003 		movt	r3, #:upper16:.LANCHOR1
 930              	.LBE70:
 931              		.loc 1 483 0
 932 0022 0391     		str	r1, [sp, #12]
 933              		.loc 1 476 0
 934 0024 8246     		mov	r10, r0
 935              	.LVL105:
 936 0026 0292     		str	r2, [sp, #8]
 937              		.loc 1 483 0
 938 0028 3546     		mov	r5, r6
 939 002a B346     		mov	fp, r6
 940              	.LBB71:
 941              		.loc 1 607 0
 942 002c C0F20008 		movt	r8, #:upper16:.LANCHOR0
 943              		.loc 1 608 0
 944 0030 0193     		str	r3, [sp, #4]
 945              		.loc 1 523 0
 946 0032 C0F20009 		movt	r9, #:upper16:.LANCHOR5
 947              	.LVL106:
 948              	.L115:
 949              	.LBE71:
 950              		.loc 1 486 0
 951 0036 0024     		movs	r4, #0
 952              	.L51:
 953              	.LVL107:
 954              	.LBB72:
 955              		.loc 1 492 0
 956 0038 DAF80030 		ldr	r3, [r10]
 957 003c 5046     		mov	r0, r10
 958 003e 5B68     		ldr	r3, [r3, #4]
 959 0040 0DF11701 		add	r1, sp, #23
 960 0044 0122     		movs	r2, #1
 961 0046 9847     		blx	r3
ARM GAS  /tmp/ccZPHkgD.s 			page 18


 962              	.LVL108:
 963 0048 0028     		cmp	r0, #0
 964 004a 00F0D680 		beq	.L83
 965              		.loc 1 501 0
 966 004e 23B2     		sxth	r3, r4
 967 0050 012B     		cmp	r3, #1
 968 0052 3DD0     		beq	.L117
 969              		.loc 1 513 0
 970 0054 022B     		cmp	r3, #2
 971              		.loc 1 515 0
 972 0056 9DF81730 		ldrb	r3, [sp, #23]	@ zero_extendqisi2
 973              		.loc 1 513 0
 974 005a 41D0     		beq	.L56
 975              	.LVL109:
 976              	.L55:
 977              		.loc 1 537 0
 978 005c 1B2B     		cmp	r3, #27
 979 005e 00F0BC80 		beq	.L90
 980 0062 2BD8     		bhi	.L62
 981 0064 082B     		cmp	r3, #8
 982 0066 00F09680 		beq	.L63
 983 006a 0D2B     		cmp	r3, #13
 984 006c 67D0     		beq	.L64
 985 006e 042B     		cmp	r3, #4
 986 0070 55D0     		beq	.L118
 987              	.L60:
 988              		.loc 1 603 0
 989 0072 1F2B     		cmp	r3, #31
 990 0074 E0D9     		bls	.L51
 991              		.loc 1 604 0
 992 0076 0299     		ldr	r1, [sp, #8]
 993 0078 4A1E     		subs	r2, r1, #1
 994 007a 3244     		add	r2, r2, r6
 995 007c 9345     		cmp	fp, r2
 996 007e DBD2     		bcs	.L51
 997              		.loc 1 607 0
 998 0080 98F80020 		ldrb	r2, [r8]	@ zero_extendqisi2
 999              		.loc 1 605 0
 1000 0084 8BF80030 		strb	r3, [fp]
 1001 0088 0BF1010B 		add	fp, fp, #1
 1002              	.LVL110:
 1003              		.loc 1 607 0
 1004 008c 002A     		cmp	r2, #0
 1005 008e D3D0     		beq	.L51
 1006              		.loc 1 608 0
 1007 0090 019A     		ldr	r2, [sp, #4]
 1008 0092 1378     		ldrb	r3, [r2]	@ zero_extendqisi2
 1009 0094 002B     		cmp	r3, #0
 1010 0096 40F0B480 		bne	.L76
 1011              	.L79:
 1012              		.loc 1 609 0 discriminator 1
 1013 009a 5D45     		cmp	r5, fp
 1014 009c 0BD0     		beq	.L78
 1015              	.L81:
 1016              		.loc 1 610 0
 1017 009e 15F8012B 		ldrb	r2, [r5], #1	@ zero_extendqisi2
 1018              	.LVL111:
ARM GAS  /tmp/ccZPHkgD.s 			page 19


 1019 00a2 40F20001 		movw	r1, #:lower16:.LC51
 1020 00a6 C0F20001 		movt	r1, #:upper16:.LC51
 1021 00aa 5046     		mov	r0, r10
 1022 00ac FFF7FEFF 		bl	vex_chprintf
 1023              	.LVL112:
 1024              		.loc 1 609 0
 1025 00b0 AB45     		cmp	fp, r5
 1026 00b2 F4D1     		bne	.L81
 1027 00b4 5D46     		mov	r5, fp
 1028              	.LVL113:
 1029              	.L78:
 1030              		.loc 1 613 0
 1031 00b6 FA68     		ldr	r2, [r7, #12]
 1032 00b8 0392     		str	r2, [sp, #12]
 1033              	.LVL114:
 1034 00ba BDE7     		b	.L51
 1035              	.LVL115:
 1036              	.L62:
 1037              		.loc 1 537 0
 1038 00bc 7F2B     		cmp	r3, #127
 1039 00be 6AD0     		beq	.L63
 1040 00c0 C92B     		cmp	r3, #201
 1041 00c2 37D0     		beq	.L66
 1042 00c4 212B     		cmp	r3, #33
 1043 00c6 D4D1     		bne	.L60
 1044              		.loc 1 599 0
 1045 00c8 6420     		movs	r0, #100
 1046 00ca FFF7FEFF 		bl	chThdSleep
 1047              	.LVL116:
 1048              		.loc 1 600 0
 1049 00ce B3E7     		b	.L51
 1050              	.L117:
 1051              		.loc 1 503 0
 1052 00d0 9DF81730 		ldrb	r3, [sp, #23]	@ zero_extendqisi2
 1053 00d4 5B2B     		cmp	r3, #91
 1054              		.loc 1 509 0
 1055 00d6 18BF     		it	ne
 1056 00d8 0024     		movne	r4, #0
 1057              	.LVL117:
 1058              		.loc 1 503 0
 1059 00da BFD1     		bne	.L55
 1060              		.loc 1 505 0
 1061 00dc 0224     		movs	r4, #2
 1062 00de ABE7     		b	.L51
 1063              	.LVL118:
 1064              	.L56:
 1065              		.loc 1 515 0
 1066 00e0 412B     		cmp	r3, #65
 1067 00e2 A8D1     		bne	.L115
 1068              		.loc 1 518 0
 1069 00e4 98F80030 		ldrb	r3, [r8]	@ zero_extendqisi2
 1070 00e8 002B     		cmp	r3, #0
 1071 00ea 7AD1     		bne	.L119
 1072              	.L58:
 1073              	.LVL119:
 1074              		.loc 1 523 0 discriminator 1
 1075 00ec 0299     		ldr	r1, [sp, #8]
ARM GAS  /tmp/ccZPHkgD.s 			page 20


 1076 00ee 4A1E     		subs	r2, r1, #1
 1077 00f0 3244     		add	r2, r2, r6
 1078 00f2 9345     		cmp	fp, r2
 1079 00f4 10D2     		bcs	.L88
 1080              		.loc 1 523 0 is_stmt 0
 1081 00f6 99F80040 		ldrb	r4, [r9]	@ zero_extendqisi2
 1082              	.LVL120:
 1083 00fa 002C     		cmp	r4, #0
 1084 00fc 6FD0     		beq	.L89
 1085 00fe 40F20003 		movw	r3, #:lower16:.LANCHOR5
 1086 0102 C0F20003 		movt	r3, #:upper16:.LANCHOR5
 1087 0106 03E0     		b	.L59
 1088              	.L120:
 1089              		.loc 1 523 0 discriminator 2
 1090 0108 13F8014F 		ldrb	r4, [r3, #1]!	@ zero_extendqisi2
 1091 010c 002C     		cmp	r4, #0
 1092 010e 66D0     		beq	.L89
 1093              	.LVL121:
 1094              	.L59:
 1095              		.loc 1 524 0 is_stmt 1
 1096 0110 0BF8014B 		strb	r4, [fp], #1
 1097              	.LVL122:
 1098              		.loc 1 523 0
 1099 0114 9345     		cmp	fp, r2
 1100 0116 F7D1     		bne	.L120
 1101              	.LVL123:
 1102              	.L88:
 1103              		.loc 1 524 0
 1104 0118 5D46     		mov	r5, fp
 1105              	.LVL124:
 1106              		.loc 1 532 0
 1107 011a 0024     		movs	r4, #0
 1108 011c 8CE7     		b	.L51
 1109              	.LVL125:
 1110              	.L118:
 1111              		.loc 1 541 0
 1112 011e 40F20001 		movw	r1, #:lower16:.LC49
 1113 0122 5046     		mov	r0, r10
 1114 0124 C0F20001 		movt	r1, #:upper16:.LC49
 1115 0128 FFF7FEFF 		bl	vex_chprintf
 1116              	.LVL126:
 1117              		.loc 1 542 0
 1118 012c 0120     		movs	r0, #1
 1119              	.LBE72:
 1120              		.loc 1 620 0
 1121 012e 07B0     		add	sp, sp, #28
 1122              		@ sp needed
 1123 0130 BDE8F08F 		pop	{r4, r5, r6, r7, r8, r9, r10, fp, pc}
 1124              	.LVL127:
 1125              	.L66:
 1126              	.LBB73:
 1127              		.loc 1 592 0
 1128 0134 4FF4FA70 		mov	r0, #500
 1129 0138 FFF7FEFF 		bl	chThdSleep
 1130              	.LVL128:
 1131              		.loc 1 593 0
 1132 013c 7CE7     		b	.L51
ARM GAS  /tmp/ccZPHkgD.s 			page 21


 1133              	.L64:
 1134              		.loc 1 568 0
 1135 013e 40F20003 		movw	r3, #:lower16:.LANCHOR0
 1136 0142 C0F20003 		movt	r3, #:upper16:.LANCHOR0
 1137 0146 1B78     		ldrb	r3, [r3]	@ zero_extendqisi2
 1138              		.loc 1 566 0
 1139 0148 0022     		movs	r2, #0
 1140 014a 8BF80020 		strb	r2, [fp]
 1141              		.loc 1 568 0
 1142 014e BBB1     		cbz	r3, .L72
 1143              		.loc 1 570 0
 1144 0150 AB45     		cmp	fp, r5
 1145 0152 07D0     		beq	.L73
 1146              		.loc 1 571 0
 1147 0154 40F20001 		movw	r1, #:lower16:.LC48
 1148 0158 2A46     		mov	r2, r5
 1149 015a C0F20001 		movt	r1, #:upper16:.LC48
 1150 015e 5046     		mov	r0, r10
 1151 0160 FFF7FEFF 		bl	vex_chprintf
 1152              	.LVL129:
 1153              	.L73:
 1154              		.loc 1 574 0 discriminator 1
 1155 0164 3278     		ldrb	r2, [r6]	@ zero_extendqisi2
 1156 0166 002A     		cmp	r2, #0
 1157 0168 52D0     		beq	.L91
 1158 016a 2C4B     		ldr	r3, .L121
 1159              	.LVL130:
 1160              	.L75:
 1161              		.loc 1 575 0 discriminator 2
 1162 016c 03F8012C 		strb	r2, [r3, #-1]
 1163              	.LVL131:
 1164              		.loc 1 574 0 discriminator 2
 1165 0170 16F8012F 		ldrb	r2, [r6, #1]!	@ zero_extendqisi2
 1166 0174 1946     		mov	r1, r3
 1167 0176 0133     		adds	r3, r3, #1
 1168              	.LVL132:
 1169 0178 002A     		cmp	r2, #0
 1170 017a F7D1     		bne	.L75
 1171              	.LVL133:
 1172              	.L74:
 1173              		.loc 1 576 0
 1174 017c 0023     		movs	r3, #0
 1175 017e 0B70     		strb	r3, [r1]
 1176              	.L72:
 1177              		.loc 1 580 0
 1178 0180 40F20001 		movw	r1, #:lower16:.LC52
 1179 0184 5046     		mov	r0, r10
 1180 0186 C0F20001 		movt	r1, #:upper16:.LC52
 1181 018a FFF7FEFF 		bl	vex_chprintf
 1182              	.LVL134:
 1183              		.loc 1 581 0
 1184 018e 0020     		movs	r0, #0
 1185              	.LBE73:
 1186              		.loc 1 620 0
 1187 0190 07B0     		add	sp, sp, #28
 1188              		@ sp needed
 1189 0192 BDE8F08F 		pop	{r4, r5, r6, r7, r8, r9, r10, fp, pc}
ARM GAS  /tmp/ccZPHkgD.s 			page 22


 1190              	.LVL135:
 1191              	.L63:
 1192              	.LBB74:
 1193              		.loc 1 548 0
 1194 0196 B345     		cmp	fp, r6
 1195 0198 3FF44EAF 		beq	.L51
 1196              		.loc 1 550 0
 1197 019c 98F80030 		ldrb	r3, [r8]	@ zero_extendqisi2
 1198 01a0 63B9     		cbnz	r3, .L116
 1199              		.loc 1 559 0
 1200 01a2 0BF1FF3B 		add	fp, fp, #-1
 1201              	.LVL136:
 1202              		.loc 1 561 0
 1203 01a6 5D46     		mov	r5, fp
 1204 01a8 46E7     		b	.L51
 1205              	.LVL137:
 1206              	.L71:
 1207              		.loc 1 553 0
 1208 01aa 40F20001 		movw	r1, #:lower16:.LC51
 1209 01ae 15F8012B 		ldrb	r2, [r5], #1	@ zero_extendqisi2
 1210              	.LVL138:
 1211 01b2 C0F20001 		movt	r1, #:upper16:.LC51
 1212 01b6 5046     		mov	r0, r10
 1213 01b8 FFF7FEFF 		bl	vex_chprintf
 1214              	.LVL139:
 1215              	.L116:
 1216              		.loc 1 552 0
 1217 01bc AB45     		cmp	fp, r5
 1218 01be F4D1     		bne	.L71
 1219              		.loc 1 555 0
 1220 01c0 0822     		movs	r2, #8
 1221 01c2 40F20001 		movw	r1, #:lower16:.LC50
 1222 01c6 C0F20001 		movt	r1, #:upper16:.LC50
 1223 01ca 1346     		mov	r3, r2
 1224 01cc 5046     		mov	r0, r10
 1225              		.loc 1 559 0
 1226 01ce 0BF1FF3B 		add	fp, fp, #-1
 1227              	.LVL140:
 1228              		.loc 1 555 0
 1229 01d2 FFF7FEFF 		bl	vex_chprintf
 1230              	.LVL141:
 1231              		.loc 1 561 0
 1232 01d6 5D46     		mov	r5, fp
 1233 01d8 2EE7     		b	.L51
 1234              	.LVL142:
 1235              	.L90:
 1236              		.loc 1 586 0
 1237 01da 0124     		movs	r4, #1
 1238              	.LVL143:
 1239 01dc 2CE7     		b	.L51
 1240              	.L89:
 1241              	.LVL144:
 1242              		.loc 1 524 0
 1243 01de 5D46     		mov	r5, fp
 1244 01e0 2AE7     		b	.L51
 1245              	.LVL145:
 1246              	.L119:
ARM GAS  /tmp/ccZPHkgD.s 			page 23


 1247              		.loc 1 519 0
 1248 01e2 40F20001 		movw	r1, #:lower16:.LC48
 1249 01e6 40F20002 		movw	r2, #:lower16:.LANCHOR5
 1250 01ea C0F20001 		movt	r1, #:upper16:.LC48
 1251 01ee C0F20002 		movt	r2, #:upper16:.LANCHOR5
 1252 01f2 5046     		mov	r0, r10
 1253 01f4 FFF7FEFF 		bl	vex_chprintf
 1254              	.LVL146:
 1255 01f8 78E7     		b	.L58
 1256              	.L83:
 1257              		.loc 1 493 0
 1258 01fa 0120     		movs	r0, #1
 1259              	.LBE74:
 1260              		.loc 1 620 0
 1261 01fc 07B0     		add	sp, sp, #28
 1262              		@ sp needed
 1263 01fe BDE8F08F 		pop	{r4, r5, r6, r7, r8, r9, r10, fp, pc}
 1264              	.LVL147:
 1265              	.L76:
 1266              	.LBB75:
 1267              		.loc 1 608 0 discriminator 1
 1268 0202 FB68     		ldr	r3, [r7, #12]
 1269 0204 0399     		ldr	r1, [sp, #12]
 1270 0206 5B1A     		subs	r3, r3, r1
 1271 0208 322B     		cmp	r3, #50
 1272 020a 3FF646AF 		bhi	.L79
 1273 020e 52E7     		b	.L78
 1274              	.LVL148:
 1275              	.L91:
 1276              		.loc 1 574 0
 1277 0210 40F20001 		movw	r1, #:lower16:.LANCHOR5
 1278 0214 C0F20001 		movt	r1, #:upper16:.LANCHOR5
 1279 0218 B0E7     		b	.L74
 1280              	.L122:
 1281 021a 00BF     		.align	2
 1282              	.L121:
 1283 021c 01000000 		.word	.LANCHOR5+1
 1284              	.LBE75:
 1285              		.cfi_endproc
 1286              	.LFE77:
 1287              		.size	shellGetLine, .-shellGetLine
 1288              		.section	.text.shell_thread,"ax",%progbits
 1289              		.align	2
 1290              		.p2align 4,,15
 1291              		.thumb
 1292              		.thumb_func
 1293              		.type	shell_thread, %function
 1294              	shell_thread:
 1295              	.LFB73:
 1296              		.loc 1 337 0
 1297              		.cfi_startproc
 1298              		@ args = 0, pretend = 0, frame = 88
 1299              		@ frame_needed = 0, uses_anonymous_args = 0
 1300              	.LVL149:
 1301 0000 2DE9F043 		push	{r4, r5, r6, r7, r8, r9, lr}
 1302              		.cfi_def_cfa_offset 28
 1303              		.cfi_offset 4, -28
ARM GAS  /tmp/ccZPHkgD.s 			page 24


 1304              		.cfi_offset 5, -24
 1305              		.cfi_offset 6, -20
 1306              		.cfi_offset 7, -16
 1307              		.cfi_offset 8, -12
 1308              		.cfi_offset 9, -8
 1309              		.cfi_offset 14, -4
 1310              		.loc 1 345 0
 1311 0004 40F20003 		movw	r3, #:lower16:rlist
 1312 0008 C0F20003 		movt	r3, #:upper16:rlist
 1313              		.loc 1 340 0
 1314 000c 0668     		ldr	r6, [r0]
 1315              	.LVL150:
 1316              		.loc 1 345 0
 1317 000e 9A69     		ldr	r2, [r3, #24]
 1318 0010 40F20003 		movw	r3, #:lower16:.LC53
 1319 0014 C0F20003 		movt	r3, #:upper16:.LC53
 1320              		.loc 1 346 0
 1321 0018 40F20001 		movw	r1, #:lower16:.LC54
 1322              		.loc 1 337 0
 1323 001c 99B0     		sub	sp, sp, #100
 1324              		.cfi_def_cfa_offset 128
 1325              		.loc 1 341 0
 1326 001e D0F80480 		ldr	r8, [r0, #4]
 1327              	.LVL151:
 1328              		.loc 1 346 0
 1329 0022 C0F20001 		movt	r1, #:upper16:.LC54
 1330              		.loc 1 345 0
 1331 0026 9361     		str	r3, [r2, #24]
 1332              		.loc 1 346 0
 1333 0028 3046     		mov	r0, r6
 1334              	.LVL152:
 1335 002a FFF7FEFF 		bl	vex_chprintf
 1336              	.LVL153:
 1337              		.loc 1 347 0
 1338 002e 40F20001 		movw	r1, #:lower16:.LC55
 1339 0032 C0F20001 		movt	r1, #:upper16:.LC55
 1340 0036 3046     		mov	r0, r6
 1341 0038 FFF7FEFF 		bl	vex_chprintf
 1342              	.LVL154:
 1343              		.loc 1 348 0
 1344 003c 40F20001 		movw	r1, #:lower16:.LC56
 1345 0040 40F20002 		movw	r2, #:lower16:.LC16
 1346 0044 40F20003 		movw	r3, #:lower16:.LC30
 1347 0048 C0F20001 		movt	r1, #:upper16:.LC56
 1348 004c C0F20002 		movt	r2, #:upper16:.LC16
 1349 0050 C0F20003 		movt	r3, #:upper16:.LC30
 1350 0054 3046     		mov	r0, r6
 1351              		.loc 1 351 0
 1352 0056 40F20004 		movw	r4, #:lower16:.LC34
 1353              		.loc 1 348 0
 1354 005a FFF7FEFF 		bl	vex_chprintf
 1355              	.LVL155:
 1356              		.loc 1 351 0
 1357 005e C0F20004 		movt	r4, #:upper16:.LC34
 1358 0062 40F20001 		movw	r1, #:lower16:.LC57
 1359 0066 40F20002 		movw	r2, #:lower16:.LC32
 1360 006a 40F20003 		movw	r3, #:lower16:.LC33
ARM GAS  /tmp/ccZPHkgD.s 			page 25


 1361 006e 3046     		mov	r0, r6
 1362 0070 0094     		str	r4, [sp]
 1363 0072 C0F20001 		movt	r1, #:upper16:.LC57
 1364 0076 C0F20002 		movt	r2, #:upper16:.LC32
 1365 007a C0F20003 		movt	r3, #:upper16:.LC33
 1366 007e FFF7FEFF 		bl	vex_chprintf
 1367              	.LVL156:
 1368              	.LBB89:
 1369              	.LBB90:
 1370              		.loc 1 121 0
 1371 0082 40F20007 		movw	r7, #:lower16:.LANCHOR6
 1372 0086 C0F20007 		movt	r7, #:upper16:.LANCHOR6
 1373              	.L124:
 1374              	.LBE90:
 1375              	.LBE89:
 1376              		.loc 1 357 0
 1377 008a 40F20001 		movw	r1, #:lower16:.LC58
 1378 008e C0F20001 		movt	r1, #:upper16:.LC58
 1379 0092 3046     		mov	r0, r6
 1380 0094 FFF7FEFF 		bl	vex_chprintf
 1381              	.LVL157:
 1382              		.loc 1 358 0
 1383 0098 3046     		mov	r0, r6
 1384 009a 08A9     		add	r1, sp, #32
 1385 009c 4022     		movs	r2, #64
 1386 009e FFF7FEFF 		bl	shellGetLine
 1387              	.LVL158:
 1388 00a2 0446     		mov	r4, r0
 1389 00a4 0028     		cmp	r0, #0
 1390 00a6 3CD1     		bne	.L175
 1391              		.loc 1 364 0
 1392 00a8 02A9     		add	r1, sp, #8
 1393 00aa 08A8     		add	r0, sp, #32
 1394 00ac FFF7FEFF 		bl	_strtok.constprop.5
 1395              	.LVL159:
 1396              		.loc 1 369 0
 1397 00b0 02A9     		add	r1, sp, #8
 1398              		.loc 1 364 0
 1399 00b2 8146     		mov	r9, r0
 1400              	.LVL160:
 1401              		.loc 1 369 0
 1402 00b4 0020     		movs	r0, #0
 1403              	.LVL161:
 1404 00b6 02AD     		add	r5, sp, #8
 1405 00b8 FFF7FEFF 		bl	_strtok.constprop.5
 1406              	.LVL162:
 1407 00bc 50B1     		cbz	r0, .L176
 1408              	.L130:
 1409              		.loc 1 371 0
 1410 00be 042C     		cmp	r4, #4
 1411 00c0 25D0     		beq	.L177
 1412              		.loc 1 377 0
 1413 00c2 45F8040F 		str	r0, [r5, #4]!
 1414              		.loc 1 369 0
 1415 00c6 02A9     		add	r1, sp, #8
 1416 00c8 0020     		movs	r0, #0
 1417              	.LVL163:
ARM GAS  /tmp/ccZPHkgD.s 			page 26


 1418              		.loc 1 377 0
 1419 00ca 0134     		adds	r4, r4, #1
 1420              	.LVL164:
 1421              		.loc 1 369 0
 1422 00cc FFF7FEFF 		bl	_strtok.constprop.5
 1423              	.LVL165:
 1424 00d0 0028     		cmp	r0, #0
 1425 00d2 F4D1     		bne	.L130
 1426              	.L176:
 1427              		.loc 1 379 0
 1428 00d4 18AA     		add	r2, sp, #96
 1429 00d6 02EB8403 		add	r3, r2, r4, lsl #2
 1430 00da 43F8540C 		str	r0, [r3, #-84]
 1431              		.loc 1 381 0
 1432 00de B9F1000F 		cmp	r9, #0
 1433 00e2 D2D0     		beq	.L124
 1434              		.loc 1 383 0
 1435 00e4 40F20001 		movw	r1, #:lower16:.LC61
 1436 00e8 C0F20001 		movt	r1, #:upper16:.LC61
 1437 00ec 4846     		mov	r0, r9
 1438              	.LVL166:
 1439 00ee FFF7FEFF 		bl	strcasecmp
 1440              	.LVL167:
 1441 00f2 70BB     		cbnz	r0, .L131
 1442              		.loc 1 385 0
 1443 00f4 E4B1     		cbz	r4, .L126
 1444              	.LVL168:
 1445              	.LBB92:
 1446              	.LBB93:
 1447              		.loc 1 113 0
 1448 00f6 40F20001 		movw	r1, #:lower16:.LC11
 1449 00fa 40F20002 		movw	r2, #:lower16:.LC61
 1450 00fe C0F20001 		movt	r1, #:upper16:.LC11
 1451 0102 C0F20002 		movt	r2, #:upper16:.LC61
 1452 0106 3046     		mov	r0, r6
 1453 0108 FFF7FEFF 		bl	vex_chprintf
 1454              	.LVL169:
 1455              	.LBE93:
 1456              	.LBE92:
 1457              		.loc 1 388 0
 1458 010c BDE7     		b	.L124
 1459              	.LVL170:
 1460              	.L177:
 1461              		.loc 1 373 0
 1462 010e 40F20001 		movw	r1, #:lower16:.LC60
 1463 0112 C0F20001 		movt	r1, #:upper16:.LC60
 1464 0116 3046     		mov	r0, r6
 1465              	.LVL171:
 1466 0118 FFF7FEFF 		bl	vex_chprintf
 1467              	.LVL172:
 1468              		.loc 1 379 0
 1469 011c 0023     		movs	r3, #0
 1470 011e 0793     		str	r3, [sp, #28]
 1471 0120 B3E7     		b	.L124
 1472              	.LVL173:
 1473              	.L175:
 1474              		.loc 1 360 0
ARM GAS  /tmp/ccZPHkgD.s 			page 27


 1475 0122 40F20001 		movw	r1, #:lower16:.LC59
 1476 0126 3046     		mov	r0, r6
 1477 0128 C0F20001 		movt	r1, #:upper16:.LC59
 1478 012c FFF7FEFF 		bl	vex_chprintf
 1479              	.LVL174:
 1480              	.L126:
 1481              	.LBB94:
 1482              		.loc 1 418 0
 1483 0130 2023     		movs	r3, #32
 1484              	@ 418 "../../fw/vexshell.c" 1
 1485 0132 83F31188 		msr     BASEPRI, r3
 1486              	@ 0 "" 2
 1487              		.thumb
 1488              	.LBE94:
 1489              		.loc 1 419 0
 1490 0136 40F20000 		movw	r0, #:lower16:.LANCHOR4
 1491 013a 0021     		movs	r1, #0
 1492 013c C0F20000 		movt	r0, #:upper16:.LANCHOR4
 1493 0140 FFF7FEFF 		bl	chEvtBroadcastFlagsI
 1494              	.LVL175:
 1495              		.loc 1 420 0
 1496 0144 0020     		movs	r0, #0
 1497 0146 FFF7FEFF 		bl	chThdExitS
 1498              	.LVL176:
 1499              		.loc 1 423 0
 1500 014a 0020     		movs	r0, #0
 1501 014c 19B0     		add	sp, sp, #100
 1502              		@ sp needed
 1503 014e BDE8F083 		pop	{r4, r5, r6, r7, r8, r9, pc}
 1504              	.LVL177:
 1505              	.L131:
 1506              		.loc 1 393 0
 1507 0152 40F20001 		movw	r1, #:lower16:.LC62
 1508 0156 C0F20001 		movt	r1, #:upper16:.LC62
 1509 015a 4846     		mov	r0, r9
 1510 015c FFF7FEFF 		bl	strcasecmp
 1511              	.LVL178:
 1512 0160 60B9     		cbnz	r0, .L178
 1513              		.loc 1 395 0
 1514 0162 0CB3     		cbz	r4, .L136
 1515              	.LVL179:
 1516              	.LBB95:
 1517              	.LBB96:
 1518              		.loc 1 113 0
 1519 0164 40F20001 		movw	r1, #:lower16:.LC11
 1520 0168 40F20002 		movw	r2, #:lower16:.LC62
 1521 016c C0F20001 		movt	r1, #:upper16:.LC11
 1522 0170 C0F20002 		movt	r2, #:upper16:.LC62
 1523 0174 3046     		mov	r0, r6
 1524 0176 FFF7FEFF 		bl	vex_chprintf
 1525              	.LVL180:
 1526              	.LBE96:
 1527              	.LBE95:
 1528              		.loc 1 398 0
 1529 017a 86E7     		b	.L124
 1530              	.LVL181:
 1531              	.L178:
ARM GAS  /tmp/ccZPHkgD.s 			page 28


 1532              	.LBB97:
 1533              	.LBB98:
 1534              		.loc 1 313 0
 1535 017c 3868     		ldr	r0, [r7]
 1536 017e 40F20005 		movw	r5, #:lower16:.LANCHOR6
 1537 0182 C0F20005 		movt	r5, #:upper16:.LANCHOR6
 1538 0186 20B9     		cbnz	r0, .L144
 1539 0188 40E0     		b	.L135
 1540              	.LVL182:
 1541              	.L143:
 1542 018a 55F8080F 		ldr	r0, [r5, #8]!
 1543              	.LVL183:
 1544 018e 0028     		cmp	r0, #0
 1545 0190 3CD0     		beq	.L135
 1546              	.LVL184:
 1547              	.L144:
 1548              		.loc 1 314 0
 1549 0192 4946     		mov	r1, r9
 1550 0194 FFF7FEFF 		bl	strcasecmp
 1551              	.LVL185:
 1552 0198 0028     		cmp	r0, #0
 1553 019a F6D1     		bne	.L143
 1554              	.LVL186:
 1555              	.L174:
 1556              	.LBE98:
 1557              	.LBE97:
 1558              	.LBB99:
 1559              	.LBB100:
 1560              		.loc 1 315 0
 1561 019c 6B68     		ldr	r3, [r5, #4]
 1562 019e 2146     		mov	r1, r4
 1563 01a0 3046     		mov	r0, r6
 1564 01a2 03AA     		add	r2, sp, #12
 1565 01a4 9847     		blx	r3
 1566              	.LVL187:
 1567 01a6 70E7     		b	.L124
 1568              	.L136:
 1569              	.LBE100:
 1570              	.LBE99:
 1571              		.loc 1 401 0
 1572 01a8 40F20001 		movw	r1, #:lower16:.LC63
 1573 01ac C0F20001 		movt	r1, #:upper16:.LC63
 1574 01b0 3046     		mov	r0, r6
 1575 01b2 FFF7FEFF 		bl	vex_chprintf
 1576              	.LVL188:
 1577              	.LBB102:
 1578              	.LBB91:
 1579              		.loc 1 121 0
 1580 01b6 3A68     		ldr	r2, [r7]
 1581 01b8 40F20004 		movw	r4, #:lower16:.LANCHOR6
 1582              	.LVL189:
 1583 01bc C0F20004 		movt	r4, #:upper16:.LANCHOR6
 1584 01c0 52B1     		cbz	r2, .L140
 1585              	.LVL190:
 1586              	.L141:
 1587              		.loc 1 123 0
 1588 01c2 40F20001 		movw	r1, #:lower16:.LC64
ARM GAS  /tmp/ccZPHkgD.s 			page 29


 1589 01c6 C0F20001 		movt	r1, #:upper16:.LC64
 1590 01ca 3046     		mov	r0, r6
 1591 01cc FFF7FEFF 		bl	vex_chprintf
 1592              	.LVL191:
 1593              		.loc 1 121 0
 1594 01d0 54F8082F 		ldr	r2, [r4, #8]!
 1595              	.LVL192:
 1596 01d4 002A     		cmp	r2, #0
 1597 01d6 F4D1     		bne	.L141
 1598              	.LVL193:
 1599              	.L140:
 1600              	.LBE91:
 1601              	.LBE102:
 1602              		.loc 1 403 0
 1603 01d8 B8F1000F 		cmp	r8, #0
 1604 01dc 0ED0     		beq	.L139
 1605              	.LVL194:
 1606              	.LBB103:
 1607              	.LBB104:
 1608              		.loc 1 121 0
 1609 01de D8F80020 		ldr	r2, [r8]
 1610 01e2 5AB1     		cbz	r2, .L139
 1611 01e4 4446     		mov	r4, r8
 1612              	.LVL195:
 1613              	.L142:
 1614              		.loc 1 123 0
 1615 01e6 40F20001 		movw	r1, #:lower16:.LC64
 1616 01ea C0F20001 		movt	r1, #:upper16:.LC64
 1617 01ee 3046     		mov	r0, r6
 1618 01f0 FFF7FEFF 		bl	vex_chprintf
 1619              	.LVL196:
 1620              		.loc 1 121 0
 1621 01f4 54F8082F 		ldr	r2, [r4, #8]!
 1622              	.LVL197:
 1623 01f8 002A     		cmp	r2, #0
 1624 01fa F4D1     		bne	.L142
 1625              	.LVL198:
 1626              	.L139:
 1627              	.LBE104:
 1628              	.LBE103:
 1629              		.loc 1 405 0
 1630 01fc 40F20001 		movw	r1, #:lower16:.LC52
 1631 0200 C0F20001 		movt	r1, #:upper16:.LC52
 1632 0204 3046     		mov	r0, r6
 1633 0206 FFF7FEFF 		bl	vex_chprintf
 1634              	.LVL199:
 1635 020a 3EE7     		b	.L124
 1636              	.LVL200:
 1637              	.L135:
 1638              		.loc 1 408 0
 1639 020c B8F1000F 		cmp	r8, #0
 1640 0210 0DD0     		beq	.L147
 1641              	.LVL201:
 1642              	.LBB105:
 1643              	.LBB101:
 1644              		.loc 1 313 0
 1645 0212 D8F80000 		ldr	r0, [r8]
ARM GAS  /tmp/ccZPHkgD.s 			page 30


 1646 0216 50B1     		cbz	r0, .L147
 1647 0218 4546     		mov	r5, r8
 1648 021a 02E0     		b	.L148
 1649              	.LVL202:
 1650              	.L145:
 1651 021c 55F8080F 		ldr	r0, [r5, #8]!
 1652              	.LVL203:
 1653 0220 28B1     		cbz	r0, .L147
 1654              	.LVL204:
 1655              	.L148:
 1656              		.loc 1 314 0
 1657 0222 4946     		mov	r1, r9
 1658 0224 FFF7FEFF 		bl	strcasecmp
 1659              	.LVL205:
 1660 0228 0028     		cmp	r0, #0
 1661 022a F7D1     		bne	.L145
 1662 022c B6E7     		b	.L174
 1663              	.LVL206:
 1664              	.L147:
 1665              	.LBE101:
 1666              	.LBE105:
 1667              		.loc 1 410 0
 1668 022e 40F20001 		movw	r1, #:lower16:.LC48
 1669 0232 4A46     		mov	r2, r9
 1670 0234 C0F20001 		movt	r1, #:upper16:.LC48
 1671 0238 3046     		mov	r0, r6
 1672 023a FFF7FEFF 		bl	vex_chprintf
 1673              	.LVL207:
 1674              		.loc 1 411 0
 1675 023e 40F20001 		movw	r1, #:lower16:.LC65
 1676 0242 3046     		mov	r0, r6
 1677 0244 C0F20001 		movt	r1, #:upper16:.LC65
 1678 0248 FFF7FEFF 		bl	vex_chprintf
 1679              	.LVL208:
 1680 024c 1DE7     		b	.L124
 1681              		.cfi_endproc
 1682              	.LFE73:
 1683              		.size	shell_thread, .-shell_thread
 1684              		.global	shell_terminated
 1685 024e 00BF     		.section	.rodata
 1686              		.align	2
 1687              		.set	.LANCHOR3,. + 0
 1688              	.LC47:
 1689 0000 20003900 		.ascii	" \0009\000"
 1690              		.section	.bss.history.7762,"aw",%nobits
 1691              		.align	2
 1692              		.set	.LANCHOR5,. + 0
 1693              		.type	history.7762, %object
 1694              		.size	history.7762, 64
 1695              	history.7762:
 1696 0000 00000000 		.space	64
 1696      00000000 
 1696      00000000 
 1696      00000000 
 1696      00000000 
 1697              		.section	.data.shell_echo,"aw",%progbits
 1698              		.set	.LANCHOR0,. + 0
ARM GAS  /tmp/ccZPHkgD.s 			page 31


 1699              		.type	shell_echo, %object
 1700              		.size	shell_echo, 1
 1701              	shell_echo:
 1702 0000 01       		.byte	1
 1703              		.section	.rodata.str1.4,"aMS",%progbits,1
 1704              		.align	2
 1705              	.LC0:
 1706 0000 55736167 		.ascii	"Usage:flags [flag] [on|off]\015\012\000"
 1706      653A666C 
 1706      61677320 
 1706      5B666C61 
 1706      675D205B 
 1707 001e 0000     		.space	2
 1708              	.LC1:
 1709 0020 20202020 		.ascii	"      example\015\012\000"
 1709      20206578 
 1709      616D706C 
 1709      650D0A00 
 1710              	.LC2:
 1711 0030 20202020 		.ascii	"      flags echo on\015\012\000"
 1711      2020666C 
 1711      61677320 
 1711      6563686F 
 1711      206F6E0D 
 1712 0046 0000     		.space	2
 1713              	.LC3:
 1714 0048 6563686F 		.ascii	"echo\000"
 1714      00
 1715 004d 000000   		.space	3
 1716              	.LC4:
 1717 0050 6F6E00   		.ascii	"on\000"
 1718 0053 00       		.space	1
 1719              	.LC5:
 1720 0054 6563686F 		.ascii	"echo is on\015\012\000"
 1720      20697320 
 1720      6F6E0D0A 
 1720      00
 1721 0061 000000   		.space	3
 1722              	.LC6:
 1723 0064 6F666600 		.ascii	"off\000"
 1724              	.LC7:
 1725 0068 6563686F 		.ascii	"echo is off\015\012\000"
 1725      20697320 
 1725      6F66660D 
 1725      0A00
 1726 0076 0000     		.space	2
 1727              	.LC8:
 1728 0078 62756672 		.ascii	"bufr\000"
 1728      00
 1729 007d 000000   		.space	3
 1730              	.LC9:
 1731 0080 62756666 		.ascii	"buffering is on\015\012\000"
 1731      6572696E 
 1731      67206973 
 1731      206F6E0D 
 1731      0A00
 1732 0092 0000     		.space	2
ARM GAS  /tmp/ccZPHkgD.s 			page 32


 1733              	.LC10:
 1734 0094 62756666 		.ascii	"buffering is off\015\012\000"
 1734      6572696E 
 1734      67206973 
 1734      206F6666 
 1734      0D0A00
 1735 00a7 00       		.space	1
 1736              	.LC11:
 1737 00a8 55736167 		.ascii	"Usage: %s\015\012\000"
 1737      653A2025 
 1737      730D0A00 
 1738              	.LC12:
 1739 00b4 73797374 		.ascii	"systime\000"
 1739      696D6500 
 1740              	.LC13:
 1741 00bc 256C750D 		.ascii	"%lu\015\012\000"
 1741      0A00
 1742 00c2 0000     		.space	2
 1743              	.LC14:
 1744 00c4 696E666F 		.ascii	"info\000"
 1744      00
 1745 00c9 000000   		.space	3
 1746              	.LC15:
 1747 00cc 4B65726E 		.ascii	"Kernel:       %s\015\012\000"
 1747      656C3A20 
 1747      20202020 
 1747      20202573 
 1747      0D0A00
 1748 00df 00       		.space	1
 1749              	.LC16:
 1750 00e0 322E362E 		.ascii	"2.6.2\000"
 1750      3200
 1751 00e6 0000     		.space	2
 1752              	.LC17:
 1753 00e8 436F6D70 		.ascii	"Compiler:     %s\015\012\000"
 1753      696C6572 
 1753      3A202020 
 1753      20202573 
 1753      0D0A00
 1754 00fb 00       		.space	1
 1755              	.LC18:
 1756 00fc 47434320 		.ascii	"GCC 4.8.2\000"
 1756      342E382E 
 1756      3200
 1757 0106 0000     		.space	2
 1758              	.LC19:
 1759 0108 41726368 		.ascii	"Architecture: %s\015\012\000"
 1759      69746563 
 1759      74757265 
 1759      3A202573 
 1759      0D0A00
 1760 011b 00       		.space	1
 1761              	.LC20:
 1762 011c 41524D76 		.ascii	"ARMv7-M\000"
 1762      372D4D00 
 1763              	.LC21:
 1764 0124 436F7265 		.ascii	"Core Variant: %s\015\012\000"
ARM GAS  /tmp/ccZPHkgD.s 			page 33


 1764      20566172 
 1764      69616E74 
 1764      3A202573 
 1764      0D0A00
 1765 0137 00       		.space	1
 1766              	.LC22:
 1767 0138 436F7274 		.ascii	"Cortex-M3\000"
 1767      65782D4D 
 1767      3300
 1768 0142 0000     		.space	2
 1769              	.LC23:
 1770 0144 506F7274 		.ascii	"Port Info:    %s\015\012\000"
 1770      20496E66 
 1770      6F3A2020 
 1770      20202573 
 1770      0D0A00
 1771 0157 00       		.space	1
 1772              	.LC24:
 1773 0158 41647661 		.ascii	"Advanced kernel mode\000"
 1773      6E636564 
 1773      206B6572 
 1773      6E656C20 
 1773      6D6F6465 
 1774 016d 000000   		.space	3
 1775              	.LC25:
 1776 0170 506C6174 		.ascii	"Platform:     %s\015\012\000"
 1776      666F726D 
 1776      3A202020 
 1776      20202573 
 1776      0D0A00
 1777 0183 00       		.space	1
 1778              	.LC26:
 1779 0184 53544D33 		.ascii	"STM32F10x Performance Line High Density\000"
 1779      32463130 
 1779      78205065 
 1779      72666F72 
 1779      6D616E63 
 1780              	.LC27:
 1781 01ac 426F6172 		.ascii	"Board:        %s\015\012\000"
 1781      643A2020 
 1781      20202020 
 1781      20202573 
 1781      0D0A00
 1782 01bf 00       		.space	1
 1783              	.LC28:
 1784 01c0 56455820 		.ascii	"VEX CORTEX\000"
 1784      434F5254 
 1784      455800
 1785 01cb 00       		.space	1
 1786              	.LC29:
 1787 01cc 436F6E56 		.ascii	"ConVEX:       %s\015\012\000"
 1787      45583A20 
 1787      20202020 
 1787      20202573 
 1787      0D0A00
 1788 01df 00       		.space	1
 1789              	.LC30:
ARM GAS  /tmp/ccZPHkgD.s 			page 34


 1790 01e0 312E302E 		.ascii	"1.0.4\000"
 1790      3400
 1791 01e6 0000     		.space	2
 1792              	.LC31:
 1793 01e8 4275696C 		.ascii	"Build time:   %s%s%s\015\012\000"
 1793      64207469 
 1793      6D653A20 
 1793      20202573 
 1793      25732573 
 1794 01ff 00       		.space	1
 1795              	.LC32:
 1796 0200 53657020 		.ascii	"Sep  2 2016\000"
 1796      20322032 
 1796      30313600 
 1797              	.LC33:
 1798 020c 202D2000 		.ascii	" - \000"
 1799              	.LC34:
 1800 0210 31303A31 		.ascii	"10:19:47\000"
 1800      393A3437 
 1800      00
 1801 0219 000000   		.space	3
 1802              	.LC35:
 1803 021c 55736167 		.ascii	"Usage: reboot\015\012\000"
 1803      653A2072 
 1803      65626F6F 
 1803      740D0A00 
 1804              	.LC36:
 1805 022c 7265626F 		.ascii	"rebooting...\015\012\000"
 1805      6F74696E 
 1805      672E2E2E 
 1805      0D0A00
 1806 023b 00       		.space	1
 1807              	.LC37:
 1808 023c 55736167 		.ascii	"Usage: threads\015\012\000"
 1808      653A2074 
 1808      68726561 
 1808      64730D0A 
 1808      00
 1809 024d 000000   		.space	3
 1810              	.LC38:
 1811 0250 20202020 		.ascii	"            name addr     stack    prio refs     st"
 1811      20202020 
 1811      20202020 
 1811      6E616D65 
 1811      20616464 
 1812 0283 61746520 		.ascii	"ate time\015\012\000"
 1812      74696D65 
 1812      0D0A00
 1813 028e 0000     		.space	2
 1814              	.LC39:
 1815 0290 25313673 		.ascii	"%16s \000"
 1815      2000
 1816 0296 0000     		.space	2
 1817              	.LC40:
 1818 0298 20202020 		.ascii	"                 \000"
 1818      20202020 
 1818      20202020 
ARM GAS  /tmp/ccZPHkgD.s 			page 35


 1818      20202020 
 1818      2000
 1819 02aa 0000     		.space	2
 1820              	.LC41:
 1821 02ac 252E386C 		.ascii	"%.8lx %.8lx %4lu %4lu %9s %lu\015\012\000"
 1821      7820252E 
 1821      386C7820 
 1821      25346C75 
 1821      2025346C 
 1822              	.LC42:
 1823 02cc 55736167 		.ascii	"Usage: mem\015\012\000"
 1823      653A206D 
 1823      656D0D0A 
 1823      00
 1824 02d9 000000   		.space	3
 1825              	.LC43:
 1826 02dc 636F7265 		.ascii	"core free memory : %u bytes\015\012\000"
 1826      20667265 
 1826      65206D65 
 1826      6D6F7279 
 1826      203A2025 
 1827 02fa 0000     		.space	2
 1828              	.LC44:
 1829 02fc 68656170 		.ascii	"heap fragments   : %u\015\012\000"
 1829      20667261 
 1829      676D656E 
 1829      74732020 
 1829      203A2025 
 1830              	.LC45:
 1831 0314 68656170 		.ascii	"heap free total  : %u bytes\015\012\000"
 1831      20667265 
 1831      6520746F 
 1831      74616C20 
 1831      203A2025 
 1832 0332 0000     		.space	2
 1833              	.LC46:
 1834 0334 666C6173 		.ascii	"flash used       : %lu (0x%05X) bytes\015\012\000"
 1834      68207573 
 1834      65642020 
 1834      20202020 
 1834      203A2025 
 1835              	.LC48:
 1836 035c 257300   		.ascii	"%s\000"
 1837 035f 00       		.space	1
 1838              	.LC49:
 1839 0360 5E4400   		.ascii	"^D\000"
 1840 0363 00       		.space	1
 1841              	.LC50:
 1842 0364 25632025 		.ascii	"%c %c\000"
 1842      6300
 1843 036a 0000     		.space	2
 1844              	.LC51:
 1845 036c 256300   		.ascii	"%c\000"
 1846 036f 00       		.space	1
 1847              	.LC52:
 1848 0370 0D0A00   		.ascii	"\015\012\000"
 1849 0373 00       		.space	1
ARM GAS  /tmp/ccZPHkgD.s 			page 36


 1850              	.LC53:
 1851 0374 7368656C 		.ascii	"shell\000"
 1851      6C00
 1852 037a 0000     		.space	2
 1853              	.LC54:
 1854 037c 1B5B324A 		.ascii	"\033[2J\000"
 1854      00
 1855 0381 000000   		.space	3
 1856              	.LC55:
 1857 0384 0D0A5645 		.ascii	"\015\012VEX-Cortex Shell V1.00\015\012\000"
 1857      582D436F 
 1857      72746578 
 1857      20536865 
 1857      6C6C2056 
 1858 039f 00       		.space	1
 1859              	.LC56:
 1860 03a0 4B65726E 		.ascii	"Kernel:%s  ConVEX:%s  \000"
 1860      656C3A25 
 1860      73202043 
 1860      6F6E5645 
 1860      583A2573 
 1861 03b7 00       		.space	1
 1862              	.LC57:
 1863 03b8 4275696C 		.ascii	"Build time:%s%s%s\015\012\000"
 1863      64207469 
 1863      6D653A25 
 1863      73257325 
 1863      730D0A00 
 1864              	.LC58:
 1865 03cc 63683E20 		.ascii	"ch> \000"
 1865      00
 1866 03d1 000000   		.space	3
 1867              	.LC59:
 1868 03d4 0D0A6C6F 		.ascii	"\015\012logout\000"
 1868      676F7574 
 1868      00
 1869 03dd 000000   		.space	3
 1870              	.LC60:
 1871 03e0 746F6F20 		.ascii	"too many arguments\015\012\000"
 1871      6D616E79 
 1871      20617267 
 1871      756D656E 
 1871      74730D0A 
 1872 03f5 000000   		.space	3
 1873              	.LC61:
 1874 03f8 65786974 		.ascii	"exit\000"
 1874      00
 1875 03fd 000000   		.space	3
 1876              	.LC62:
 1877 0400 68656C70 		.ascii	"help\000"
 1877      00
 1878 0405 000000   		.space	3
 1879              	.LC63:
 1880 0408 436F6D6D 		.ascii	"Commands: help exit \000"
 1880      616E6473 
 1880      3A206865 
 1880      6C702065 
ARM GAS  /tmp/ccZPHkgD.s 			page 37


 1880      78697420 
 1881 041d 000000   		.space	3
 1882              	.LC64:
 1883 0420 25732000 		.ascii	"%s \000"
 1884              	.LC65:
 1885 0424 203F0D0A 		.ascii	" ?\015\012\000"
 1885      00
 1886 0429 000000   		.space	3
 1887              	.LC66:
 1888 042c 52454144 		.ascii	"READY\000"
 1888      5900
 1889 0432 0000     		.space	2
 1890              	.LC67:
 1891 0434 43555252 		.ascii	"CURRENT\000"
 1891      454E5400 
 1892              	.LC68:
 1893 043c 53555350 		.ascii	"SUSPENDED\000"
 1893      454E4445 
 1893      4400
 1894 0446 0000     		.space	2
 1895              	.LC69:
 1896 0448 57545345 		.ascii	"WTSEM\000"
 1896      4D00
 1897 044e 0000     		.space	2
 1898              	.LC70:
 1899 0450 57544D54 		.ascii	"WTMTX\000"
 1899      5800
 1900 0456 0000     		.space	2
 1901              	.LC71:
 1902 0458 5754434F 		.ascii	"WTCOND\000"
 1902      4E4400
 1903 045f 00       		.space	1
 1904              	.LC72:
 1905 0460 534C4545 		.ascii	"SLEEPING\000"
 1905      50494E47 
 1905      00
 1906 0469 000000   		.space	3
 1907              	.LC73:
 1908 046c 57544558 		.ascii	"WTEXIT\000"
 1908      495400
 1909 0473 00       		.space	1
 1910              	.LC74:
 1911 0474 57544F52 		.ascii	"WTOREVT\000"
 1911      45565400 
 1912              	.LC75:
 1913 047c 5754414E 		.ascii	"WTANDEVT\000"
 1913      44455654 
 1913      00
 1914 0485 000000   		.space	3
 1915              	.LC76:
 1916 0488 534E444D 		.ascii	"SNDMSGQ\000"
 1916      53475100 
 1917              	.LC77:
 1918 0490 534E444D 		.ascii	"SNDMSG\000"
 1918      534700
 1919 0497 00       		.space	1
 1920              	.LC78:
ARM GAS  /tmp/ccZPHkgD.s 			page 38


 1921 0498 57544D53 		.ascii	"WTMSG\000"
 1921      4700
 1922 049e 0000     		.space	2
 1923              	.LC79:
 1924 04a0 57545155 		.ascii	"WTQUEUE\000"
 1924      45554500 
 1925              	.LC80:
 1926 04a8 46494E41 		.ascii	"FINAL\000"
 1926      4C00
 1927 04ae 0000     		.space	2
 1928              	.LC81:
 1929 04b0 6D656D00 		.ascii	"mem\000"
 1930              	.LC82:
 1931 04b4 74687265 		.ascii	"threads\000"
 1931      61647300 
 1932              	.LC83:
 1933 04bc 7265626F 		.ascii	"reboot\000"
 1933      6F7400
 1934 04c3 00       		.space	1
 1935              	.LC84:
 1936 04c4 666C6167 		.ascii	"flags\000"
 1936      7300
 1937 04ca 0000     		.section	.data.shell_bufr,"aw",%progbits
 1938              		.set	.LANCHOR1,. + 0
 1939              		.type	shell_bufr, %object
 1940              		.size	shell_bufr, 1
 1941              	shell_bufr:
 1942 0000 01       		.byte	1
 1943              		.section	.bss.shell_terminated,"aw",%nobits
 1944              		.align	2
 1945              		.set	.LANCHOR4,. + 0
 1946              		.type	shell_terminated, %object
 1947              		.size	shell_terminated, 4
 1948              	shell_terminated:
 1949 0000 00000000 		.space	4
 1950              		.section	.rodata.states.7699,"a",%progbits
 1951              		.align	2
 1952              		.set	.LANCHOR2,. + 0
 1953              		.type	states.7699, %object
 1954              		.size	states.7699, 60
 1955              	states.7699:
 1956 0000 2C040000 		.word	.LC66
 1957 0004 34040000 		.word	.LC67
 1958 0008 3C040000 		.word	.LC68
 1959 000c 48040000 		.word	.LC69
 1960 0010 50040000 		.word	.LC70
 1961 0014 58040000 		.word	.LC71
 1962 0018 60040000 		.word	.LC72
 1963 001c 6C040000 		.word	.LC73
 1964 0020 74040000 		.word	.LC74
 1965 0024 7C040000 		.word	.LC75
 1966 0028 88040000 		.word	.LC76
 1967 002c 90040000 		.word	.LC77
 1968 0030 98040000 		.word	.LC78
 1969 0034 A0040000 		.word	.LC79
 1970 0038 A8040000 		.word	.LC80
 1971              		.section	.data.local_commands,"aw",%progbits
ARM GAS  /tmp/ccZPHkgD.s 			page 39


 1972              		.align	2
 1973              		.set	.LANCHOR6,. + 0
 1974              		.type	local_commands, %object
 1975              		.size	local_commands, 56
 1976              	local_commands:
 1977 0000 C4000000 		.word	.LC14
 1978 0004 00000000 		.word	cmd_info
 1979 0008 B4000000 		.word	.LC12
 1980 000c 00000000 		.word	cmd_systime
 1981 0010 B0040000 		.word	.LC81
 1982 0014 00000000 		.word	cmd_mem
 1983 0018 B4040000 		.word	.LC82
 1984 001c 00000000 		.word	cmd_threads
 1985 0020 BC040000 		.word	.LC83
 1986 0024 00000000 		.word	cmd_reboot
 1987 0028 C4040000 		.word	.LC84
 1988 002c 00000000 		.word	cmd_flags
 1989 0030 00000000 		.word	0
 1990 0034 00000000 		.word	0
 1991              		.text
 1992              	.Letext0:
 1993              		.file 4 "/usr/lib/gcc/arm-none-eabi/4.8.2/include/stddef.h"
 1994              		.file 5 "/usr/include/newlib/machine/_default_types.h"
 1995              		.file 6 "/usr/include/newlib/stdint.h"
 1996              		.file 7 "../../../../ChibiOS_2.6.2/os/ports/GCC/ARMCMx/chtypes.h"
 1997              		.file 8 "../../../../ChibiOS_2.6.2/os/kernel/include/chlists.h"
 1998              		.file 9 "../../../../ChibiOS_2.6.2/os/kernel/include/chthreads.h"
 1999              		.file 10 "../../../../ChibiOS_2.6.2/os/ports/GCC/ARMCMx/chcore_v7m.h"
 2000              		.file 11 "../../../../ChibiOS_2.6.2/os/kernel/include/chvt.h"
 2001              		.file 12 "../../../../ChibiOS_2.6.2/os/kernel/include/chschd.h"
 2002              		.file 13 "../../../../ChibiOS_2.6.2/os/kernel/include/chmtx.h"
 2003              		.file 14 "../../../../ChibiOS_2.6.2/os/kernel/include/chevents.h"
 2004              		.file 15 "../../../../ChibiOS_2.6.2/os/kernel/include/chmemcore.h"
 2005              		.file 16 "../../../../ChibiOS_2.6.2/os/kernel/include/chheap.h"
 2006              		.file 17 "../../../../ChibiOS_2.6.2/os/kernel/include/chstreams.h"
 2007              		.file 18 "../../fw/vexcompat.h"
 2008              		.file 19 "../../fw/vexdigital.h"
 2009              		.file 20 "../../fw/vexime.h"
 2010              		.file 21 "../../fw/vexshell.h"
 2011              		.file 22 "/usr/include/newlib/string.h"
 2012              		.file 23 "../../fw/vexprintf.h"
 2013              		.file 24 "../../../../ChibiOS_2.6.2/os/kernel/include/chregistry.h"
 2014              		.file 25 "../../../../ChibiOS_2.6.2/os/kernel/include/chdynamic.h"
 2015              		.file 26 "<built-in>"