ARM GAS  /tmp/ccs4ODSO.s 			page 1


   1              		.syntax unified
   2              		.cpu cortex-m3
   3              		.fpu softvfp
   4              		.eabi_attribute 20, 1
   5              		.eabi_attribute 21, 1
   6              		.eabi_attribute 23, 3
   7              		.eabi_attribute 24, 1
   8              		.eabi_attribute 25, 1
   9              		.eabi_attribute 26, 1
  10              		.eabi_attribute 30, 2
  11              		.eabi_attribute 34, 1
  12              		.eabi_attribute 18, 4
  13              		.thumb
  14              		.file	"vexsonar.c"
  15              		.text
  16              	.Ltext0:
  17              		.cfi_sections	.debug_frame
  18              		.section	.text._vs_echo_cb,"ax",%progbits
  19              		.align	2
  20              		.p2align 4,,15
  21              		.thumb
  22              		.thumb_func
  23              		.type	_vs_echo_cb, %function
  24              	_vs_echo_cb:
  25              	.LFB65:
  26              		.file 1 "../../fw/vexsonar.c"
  27              		.loc 1 202 0
  28              		.cfi_startproc
  29              		@ args = 0, pretend = 0, frame = 0
  30              		@ frame_needed = 0, uses_anonymous_args = 0
  31              		@ link register save eliminated.
  32              	.LVL0:
  33 0000 10B4     		push	{r4}
  34              		.cfi_def_cfa_offset 4
  35              		.cfi_offset 4, -4
  36              	.LBB2:
  37              		.loc 1 206 0
  38 0002 2023     		movs	r3, #32
  39              	@ 206 "../../fw/vexsonar.c" 1
  40 0004 83F31188 		msr     BASEPRI, r3
  41              	@ 0 "" 2
  42              		.thumb
  43              	.LBE2:
  44              		.loc 1 208 0
  45 0008 40F20003 		movw	r3, #:lower16:.LANCHOR0
  46 000c C0F20003 		movt	r3, #:upper16:.LANCHOR0
  47 0010 1978     		ldrb	r1, [r3]	@ zero_extendqisi2
  48              	.LVL1:
  49 0012 40F20003 		movw	r3, #:lower16:.LANCHOR1
  50 0016 4901     		lsls	r1, r1, #5
  51 0018 C0F20003 		movt	r3, #:upper16:.LANCHOR1
  52 001c 5A18     		adds	r2, r3, r1
  53 001e 9069     		ldr	r0, [r2, #24]
  54              	.LVL2:
  55 0020 B2F91C40 		ldrsh	r4, [r2, #28]
  56 0024 8068     		ldr	r0, [r0, #8]
  57 0026 E040     		lsrs	r0, r0, r4
ARM GAS  /tmp/ccs4ODSO.s 			page 2


  58 0028 C007     		lsls	r0, r0, #31
  59 002a 12D4     		bmi	.L5
  60              		.loc 1 212 0
  61 002c 40F20003 		movw	r3, #:lower16:GPTD5
  62 0030 C0F20003 		movt	r3, #:upper16:GPTD5
  63 0034 D968     		ldr	r1, [r3, #12]
  64              		.loc 1 213 0
  65 0036 40F20003 		movw	r3, #:lower16:.LANCHOR2
  66              		.loc 1 212 0
  67 003a 486A     		ldr	r0, [r1, #36]
  68              		.loc 1 213 0
  69 003c C0F20003 		movt	r3, #:upper16:.LANCHOR2
  70 0040 0221     		movs	r1, #2
  71 0042 1970     		strb	r1, [r3]
  72              		.loc 1 212 0
  73 0044 5080     		strh	r0, [r2, #2]	@ movhi
  74              	.LBB3:
  75              		.loc 1 216 0
  76 0046 0023     		movs	r3, #0
  77              	@ 216 "../../fw/vexsonar.c" 1
  78 0048 83F31188 		msr     BASEPRI, r3
  79              	@ 0 "" 2
  80              		.thumb
  81              	.LBE3:
  82              		.loc 1 217 0
  83 004c 5DF8044B 		ldr	r4, [sp], #4
  84 0050 7047     		bx	lr
  85              	.L5:
  86              		.loc 1 209 0
  87 0052 40F20002 		movw	r2, #:lower16:GPTD5
  88 0056 C0F20002 		movt	r2, #:upper16:GPTD5
  89 005a D268     		ldr	r2, [r2, #12]
  90 005c 526A     		ldr	r2, [r2, #36]
  91 005e 5A52     		strh	r2, [r3, r1]	@ movhi
  92              	.LBB4:
  93              		.loc 1 216 0
  94 0060 0023     		movs	r3, #0
  95              	@ 216 "../../fw/vexsonar.c" 1
  96 0062 83F31188 		msr     BASEPRI, r3
  97              	@ 0 "" 2
  98              		.thumb
  99              	.LBE4:
 100              		.loc 1 217 0
 101 0066 5DF8044B 		ldr	r4, [sp], #4
 102 006a 7047     		bx	lr
 103              		.cfi_endproc
 104              	.LFE65:
 105              		.size	_vs_echo_cb, .-_vs_echo_cb
 106 006c AFF30080 		.section	.text._vs_gpt_cb,"ax",%progbits
 107              		.align	2
 108              		.p2align 4,,15
 109              		.thumb
 110              		.thumb_func
 111              		.type	_vs_gpt_cb, %function
 112              	_vs_gpt_cb:
 113              	.LFB63:
 114              		.loc 1 95 0
ARM GAS  /tmp/ccs4ODSO.s 			page 3


 115              		.cfi_startproc
 116              		@ args = 0, pretend = 0, frame = 0
 117              		@ frame_needed = 0, uses_anonymous_args = 0
 118              	.LVL3:
 119 0000 70B5     		push	{r4, r5, r6, lr}
 120              		.cfi_def_cfa_offset 16
 121              		.cfi_offset 4, -16
 122              		.cfi_offset 5, -12
 123              		.cfi_offset 6, -8
 124              		.cfi_offset 14, -4
 125              	.LBB5:
 126              		.loc 1 98 0
 127 0002 2023     		movs	r3, #32
 128              	@ 98 "../../fw/vexsonar.c" 1
 129 0004 83F31188 		msr     BASEPRI, r3
 130              	@ 0 "" 2
 131              		.thumb
 132              	.LBE5:
 133              		.loc 1 100 0
 134 0008 40F20003 		movw	r3, #:lower16:.LANCHOR2
 135 000c C0F20003 		movt	r3, #:upper16:.LANCHOR2
 136 0010 1978     		ldrb	r1, [r3]	@ zero_extendqisi2
 137 0012 D9B1     		cbz	r1, .L9
 138              		.loc 1 107 0
 139 0014 0129     		cmp	r1, #1
 140 0016 03D0     		beq	.L10
 141              	.LBB6:
 142              		.loc 1 114 0
 143 0018 0023     		movs	r3, #0
 144              	@ 114 "../../fw/vexsonar.c" 1
 145 001a 83F31188 		msr     BASEPRI, r3
 146              	@ 0 "" 2
 147              		.thumb
 148 001e 70BD     		pop	{r4, r5, r6, pc}
 149              	.L10:
 150              	.LBE6:
 151              		.loc 1 109 0
 152 0020 40F20002 		movw	r2, #:lower16:.LANCHOR0
 153 0024 C0F20002 		movt	r2, #:upper16:.LANCHOR0
 154 0028 1178     		ldrb	r1, [r2]	@ zero_extendqisi2
 155 002a 40F20002 		movw	r2, #:lower16:.LANCHOR1
 156 002e 4901     		lsls	r1, r1, #5
 157 0030 C0F20002 		movt	r2, #:upper16:.LANCHOR1
 158 0034 0026     		movs	r6, #0
 159 0036 5018     		adds	r0, r2, r1
 160              	.LVL4:
 161              		.loc 1 110 0
 162 0038 49F64044 		movw	r4, #40000
 163              		.loc 1 111 0
 164 003c 0325     		movs	r5, #3
 165              		.loc 1 109 0
 166 003e 5652     		strh	r6, [r2, r1]	@ movhi
 167              		.loc 1 111 0
 168 0040 1D70     		strb	r5, [r3]
 169              		.loc 1 110 0
 170 0042 4480     		strh	r4, [r0, #2]	@ movhi
 171              	.LBB7:
ARM GAS  /tmp/ccs4ODSO.s 			page 4


 172              		.loc 1 114 0
 173 0044 0023     		movs	r3, #0
 174              	@ 114 "../../fw/vexsonar.c" 1
 175 0046 83F31188 		msr     BASEPRI, r3
 176              	@ 0 "" 2
 177              		.thumb
 178 004a 70BD     		pop	{r4, r5, r6, pc}
 179              	.LVL5:
 180              	.L9:
 181              	.LBE7:
 182              		.loc 1 103 0
 183 004c 40F20002 		movw	r2, #:lower16:.LANCHOR0
 184 0050 C0F20002 		movt	r2, #:upper16:.LANCHOR0
 185 0054 1078     		ldrb	r0, [r2]	@ zero_extendqisi2
 186              	.LVL6:
 187 0056 40F20002 		movw	r2, #:lower16:.LANCHOR1
 188 005a C0F20002 		movt	r2, #:upper16:.LANCHOR1
 189 005e 02EB4012 		add	r2, r2, r0, lsl #5
 190 0062 92F90E00 		ldrsb	r0, [r2, #14]
 191              		.loc 1 102 0
 192 0066 0122     		movs	r2, #1
 193 0068 1A70     		strb	r2, [r3]
 194              		.loc 1 103 0
 195 006a FFF7FEFF 		bl	vexDigitalPinSet
 196              	.LVL7:
 197              		.loc 1 104 0
 198 006e 40F20000 		movw	r0, #:lower16:GPTD5
 199 0072 C0F20000 		movt	r0, #:upper16:GPTD5
 200 0076 49F64041 		movw	r1, #40000
 201 007a FFF7FEFF 		bl	gptStartOneShotI
 202              	.LVL8:
 203              	.LBB8:
 204              		.loc 1 114 0
 205 007e 0023     		movs	r3, #0
 206              	@ 114 "../../fw/vexsonar.c" 1
 207 0080 83F31188 		msr     BASEPRI, r3
 208              	@ 0 "" 2
 209              		.thumb
 210 0084 70BD     		pop	{r4, r5, r6, pc}
 211              	.LBE8:
 212              		.cfi_endproc
 213              	.LFE63:
 214              		.size	_vs_gpt_cb, .-_vs_gpt_cb
 215 0086 00BFAFF3 		.section	.text.vexSonarAdd,"ax",%progbits
 215      0080AFF3 
 215      0080
 216              		.align	2
 217              		.p2align 4,,15
 218              		.global	vexSonarAdd
 219              		.thumb
 220              		.thumb_func
 221              		.type	vexSonarAdd, %function
 222              	vexSonarAdd:
 223              	.LFB66:
 224              		.loc 1 228 0
 225              		.cfi_startproc
 226              		@ args = 0, pretend = 0, frame = 0
ARM GAS  /tmp/ccs4ODSO.s 			page 5


 227              		@ frame_needed = 0, uses_anonymous_args = 0
 228              	.LVL9:
 229              		.loc 1 229 0
 230 0000 0428     		cmp	r0, #4
 231              		.loc 1 228 0
 232 0002 2DE9F041 		push	{r4, r5, r6, r7, r8, lr}
 233              		.cfi_def_cfa_offset 24
 234              		.cfi_offset 4, -24
 235              		.cfi_offset 5, -20
 236              		.cfi_offset 6, -16
 237              		.cfi_offset 7, -12
 238              		.cfi_offset 8, -8
 239              		.cfi_offset 14, -4
 240              		.loc 1 228 0
 241 0006 0546     		mov	r5, r0
 242 0008 0C46     		mov	r4, r1
 243 000a 1646     		mov	r6, r2
 244              		.loc 1 229 0
 245 000c 03D8     		bhi	.L11
 246              		.loc 1 232 0
 247 000e 0B29     		cmp	r1, #11
 248 0010 01DC     		bgt	.L11
 249              		.loc 1 234 0
 250 0012 0B2A     		cmp	r2, #11
 251 0014 01DD     		ble	.L13
 252              	.L11:
 253 0016 BDE8F081 		pop	{r4, r5, r6, r7, r8, pc}
 254              	.L13:
 255              		.loc 1 240 0
 256 001a 0846     		mov	r0, r1
 257              	.LVL10:
 258 001c 0121     		movs	r1, #1
 259              	.LVL11:
 260 001e FFF7FEFF 		bl	vexDigitalModeSet
 261              	.LVL12:
 262              		.loc 1 242 0
 263 0022 40F20007 		movw	r7, #:lower16:vexioDefinition
 264 0026 04EB4402 		add	r2, r4, r4, lsl #1
 265 002a C0F20007 		movt	r7, #:upper16:vexioDefinition
 266 002e 9200     		lsls	r2, r2, #2
 267              		.loc 1 241 0
 268 0030 40F20003 		movw	r3, #:lower16:.LANCHOR1
 269              		.loc 1 243 0
 270 0034 B918     		adds	r1, r7, r2
 271              		.loc 1 241 0
 272 0036 C0F20003 		movt	r3, #:upper16:.LANCHOR1
 273 003a 03EB4515 		add	r5, r3, r5, lsl #5
 274              		.loc 1 242 0
 275 003e BA58     		ldr	r2, [r7, r2]
 276              		.loc 1 243 0
 277 0040 8B88     		ldrh	r3, [r1, #4]
 278              		.loc 1 246 0
 279 0042 3046     		mov	r0, r6
 280 0044 0021     		movs	r1, #0
 281              		.loc 1 241 0
 282 0046 AC73     		strb	r4, [r5, #14]
 283              		.loc 1 242 0
ARM GAS  /tmp/ccs4ODSO.s 			page 6


 284 0048 2A61     		str	r2, [r5, #16]
 285              		.loc 1 243 0
 286 004a AB82     		strh	r3, [r5, #20]	@ movhi
 287              		.loc 1 246 0
 288 004c FFF7FEFF 		bl	vexDigitalModeSet
 289              	.LVL13:
 290              		.loc 1 248 0
 291 0050 06EB4603 		add	r3, r6, r6, lsl #1
 292 0054 9B00     		lsls	r3, r3, #2
 293              		.loc 1 249 0
 294 0056 FA18     		adds	r2, r7, r3
 295 0058 B2F804E0 		ldrh	lr, [r2, #4]
 296              		.loc 1 248 0
 297 005c FC58     		ldr	r4, [r7, r3]
 298              		.loc 1 250 0
 299 005e 40F20003 		movw	r3, #:lower16:_vs_echo_cb
 300 0062 C0F20003 		movt	r3, #:upper16:_vs_echo_cb
 301 0066 7146     		mov	r1, lr
 302 0068 2046     		mov	r0, r4
 303 006a 0322     		movs	r2, #3
 304              		.loc 1 247 0
 305 006c EE73     		strb	r6, [r5, #15]
 306              		.loc 1 249 0
 307 006e A5F81CE0 		strh	lr, [r5, #28]	@ movhi
 308              		.loc 1 248 0
 309 0072 AC61     		str	r4, [r5, #24]
 310              		.loc 1 250 0
 311 0074 FFF7FEFF 		bl	vexExtSet
 312              	.LVL14:
 313              		.loc 1 253 0
 314 0078 0323     		movs	r3, #3
 315 007a AB81     		strh	r3, [r5, #12]	@ movhi
 316 007c BDE8F081 		pop	{r4, r5, r6, r7, r8, pc}
 317              		.cfi_endproc
 318              	.LFE66:
 319              		.size	vexSonarAdd, .-vexSonarAdd
 320              		.section	.text.vexSonarStart,"ax",%progbits
 321              		.align	2
 322              		.p2align 4,,15
 323              		.global	vexSonarStart
 324              		.thumb
 325              		.thumb_func
 326              		.type	vexSonarStart, %function
 327              	vexSonarStart:
 328              	.LFB67:
 329              		.loc 1 263 0
 330              		.cfi_startproc
 331              		@ args = 0, pretend = 0, frame = 0
 332              		@ frame_needed = 0, uses_anonymous_args = 0
 333              		@ link register save eliminated.
 334              	.LVL15:
 335              		.loc 1 264 0
 336 0000 40F20003 		movw	r3, #:lower16:.LANCHOR1
 337 0004 C0F20003 		movt	r3, #:upper16:.LANCHOR1
 338 0008 03EB4013 		add	r3, r3, r0, lsl #5
 339 000c 9A89     		ldrh	r2, [r3, #12]
 340 000e D207     		lsls	r2, r2, #31
ARM GAS  /tmp/ccs4ODSO.s 			page 7


 341 0010 00D4     		bmi	.L16
 342 0012 7047     		bx	lr
 343              	.L16:
 344              		.loc 1 266 0
 345 0014 40F20000 		movw	r0, #:lower16:EXTD1
 346              	.LVL16:
 347 0018 B3F91C10 		ldrsh	r1, [r3, #28]
 348 001c C0F20000 		movt	r0, #:upper16:EXTD1
 349 0020 FFF7FEBF 		b	extChannelEnable
 350              	.LVL17:
 351              		.cfi_endproc
 352              	.LFE67:
 353              		.size	vexSonarStart, .-vexSonarStart
 354 0024 AFF30080 		.section	.text.vexSonarStop,"ax",%progbits
 354      AFF30080 
 354      AFF30080 
 355              		.align	2
 356              		.p2align 4,,15
 357              		.global	vexSonarStop
 358              		.thumb
 359              		.thumb_func
 360              		.type	vexSonarStop, %function
 361              	vexSonarStop:
 362              	.LFB68:
 363              		.loc 1 277 0
 364              		.cfi_startproc
 365              		@ args = 0, pretend = 0, frame = 0
 366              		@ frame_needed = 0, uses_anonymous_args = 0
 367              		@ link register save eliminated.
 368              	.LVL18:
 369              		.loc 1 278 0
 370 0000 40F20003 		movw	r3, #:lower16:.LANCHOR1
 371 0004 C0F20003 		movt	r3, #:upper16:.LANCHOR1
 372 0008 03EB4013 		add	r3, r3, r0, lsl #5
 373 000c 9A89     		ldrh	r2, [r3, #12]
 374 000e D107     		lsls	r1, r2, #31
 375 0010 00D4     		bmi	.L19
 376 0012 7047     		bx	lr
 377              	.L19:
 378              		.loc 1 280 0
 379 0014 40F20000 		movw	r0, #:lower16:EXTD1
 380              	.LVL19:
 381 0018 B3F91C10 		ldrsh	r1, [r3, #28]
 382 001c C0F20000 		movt	r0, #:upper16:EXTD1
 383 0020 FFF7FEBF 		b	extChannelDisable
 384              	.LVL20:
 385              		.cfi_endproc
 386              	.LFE68:
 387              		.size	vexSonarStop, .-vexSonarStop
 388 0024 AFF30080 		.section	.text.vexSonarStartAll,"ax",%progbits
 388      AFF30080 
 388      AFF30080 
 389              		.align	2
 390              		.p2align 4,,15
 391              		.global	vexSonarStartAll
 392              		.thumb
 393              		.thumb_func
ARM GAS  /tmp/ccs4ODSO.s 			page 8


 394              		.type	vexSonarStartAll, %function
 395              	vexSonarStartAll:
 396              	.LFB69:
 397              		.loc 1 290 0
 398              		.cfi_startproc
 399              		@ args = 0, pretend = 0, frame = 0
 400              		@ frame_needed = 0, uses_anonymous_args = 0
 401              	.LVL21:
 402 0000 10B5     		push	{r4, lr}
 403              		.cfi_def_cfa_offset 8
 404              		.cfi_offset 4, -8
 405              		.cfi_offset 14, -4
 406              		.loc 1 293 0
 407 0002 0024     		movs	r4, #0
 408              	.LVL22:
 409              	.L22:
 410              		.loc 1 294 0 discriminator 2
 411 0004 2046     		mov	r0, r4
 412              		.loc 1 293 0 discriminator 2
 413 0006 0134     		adds	r4, r4, #1
 414              	.LVL23:
 415 0008 E4B2     		uxtb	r4, r4
 416              		.loc 1 294 0 discriminator 2
 417 000a FFF7FEFF 		bl	vexSonarStart
 418              	.LVL24:
 419              		.loc 1 293 0 discriminator 2
 420 000e 052C     		cmp	r4, #5
 421 0010 F8D1     		bne	.L22
 422              		.loc 1 295 0
 423 0012 10BD     		pop	{r4, pc}
 424              		.cfi_endproc
 425              	.LFE69:
 426              		.size	vexSonarStartAll, .-vexSonarStartAll
 427 0014 AFF30080 		.section	.text.vexSonarRun,"ax",%progbits
 427      AFF30080 
 427      AFF30080 
 428              		.align	2
 429              		.p2align 4,,15
 430              		.global	vexSonarRun
 431              		.thumb
 432              		.thumb_func
 433              		.type	vexSonarRun, %function
 434              	vexSonarRun:
 435              	.LFB70:
 436              		.loc 1 303 0
 437              		.cfi_startproc
 438              		@ args = 0, pretend = 0, frame = 0
 439              		@ frame_needed = 0, uses_anonymous_args = 0
 440 0000 10B5     		push	{r4, lr}
 441              		.cfi_def_cfa_offset 8
 442              		.cfi_offset 4, -8
 443              		.cfi_offset 14, -4
 444              		.loc 1 307 0
 445 0002 40F20004 		movw	r4, #:lower16:.LANCHOR3
 446 0006 C0F20004 		movt	r4, #:upper16:.LANCHOR3
 447 000a 2368     		ldr	r3, [r4]
 448              		.loc 1 303 0
ARM GAS  /tmp/ccs4ODSO.s 			page 9


 449 000c 82B0     		sub	sp, sp, #8
 450              		.cfi_def_cfa_offset 16
 451              		.loc 1 307 0
 452 000e 0BB1     		cbz	r3, .L28
 453              	.L23:
 454              		.loc 1 319 0
 455 0010 02B0     		add	sp, sp, #8
 456              		@ sp needed
 457 0012 10BD     		pop	{r4, pc}
 458              	.L28:
 459 0014 40F20003 		movw	r3, #:lower16:.LANCHOR1
 460 0018 C0F20003 		movt	r3, #:upper16:.LANCHOR1
 461 001c 03F1A001 		add	r1, r3, #160
 462 0020 01E0     		b	.L26
 463              	.LVL25:
 464              	.L25:
 465              		.loc 1 311 0
 466 0022 8B42     		cmp	r3, r1
 467 0024 F4D0     		beq	.L23
 468              	.L26:
 469              		.loc 1 313 0
 470 0026 9A89     		ldrh	r2, [r3, #12]
 471 0028 2033     		adds	r3, r3, #32
 472 002a 9007     		lsls	r0, r2, #30
 473 002c F9D5     		bpl	.L25
 474              		.loc 1 315 0
 475 002e 0022     		movs	r2, #0
 476 0030 40F20000 		movw	r0, #:lower16:.LANCHOR4
 477 0034 40F20003 		movw	r3, #:lower16:VexSonarTask
 478 0038 0092     		str	r2, [sp]
 479 003a C0F20003 		movt	r3, #:upper16:VexSonarTask
 480 003e 4FF4C071 		mov	r1, #384
 481 0042 4822     		movs	r2, #72
 482 0044 C0F20000 		movt	r0, #:upper16:.LANCHOR4
 483 0048 FFF7FEFF 		bl	chThdCreateStatic
 484              	.LVL26:
 485 004c 2060     		str	r0, [r4]
 486              		.loc 1 319 0
 487 004e 02B0     		add	sp, sp, #8
 488              		@ sp needed
 489 0050 10BD     		pop	{r4, pc}
 490              		.cfi_endproc
 491              	.LFE70:
 492              		.size	vexSonarRun, .-vexSonarRun
 493 0052 00BFAFF3 		.section	.text.vexSonarPing,"ax",%progbits
 493      0080AFF3 
 493      0080AFF3 
 493      0080
 494              		.align	2
 495              		.p2align 4,,15
 496              		.global	vexSonarPing
 497              		.thumb
 498              		.thumb_func
 499              		.type	vexSonarPing, %function
 500              	vexSonarPing:
 501              	.LFB71:
 502              		.loc 1 329 0
ARM GAS  /tmp/ccs4ODSO.s 			page 10


 503              		.cfi_startproc
 504              		@ args = 0, pretend = 0, frame = 0
 505              		@ frame_needed = 0, uses_anonymous_args = 0
 506              	.LVL27:
 507 0000 08B5     		push	{r3, lr}
 508              		.cfi_def_cfa_offset 8
 509              		.cfi_offset 3, -8
 510              		.cfi_offset 14, -4
 511              		.loc 1 330 0
 512 0002 40F20003 		movw	r3, #:lower16:.LANCHOR1
 513 0006 C0F20003 		movt	r3, #:upper16:.LANCHOR1
 514 000a 03EB4010 		add	r0, r3, r0, lsl #5
 515              	.LVL28:
 516 000e B0F90C20 		ldrsh	r2, [r0, #12]
 517 0012 032A     		cmp	r2, #3
 518 0014 00D0     		beq	.L31
 519 0016 08BD     		pop	{r3, pc}
 520              	.L31:
 521              		.loc 1 331 0
 522 0018 90F90E00 		ldrsb	r0, [r0, #14]
 523 001c 0121     		movs	r1, #1
 524 001e FFF7FEFF 		bl	vexDigitalPinSet
 525              	.LVL29:
 526              		.loc 1 332 0
 527 0022 40F20003 		movw	r3, #:lower16:.LANCHOR2
 528 0026 C0F20003 		movt	r3, #:upper16:.LANCHOR2
 529              		.loc 1 333 0
 530 002a 40F20000 		movw	r0, #:lower16:GPTD5
 531              		.loc 1 332 0
 532 002e 0022     		movs	r2, #0
 533 0030 1A70     		strb	r2, [r3]
 534              		.loc 1 333 0
 535 0032 C0F20000 		movt	r0, #:upper16:GPTD5
 536 0036 0A21     		movs	r1, #10
 537              		.loc 1 335 0
 538 0038 BDE80840 		pop	{r3, lr}
 539              		.loc 1 333 0
 540 003c FFF7FEBF 		b	gptStartOneShot
 541              	.LVL30:
 542              		.cfi_endproc
 543              	.LFE71:
 544              		.size	vexSonarPing, .-vexSonarPing
 545              		.section	.text.VexSonarTask,"ax",%progbits
 546              		.align	2
 547              		.p2align 4,,15
 548              		.thumb
 549              		.thumb_func
 550              		.type	VexSonarTask, %function
 551              	VexSonarTask:
 552              	.LFB64:
 553              		.loc 1 137 0
 554              		.cfi_startproc
 555              		@ args = 0, pretend = 0, frame = 0
 556              		@ frame_needed = 0, uses_anonymous_args = 0
 557              	.LVL31:
 558 0000 2DE9F84F 		push	{r3, r4, r5, r6, r7, r8, r9, r10, fp, lr}
 559              		.cfi_def_cfa_offset 40
ARM GAS  /tmp/ccs4ODSO.s 			page 11


 560              		.cfi_offset 3, -40
 561              		.cfi_offset 4, -36
 562              		.cfi_offset 5, -32
 563              		.cfi_offset 6, -28
 564              		.cfi_offset 7, -24
 565              		.cfi_offset 8, -20
 566              		.cfi_offset 9, -16
 567              		.cfi_offset 10, -12
 568              		.cfi_offset 11, -8
 569              		.cfi_offset 14, -4
 570              		.loc 1 142 0
 571 0004 40F20009 		movw	r9, #:lower16:rlist
 572 0008 C0F20009 		movt	r9, #:upper16:rlist
 573 000c D9F81820 		ldr	r2, [r9, #24]
 574 0010 40F20003 		movw	r3, #:lower16:.LC0
 575 0014 C0F20003 		movt	r3, #:upper16:.LC0
 576              		.loc 1 144 0
 577 0018 40F20000 		movw	r0, #:lower16:GPTD5
 578              	.LVL32:
 579 001c 40F20001 		movw	r1, #:lower16:.LANCHOR5
 580              		.loc 1 142 0
 581 0020 9361     		str	r3, [r2, #24]
 582              		.loc 1 144 0
 583 0022 C0F20000 		movt	r0, #:upper16:GPTD5
 584 0026 C0F20001 		movt	r1, #:upper16:.LANCHOR5
 585 002a FFF7FEFF 		bl	gptStart
 586              	.LVL33:
 587              		.loc 1 148 0
 588 002e 40F20004 		movw	r4, #:lower16:.LANCHOR0
 589 0032 40F20008 		movw	r8, #:lower16:.LANCHOR1
 590              		.loc 1 156 0
 591 0036 40F20005 		movw	r5, #:lower16:vtlist
 592              		.loc 1 168 0
 593 003a 4CF60937 		movw	r7, #51977
 594              		.loc 1 169 0
 595 003e 4CF6A706 		movw	r6, #51367
 596              		.loc 1 148 0
 597 0042 C0F20004 		movt	r4, #:upper16:.LANCHOR0
 598 0046 C0F20008 		movt	r8, #:upper16:.LANCHOR1
 599              		.loc 1 156 0
 600 004a C0F20005 		movt	r5, #:upper16:vtlist
 601              		.loc 1 168 0
 602 004e C8F63D57 		movt	r7, 36157
 603              		.loc 1 169 0
 604 0052 CDF66756 		movt	r6, 56679
 605              	.L33:
 606              		.loc 1 146 0 discriminator 1
 607 0056 D9F81830 		ldr	r3, [r9, #24]
 608 005a 5B7F     		ldrb	r3, [r3, #29]	@ zero_extendqisi2
 609 005c 5B07     		lsls	r3, r3, #29
 610 005e 16D4     		bmi	.L51
 611              	.L44:
 612              		.loc 1 148 0
 613 0060 2078     		ldrb	r0, [r4]	@ zero_extendqisi2
 614 0062 40F2000B 		movw	fp, #:lower16:.LANCHOR0
 615 0066 08EB4013 		add	r3, r8, r0, lsl #5
 616 006a B3F90C30 		ldrsh	r3, [r3, #12]
ARM GAS  /tmp/ccs4ODSO.s 			page 12


 617 006e 40F2000A 		movw	r10, #:lower16:.LANCHOR1
 618 0072 032B     		cmp	r3, #3
 619 0074 C0F2000B 		movt	fp, #:upper16:.LANCHOR0
 620 0078 C0F2000A 		movt	r10, #:upper16:.LANCHOR1
 621 007c 0AD0     		beq	.L52
 622              		.loc 1 190 0
 623 007e 1920     		movs	r0, #25
 624 0080 FFF7FEFF 		bl	chThdSleep
 625              	.LVL34:
 626              		.loc 1 146 0
 627 0084 D9F81830 		ldr	r3, [r9, #24]
 628 0088 5B7F     		ldrb	r3, [r3, #29]	@ zero_extendqisi2
 629 008a 5B07     		lsls	r3, r3, #29
 630 008c E8D5     		bpl	.L44
 631              	.L51:
 632              		.loc 1 194 0
 633 008e 0020     		movs	r0, #0
 634 0090 BDE8F88F 		pop	{r3, r4, r5, r6, r7, r8, r9, r10, fp, pc}
 635              	.L52:
 636              		.loc 1 151 0
 637 0094 FFF7FEFF 		bl	vexSonarPing
 638              	.LVL35:
 639              		.loc 1 156 0
 640 0098 E868     		ldr	r0, [r5, #12]
 641 009a 3230     		adds	r0, r0, #50
 642 009c FFF7FEFF 		bl	chThdSleepUntil
 643              	.LVL36:
 644              		.loc 1 159 0
 645 00a0 9BF80030 		ldrb	r3, [fp]	@ zero_extendqisi2
 646              		.loc 1 162 0
 647 00a4 48F6B80C 		movw	ip, #35000
 648              		.loc 1 159 0
 649 00a8 5801     		lsls	r0, r3, #5
 650 00aa 0AEB0001 		add	r1, r10, r0
 651 00ae 3AF80020 		ldrh	r2, [r10, r0]
 652 00b2 B1F802A0 		ldrh	r10, [r1, #2]
 653 00b6 C2EB0A02 		rsb	r2, r2, r10
 654              		.loc 1 162 0
 655 00ba 6245     		cmp	r2, ip
 656              		.loc 1 159 0
 657 00bc 4A60     		str	r2, [r1, #4]
 658              		.loc 1 163 0
 659 00be C4BF     		itt	gt
 660 00c0 4FF0FF32 		movgt	r2, #-1
 661 00c4 4A60     		strgt	r2, [r1, #4]
 662              		.loc 1 162 0
 663 00c6 14DD     		ble	.L53
 664              	.L36:
 665              		.loc 1 173 0
 666 00c8 4044     		add	r0, r0, r8
 667 00ca 4FF6FF72 		movw	r2, #65535
 668 00ce 0281     		strh	r2, [r0, #8]	@ movhi
 669              		.loc 1 174 0
 670 00d0 4281     		strh	r2, [r0, #10]	@ movhi
 671              	.L37:
 672              	.LVL37:
 673              		.loc 1 137 0 discriminator 1
ARM GAS  /tmp/ccs4ODSO.s 			page 13


 674 00d2 0522     		movs	r2, #5
 675              	.LVL38:
 676              	.L43:
 677              		.loc 1 180 0
 678 00d4 0133     		adds	r3, r3, #1
 679 00d6 DBB2     		uxtb	r3, r3
 680 00d8 052B     		cmp	r3, #5
 681 00da 08BF     		it	eq
 682 00dc 0023     		moveq	r3, #0
 683              		.loc 1 184 0
 684 00de 08EB4311 		add	r1, r8, r3, lsl #5
 685 00e2 B1F90C10 		ldrsh	r1, [r1, #12]
 686 00e6 0329     		cmp	r1, #3
 687 00e8 01D0     		beq	.L50
 688              		.loc 1 178 0
 689 00ea 013A     		subs	r2, r2, #1
 690              	.LVL39:
 691 00ec F2D1     		bne	.L43
 692              	.LVL40:
 693              	.L50:
 694 00ee 2370     		strb	r3, [r4]
 695 00f0 B1E7     		b	.L33
 696              	.L53:
 697              		.loc 1 166 0
 698 00f2 B2F1FF3F 		cmp	r2, #-1
 699 00f6 E7D0     		beq	.L36
 700              		.loc 1 168 0
 701 00f8 87FB020C 		smull	r0, ip, r7, r2
 702              		.loc 1 169 0
 703 00fc 86FB020A 		smull	r0, r10, r6, r2
 704              		.loc 1 168 0
 705 0100 9444     		add	ip, ip, r2
 706 0102 D017     		asrs	r0, r2, #31
 707              		.loc 1 169 0
 708 0104 5244     		add	r2, r2, r10
 709              		.loc 1 168 0
 710 0106 C0EB6C1C 		rsb	ip, r0, ip, asr #5
 711              		.loc 1 169 0
 712 010a C0EBE210 		rsb	r0, r0, r2, asr #7
 713              		.loc 1 168 0
 714 010e A1F808C0 		strh	ip, [r1, #8]	@ movhi
 715              		.loc 1 169 0
 716 0112 4881     		strh	r0, [r1, #10]	@ movhi
 717 0114 DDE7     		b	.L37
 718              		.cfi_endproc
 719              	.LFE64:
 720              		.size	VexSonarTask, .-VexSonarTask
 721 0116 00BFAFF3 		.section	.text.vexSonarGetCm,"ax",%progbits
 721      0080AFF3 
 721      0080
 722              		.align	2
 723              		.p2align 4,,15
 724              		.global	vexSonarGetCm
 725              		.thumb
 726              		.thumb_func
 727              		.type	vexSonarGetCm, %function
 728              	vexSonarGetCm:
ARM GAS  /tmp/ccs4ODSO.s 			page 14


 729              	.LFB72:
 730              		.loc 1 345 0
 731              		.cfi_startproc
 732              		@ args = 0, pretend = 0, frame = 0
 733              		@ frame_needed = 0, uses_anonymous_args = 0
 734              		@ link register save eliminated.
 735              	.LVL41:
 736              		.loc 1 346 0
 737 0000 40F20003 		movw	r3, #:lower16:.LANCHOR1
 738 0004 C0F20003 		movt	r3, #:upper16:.LANCHOR1
 739 0008 03EB4010 		add	r0, r3, r0, lsl #5
 740              	.LVL42:
 741 000c 8289     		ldrh	r2, [r0, #12]
 742 000e 9307     		lsls	r3, r2, #30
 743              		.loc 1 347 0
 744 0010 4CBF     		ite	mi
 745 0012 0089     		ldrhmi	r0, [r0, #8]
 746              		.loc 1 350 0
 747 0014 4FF6FF70 		movwpl	r0, #65535
 748              		.loc 1 351 0
 749 0018 00B2     		sxth	r0, r0
 750 001a 7047     		bx	lr
 751              		.cfi_endproc
 752              	.LFE72:
 753              		.size	vexSonarGetCm, .-vexSonarGetCm
 754 001c AFF30080 		.section	.text.vexSonarGetInch,"ax",%progbits
 755              		.align	2
 756              		.p2align 4,,15
 757              		.global	vexSonarGetInch
 758              		.thumb
 759              		.thumb_func
 760              		.type	vexSonarGetInch, %function
 761              	vexSonarGetInch:
 762              	.LFB73:
 763              		.loc 1 361 0
 764              		.cfi_startproc
 765              		@ args = 0, pretend = 0, frame = 0
 766              		@ frame_needed = 0, uses_anonymous_args = 0
 767              		@ link register save eliminated.
 768              	.LVL43:
 769              		.loc 1 362 0
 770 0000 40F20003 		movw	r3, #:lower16:.LANCHOR1
 771 0004 C0F20003 		movt	r3, #:upper16:.LANCHOR1
 772 0008 03EB4010 		add	r0, r3, r0, lsl #5
 773              	.LVL44:
 774 000c 8289     		ldrh	r2, [r0, #12]
 775 000e 9207     		lsls	r2, r2, #30
 776              		.loc 1 363 0
 777 0010 4CBF     		ite	mi
 778 0012 4089     		ldrhmi	r0, [r0, #10]
 779              		.loc 1 366 0
 780 0014 4FF6FF70 		movwpl	r0, #65535
 781              		.loc 1 367 0
 782 0018 00B2     		sxth	r0, r0
 783 001a 7047     		bx	lr
 784              		.cfi_endproc
 785              	.LFE73:
ARM GAS  /tmp/ccs4ODSO.s 			page 15


 786              		.size	vexSonarGetInch, .-vexSonarGetInch
 787 001c AFF30080 		.section	.text.vexSonarDebug,"ax",%progbits
 788              		.align	2
 789              		.p2align 4,,15
 790              		.global	vexSonarDebug
 791              		.thumb
 792              		.thumb_func
 793              		.type	vexSonarDebug, %function
 794              	vexSonarDebug:
 795              	.LFB74:
 796              		.loc 1 378 0
 797              		.cfi_startproc
 798              		@ args = 0, pretend = 0, frame = 0
 799              		@ frame_needed = 0, uses_anonymous_args = 0
 800              	.LVL45:
 801 0000 F0B5     		push	{r4, r5, r6, r7, lr}
 802              		.cfi_def_cfa_offset 20
 803              		.cfi_offset 4, -20
 804              		.cfi_offset 5, -16
 805              		.cfi_offset 6, -12
 806              		.cfi_offset 7, -8
 807              		.cfi_offset 14, -4
 808 0002 164C     		ldr	r4, .L63
 809 0004 83B0     		sub	sp, sp, #12
 810              		.cfi_def_cfa_offset 32
 811              		.loc 1 378 0
 812 0006 0746     		mov	r7, r0
 813 0008 A4F10C05 		sub	r5, r4, #12
 814 000c 0026     		movs	r6, #0
 815              	.LVL46:
 816              	.L62:
 817              		.loc 1 386 0 discriminator 2
 818 000e 34F80C0C 		ldrh	r0, [r4, #-12]
 819 0012 34F80A2C 		ldrh	r2, [r4, #-10]
 820 0016 40F20001 		movw	r1, #:lower16:.LC1
 821 001a B5F90C30 		ldrsh	r3, [r5, #12]
 822 001e C0F20001 		movt	r1, #:upper16:.LC1
 823 0022 8DE80500 		stmia	sp, {r0, r2}
 824 0026 3246     		mov	r2, r6
 825 0028 3846     		mov	r0, r7
 826 002a FFF7FEFF 		bl	vex_chprintf
 827              	.LVL47:
 828              		.loc 1 387 0 discriminator 2
 829 002e B5F90A00 		ldrsh	r0, [r5, #10]
 830 0032 40F20001 		movw	r1, #:lower16:.LC2
 831 0036 B5F90830 		ldrsh	r3, [r5, #8]
 832 003a 54F8082C 		ldr	r2, [r4, #-8]
 833 003e 0090     		str	r0, [sp]
 834 0040 0136     		adds	r6, r6, #1
 835              	.LVL48:
 836 0042 C0F20001 		movt	r1, #:upper16:.LC2
 837 0046 3846     		mov	r0, r7
 838 0048 FFF7FEFF 		bl	vex_chprintf
 839              	.LVL49:
 840              		.loc 1 384 0 discriminator 2
 841 004c 052E     		cmp	r6, #5
 842 004e 04F12004 		add	r4, r4, #32
ARM GAS  /tmp/ccs4ODSO.s 			page 16


 843 0052 05F12005 		add	r5, r5, #32
 844 0056 DAD1     		bne	.L62
 845              		.loc 1 389 0
 846 0058 03B0     		add	sp, sp, #12
 847              		@ sp needed
 848 005a F0BD     		pop	{r4, r5, r6, r7, pc}
 849              	.LVL50:
 850              	.L64:
 851              		.align	2
 852              	.L63:
 853 005c 0C000000 		.word	.LANCHOR1+12
 854              		.cfi_endproc
 855              	.LFE74:
 856              		.size	vexSonarDebug, .-vexSonarDebug
 857              		.section	.bss.vexSonarThread,"aw",%nobits
 858              		.align	2
 859              		.set	.LANCHOR3,. + 0
 860              		.type	vexSonarThread, %object
 861              		.size	vexSonarThread, 4
 862              	vexSonarThread:
 863 0000 00000000 		.space	4
 864              		.section	.bss.waVexSonarTask,"aw",%nobits
 865              		.align	3
 866              		.set	.LANCHOR4,. + 0
 867              		.type	waVexSonarTask, %object
 868              		.size	waVexSonarTask, 384
 869              	waVexSonarTask:
 870 0000 00000000 		.space	384
 870      00000000 
 870      00000000 
 870      00000000 
 870      00000000 
 871              		.section	.bss.nextSonar,"aw",%nobits
 872              		.set	.LANCHOR0,. + 0
 873              		.type	nextSonar, %object
 874              		.size	nextSonar, 1
 875              	nextSonar:
 876 0000 00       		.space	1
 877              		.section	.bss.vexSonars,"aw",%nobits
 878              		.align	2
 879              		.set	.LANCHOR1,. + 0
 880              		.type	vexSonars, %object
 881              		.size	vexSonars, 160
 882              	vexSonars:
 883 0000 00000000 		.space	160
 883      00000000 
 883      00000000 
 883      00000000 
 883      00000000 
 884              		.section	.rodata.vexSonarGpt,"a",%progbits
 885              		.align	2
 886              		.set	.LANCHOR5,. + 0
 887              		.type	vexSonarGpt, %object
 888              		.size	vexSonarGpt, 12
 889              	vexSonarGpt:
 890 0000 40420F00 		.word	1000000
 891 0004 00000000 		.word	_vs_gpt_cb
ARM GAS  /tmp/ccs4ODSO.s 			page 17


 892 0008 00000000 		.word	0
 893              		.section	.rodata.str1.4,"aMS",%progbits,1
 894              		.align	2
 895              	.LC0:
 896 0000 736F6E61 		.ascii	"sonar\000"
 896      7200
 897 0006 0000     		.space	2
 898              	.LC1:
 899 0008 53256420 		.ascii	"S%d %d %5d %5d \000"
 899      25642025 
 899      35642025 
 899      35642000 
 900              	.LC2:
 901 0018 25356420 		.ascii	"%5d %4d(cm) %3d(inch)\015\012\000"
 901      25346428 
 901      636D2920 
 901      25336428 
 901      696E6368 
 902              		.section	.bss.nextState,"aw",%nobits
 903              		.set	.LANCHOR2,. + 0
 904              		.type	nextState, %object
 905              		.size	nextState, 1
 906              	nextState:
 907 0000 00       		.space	1
 908              		.text
 909              	.Letext0:
 910              		.file 2 "/usr/lib/gcc/arm-none-eabi/4.8.2/include/stddef.h"
 911              		.file 3 "/usr/include/newlib/machine/_default_types.h"
 912              		.file 4 "/usr/include/newlib/stdint.h"
 913              		.file 5 "../../../../ChibiOS_2.6.2/os/ports/GCC/ARMCMx/chtypes.h"
 914              		.file 6 "../../../../ChibiOS_2.6.2/os/kernel/include/chlists.h"
 915              		.file 7 "../../../../ChibiOS_2.6.2/os/kernel/include/chthreads.h"
 916              		.file 8 "../../../../ChibiOS_2.6.2/os/ports/GCC/ARMCMx/chcore_v7m.h"
 917              		.file 9 "../../../../ChibiOS_2.6.2/os/kernel/include/chvt.h"
 918              		.file 10 "../../../../ChibiOS_2.6.2/os/kernel/include/chschd.h"
 919              		.file 11 "../../../../ChibiOS_2.6.2/os/kernel/include/chmtx.h"
 920              		.file 12 "../../../../ChibiOS_2.6.2/os/kernel/include/chstreams.h"
 921              		.file 13 "../../../../ChibiOS_2.6.2/os/hal/platforms/STM32F1xx/stm32f10x.h"
 922              		.file 14 "../../../../ChibiOS_2.6.2/os/hal/platforms/STM32/GPIOv1/pal_lld.h"
 923              		.file 15 "../../../../ChibiOS_2.6.2/os/hal/include/ext.h"
 924              		.file 16 "../../../../ChibiOS_2.6.2/os/hal/platforms/STM32/ext_lld.h"
 925              		.file 17 "../../../../ChibiOS_2.6.2/os/hal/include/gpt.h"
 926              		.file 18 "../../../../ChibiOS_2.6.2/os/hal/platforms/STM32/TIMv1/gpt_lld.h"
 927              		.file 19 "../../../../ChibiOS_2.6.2/os/hal/platforms/STM32/TIMv1/stm32_tim.h"
 928              		.file 20 "../../fw/vexcompat.h"
 929              		.file 21 "../../fw/vexdigital.h"
 930              		.file 22 "../../fw/vexsonar.h"
 931              		.file 23 "../../fw/vexime.h"
 932              		.file 24 "../../../../ChibiOS_2.6.2/os/ports/common/ARMCMx/CMSIS/include/core_cm3.h"
 933              		.file 25 "../../fw/vexprintf.h"
 934              		.section	.debug_info,"",%progbits
 935              	.Ldebug_info0:
 936 0000 0C120000 		.4byte	0x120c
 937 0004 0400     		.2byte	0x4
 938 0006 00000000 		.4byte	.Ldebug_abbrev0
 939 000a 04       		.byte	0x4
 940 000b 01       		.uleb128 0x1
ARM GAS  /tmp/ccs4ODSO.s 			page 18


 941 000c 4F020000 		.4byte	.LASF231
 942 0010 01       		.byte	0x1
 943 0011 67090000 		.4byte	.LASF232
 944 0015 C6060000 		.4byte	.LASF233
 945 0019 38000000 		.4byte	.Ldebug_ranges0+0x38
 946 001d 00000000 		.4byte	0
 947 0021 00000000 		.4byte	.Ldebug_line0
 948 0025 02       		.uleb128 0x2
 949 0026 1C030000 		.4byte	.LASF2
 950 002a 02       		.byte	0x2
 951 002b D4       		.byte	0xd4
 952 002c 30000000 		.4byte	0x30
 953 0030 03       		.uleb128 0x3
 954 0031 04       		.byte	0x4
 955 0032 07       		.byte	0x7
 956 0033 A8000000 		.4byte	.LASF0
 957 0037 04       		.uleb128 0x4
 958 0038 04       		.byte	0x4
 959 0039 05       		.byte	0x5
 960 003a 696E7400 		.ascii	"int\000"
 961 003e 03       		.uleb128 0x3
 962 003f 01       		.byte	0x1
 963 0040 06       		.byte	0x6
 964 0041 1A0A0000 		.4byte	.LASF1
 965 0045 02       		.uleb128 0x2
 966 0046 76080000 		.4byte	.LASF3
 967 004a 03       		.byte	0x3
 968 004b 1C       		.byte	0x1c
 969 004c 50000000 		.4byte	0x50
 970 0050 03       		.uleb128 0x3
 971 0051 01       		.byte	0x1
 972 0052 08       		.byte	0x8
 973 0053 31090000 		.4byte	.LASF4
 974 0057 02       		.uleb128 0x2
 975 0058 5E050000 		.4byte	.LASF5
 976 005c 03       		.byte	0x3
 977 005d 25       		.byte	0x25
 978 005e 62000000 		.4byte	0x62
 979 0062 03       		.uleb128 0x3
 980 0063 02       		.byte	0x2
 981 0064 05       		.byte	0x5
 982 0065 AB070000 		.4byte	.LASF6
 983 0069 02       		.uleb128 0x2
 984 006a EC020000 		.4byte	.LASF7
 985 006e 03       		.byte	0x3
 986 006f 26       		.byte	0x26
 987 0070 74000000 		.4byte	0x74
 988 0074 03       		.uleb128 0x3
 989 0075 02       		.byte	0x2
 990 0076 07       		.byte	0x7
 991 0077 2E0A0000 		.4byte	.LASF8
 992 007b 02       		.uleb128 0x2
 993 007c E9000000 		.4byte	.LASF9
 994 0080 03       		.byte	0x3
 995 0081 37       		.byte	0x37
 996 0082 86000000 		.4byte	0x86
 997 0086 03       		.uleb128 0x3
ARM GAS  /tmp/ccs4ODSO.s 			page 19


 998 0087 04       		.byte	0x4
 999 0088 05       		.byte	0x5
 1000 0089 E9070000 		.4byte	.LASF10
 1001 008d 02       		.uleb128 0x2
 1002 008e 3F090000 		.4byte	.LASF11
 1003 0092 03       		.byte	0x3
 1004 0093 38       		.byte	0x38
 1005 0094 98000000 		.4byte	0x98
 1006 0098 03       		.uleb128 0x3
 1007 0099 04       		.byte	0x4
 1008 009a 07       		.byte	0x7
 1009 009b DF080000 		.4byte	.LASF12
 1010 009f 03       		.uleb128 0x3
 1011 00a0 08       		.byte	0x8
 1012 00a1 05       		.byte	0x5
 1013 00a2 F3040000 		.4byte	.LASF13
 1014 00a6 02       		.uleb128 0x2
 1015 00a7 67030000 		.4byte	.LASF14
 1016 00ab 03       		.byte	0x3
 1017 00ac 4E       		.byte	0x4e
 1018 00ad B1000000 		.4byte	0xb1
 1019 00b1 03       		.uleb128 0x3
 1020 00b2 08       		.byte	0x8
 1021 00b3 07       		.byte	0x7
 1022 00b4 1E020000 		.4byte	.LASF15
 1023 00b8 03       		.uleb128 0x3
 1024 00b9 04       		.byte	0x4
 1025 00ba 07       		.byte	0x7
 1026 00bb CE080000 		.4byte	.LASF16
 1027 00bf 05       		.uleb128 0x5
 1028 00c0 04       		.byte	0x4
 1029 00c1 06       		.uleb128 0x6
 1030 00c2 04       		.byte	0x4
 1031 00c3 C7000000 		.4byte	0xc7
 1032 00c7 03       		.uleb128 0x3
 1033 00c8 01       		.byte	0x1
 1034 00c9 08       		.byte	0x8
 1035 00ca 19040000 		.4byte	.LASF17
 1036 00ce 06       		.uleb128 0x6
 1037 00cf 04       		.byte	0x4
 1038 00d0 D4000000 		.4byte	0xd4
 1039 00d4 07       		.uleb128 0x7
 1040 00d5 C7000000 		.4byte	0xc7
 1041 00d9 02       		.uleb128 0x2
 1042 00da 7D040000 		.4byte	.LASF18
 1043 00de 04       		.byte	0x4
 1044 00df 2A       		.byte	0x2a
 1045 00e0 45000000 		.4byte	0x45
 1046 00e4 02       		.uleb128 0x2
 1047 00e5 25080000 		.4byte	.LASF19
 1048 00e9 04       		.byte	0x4
 1049 00ea 35       		.byte	0x35
 1050 00eb 57000000 		.4byte	0x57
 1051 00ef 02       		.uleb128 0x2
 1052 00f0 BD060000 		.4byte	.LASF20
 1053 00f4 04       		.byte	0x4
 1054 00f5 36       		.byte	0x36
ARM GAS  /tmp/ccs4ODSO.s 			page 20


 1055 00f6 69000000 		.4byte	0x69
 1056 00fa 02       		.uleb128 0x2
 1057 00fb 0C090000 		.4byte	.LASF21
 1058 00ff 04       		.byte	0x4
 1059 0100 41       		.byte	0x41
 1060 0101 7B000000 		.4byte	0x7b
 1061 0105 02       		.uleb128 0x2
 1062 0106 A6010000 		.4byte	.LASF22
 1063 010a 04       		.byte	0x4
 1064 010b 42       		.byte	0x42
 1065 010c 8D000000 		.4byte	0x8d
 1066 0110 02       		.uleb128 0x2
 1067 0111 39080000 		.4byte	.LASF23
 1068 0115 04       		.byte	0x4
 1069 0116 4E       		.byte	0x4e
 1070 0117 A6000000 		.4byte	0xa6
 1071 011b 03       		.uleb128 0x3
 1072 011c 01       		.byte	0x1
 1073 011d 02       		.byte	0x2
 1074 011e 44030000 		.4byte	.LASF24
 1075 0122 02       		.uleb128 0x2
 1076 0123 6C060000 		.4byte	.LASF25
 1077 0127 05       		.byte	0x5
 1078 0128 2C       		.byte	0x2c
 1079 0129 D9000000 		.4byte	0xd9
 1080 012d 02       		.uleb128 0x2
 1081 012e 45040000 		.4byte	.LASF26
 1082 0132 05       		.byte	0x5
 1083 0133 2D       		.byte	0x2d
 1084 0134 D9000000 		.4byte	0xd9
 1085 0138 02       		.uleb128 0x2
 1086 0139 D7080000 		.4byte	.LASF27
 1087 013d 05       		.byte	0x5
 1088 013e 2E       		.byte	0x2e
 1089 013f D9000000 		.4byte	0xd9
 1090 0143 02       		.uleb128 0x2
 1091 0144 AB050000 		.4byte	.LASF28
 1092 0148 05       		.byte	0x5
 1093 0149 2F       		.byte	0x2f
 1094 014a D9000000 		.4byte	0xd9
 1095 014e 02       		.uleb128 0x2
 1096 014f E5010000 		.4byte	.LASF29
 1097 0153 05       		.byte	0x5
 1098 0154 30       		.byte	0x30
 1099 0155 05010000 		.4byte	0x105
 1100 0159 02       		.uleb128 0x2
 1101 015a 48050000 		.4byte	.LASF30
 1102 015e 05       		.byte	0x5
 1103 015f 31       		.byte	0x31
 1104 0160 FA000000 		.4byte	0xfa
 1105 0164 02       		.uleb128 0x2
 1106 0165 18050000 		.4byte	.LASF31
 1107 0169 05       		.byte	0x5
 1108 016a 33       		.byte	0x33
 1109 016b 05010000 		.4byte	0x105
 1110 016f 02       		.uleb128 0x2
 1111 0170 5E000000 		.4byte	.LASF32
ARM GAS  /tmp/ccs4ODSO.s 			page 21


 1112 0174 05       		.byte	0x5
 1113 0175 35       		.byte	0x35
 1114 0176 05010000 		.4byte	0x105
 1115 017a 02       		.uleb128 0x2
 1116 017b A50A0000 		.4byte	.LASF33
 1117 017f 06       		.byte	0x6
 1118 0180 2A       		.byte	0x2a
 1119 0181 85010000 		.4byte	0x185
 1120 0185 08       		.uleb128 0x8
 1121 0186 A50A0000 		.4byte	.LASF33
 1122 018a 48       		.byte	0x48
 1123 018b 07       		.byte	0x7
 1124 018c 5E       		.byte	0x5e
 1125 018d 82020000 		.4byte	0x282
 1126 0191 09       		.uleb128 0x9
 1127 0192 0C0A0000 		.4byte	.LASF34
 1128 0196 07       		.byte	0x7
 1129 0197 5F       		.byte	0x5f
 1130 0198 A3020000 		.4byte	0x2a3
 1131 019c 00       		.byte	0
 1132 019d 09       		.uleb128 0x9
 1133 019e C7080000 		.4byte	.LASF35
 1134 01a2 07       		.byte	0x7
 1135 01a3 61       		.byte	0x61
 1136 01a4 A3020000 		.4byte	0x2a3
 1137 01a8 04       		.byte	0x4
 1138 01a9 09       		.uleb128 0x9
 1139 01aa 46000000 		.4byte	.LASF36
 1140 01ae 07       		.byte	0x7
 1141 01af 63       		.byte	0x63
 1142 01b0 4E010000 		.4byte	0x14e
 1143 01b4 08       		.byte	0x8
 1144 01b5 09       		.uleb128 0x9
 1145 01b6 42080000 		.4byte	.LASF37
 1146 01ba 07       		.byte	0x7
 1147 01bb 64       		.byte	0x64
 1148 01bc 66030000 		.4byte	0x366
 1149 01c0 0C       		.byte	0xc
 1150 01c1 09       		.uleb128 0x9
 1151 01c2 FC020000 		.4byte	.LASF38
 1152 01c6 07       		.byte	0x7
 1153 01c7 66       		.byte	0x66
 1154 01c8 A3020000 		.4byte	0x2a3
 1155 01cc 10       		.byte	0x10
 1156 01cd 09       		.uleb128 0x9
 1157 01ce 260A0000 		.4byte	.LASF39
 1158 01d2 07       		.byte	0x7
 1159 01d3 67       		.byte	0x67
 1160 01d4 A3020000 		.4byte	0x2a3
 1161 01d8 14       		.byte	0x14
 1162 01d9 09       		.uleb128 0x9
 1163 01da AA060000 		.4byte	.LASF40
 1164 01de 07       		.byte	0x7
 1165 01df 6E       		.byte	0x6e
 1166 01e0 CE000000 		.4byte	0xce
 1167 01e4 18       		.byte	0x18
 1168 01e5 09       		.uleb128 0x9
ARM GAS  /tmp/ccs4ODSO.s 			page 22


 1169 01e6 66040000 		.4byte	.LASF41
 1170 01ea 07       		.byte	0x7
 1171 01eb 79       		.byte	0x79
 1172 01ec 2D010000 		.4byte	0x12d
 1173 01f0 1C       		.byte	0x1c
 1174 01f1 09       		.uleb128 0x9
 1175 01f2 56050000 		.4byte	.LASF42
 1176 01f6 07       		.byte	0x7
 1177 01f7 7D       		.byte	0x7d
 1178 01f8 22010000 		.4byte	0x122
 1179 01fc 1D       		.byte	0x1d
 1180 01fd 09       		.uleb128 0x9
 1181 01fe 4A090000 		.4byte	.LASF43
 1182 0202 07       		.byte	0x7
 1183 0203 82       		.byte	0x82
 1184 0204 38010000 		.4byte	0x138
 1185 0208 1E       		.byte	0x1e
 1186 0209 09       		.uleb128 0x9
 1187 020a 82090000 		.4byte	.LASF44
 1188 020e 07       		.byte	0x7
 1189 020f 88       		.byte	0x88
 1190 0210 43010000 		.4byte	0x143
 1191 0214 1F       		.byte	0x1f
 1192 0215 09       		.uleb128 0x9
 1193 0216 25000000 		.4byte	.LASF45
 1194 021a 07       		.byte	0x7
 1195 021b 8F       		.byte	0x8f
 1196 021c 3B040000 		.4byte	0x43b
 1197 0220 20       		.byte	0x20
 1198 0221 0A       		.uleb128 0xa
 1199 0222 705F7500 		.ascii	"p_u\000"
 1200 0226 07       		.byte	0x7
 1201 0227 B4       		.byte	0xb4
 1202 0228 E9040000 		.4byte	0x4e9
 1203 022c 24       		.byte	0x24
 1204 022d 09       		.uleb128 0x9
 1205 022e D9000000 		.4byte	.LASF46
 1206 0232 07       		.byte	0x7
 1207 0233 B9       		.byte	0xb9
 1208 0234 C9020000 		.4byte	0x2c9
 1209 0238 28       		.byte	0x28
 1210 0239 09       		.uleb128 0x9
 1211 023a 9D000000 		.4byte	.LASF47
 1212 023e 07       		.byte	0x7
 1213 023f BF       		.byte	0xbf
 1214 0240 A9020000 		.4byte	0x2a9
 1215 0244 2C       		.byte	0x2c
 1216 0245 09       		.uleb128 0x9
 1217 0246 5F060000 		.4byte	.LASF48
 1218 024a 07       		.byte	0x7
 1219 024b C3       		.byte	0xc3
 1220 024c 59010000 		.4byte	0x159
 1221 0250 34       		.byte	0x34
 1222 0251 09       		.uleb128 0x9
 1223 0252 D6070000 		.4byte	.LASF49
 1224 0256 07       		.byte	0x7
 1225 0257 C9       		.byte	0xc9
ARM GAS  /tmp/ccs4ODSO.s 			page 23


 1226 0258 64010000 		.4byte	0x164
 1227 025c 38       		.byte	0x38
 1228 025d 09       		.uleb128 0x9
 1229 025e A3040000 		.4byte	.LASF50
 1230 0262 07       		.byte	0x7
 1231 0263 D0       		.byte	0xd0
 1232 0264 1E050000 		.4byte	0x51e
 1233 0268 3C       		.byte	0x3c
 1234 0269 09       		.uleb128 0x9
 1235 026a 7F060000 		.4byte	.LASF51
 1236 026e 07       		.byte	0x7
 1237 026f D4       		.byte	0xd4
 1238 0270 4E010000 		.4byte	0x14e
 1239 0274 40       		.byte	0x40
 1240 0275 09       		.uleb128 0x9
 1241 0276 8C040000 		.4byte	.LASF52
 1242 027a 07       		.byte	0x7
 1243 027b DA       		.byte	0xda
 1244 027c BF000000 		.4byte	0xbf
 1245 0280 44       		.byte	0x44
 1246 0281 00       		.byte	0
 1247 0282 0B       		.uleb128 0xb
 1248 0283 08       		.byte	0x8
 1249 0284 06       		.byte	0x6
 1250 0285 61       		.byte	0x61
 1251 0286 A3020000 		.4byte	0x2a3
 1252 028a 09       		.uleb128 0x9
 1253 028b 0C0A0000 		.4byte	.LASF34
 1254 028f 06       		.byte	0x6
 1255 0290 62       		.byte	0x62
 1256 0291 A3020000 		.4byte	0x2a3
 1257 0295 00       		.byte	0
 1258 0296 09       		.uleb128 0x9
 1259 0297 C7080000 		.4byte	.LASF35
 1260 029b 06       		.byte	0x6
 1261 029c 64       		.byte	0x64
 1262 029d A3020000 		.4byte	0x2a3
 1263 02a1 04       		.byte	0x4
 1264 02a2 00       		.byte	0
 1265 02a3 06       		.uleb128 0x6
 1266 02a4 04       		.byte	0x4
 1267 02a5 7A010000 		.4byte	0x17a
 1268 02a9 02       		.uleb128 0x2
 1269 02aa 0C040000 		.4byte	.LASF53
 1270 02ae 06       		.byte	0x6
 1271 02af 66       		.byte	0x66
 1272 02b0 82020000 		.4byte	0x282
 1273 02b4 0B       		.uleb128 0xb
 1274 02b5 04       		.byte	0x4
 1275 02b6 06       		.byte	0x6
 1276 02b7 6B       		.byte	0x6b
 1277 02b8 C9020000 		.4byte	0x2c9
 1278 02bc 09       		.uleb128 0x9
 1279 02bd 0C0A0000 		.4byte	.LASF34
 1280 02c1 06       		.byte	0x6
 1281 02c2 6D       		.byte	0x6d
 1282 02c3 A3020000 		.4byte	0x2a3
ARM GAS  /tmp/ccs4ODSO.s 			page 24


 1283 02c7 00       		.byte	0
 1284 02c8 00       		.byte	0
 1285 02c9 02       		.uleb128 0x2
 1286 02ca 00000000 		.4byte	.LASF54
 1287 02ce 06       		.byte	0x6
 1288 02cf 70       		.byte	0x70
 1289 02d0 B4020000 		.4byte	0x2b4
 1290 02d4 02       		.uleb128 0x2
 1291 02d5 3D000000 		.4byte	.LASF55
 1292 02d9 08       		.byte	0x8
 1293 02da E5       		.byte	0xe5
 1294 02db BF000000 		.4byte	0xbf
 1295 02df 02       		.uleb128 0x2
 1296 02e0 580A0000 		.4byte	.LASF56
 1297 02e4 08       		.byte	0x8
 1298 02e5 EB       		.byte	0xeb
 1299 02e6 10010000 		.4byte	0x110
 1300 02ea 0C       		.uleb128 0xc
 1301 02eb 1B070000 		.4byte	.LASF57
 1302 02ef 24       		.byte	0x24
 1303 02f0 08       		.byte	0x8
 1304 02f1 0C01     		.2byte	0x10c
 1305 02f3 66030000 		.4byte	0x366
 1306 02f7 0D       		.uleb128 0xd
 1307 02f8 723400   		.ascii	"r4\000"
 1308 02fb 08       		.byte	0x8
 1309 02fc 1F01     		.2byte	0x11f
 1310 02fe D4020000 		.4byte	0x2d4
 1311 0302 00       		.byte	0
 1312 0303 0D       		.uleb128 0xd
 1313 0304 723500   		.ascii	"r5\000"
 1314 0307 08       		.byte	0x8
 1315 0308 2001     		.2byte	0x120
 1316 030a D4020000 		.4byte	0x2d4
 1317 030e 04       		.byte	0x4
 1318 030f 0D       		.uleb128 0xd
 1319 0310 723600   		.ascii	"r6\000"
 1320 0313 08       		.byte	0x8
 1321 0314 2101     		.2byte	0x121
 1322 0316 D4020000 		.4byte	0x2d4
 1323 031a 08       		.byte	0x8
 1324 031b 0D       		.uleb128 0xd
 1325 031c 723700   		.ascii	"r7\000"
 1326 031f 08       		.byte	0x8
 1327 0320 2201     		.2byte	0x122
 1328 0322 D4020000 		.4byte	0x2d4
 1329 0326 0C       		.byte	0xc
 1330 0327 0D       		.uleb128 0xd
 1331 0328 723800   		.ascii	"r8\000"
 1332 032b 08       		.byte	0x8
 1333 032c 2301     		.2byte	0x123
 1334 032e D4020000 		.4byte	0x2d4
 1335 0332 10       		.byte	0x10
 1336 0333 0D       		.uleb128 0xd
 1337 0334 723900   		.ascii	"r9\000"
 1338 0337 08       		.byte	0x8
 1339 0338 2401     		.2byte	0x124
ARM GAS  /tmp/ccs4ODSO.s 			page 25


 1340 033a D4020000 		.4byte	0x2d4
 1341 033e 14       		.byte	0x14
 1342 033f 0D       		.uleb128 0xd
 1343 0340 72313000 		.ascii	"r10\000"
 1344 0344 08       		.byte	0x8
 1345 0345 2501     		.2byte	0x125
 1346 0347 D4020000 		.4byte	0x2d4
 1347 034b 18       		.byte	0x18
 1348 034c 0D       		.uleb128 0xd
 1349 034d 72313100 		.ascii	"r11\000"
 1350 0351 08       		.byte	0x8
 1351 0352 2601     		.2byte	0x126
 1352 0354 D4020000 		.4byte	0x2d4
 1353 0358 1C       		.byte	0x1c
 1354 0359 0D       		.uleb128 0xd
 1355 035a 6C7200   		.ascii	"lr\000"
 1356 035d 08       		.byte	0x8
 1357 035e 2701     		.2byte	0x127
 1358 0360 D4020000 		.4byte	0x2d4
 1359 0364 20       		.byte	0x20
 1360 0365 00       		.byte	0
 1361 0366 0C       		.uleb128 0xc
 1362 0367 4E050000 		.4byte	.LASF58
 1363 036b 04       		.byte	0x4
 1364 036c 08       		.byte	0x8
 1365 036d 3101     		.2byte	0x131
 1366 036f 81030000 		.4byte	0x381
 1367 0373 0D       		.uleb128 0xd
 1368 0374 72313300 		.ascii	"r13\000"
 1369 0378 08       		.byte	0x8
 1370 0379 3201     		.2byte	0x132
 1371 037b 81030000 		.4byte	0x381
 1372 037f 00       		.byte	0
 1373 0380 00       		.byte	0
 1374 0381 06       		.uleb128 0x6
 1375 0382 04       		.byte	0x4
 1376 0383 EA020000 		.4byte	0x2ea
 1377 0387 0E       		.uleb128 0xe
 1378 0388 05010000 		.4byte	0x105
 1379 038c 02       		.uleb128 0x2
 1380 038d 0C000000 		.4byte	.LASF59
 1381 0391 09       		.byte	0x9
 1382 0392 58       		.byte	0x58
 1383 0393 97030000 		.4byte	0x397
 1384 0397 06       		.uleb128 0x6
 1385 0398 04       		.byte	0x4
 1386 0399 9D030000 		.4byte	0x39d
 1387 039d 0F       		.uleb128 0xf
 1388 039e A8030000 		.4byte	0x3a8
 1389 03a2 10       		.uleb128 0x10
 1390 03a3 BF000000 		.4byte	0xbf
 1391 03a7 00       		.byte	0
 1392 03a8 02       		.uleb128 0x2
 1393 03a9 59080000 		.4byte	.LASF60
 1394 03ad 09       		.byte	0x9
 1395 03ae 5D       		.byte	0x5d
 1396 03af B3030000 		.4byte	0x3b3
ARM GAS  /tmp/ccs4ODSO.s 			page 26


 1397 03b3 08       		.uleb128 0x8
 1398 03b4 59080000 		.4byte	.LASF60
 1399 03b8 14       		.byte	0x14
 1400 03b9 09       		.byte	0x9
 1401 03ba 64       		.byte	0x64
 1402 03bb FC030000 		.4byte	0x3fc
 1403 03bf 09       		.uleb128 0x9
 1404 03c0 040A0000 		.4byte	.LASF61
 1405 03c4 09       		.byte	0x9
 1406 03c5 65       		.byte	0x65
 1407 03c6 FC030000 		.4byte	0x3fc
 1408 03ca 00       		.byte	0
 1409 03cb 09       		.uleb128 0x9
 1410 03cc 6B0A0000 		.4byte	.LASF62
 1411 03d0 09       		.byte	0x9
 1412 03d1 67       		.byte	0x67
 1413 03d2 FC030000 		.4byte	0x3fc
 1414 03d6 04       		.byte	0x4
 1415 03d7 09       		.uleb128 0x9
 1416 03d8 9E010000 		.4byte	.LASF63
 1417 03dc 09       		.byte	0x9
 1418 03dd 69       		.byte	0x69
 1419 03de 6F010000 		.4byte	0x16f
 1420 03e2 08       		.byte	0x8
 1421 03e3 09       		.uleb128 0x9
 1422 03e4 630A0000 		.4byte	.LASF64
 1423 03e8 09       		.byte	0x9
 1424 03e9 6A       		.byte	0x6a
 1425 03ea 8C030000 		.4byte	0x38c
 1426 03ee 0C       		.byte	0xc
 1427 03ef 09       		.uleb128 0x9
 1428 03f0 CE010000 		.4byte	.LASF65
 1429 03f4 09       		.byte	0x9
 1430 03f5 6C       		.byte	0x6c
 1431 03f6 BF000000 		.4byte	0xbf
 1432 03fa 10       		.byte	0x10
 1433 03fb 00       		.byte	0
 1434 03fc 06       		.uleb128 0x6
 1435 03fd 04       		.byte	0x4
 1436 03fe A8030000 		.4byte	0x3a8
 1437 0402 0B       		.uleb128 0xb
 1438 0403 10       		.byte	0x10
 1439 0404 09       		.byte	0x9
 1440 0405 76       		.byte	0x76
 1441 0406 3B040000 		.4byte	0x43b
 1442 040a 09       		.uleb128 0x9
 1443 040b 040A0000 		.4byte	.LASF61
 1444 040f 09       		.byte	0x9
 1445 0410 77       		.byte	0x77
 1446 0411 FC030000 		.4byte	0x3fc
 1447 0415 00       		.byte	0
 1448 0416 09       		.uleb128 0x9
 1449 0417 6B0A0000 		.4byte	.LASF62
 1450 041b 09       		.byte	0x9
 1451 041c 79       		.byte	0x79
 1452 041d FC030000 		.4byte	0x3fc
 1453 0421 04       		.byte	0x4
ARM GAS  /tmp/ccs4ODSO.s 			page 27


 1454 0422 09       		.uleb128 0x9
 1455 0423 9E010000 		.4byte	.LASF63
 1456 0427 09       		.byte	0x9
 1457 0428 7B       		.byte	0x7b
 1458 0429 6F010000 		.4byte	0x16f
 1459 042d 08       		.byte	0x8
 1460 042e 09       		.uleb128 0x9
 1461 042f 81000000 		.4byte	.LASF66
 1462 0433 09       		.byte	0x9
 1463 0434 7C       		.byte	0x7c
 1464 0435 3B040000 		.4byte	0x43b
 1465 0439 0C       		.byte	0xc
 1466 043a 00       		.byte	0
 1467 043b 0E       		.uleb128 0xe
 1468 043c 6F010000 		.4byte	0x16f
 1469 0440 02       		.uleb128 0x2
 1470 0441 4E040000 		.4byte	.LASF67
 1471 0445 09       		.byte	0x9
 1472 0446 7D       		.byte	0x7d
 1473 0447 02040000 		.4byte	0x402
 1474 044b 0B       		.uleb128 0xb
 1475 044c 1C       		.byte	0x1c
 1476 044d 0A       		.byte	0xa
 1477 044e 5E       		.byte	0x5e
 1478 044f 9C040000 		.4byte	0x49c
 1479 0453 09       		.uleb128 0x9
 1480 0454 07050000 		.4byte	.LASF68
 1481 0458 0A       		.byte	0xa
 1482 0459 5F       		.byte	0x5f
 1483 045a A9020000 		.4byte	0x2a9
 1484 045e 00       		.byte	0
 1485 045f 09       		.uleb128 0x9
 1486 0460 C2010000 		.4byte	.LASF69
 1487 0464 0A       		.byte	0xa
 1488 0465 60       		.byte	0x60
 1489 0466 4E010000 		.4byte	0x14e
 1490 046a 08       		.byte	0x8
 1491 046b 09       		.uleb128 0x9
 1492 046c 410A0000 		.4byte	.LASF70
 1493 0470 0A       		.byte	0xa
 1494 0471 62       		.byte	0x62
 1495 0472 66030000 		.4byte	0x366
 1496 0476 0C       		.byte	0xc
 1497 0477 09       		.uleb128 0x9
 1498 0478 1E040000 		.4byte	.LASF71
 1499 047c 0A       		.byte	0xa
 1500 047d 65       		.byte	0x65
 1501 047e A3020000 		.4byte	0x2a3
 1502 0482 10       		.byte	0x10
 1503 0483 09       		.uleb128 0x9
 1504 0484 B5050000 		.4byte	.LASF72
 1505 0488 0A       		.byte	0xa
 1506 0489 66       		.byte	0x66
 1507 048a A3020000 		.4byte	0x2a3
 1508 048e 14       		.byte	0x14
 1509 048f 09       		.uleb128 0x9
 1510 0490 CC070000 		.4byte	.LASF73
ARM GAS  /tmp/ccs4ODSO.s 			page 28


 1511 0494 0A       		.byte	0xa
 1512 0495 69       		.byte	0x69
 1513 0496 A3020000 		.4byte	0x2a3
 1514 049a 18       		.byte	0x18
 1515 049b 00       		.byte	0
 1516 049c 02       		.uleb128 0x2
 1517 049d 51090000 		.4byte	.LASF74
 1518 04a1 0A       		.byte	0xa
 1519 04a2 6B       		.byte	0x6b
 1520 04a3 4B040000 		.4byte	0x44b
 1521 04a7 08       		.uleb128 0x8
 1522 04a8 8F030000 		.4byte	.LASF75
 1523 04ac 10       		.byte	0x10
 1524 04ad 0B       		.byte	0xb
 1525 04ae 2C       		.byte	0x2c
 1526 04af D8040000 		.4byte	0x4d8
 1527 04b3 09       		.uleb128 0x9
 1528 04b4 E1070000 		.4byte	.LASF76
 1529 04b8 0B       		.byte	0xb
 1530 04b9 2D       		.byte	0x2d
 1531 04ba A9020000 		.4byte	0x2a9
 1532 04be 00       		.byte	0
 1533 04bf 09       		.uleb128 0x9
 1534 04c0 79000000 		.4byte	.LASF77
 1535 04c4 0B       		.byte	0xb
 1536 04c5 2F       		.byte	0x2f
 1537 04c6 A3020000 		.4byte	0x2a3
 1538 04ca 08       		.byte	0x8
 1539 04cb 09       		.uleb128 0x9
 1540 04cc 130A0000 		.4byte	.LASF78
 1541 04d0 0B       		.byte	0xb
 1542 04d1 31       		.byte	0x31
 1543 04d2 D8040000 		.4byte	0x4d8
 1544 04d6 0C       		.byte	0xc
 1545 04d7 00       		.byte	0
 1546 04d8 06       		.uleb128 0x6
 1547 04d9 04       		.byte	0x4
 1548 04da A7040000 		.4byte	0x4a7
 1549 04de 02       		.uleb128 0x2
 1550 04df 8F030000 		.4byte	.LASF75
 1551 04e3 0B       		.byte	0xb
 1552 04e4 33       		.byte	0x33
 1553 04e5 A7040000 		.4byte	0x4a7
 1554 04e9 11       		.uleb128 0x11
 1555 04ea 04       		.byte	0x4
 1556 04eb 07       		.byte	0x7
 1557 04ec 96       		.byte	0x96
 1558 04ed 1E050000 		.4byte	0x51e
 1559 04f1 12       		.uleb128 0x12
 1560 04f2 23030000 		.4byte	.LASF79
 1561 04f6 07       		.byte	0x7
 1562 04f7 9D       		.byte	0x9d
 1563 04f8 59010000 		.4byte	0x159
 1564 04fc 12       		.uleb128 0x12
 1565 04fd 8B0A0000 		.4byte	.LASF80
 1566 0501 07       		.byte	0x7
 1567 0502 A4       		.byte	0xa4
ARM GAS  /tmp/ccs4ODSO.s 			page 29


 1568 0503 59010000 		.4byte	0x159
 1569 0507 12       		.uleb128 0x12
 1570 0508 33010000 		.4byte	.LASF81
 1571 050c 07       		.byte	0x7
 1572 050d AB       		.byte	0xab
 1573 050e BF000000 		.4byte	0xbf
 1574 0512 12       		.uleb128 0x12
 1575 0513 65060000 		.4byte	.LASF82
 1576 0517 07       		.byte	0x7
 1577 0518 B2       		.byte	0xb2
 1578 0519 64010000 		.4byte	0x164
 1579 051d 00       		.byte	0
 1580 051e 06       		.uleb128 0x6
 1581 051f 04       		.byte	0x4
 1582 0520 DE040000 		.4byte	0x4de
 1583 0524 02       		.uleb128 0x2
 1584 0525 16020000 		.4byte	.LASF83
 1585 0529 07       		.byte	0x7
 1586 052a E5       		.byte	0xe5
 1587 052b 2F050000 		.4byte	0x52f
 1588 052f 06       		.uleb128 0x6
 1589 0530 04       		.byte	0x4
 1590 0531 35050000 		.4byte	0x535
 1591 0535 13       		.uleb128 0x13
 1592 0536 59010000 		.4byte	0x159
 1593 053a 44050000 		.4byte	0x544
 1594 053e 10       		.uleb128 0x10
 1595 053f BF000000 		.4byte	0xbf
 1596 0543 00       		.byte	0
 1597 0544 06       		.uleb128 0x6
 1598 0545 04       		.byte	0x4
 1599 0546 D9000000 		.4byte	0xd9
 1600 054a 08       		.uleb128 0x8
 1601 054b F3000000 		.4byte	.LASF84
 1602 054f 10       		.byte	0x10
 1603 0550 0C       		.byte	0xc
 1604 0551 48       		.byte	0x48
 1605 0552 87050000 		.4byte	0x587
 1606 0556 09       		.uleb128 0x9
 1607 0557 01050000 		.4byte	.LASF85
 1608 055b 0C       		.byte	0xc
 1609 055c 49       		.byte	0x49
 1610 055d AB050000 		.4byte	0x5ab
 1611 0561 00       		.byte	0
 1612 0562 09       		.uleb128 0x9
 1613 0563 91080000 		.4byte	.LASF86
 1614 0567 0C       		.byte	0xc
 1615 0568 49       		.byte	0x49
 1616 0569 CA050000 		.4byte	0x5ca
 1617 056d 04       		.byte	0x4
 1618 056e 0A       		.uleb128 0xa
 1619 056f 70757400 		.ascii	"put\000"
 1620 0573 0C       		.byte	0xc
 1621 0574 49       		.byte	0x49
 1622 0575 E4050000 		.4byte	0x5e4
 1623 0579 08       		.byte	0x8
 1624 057a 0A       		.uleb128 0xa
ARM GAS  /tmp/ccs4ODSO.s 			page 30


 1625 057b 67657400 		.ascii	"get\000"
 1626 057f 0C       		.byte	0xc
 1627 0580 49       		.byte	0x49
 1628 0581 2F050000 		.4byte	0x52f
 1629 0585 0C       		.byte	0xc
 1630 0586 00       		.byte	0
 1631 0587 13       		.uleb128 0x13
 1632 0588 25000000 		.4byte	0x25
 1633 058c A0050000 		.4byte	0x5a0
 1634 0590 10       		.uleb128 0x10
 1635 0591 BF000000 		.4byte	0xbf
 1636 0595 10       		.uleb128 0x10
 1637 0596 A0050000 		.4byte	0x5a0
 1638 059a 10       		.uleb128 0x10
 1639 059b 25000000 		.4byte	0x25
 1640 059f 00       		.byte	0
 1641 05a0 06       		.uleb128 0x6
 1642 05a1 04       		.byte	0x4
 1643 05a2 A6050000 		.4byte	0x5a6
 1644 05a6 07       		.uleb128 0x7
 1645 05a7 D9000000 		.4byte	0xd9
 1646 05ab 06       		.uleb128 0x6
 1647 05ac 04       		.byte	0x4
 1648 05ad 87050000 		.4byte	0x587
 1649 05b1 13       		.uleb128 0x13
 1650 05b2 25000000 		.4byte	0x25
 1651 05b6 CA050000 		.4byte	0x5ca
 1652 05ba 10       		.uleb128 0x10
 1653 05bb BF000000 		.4byte	0xbf
 1654 05bf 10       		.uleb128 0x10
 1655 05c0 44050000 		.4byte	0x544
 1656 05c4 10       		.uleb128 0x10
 1657 05c5 25000000 		.4byte	0x25
 1658 05c9 00       		.byte	0
 1659 05ca 06       		.uleb128 0x6
 1660 05cb 04       		.byte	0x4
 1661 05cc B1050000 		.4byte	0x5b1
 1662 05d0 13       		.uleb128 0x13
 1663 05d1 59010000 		.4byte	0x159
 1664 05d5 E4050000 		.4byte	0x5e4
 1665 05d9 10       		.uleb128 0x10
 1666 05da BF000000 		.4byte	0xbf
 1667 05de 10       		.uleb128 0x10
 1668 05df D9000000 		.4byte	0xd9
 1669 05e3 00       		.byte	0
 1670 05e4 06       		.uleb128 0x6
 1671 05e5 04       		.byte	0x4
 1672 05e6 D0050000 		.4byte	0x5d0
 1673 05ea 0B       		.uleb128 0xb
 1674 05eb 04       		.byte	0x4
 1675 05ec 0C       		.byte	0xc
 1676 05ed 51       		.byte	0x51
 1677 05ee FF050000 		.4byte	0x5ff
 1678 05f2 0A       		.uleb128 0xa
 1679 05f3 766D7400 		.ascii	"vmt\000"
 1680 05f7 0C       		.byte	0xc
 1681 05f8 53       		.byte	0x53
ARM GAS  /tmp/ccs4ODSO.s 			page 31


 1682 05f9 FF050000 		.4byte	0x5ff
 1683 05fd 00       		.byte	0
 1684 05fe 00       		.byte	0
 1685 05ff 06       		.uleb128 0x6
 1686 0600 04       		.byte	0x4
 1687 0601 05060000 		.4byte	0x605
 1688 0605 07       		.uleb128 0x7
 1689 0606 4A050000 		.4byte	0x54a
 1690 060a 02       		.uleb128 0x2
 1691 060b B0030000 		.4byte	.LASF87
 1692 060f 0C       		.byte	0xc
 1693 0610 55       		.byte	0x55
 1694 0611 EA050000 		.4byte	0x5ea
 1695 0615 14       		.uleb128 0x14
 1696 0616 05010000 		.4byte	0x105
 1697 061a 25060000 		.4byte	0x625
 1698 061e 15       		.uleb128 0x15
 1699 061f B8000000 		.4byte	0xb8
 1700 0623 03       		.byte	0x3
 1701 0624 00       		.byte	0
 1702 0625 0E       		.uleb128 0xe
 1703 0626 FA000000 		.4byte	0xfa
 1704 062a 16       		.uleb128 0x16
 1705 062b 1C       		.byte	0x1c
 1706 062c 0D       		.byte	0xd
 1707 062d F803     		.2byte	0x3f8
 1708 062f 8F060000 		.4byte	0x68f
 1709 0633 0D       		.uleb128 0xd
 1710 0634 43524C00 		.ascii	"CRL\000"
 1711 0638 0D       		.byte	0xd
 1712 0639 FA03     		.2byte	0x3fa
 1713 063b 87030000 		.4byte	0x387
 1714 063f 00       		.byte	0
 1715 0640 0D       		.uleb128 0xd
 1716 0641 43524800 		.ascii	"CRH\000"
 1717 0645 0D       		.byte	0xd
 1718 0646 FB03     		.2byte	0x3fb
 1719 0648 87030000 		.4byte	0x387
 1720 064c 04       		.byte	0x4
 1721 064d 0D       		.uleb128 0xd
 1722 064e 49445200 		.ascii	"IDR\000"
 1723 0652 0D       		.byte	0xd
 1724 0653 FC03     		.2byte	0x3fc
 1725 0655 87030000 		.4byte	0x387
 1726 0659 08       		.byte	0x8
 1727 065a 0D       		.uleb128 0xd
 1728 065b 4F445200 		.ascii	"ODR\000"
 1729 065f 0D       		.byte	0xd
 1730 0660 FD03     		.2byte	0x3fd
 1731 0662 87030000 		.4byte	0x387
 1732 0666 0C       		.byte	0xc
 1733 0667 17       		.uleb128 0x17
 1734 0668 2C000000 		.4byte	.LASF88
 1735 066c 0D       		.byte	0xd
 1736 066d FE03     		.2byte	0x3fe
 1737 066f 87030000 		.4byte	0x387
 1738 0673 10       		.byte	0x10
ARM GAS  /tmp/ccs4ODSO.s 			page 32


 1739 0674 0D       		.uleb128 0xd
 1740 0675 42525200 		.ascii	"BRR\000"
 1741 0679 0D       		.byte	0xd
 1742 067a FF03     		.2byte	0x3ff
 1743 067c 87030000 		.4byte	0x387
 1744 0680 14       		.byte	0x14
 1745 0681 17       		.uleb128 0x17
 1746 0682 A6050000 		.4byte	.LASF89
 1747 0686 0D       		.byte	0xd
 1748 0687 0004     		.2byte	0x400
 1749 0689 87030000 		.4byte	0x387
 1750 068d 18       		.byte	0x18
 1751 068e 00       		.byte	0
 1752 068f 18       		.uleb128 0x18
 1753 0690 96080000 		.4byte	.LASF90
 1754 0694 0D       		.byte	0xd
 1755 0695 0104     		.2byte	0x401
 1756 0697 2A060000 		.4byte	0x62a
 1757 069b 02       		.uleb128 0x2
 1758 069c 95030000 		.4byte	.LASF91
 1759 06a0 0E       		.byte	0xe
 1760 06a1 7A       		.byte	0x7a
 1761 06a2 A6060000 		.4byte	0x6a6
 1762 06a6 06       		.uleb128 0x6
 1763 06a7 04       		.byte	0x4
 1764 06a8 8F060000 		.4byte	0x68f
 1765 06ac 19       		.uleb128 0x19
 1766 06ad 01       		.byte	0x1
 1767 06ae 0F       		.byte	0xf
 1768 06af 4A       		.byte	0x4a
 1769 06b0 C7060000 		.4byte	0x6c7
 1770 06b4 1A       		.uleb128 0x1a
 1771 06b5 90050000 		.4byte	.LASF92
 1772 06b9 00       		.sleb128 0
 1773 06ba 1A       		.uleb128 0x1a
 1774 06bb A3080000 		.4byte	.LASF93
 1775 06bf 01       		.sleb128 1
 1776 06c0 1A       		.uleb128 0x1a
 1777 06c1 9B050000 		.4byte	.LASF94
 1778 06c5 02       		.sleb128 2
 1779 06c6 00       		.byte	0
 1780 06c7 02       		.uleb128 0x2
 1781 06c8 74060000 		.4byte	.LASF95
 1782 06cc 0F       		.byte	0xf
 1783 06cd 4E       		.byte	0x4e
 1784 06ce AC060000 		.4byte	0x6ac
 1785 06d2 02       		.uleb128 0x2
 1786 06d3 65010000 		.4byte	.LASF96
 1787 06d7 0F       		.byte	0xf
 1788 06d8 53       		.byte	0x53
 1789 06d9 DD060000 		.4byte	0x6dd
 1790 06dd 08       		.uleb128 0x8
 1791 06de 65010000 		.4byte	.LASF96
 1792 06e2 08       		.byte	0x8
 1793 06e3 10       		.byte	0x10
 1794 06e4 71       		.byte	0x71
 1795 06e5 02070000 		.4byte	0x702
ARM GAS  /tmp/ccs4ODSO.s 			page 33


 1796 06e9 09       		.uleb128 0x9
 1797 06ea 19090000 		.4byte	.LASF97
 1798 06ee 10       		.byte	0x10
 1799 06ef 75       		.byte	0x75
 1800 06f0 C7060000 		.4byte	0x6c7
 1801 06f4 00       		.byte	0
 1802 06f5 09       		.uleb128 0x9
 1803 06f6 34070000 		.4byte	.LASF98
 1804 06fa 10       		.byte	0x10
 1805 06fb 79       		.byte	0x79
 1806 06fc 8F070000 		.4byte	0x78f
 1807 0700 04       		.byte	0x4
 1808 0701 00       		.byte	0
 1809 0702 02       		.uleb128 0x2
 1810 0703 F1080000 		.4byte	.LASF99
 1811 0707 10       		.byte	0x10
 1812 0708 47       		.byte	0x47
 1813 0709 05010000 		.4byte	0x105
 1814 070d 02       		.uleb128 0x2
 1815 070e DF040000 		.4byte	.LASF100
 1816 0712 10       		.byte	0x10
 1817 0713 4F       		.byte	0x4f
 1818 0714 18070000 		.4byte	0x718
 1819 0718 06       		.uleb128 0x6
 1820 0719 04       		.byte	0x4
 1821 071a 1E070000 		.4byte	0x71e
 1822 071e 0F       		.uleb128 0xf
 1823 071f 2E070000 		.4byte	0x72e
 1824 0723 10       		.uleb128 0x10
 1825 0724 2E070000 		.4byte	0x72e
 1826 0728 10       		.uleb128 0x10
 1827 0729 02070000 		.4byte	0x702
 1828 072d 00       		.byte	0
 1829 072e 06       		.uleb128 0x6
 1830 072f 04       		.byte	0x4
 1831 0730 D2060000 		.4byte	0x6d2
 1832 0734 0B       		.uleb128 0xb
 1833 0735 08       		.byte	0x8
 1834 0736 10       		.byte	0x10
 1835 0737 54       		.byte	0x54
 1836 0738 54070000 		.4byte	0x754
 1837 073c 09       		.uleb128 0x9
 1838 073d 60010000 		.4byte	.LASF101
 1839 0741 10       		.byte	0x10
 1840 0742 58       		.byte	0x58
 1841 0743 05010000 		.4byte	0x105
 1842 0747 00       		.byte	0
 1843 0748 0A       		.uleb128 0xa
 1844 0749 636200   		.ascii	"cb\000"
 1845 074c 10       		.byte	0x10
 1846 074d 5F       		.byte	0x5f
 1847 074e 0D070000 		.4byte	0x70d
 1848 0752 04       		.byte	0x4
 1849 0753 00       		.byte	0
 1850 0754 02       		.uleb128 0x2
 1851 0755 14080000 		.4byte	.LASF102
 1852 0759 10       		.byte	0x10
ARM GAS  /tmp/ccs4ODSO.s 			page 34


 1853 075a 60       		.byte	0x60
 1854 075b 34070000 		.4byte	0x734
 1855 075f 0B       		.uleb128 0xb
 1856 0760 98       		.byte	0x98
 1857 0761 10       		.byte	0x10
 1858 0762 66       		.byte	0x66
 1859 0763 74070000 		.4byte	0x774
 1860 0767 09       		.uleb128 0x9
 1861 0768 0F050000 		.4byte	.LASF103
 1862 076c 10       		.byte	0x10
 1863 076d 6A       		.byte	0x6a
 1864 076e 74070000 		.4byte	0x774
 1865 0772 00       		.byte	0
 1866 0773 00       		.byte	0
 1867 0774 14       		.uleb128 0x14
 1868 0775 54070000 		.4byte	0x754
 1869 0779 84070000 		.4byte	0x784
 1870 077d 15       		.uleb128 0x15
 1871 077e B8000000 		.4byte	0xb8
 1872 0782 12       		.byte	0x12
 1873 0783 00       		.byte	0
 1874 0784 02       		.uleb128 0x2
 1875 0785 55040000 		.4byte	.LASF104
 1876 0789 10       		.byte	0x10
 1877 078a 6C       		.byte	0x6c
 1878 078b 5F070000 		.4byte	0x75f
 1879 078f 06       		.uleb128 0x6
 1880 0790 04       		.byte	0x4
 1881 0791 95070000 		.4byte	0x795
 1882 0795 07       		.uleb128 0x7
 1883 0796 84070000 		.4byte	0x784
 1884 079a 19       		.uleb128 0x19
 1885 079b 01       		.byte	0x1
 1886 079c 11       		.byte	0x11
 1887 079d 3C       		.byte	0x3c
 1888 079e C1070000 		.4byte	0x7c1
 1889 07a2 1A       		.uleb128 0x1a
 1890 07a3 48080000 		.4byte	.LASF105
 1891 07a7 00       		.sleb128 0
 1892 07a8 1A       		.uleb128 0x1a
 1893 07a9 2A010000 		.4byte	.LASF106
 1894 07ad 01       		.sleb128 1
 1895 07ae 1A       		.uleb128 0x1a
 1896 07af A6030000 		.4byte	.LASF107
 1897 07b3 02       		.sleb128 2
 1898 07b4 1A       		.uleb128 0x1a
 1899 07b5 26040000 		.4byte	.LASF108
 1900 07b9 03       		.sleb128 3
 1901 07ba 1A       		.uleb128 0x1a
 1902 07bb B5000000 		.4byte	.LASF109
 1903 07bf 04       		.sleb128 4
 1904 07c0 00       		.byte	0
 1905 07c1 02       		.uleb128 0x2
 1906 07c2 AC080000 		.4byte	.LASF110
 1907 07c6 11       		.byte	0x11
 1908 07c7 42       		.byte	0x42
 1909 07c8 9A070000 		.4byte	0x79a
ARM GAS  /tmp/ccs4ODSO.s 			page 35


 1910 07cc 02       		.uleb128 0x2
 1911 07cd 1F090000 		.4byte	.LASF111
 1912 07d1 11       		.byte	0x11
 1913 07d2 47       		.byte	0x47
 1914 07d3 D7070000 		.4byte	0x7d7
 1915 07d7 0C       		.uleb128 0xc
 1916 07d8 1F090000 		.4byte	.LASF111
 1917 07dc 10       		.byte	0x10
 1918 07dd 12       		.byte	0x12
 1919 07de 9001     		.2byte	0x190
 1920 07e0 19080000 		.4byte	0x819
 1921 07e4 17       		.uleb128 0x17
 1922 07e5 19090000 		.4byte	.LASF97
 1923 07e9 12       		.byte	0x12
 1924 07ea 9401     		.2byte	0x194
 1925 07ec C1070000 		.4byte	0x7c1
 1926 07f0 00       		.byte	0
 1927 07f1 17       		.uleb128 0x17
 1928 07f2 34070000 		.4byte	.LASF98
 1929 07f6 12       		.byte	0x12
 1930 07f7 9801     		.2byte	0x198
 1931 07f9 BA090000 		.4byte	0x9ba
 1932 07fd 04       		.byte	0x4
 1933 07fe 17       		.uleb128 0x17
 1934 07ff A0030000 		.4byte	.LASF112
 1935 0803 12       		.byte	0x12
 1936 0804 A001     		.2byte	0x1a0
 1937 0806 05010000 		.4byte	0x105
 1938 080a 08       		.byte	0x8
 1939 080b 0D       		.uleb128 0xd
 1940 080c 74696D00 		.ascii	"tim\000"
 1941 0810 12       		.byte	0x12
 1942 0811 A401     		.2byte	0x1a4
 1943 0813 C5090000 		.4byte	0x9c5
 1944 0817 0C       		.byte	0xc
 1945 0818 00       		.byte	0
 1946 0819 02       		.uleb128 0x2
 1947 081a C1000000 		.4byte	.LASF113
 1948 081e 11       		.byte	0x11
 1949 081f 4E       		.byte	0x4e
 1950 0820 24080000 		.4byte	0x824
 1951 0824 06       		.uleb128 0x6
 1952 0825 04       		.byte	0x4
 1953 0826 2A080000 		.4byte	0x82a
 1954 082a 0F       		.uleb128 0xf
 1955 082b 35080000 		.4byte	0x835
 1956 082f 10       		.uleb128 0x10
 1957 0830 35080000 		.4byte	0x835
 1958 0834 00       		.byte	0
 1959 0835 06       		.uleb128 0x6
 1960 0836 04       		.byte	0x4
 1961 0837 CC070000 		.4byte	0x7cc
 1962 083b 16       		.uleb128 0x16
 1963 083c 60       		.byte	0x60
 1964 083d 13       		.byte	0x13
 1965 083e 9E01     		.2byte	0x19e
 1966 0840 54090000 		.4byte	0x954
ARM GAS  /tmp/ccs4ODSO.s 			page 36


 1967 0844 0D       		.uleb128 0xd
 1968 0845 43523100 		.ascii	"CR1\000"
 1969 0849 13       		.byte	0x13
 1970 084a 9F01     		.2byte	0x19f
 1971 084c 87030000 		.4byte	0x387
 1972 0850 00       		.byte	0
 1973 0851 0D       		.uleb128 0xd
 1974 0852 43523200 		.ascii	"CR2\000"
 1975 0856 13       		.byte	0x13
 1976 0857 A001     		.2byte	0x1a0
 1977 0859 87030000 		.4byte	0x387
 1978 085d 04       		.byte	0x4
 1979 085e 17       		.uleb128 0x17
 1980 085f C8040000 		.4byte	.LASF114
 1981 0863 13       		.byte	0x13
 1982 0864 A101     		.2byte	0x1a1
 1983 0866 87030000 		.4byte	0x387
 1984 086a 08       		.byte	0x8
 1985 086b 17       		.uleb128 0x17
 1986 086c 7A030000 		.4byte	.LASF115
 1987 0870 13       		.byte	0x13
 1988 0871 A201     		.2byte	0x1a2
 1989 0873 87030000 		.4byte	0x387
 1990 0877 0C       		.byte	0xc
 1991 0878 0D       		.uleb128 0xd
 1992 0879 535200   		.ascii	"SR\000"
 1993 087c 13       		.byte	0x13
 1994 087d A301     		.2byte	0x1a3
 1995 087f 87030000 		.4byte	0x387
 1996 0883 10       		.byte	0x10
 1997 0884 0D       		.uleb128 0xd
 1998 0885 45475200 		.ascii	"EGR\000"
 1999 0889 13       		.byte	0x13
 2000 088a A401     		.2byte	0x1a4
 2001 088c 87030000 		.4byte	0x387
 2002 0890 14       		.byte	0x14
 2003 0891 17       		.uleb128 0x17
 2004 0892 04020000 		.4byte	.LASF116
 2005 0896 13       		.byte	0x13
 2006 0897 A501     		.2byte	0x1a5
 2007 0899 87030000 		.4byte	0x387
 2008 089d 18       		.byte	0x18
 2009 089e 17       		.uleb128 0x17
 2010 089f 0A020000 		.4byte	.LASF117
 2011 08a3 13       		.byte	0x13
 2012 08a4 A601     		.2byte	0x1a6
 2013 08a6 87030000 		.4byte	0x387
 2014 08aa 1C       		.byte	0x1c
 2015 08ab 17       		.uleb128 0x17
 2016 08ac FA030000 		.4byte	.LASF118
 2017 08b0 13       		.byte	0x13
 2018 08b1 A701     		.2byte	0x1a7
 2019 08b3 87030000 		.4byte	0x387
 2020 08b7 20       		.byte	0x20
 2021 08b8 0D       		.uleb128 0xd
 2022 08b9 434E5400 		.ascii	"CNT\000"
 2023 08bd 13       		.byte	0x13
ARM GAS  /tmp/ccs4ODSO.s 			page 37


 2024 08be A801     		.2byte	0x1a8
 2025 08c0 87030000 		.4byte	0x387
 2026 08c4 24       		.byte	0x24
 2027 08c5 0D       		.uleb128 0xd
 2028 08c6 50534300 		.ascii	"PSC\000"
 2029 08ca 13       		.byte	0x13
 2030 08cb A901     		.2byte	0x1a9
 2031 08cd 87030000 		.4byte	0x387
 2032 08d1 28       		.byte	0x28
 2033 08d2 0D       		.uleb128 0xd
 2034 08d3 41525200 		.ascii	"ARR\000"
 2035 08d7 13       		.byte	0x13
 2036 08d8 AA01     		.2byte	0x1aa
 2037 08da 87030000 		.4byte	0x387
 2038 08de 2C       		.byte	0x2c
 2039 08df 0D       		.uleb128 0xd
 2040 08e0 52435200 		.ascii	"RCR\000"
 2041 08e4 13       		.byte	0x13
 2042 08e5 AB01     		.2byte	0x1ab
 2043 08e7 87030000 		.4byte	0x387
 2044 08eb 30       		.byte	0x30
 2045 08ec 0D       		.uleb128 0xd
 2046 08ed 43435200 		.ascii	"CCR\000"
 2047 08f1 13       		.byte	0x13
 2048 08f2 AC01     		.2byte	0x1ac
 2049 08f4 54090000 		.4byte	0x954
 2050 08f8 34       		.byte	0x34
 2051 08f9 17       		.uleb128 0x17
 2052 08fa C9010000 		.4byte	.LASF119
 2053 08fe 13       		.byte	0x13
 2054 08ff AD01     		.2byte	0x1ad
 2055 0901 87030000 		.4byte	0x387
 2056 0905 44       		.byte	0x44
 2057 0906 0D       		.uleb128 0xd
 2058 0907 44435200 		.ascii	"DCR\000"
 2059 090b 13       		.byte	0x13
 2060 090c AE01     		.2byte	0x1ae
 2061 090e 87030000 		.4byte	0x387
 2062 0912 48       		.byte	0x48
 2063 0913 17       		.uleb128 0x17
 2064 0914 F2070000 		.4byte	.LASF120
 2065 0918 13       		.byte	0x13
 2066 0919 AF01     		.2byte	0x1af
 2067 091b 87030000 		.4byte	0x387
 2068 091f 4C       		.byte	0x4c
 2069 0920 0D       		.uleb128 0xd
 2070 0921 4F5200   		.ascii	"OR\000"
 2071 0924 13       		.byte	0x13
 2072 0925 B001     		.2byte	0x1b0
 2073 0927 87030000 		.4byte	0x387
 2074 092b 50       		.byte	0x50
 2075 092c 17       		.uleb128 0x17
 2076 092d 10020000 		.4byte	.LASF121
 2077 0931 13       		.byte	0x13
 2078 0932 B101     		.2byte	0x1b1
 2079 0934 87030000 		.4byte	0x387
 2080 0938 54       		.byte	0x54
ARM GAS  /tmp/ccs4ODSO.s 			page 38


 2081 0939 17       		.uleb128 0x17
 2082 093a FA010000 		.4byte	.LASF122
 2083 093e 13       		.byte	0x13
 2084 093f B201     		.2byte	0x1b2
 2085 0941 87030000 		.4byte	0x387
 2086 0945 58       		.byte	0x58
 2087 0946 17       		.uleb128 0x17
 2088 0947 FF010000 		.4byte	.LASF123
 2089 094b 13       		.byte	0x13
 2090 094c B301     		.2byte	0x1b3
 2091 094e 87030000 		.4byte	0x387
 2092 0952 5C       		.byte	0x5c
 2093 0953 00       		.byte	0
 2094 0954 0E       		.uleb128 0xe
 2095 0955 15060000 		.4byte	0x615
 2096 0959 18       		.uleb128 0x18
 2097 095a 2A030000 		.4byte	.LASF124
 2098 095e 13       		.byte	0x13
 2099 095f B401     		.2byte	0x1b4
 2100 0961 3B080000 		.4byte	0x83b
 2101 0965 18       		.uleb128 0x18
 2102 0966 C5030000 		.4byte	.LASF125
 2103 096a 12       		.byte	0x12
 2104 096b 6D01     		.2byte	0x16d
 2105 096d 05010000 		.4byte	0x105
 2106 0971 18       		.uleb128 0x18
 2107 0972 A1090000 		.4byte	.LASF126
 2108 0976 12       		.byte	0x12
 2109 0977 7201     		.2byte	0x172
 2110 0979 05010000 		.4byte	0x105
 2111 097d 16       		.uleb128 0x16
 2112 097e 0C       		.byte	0xc
 2113 097f 12       		.byte	0x12
 2114 0980 7801     		.2byte	0x178
 2115 0982 AE090000 		.4byte	0x9ae
 2116 0986 17       		.uleb128 0x17
 2117 0987 AA090000 		.4byte	.LASF127
 2118 098b 12       		.byte	0x12
 2119 098c 7E01     		.2byte	0x17e
 2120 098e 65090000 		.4byte	0x965
 2121 0992 00       		.byte	0
 2122 0993 17       		.uleb128 0x17
 2123 0994 F0090000 		.4byte	.LASF128
 2124 0998 12       		.byte	0x12
 2125 0999 8301     		.2byte	0x183
 2126 099b 19080000 		.4byte	0x819
 2127 099f 04       		.byte	0x4
 2128 09a0 17       		.uleb128 0x17
 2129 09a1 8B050000 		.4byte	.LASF129
 2130 09a5 12       		.byte	0x12
 2131 09a6 8A01     		.2byte	0x18a
 2132 09a8 05010000 		.4byte	0x105
 2133 09ac 08       		.byte	0x8
 2134 09ad 00       		.byte	0
 2135 09ae 18       		.uleb128 0x18
 2136 09af 41010000 		.4byte	.LASF130
 2137 09b3 12       		.byte	0x12
ARM GAS  /tmp/ccs4ODSO.s 			page 39


 2138 09b4 8B01     		.2byte	0x18b
 2139 09b6 7D090000 		.4byte	0x97d
 2140 09ba 06       		.uleb128 0x6
 2141 09bb 04       		.byte	0x4
 2142 09bc C0090000 		.4byte	0x9c0
 2143 09c0 07       		.uleb128 0x7
 2144 09c1 AE090000 		.4byte	0x9ae
 2145 09c5 06       		.uleb128 0x6
 2146 09c6 04       		.byte	0x4
 2147 09c7 59090000 		.4byte	0x959
 2148 09cb 02       		.uleb128 0x2
 2149 09cc CF000000 		.4byte	.LASF131
 2150 09d0 14       		.byte	0x14
 2151 09d1 39       		.byte	0x39
 2152 09d2 0A060000 		.4byte	0x60a
 2153 09d6 19       		.uleb128 0x19
 2154 09d7 01       		.byte	0x1
 2155 09d8 15       		.byte	0x15
 2156 09d9 8D       		.byte	0x8d
 2157 09da 330A0000 		.4byte	0xa33
 2158 09de 1A       		.uleb128 0x1a
 2159 09df 80080000 		.4byte	.LASF132
 2160 09e3 7F       		.sleb128 -1
 2161 09e4 1A       		.uleb128 0x1a
 2162 09e5 C7050000 		.4byte	.LASF133
 2163 09e9 00       		.sleb128 0
 2164 09ea 1A       		.uleb128 0x1a
 2165 09eb 0E030000 		.4byte	.LASF134
 2166 09ef 01       		.sleb128 1
 2167 09f0 1A       		.uleb128 0x1a
 2168 09f1 E6050000 		.4byte	.LASF135
 2169 09f5 02       		.sleb128 2
 2170 09f6 1A       		.uleb128 0x1a
 2171 09f7 F4050000 		.4byte	.LASF136
 2172 09fb 03       		.sleb128 3
 2173 09fc 1A       		.uleb128 0x1a
 2174 09fd 02060000 		.4byte	.LASF137
 2175 0a01 04       		.sleb128 4
 2176 0a02 1A       		.uleb128 0x1a
 2177 0a03 10060000 		.4byte	.LASF138
 2178 0a07 05       		.sleb128 5
 2179 0a08 1A       		.uleb128 0x1a
 2180 0a09 1E060000 		.4byte	.LASF139
 2181 0a0d 06       		.sleb128 6
 2182 0a0e 1A       		.uleb128 0x1a
 2183 0a0f 2C060000 		.4byte	.LASF140
 2184 0a13 07       		.sleb128 7
 2185 0a14 1A       		.uleb128 0x1a
 2186 0a15 3A060000 		.4byte	.LASF141
 2187 0a19 08       		.sleb128 8
 2188 0a1a 1A       		.uleb128 0x1a
 2189 0a1b 2A050000 		.4byte	.LASF142
 2190 0a1f 09       		.sleb128 9
 2191 0a20 1A       		.uleb128 0x1a
 2192 0a21 39050000 		.4byte	.LASF143
 2193 0a25 0A       		.sleb128 10
 2194 0a26 1A       		.uleb128 0x1a
ARM GAS  /tmp/ccs4ODSO.s 			page 40


 2195 0a27 8F010000 		.4byte	.LASF144
 2196 0a2b 0B       		.sleb128 11
 2197 0a2c 1A       		.uleb128 0x1a
 2198 0a2d D5010000 		.4byte	.LASF145
 2199 0a31 0C       		.sleb128 12
 2200 0a32 00       		.byte	0
 2201 0a33 02       		.uleb128 0x2
 2202 0a34 74010000 		.4byte	.LASF146
 2203 0a38 15       		.byte	0x15
 2204 0a39 9D       		.byte	0x9d
 2205 0a3a D6090000 		.4byte	0x9d6
 2206 0a3e 19       		.uleb128 0x19
 2207 0a3f 01       		.byte	0x1
 2208 0a40 15       		.byte	0x15
 2209 0a41 A2       		.byte	0xa2
 2210 0a42 530A0000 		.4byte	0xa53
 2211 0a46 1A       		.uleb128 0x1a
 2212 0a47 470A0000 		.4byte	.LASF147
 2213 0a4b 00       		.sleb128 0
 2214 0a4c 1A       		.uleb128 0x1a
 2215 0a4d 68050000 		.4byte	.LASF148
 2216 0a51 01       		.sleb128 1
 2217 0a52 00       		.byte	0
 2218 0a53 02       		.uleb128 0x2
 2219 0a54 7F030000 		.4byte	.LASF149
 2220 0a58 15       		.byte	0x15
 2221 0a59 A5       		.byte	0xa5
 2222 0a5a 3E0A0000 		.4byte	0xa3e
 2223 0a5e 19       		.uleb128 0x19
 2224 0a5f 01       		.byte	0x1
 2225 0a60 15       		.byte	0x15
 2226 0a61 AA       		.byte	0xaa
 2227 0a62 730A0000 		.4byte	0xa73
 2228 0a66 1A       		.uleb128 0x1a
 2229 0a67 1B010000 		.4byte	.LASF150
 2230 0a6b 00       		.sleb128 0
 2231 0a6c 1A       		.uleb128 0x1a
 2232 0a6d 66080000 		.4byte	.LASF151
 2233 0a71 01       		.sleb128 1
 2234 0a72 00       		.byte	0
 2235 0a73 02       		.uleb128 0x2
 2236 0a74 68000000 		.4byte	.LASF152
 2237 0a78 15       		.byte	0x15
 2238 0a79 AD       		.byte	0xad
 2239 0a7a 5E0A0000 		.4byte	0xa5e
 2240 0a7e 08       		.uleb128 0x8
 2241 0a7f 4B010000 		.4byte	.LASF153
 2242 0a83 0C       		.byte	0xc
 2243 0a84 15       		.byte	0x15
 2244 0a85 B2       		.byte	0xb2
 2245 0a86 BB0A0000 		.4byte	0xabb
 2246 0a8a 09       		.uleb128 0x9
 2247 0a8b 14090000 		.4byte	.LASF154
 2248 0a8f 15       		.byte	0x15
 2249 0a90 B3       		.byte	0xb3
 2250 0a91 9B060000 		.4byte	0x69b
 2251 0a95 00       		.byte	0
ARM GAS  /tmp/ccs4ODSO.s 			page 41


 2252 0a96 0A       		.uleb128 0xa
 2253 0a97 70616400 		.ascii	"pad\000"
 2254 0a9b 15       		.byte	0x15
 2255 0a9c B4       		.byte	0xb4
 2256 0a9d E4000000 		.4byte	0xe4
 2257 0aa1 04       		.byte	0x4
 2258 0aa2 09       		.uleb128 0x9
 2259 0aa3 60010000 		.4byte	.LASF101
 2260 0aa7 15       		.byte	0x15
 2261 0aa8 B5       		.byte	0xb5
 2262 0aa9 530A0000 		.4byte	0xa53
 2263 0aad 06       		.byte	0x6
 2264 0aae 09       		.uleb128 0x9
 2265 0aaf 04030000 		.4byte	.LASF155
 2266 0ab3 15       		.byte	0x15
 2267 0ab4 B6       		.byte	0xb6
 2268 0ab5 FA000000 		.4byte	0xfa
 2269 0ab9 08       		.byte	0x8
 2270 0aba 00       		.byte	0
 2271 0abb 02       		.uleb128 0x2
 2272 0abc E3000000 		.4byte	.LASF156
 2273 0ac0 15       		.byte	0x15
 2274 0ac1 B7       		.byte	0xb7
 2275 0ac2 7E0A0000 		.4byte	0xa7e
 2276 0ac6 19       		.uleb128 0x19
 2277 0ac7 01       		.byte	0x1
 2278 0ac8 16       		.byte	0x16
 2279 0ac9 39       		.byte	0x39
 2280 0aca F30A0000 		.4byte	0xaf3
 2281 0ace 1A       		.uleb128 0x1a
 2282 0acf B4090000 		.4byte	.LASF157
 2283 0ad3 00       		.sleb128 0
 2284 0ad4 1A       		.uleb128 0x1a
 2285 0ad5 C0090000 		.4byte	.LASF158
 2286 0ad9 01       		.sleb128 1
 2287 0ada 1A       		.uleb128 0x1a
 2288 0adb CC090000 		.4byte	.LASF159
 2289 0adf 02       		.sleb128 2
 2290 0ae0 1A       		.uleb128 0x1a
 2291 0ae1 D8090000 		.4byte	.LASF160
 2292 0ae5 03       		.sleb128 3
 2293 0ae6 1A       		.uleb128 0x1a
 2294 0ae7 E4090000 		.4byte	.LASF161
 2295 0aeb 04       		.sleb128 4
 2296 0aec 1A       		.uleb128 0x1a
 2297 0aed 36030000 		.4byte	.LASF162
 2298 0af1 05       		.sleb128 5
 2299 0af2 00       		.byte	0
 2300 0af3 02       		.uleb128 0x2
 2301 0af4 D5050000 		.4byte	.LASF163
 2302 0af8 16       		.byte	0x16
 2303 0af9 41       		.byte	0x41
 2304 0afa C60A0000 		.4byte	0xac6
 2305 0afe 08       		.uleb128 0x8
 2306 0aff B1060000 		.4byte	.LASF164
 2307 0b03 20       		.byte	0x20
 2308 0b04 16       		.byte	0x16
ARM GAS  /tmp/ccs4ODSO.s 			page 42


 2309 0b05 4C       		.byte	0x4c
 2310 0b06 990B0000 		.4byte	0xb99
 2311 0b0a 09       		.uleb128 0x9
 2312 0b0b 85040000 		.4byte	.LASF165
 2313 0b0f 16       		.byte	0x16
 2314 0b10 4D       		.byte	0x4d
 2315 0b11 EF000000 		.4byte	0xef
 2316 0b15 00       		.byte	0
 2317 0b16 09       		.uleb128 0x9
 2318 0b17 5F040000 		.4byte	.LASF166
 2319 0b1b 16       		.byte	0x16
 2320 0b1c 4E       		.byte	0x4e
 2321 0b1d EF000000 		.4byte	0xef
 2322 0b21 02       		.byte	0x2
 2323 0b22 09       		.uleb128 0x9
 2324 0b23 F7020000 		.4byte	.LASF167
 2325 0b27 16       		.byte	0x16
 2326 0b28 4F       		.byte	0x4f
 2327 0b29 FA000000 		.4byte	0xfa
 2328 0b2d 04       		.byte	0x4
 2329 0b2e 09       		.uleb128 0x9
 2330 0b2f AF010000 		.4byte	.LASF168
 2331 0b33 16       		.byte	0x16
 2332 0b34 50       		.byte	0x50
 2333 0b35 E4000000 		.4byte	0xe4
 2334 0b39 08       		.byte	0x8
 2335 0b3a 09       		.uleb128 0x9
 2336 0b3b AC0A0000 		.4byte	.LASF169
 2337 0b3f 16       		.byte	0x16
 2338 0b40 51       		.byte	0x51
 2339 0b41 E4000000 		.4byte	0xe4
 2340 0b45 0A       		.byte	0xa
 2341 0b46 09       		.uleb128 0x9
 2342 0b47 58000000 		.4byte	.LASF170
 2343 0b4b 16       		.byte	0x16
 2344 0b4c 52       		.byte	0x52
 2345 0b4d E4000000 		.4byte	0xe4
 2346 0b51 0C       		.byte	0xc
 2347 0b52 0A       		.uleb128 0xa
 2348 0b53 706100   		.ascii	"pa\000"
 2349 0b56 16       		.byte	0x16
 2350 0b57 53       		.byte	0x53
 2351 0b58 330A0000 		.4byte	0xa33
 2352 0b5c 0E       		.byte	0xe
 2353 0b5d 0A       		.uleb128 0xa
 2354 0b5e 706200   		.ascii	"pb\000"
 2355 0b61 16       		.byte	0x16
 2356 0b62 54       		.byte	0x54
 2357 0b63 330A0000 		.4byte	0xa33
 2358 0b67 0F       		.byte	0xf
 2359 0b68 09       		.uleb128 0x9
 2360 0b69 29090000 		.4byte	.LASF171
 2361 0b6d 16       		.byte	0x16
 2362 0b6e 55       		.byte	0x55
 2363 0b6f 9B060000 		.4byte	0x69b
 2364 0b73 10       		.byte	0x10
 2365 0b74 09       		.uleb128 0x9
ARM GAS  /tmp/ccs4ODSO.s 			page 43


 2366 0b75 BB010000 		.4byte	.LASF172
 2367 0b79 16       		.byte	0x16
 2368 0b7a 56       		.byte	0x56
 2369 0b7b E4000000 		.4byte	0xe4
 2370 0b7f 14       		.byte	0x14
 2371 0b80 09       		.uleb128 0x9
 2372 0b81 72030000 		.4byte	.LASF173
 2373 0b85 16       		.byte	0x16
 2374 0b86 57       		.byte	0x57
 2375 0b87 9B060000 		.4byte	0x69b
 2376 0b8b 18       		.byte	0x18
 2377 0b8c 09       		.uleb128 0x9
 2378 0b8d 7B090000 		.4byte	.LASF174
 2379 0b91 16       		.byte	0x16
 2380 0b92 58       		.byte	0x58
 2381 0b93 E4000000 		.4byte	0xe4
 2382 0b97 1C       		.byte	0x1c
 2383 0b98 00       		.byte	0
 2384 0b99 02       		.uleb128 0x2
 2385 0b9a AD040000 		.4byte	.LASF175
 2386 0b9e 16       		.byte	0x16
 2387 0b9f 59       		.byte	0x59
 2388 0ba0 FE0A0000 		.4byte	0xafe
 2389 0ba4 19       		.uleb128 0x19
 2390 0ba5 01       		.byte	0x1
 2391 0ba6 17       		.byte	0x17
 2392 0ba7 46       		.byte	0x46
 2393 0ba8 EA0B0000 		.4byte	0xbea
 2394 0bac 1A       		.uleb128 0x1a
 2395 0bad 3B070000 		.4byte	.LASF176
 2396 0bb1 00       		.sleb128 0
 2397 0bb2 1A       		.uleb128 0x1a
 2398 0bb3 49070000 		.4byte	.LASF177
 2399 0bb7 01       		.sleb128 1
 2400 0bb8 1A       		.uleb128 0x1a
 2401 0bb9 57070000 		.4byte	.LASF178
 2402 0bbd 02       		.sleb128 2
 2403 0bbe 1A       		.uleb128 0x1a
 2404 0bbf 65070000 		.4byte	.LASF179
 2405 0bc3 03       		.sleb128 3
 2406 0bc4 1A       		.uleb128 0x1a
 2407 0bc5 73070000 		.4byte	.LASF180
 2408 0bc9 04       		.sleb128 4
 2409 0bca 1A       		.uleb128 0x1a
 2410 0bcb 81070000 		.4byte	.LASF181
 2411 0bcf 05       		.sleb128 5
 2412 0bd0 1A       		.uleb128 0x1a
 2413 0bd1 8F070000 		.4byte	.LASF182
 2414 0bd5 06       		.sleb128 6
 2415 0bd6 1A       		.uleb128 0x1a
 2416 0bd7 9D070000 		.4byte	.LASF183
 2417 0bdb 07       		.sleb128 7
 2418 0bdc 1A       		.uleb128 0x1a
 2419 0bdd E0030000 		.4byte	.LASF184
 2420 0be1 08       		.sleb128 8
 2421 0be2 1A       		.uleb128 0x1a
 2422 0be3 F7070000 		.4byte	.LASF185
ARM GAS  /tmp/ccs4ODSO.s 			page 44


 2423 0be7 E300     		.sleb128 99
 2424 0be9 00       		.byte	0
 2425 0bea 06       		.uleb128 0x6
 2426 0beb 04       		.byte	0x4
 2427 0bec CB090000 		.4byte	0x9cb
 2428 0bf0 06       		.uleb128 0x6
 2429 0bf1 04       		.byte	0x4
 2430 0bf2 C1000000 		.4byte	0xc1
 2431 0bf6 19       		.uleb128 0x19
 2432 0bf7 01       		.byte	0x1
 2433 0bf8 01       		.byte	0x1
 2434 0bf9 3E       		.byte	0x3e
 2435 0bfa 170C0000 		.4byte	0xc17
 2436 0bfe 1A       		.uleb128 0x1a
 2437 0bff 15000000 		.4byte	.LASF186
 2438 0c03 00       		.sleb128 0
 2439 0c04 1A       		.uleb128 0x1a
 2440 0c05 91090000 		.4byte	.LASF187
 2441 0c09 01       		.sleb128 1
 2442 0c0a 1A       		.uleb128 0x1a
 2443 0c0b B8040000 		.4byte	.LASF188
 2444 0c0f 02       		.sleb128 2
 2445 0c10 1A       		.uleb128 0x1a
 2446 0c11 940A0000 		.4byte	.LASF189
 2447 0c15 03       		.sleb128 3
 2448 0c16 00       		.byte	0
 2449 0c17 02       		.uleb128 0x2
 2450 0c18 EA030000 		.4byte	.LASF190
 2451 0c1c 01       		.byte	0x1
 2452 0c1d 43       		.byte	0x43
 2453 0c1e F60B0000 		.4byte	0xbf6
 2454 0c22 1B       		.uleb128 0x1b
 2455 0c23 83010000 		.4byte	.LASF193
 2456 0c27 01       		.byte	0x1
 2457 0c28 C9       		.byte	0xc9
 2458 0c29 00000000 		.4byte	.LFB65
 2459 0c2d 6C000000 		.4byte	.LFE65-.LFB65
 2460 0c31 01       		.uleb128 0x1
 2461 0c32 9C       		.byte	0x9c
 2462 0c33 840C0000 		.4byte	0xc84
 2463 0c37 1C       		.uleb128 0x1c
 2464 0c38 6F010000 		.4byte	.LASF191
 2465 0c3c 01       		.byte	0x1
 2466 0c3d C9       		.byte	0xc9
 2467 0c3e 2E070000 		.4byte	0x72e
 2468 0c42 00000000 		.4byte	.LLST0
 2469 0c46 1C       		.uleb128 0x1c
 2470 0c47 2C070000 		.4byte	.LASF192
 2471 0c4b 01       		.byte	0x1
 2472 0c4c C9       		.byte	0xc9
 2473 0c4d 02070000 		.4byte	0x702
 2474 0c51 21000000 		.4byte	.LLST1
 2475 0c55 1D       		.uleb128 0x1d
 2476 0c56 02000000 		.4byte	.LBB2
 2477 0c5a 06000000 		.4byte	.LBE2-.LBB2
 2478 0c5e 700C0000 		.4byte	0xc70
 2479 0c62 1E       		.uleb128 0x1e
ARM GAS  /tmp/ccs4ODSO.s 			page 45


 2480 0c63 746D7000 		.ascii	"tmp\000"
 2481 0c67 01       		.byte	0x1
 2482 0c68 CE       		.byte	0xce
 2483 0c69 05010000 		.4byte	0x105
 2484 0c6d 01       		.uleb128 0x1
 2485 0c6e 53       		.byte	0x53
 2486 0c6f 00       		.byte	0
 2487 0c70 1F       		.uleb128 0x1f
 2488 0c71 00000000 		.4byte	.Ldebug_ranges0+0
 2489 0c75 1E       		.uleb128 0x1e
 2490 0c76 746D7000 		.ascii	"tmp\000"
 2491 0c7a 01       		.byte	0x1
 2492 0c7b D8       		.byte	0xd8
 2493 0c7c 05010000 		.4byte	0x105
 2494 0c80 01       		.uleb128 0x1
 2495 0c81 53       		.byte	0x53
 2496 0c82 00       		.byte	0
 2497 0c83 00       		.byte	0
 2498 0c84 1B       		.uleb128 0x1b
 2499 0c85 F9090000 		.4byte	.LASF194
 2500 0c89 01       		.byte	0x1
 2501 0c8a 5E       		.byte	0x5e
 2502 0c8b 00000000 		.4byte	.LFB63
 2503 0c8f 86000000 		.4byte	.LFE63-.LFB63
 2504 0c93 01       		.uleb128 0x1
 2505 0c94 9C       		.byte	0x9c
 2506 0c95 F50C0000 		.4byte	0xcf5
 2507 0c99 1C       		.uleb128 0x1c
 2508 0c9a 8C090000 		.4byte	.LASF195
 2509 0c9e 01       		.byte	0x1
 2510 0c9f 5E       		.byte	0x5e
 2511 0ca0 35080000 		.4byte	0x835
 2512 0ca4 42000000 		.4byte	.LLST2
 2513 0ca8 1D       		.uleb128 0x1d
 2514 0ca9 02000000 		.4byte	.LBB5
 2515 0cad 06000000 		.4byte	.LBE5-.LBB5
 2516 0cb1 C30C0000 		.4byte	0xcc3
 2517 0cb5 1E       		.uleb128 0x1e
 2518 0cb6 746D7000 		.ascii	"tmp\000"
 2519 0cba 01       		.byte	0x1
 2520 0cbb 62       		.byte	0x62
 2521 0cbc 05010000 		.4byte	0x105
 2522 0cc0 01       		.uleb128 0x1
 2523 0cc1 53       		.byte	0x53
 2524 0cc2 00       		.byte	0
 2525 0cc3 20       		.uleb128 0x20
 2526 0cc4 18000000 		.4byte	.Ldebug_ranges0+0x18
 2527 0cc8 DA0C0000 		.4byte	0xcda
 2528 0ccc 1E       		.uleb128 0x1e
 2529 0ccd 746D7000 		.ascii	"tmp\000"
 2530 0cd1 01       		.byte	0x1
 2531 0cd2 72       		.byte	0x72
 2532 0cd3 05010000 		.4byte	0x105
 2533 0cd7 01       		.uleb128 0x1
 2534 0cd8 53       		.byte	0x53
 2535 0cd9 00       		.byte	0
 2536 0cda 21       		.uleb128 0x21
ARM GAS  /tmp/ccs4ODSO.s 			page 46


 2537 0cdb 6E000000 		.4byte	.LVL7
 2538 0cdf F0100000 		.4byte	0x10f0
 2539 0ce3 22       		.uleb128 0x22
 2540 0ce4 7E000000 		.4byte	.LVL8
 2541 0ce8 06110000 		.4byte	0x1106
 2542 0cec 23       		.uleb128 0x23
 2543 0ced 01       		.uleb128 0x1
 2544 0cee 51       		.byte	0x51
 2545 0cef 03       		.uleb128 0x3
 2546 0cf0 0A       		.byte	0xa
 2547 0cf1 409C     		.2byte	0x9c40
 2548 0cf3 00       		.byte	0
 2549 0cf4 00       		.byte	0
 2550 0cf5 24       		.uleb128 0x24
 2551 0cf6 5B090000 		.4byte	.LASF196
 2552 0cfa 01       		.byte	0x1
 2553 0cfb E3       		.byte	0xe3
 2554 0cfc 00000000 		.4byte	.LFB66
 2555 0d00 80000000 		.4byte	.LFE66-.LFB66
 2556 0d04 01       		.uleb128 0x1
 2557 0d05 9C       		.byte	0x9c
 2558 0d06 860D0000 		.4byte	0xd86
 2559 0d0a 1C       		.uleb128 0x1c
 2560 0d0b 2C070000 		.4byte	.LASF192
 2561 0d0f 01       		.byte	0x1
 2562 0d10 E3       		.byte	0xe3
 2563 0d11 F30A0000 		.4byte	0xaf3
 2564 0d15 7C000000 		.4byte	.LLST3
 2565 0d19 25       		.uleb128 0x25
 2566 0d1a 706100   		.ascii	"pa\000"
 2567 0d1d 01       		.byte	0x1
 2568 0d1e E3       		.byte	0xe3
 2569 0d1f 330A0000 		.4byte	0xa33
 2570 0d23 9D000000 		.4byte	.LLST4
 2571 0d27 25       		.uleb128 0x25
 2572 0d28 706200   		.ascii	"pb\000"
 2573 0d2b 01       		.byte	0x1
 2574 0d2c E3       		.byte	0xe3
 2575 0d2d 330A0000 		.4byte	0xa33
 2576 0d31 BE000000 		.4byte	.LLST5
 2577 0d35 26       		.uleb128 0x26
 2578 0d36 22000000 		.4byte	.LVL12
 2579 0d3a 1C110000 		.4byte	0x111c
 2580 0d3e 4E0D0000 		.4byte	0xd4e
 2581 0d42 23       		.uleb128 0x23
 2582 0d43 01       		.uleb128 0x1
 2583 0d44 51       		.byte	0x51
 2584 0d45 01       		.uleb128 0x1
 2585 0d46 31       		.byte	0x31
 2586 0d47 23       		.uleb128 0x23
 2587 0d48 01       		.uleb128 0x1
 2588 0d49 50       		.byte	0x50
 2589 0d4a 02       		.uleb128 0x2
 2590 0d4b 74       		.byte	0x74
 2591 0d4c 00       		.sleb128 0
 2592 0d4d 00       		.byte	0
 2593 0d4e 26       		.uleb128 0x26
ARM GAS  /tmp/ccs4ODSO.s 			page 47


 2594 0d4f 50000000 		.4byte	.LVL13
 2595 0d53 1C110000 		.4byte	0x111c
 2596 0d57 670D0000 		.4byte	0xd67
 2597 0d5b 23       		.uleb128 0x23
 2598 0d5c 01       		.uleb128 0x1
 2599 0d5d 51       		.byte	0x51
 2600 0d5e 01       		.uleb128 0x1
 2601 0d5f 30       		.byte	0x30
 2602 0d60 23       		.uleb128 0x23
 2603 0d61 01       		.uleb128 0x1
 2604 0d62 50       		.byte	0x50
 2605 0d63 02       		.uleb128 0x2
 2606 0d64 76       		.byte	0x76
 2607 0d65 00       		.sleb128 0
 2608 0d66 00       		.byte	0
 2609 0d67 22       		.uleb128 0x22
 2610 0d68 78000000 		.4byte	.LVL14
 2611 0d6c 32110000 		.4byte	0x1132
 2612 0d70 23       		.uleb128 0x23
 2613 0d71 01       		.uleb128 0x1
 2614 0d72 53       		.byte	0x53
 2615 0d73 05       		.uleb128 0x5
 2616 0d74 03       		.byte	0x3
 2617 0d75 00000000 		.4byte	_vs_echo_cb
 2618 0d79 23       		.uleb128 0x23
 2619 0d7a 01       		.uleb128 0x1
 2620 0d7b 52       		.byte	0x52
 2621 0d7c 01       		.uleb128 0x1
 2622 0d7d 33       		.byte	0x33
 2623 0d7e 23       		.uleb128 0x23
 2624 0d7f 01       		.uleb128 0x1
 2625 0d80 50       		.byte	0x50
 2626 0d81 02       		.uleb128 0x2
 2627 0d82 74       		.byte	0x74
 2628 0d83 00       		.sleb128 0
 2629 0d84 00       		.byte	0
 2630 0d85 00       		.byte	0
 2631 0d86 27       		.uleb128 0x27
 2632 0d87 FE080000 		.4byte	.LASF197
 2633 0d8b 01       		.byte	0x1
 2634 0d8c 0601     		.2byte	0x106
 2635 0d8e 00000000 		.4byte	.LFB67
 2636 0d92 24000000 		.4byte	.LFE67-.LFB67
 2637 0d96 01       		.uleb128 0x1
 2638 0d97 9C       		.byte	0x9c
 2639 0d98 B60D0000 		.4byte	0xdb6
 2640 0d9c 28       		.uleb128 0x28
 2641 0d9d 2C070000 		.4byte	.LASF192
 2642 0da1 01       		.byte	0x1
 2643 0da2 0601     		.2byte	0x106
 2644 0da4 F30A0000 		.4byte	0xaf3
 2645 0da8 DF000000 		.4byte	.LLST6
 2646 0dac 29       		.uleb128 0x29
 2647 0dad 24000000 		.4byte	.LVL17
 2648 0db1 52110000 		.4byte	0x1152
 2649 0db5 00       		.byte	0
 2650 0db6 27       		.uleb128 0x27
ARM GAS  /tmp/ccs4ODSO.s 			page 48


 2651 0db7 ED010000 		.4byte	.LASF198
 2652 0dbb 01       		.byte	0x1
 2653 0dbc 1401     		.2byte	0x114
 2654 0dbe 00000000 		.4byte	.LFB68
 2655 0dc2 24000000 		.4byte	.LFE68-.LFB68
 2656 0dc6 01       		.uleb128 0x1
 2657 0dc7 9C       		.byte	0x9c
 2658 0dc8 E60D0000 		.4byte	0xde6
 2659 0dcc 28       		.uleb128 0x28
 2660 0dcd 2C070000 		.4byte	.LASF192
 2661 0dd1 01       		.byte	0x1
 2662 0dd2 1401     		.2byte	0x114
 2663 0dd4 F30A0000 		.4byte	0xaf3
 2664 0dd8 00010000 		.4byte	.LLST7
 2665 0ddc 29       		.uleb128 0x29
 2666 0ddd 24000000 		.4byte	.LVL20
 2667 0de1 68110000 		.4byte	0x1168
 2668 0de5 00       		.byte	0
 2669 0de6 27       		.uleb128 0x27
 2670 0de7 7A050000 		.4byte	.LASF199
 2671 0deb 01       		.byte	0x1
 2672 0dec 2101     		.2byte	0x121
 2673 0dee 00000000 		.4byte	.LFB69
 2674 0df2 14000000 		.4byte	.LFE69-.LFB69
 2675 0df6 01       		.uleb128 0x1
 2676 0df7 9C       		.byte	0x9c
 2677 0df8 140E0000 		.4byte	0xe14
 2678 0dfc 2A       		.uleb128 0x2a
 2679 0dfd 6300     		.ascii	"c\000"
 2680 0dff 01       		.byte	0x1
 2681 0e00 2301     		.2byte	0x123
 2682 0e02 F30A0000 		.4byte	0xaf3
 2683 0e06 21010000 		.4byte	.LLST8
 2684 0e0a 21       		.uleb128 0x21
 2685 0e0b 0E000000 		.4byte	.LVL24
 2686 0e0f 860D0000 		.4byte	0xd86
 2687 0e13 00       		.byte	0
 2688 0e14 27       		.uleb128 0x27
 2689 0e15 2D080000 		.4byte	.LASF200
 2690 0e19 01       		.byte	0x1
 2691 0e1a 2E01     		.2byte	0x12e
 2692 0e1c 00000000 		.4byte	.LFB70
 2693 0e20 52000000 		.4byte	.LFE70-.LFB70
 2694 0e24 01       		.uleb128 0x1
 2695 0e25 9C       		.byte	0x9c
 2696 0e26 640E0000 		.4byte	0xe64
 2697 0e2a 2B       		.uleb128 0x2b
 2698 0e2b 6300     		.ascii	"c\000"
 2699 0e2d 01       		.byte	0x1
 2700 0e2e 3001     		.2byte	0x130
 2701 0e30 F30A0000 		.4byte	0xaf3
 2702 0e34 22       		.uleb128 0x22
 2703 0e35 4C000000 		.4byte	.LVL26
 2704 0e39 7E110000 		.4byte	0x117e
 2705 0e3d 23       		.uleb128 0x23
 2706 0e3e 01       		.uleb128 0x1
 2707 0e3f 53       		.byte	0x53
ARM GAS  /tmp/ccs4ODSO.s 			page 49


 2708 0e40 05       		.uleb128 0x5
 2709 0e41 03       		.byte	0x3
 2710 0e42 00000000 		.4byte	VexSonarTask
 2711 0e46 23       		.uleb128 0x23
 2712 0e47 01       		.uleb128 0x1
 2713 0e48 52       		.byte	0x52
 2714 0e49 02       		.uleb128 0x2
 2715 0e4a 08       		.byte	0x8
 2716 0e4b 48       		.byte	0x48
 2717 0e4c 23       		.uleb128 0x23
 2718 0e4d 01       		.uleb128 0x1
 2719 0e4e 51       		.byte	0x51
 2720 0e4f 03       		.uleb128 0x3
 2721 0e50 0A       		.byte	0xa
 2722 0e51 8001     		.2byte	0x180
 2723 0e53 23       		.uleb128 0x23
 2724 0e54 01       		.uleb128 0x1
 2725 0e55 50       		.byte	0x50
 2726 0e56 05       		.uleb128 0x5
 2727 0e57 03       		.byte	0x3
 2728 0e58 00000000 		.4byte	.LANCHOR4
 2729 0e5c 23       		.uleb128 0x23
 2730 0e5d 02       		.uleb128 0x2
 2731 0e5e 7D       		.byte	0x7d
 2732 0e5f 00       		.sleb128 0
 2733 0e60 01       		.uleb128 0x1
 2734 0e61 30       		.byte	0x30
 2735 0e62 00       		.byte	0
 2736 0e63 00       		.byte	0
 2737 0e64 27       		.uleb128 0x27
 2738 0e65 FF030000 		.4byte	.LASF201
 2739 0e69 01       		.byte	0x1
 2740 0e6a 4801     		.2byte	0x148
 2741 0e6c 00000000 		.4byte	.LFB71
 2742 0e70 40000000 		.4byte	.LFE71-.LFB71
 2743 0e74 01       		.uleb128 0x1
 2744 0e75 9C       		.byte	0x9c
 2745 0e76 AD0E0000 		.4byte	0xead
 2746 0e7a 28       		.uleb128 0x28
 2747 0e7b 2C070000 		.4byte	.LASF192
 2748 0e7f 01       		.byte	0x1
 2749 0e80 4801     		.2byte	0x148
 2750 0e82 F30A0000 		.4byte	0xaf3
 2751 0e86 56010000 		.4byte	.LLST9
 2752 0e8a 26       		.uleb128 0x26
 2753 0e8b 22000000 		.4byte	.LVL29
 2754 0e8f F0100000 		.4byte	0x10f0
 2755 0e93 9D0E0000 		.4byte	0xe9d
 2756 0e97 23       		.uleb128 0x23
 2757 0e98 01       		.uleb128 0x1
 2758 0e99 51       		.byte	0x51
 2759 0e9a 01       		.uleb128 0x1
 2760 0e9b 31       		.byte	0x31
 2761 0e9c 00       		.byte	0
 2762 0e9d 2C       		.uleb128 0x2c
 2763 0e9e 40000000 		.4byte	.LVL30
 2764 0ea2 A8110000 		.4byte	0x11a8
ARM GAS  /tmp/ccs4ODSO.s 			page 50


 2765 0ea6 23       		.uleb128 0x23
 2766 0ea7 01       		.uleb128 0x1
 2767 0ea8 51       		.byte	0x51
 2768 0ea9 01       		.uleb128 0x1
 2769 0eaa 3A       		.byte	0x3a
 2770 0eab 00       		.byte	0
 2771 0eac 00       		.byte	0
 2772 0ead 2D       		.uleb128 0x2d
 2773 0eae 5A030000 		.4byte	.LASF234
 2774 0eb2 01       		.byte	0x1
 2775 0eb3 88       		.byte	0x88
 2776 0eb4 59010000 		.4byte	0x159
 2777 0eb8 00000000 		.4byte	.LFB64
 2778 0ebc 16010000 		.4byte	.LFE64-.LFB64
 2779 0ec0 01       		.uleb128 0x1
 2780 0ec1 9C       		.byte	0x9c
 2781 0ec2 1F0F0000 		.4byte	0xf1f
 2782 0ec6 25       		.uleb128 0x25
 2783 0ec7 61726700 		.ascii	"arg\000"
 2784 0ecb 01       		.byte	0x1
 2785 0ecc 88       		.byte	0x88
 2786 0ecd BF000000 		.4byte	0xbf
 2787 0ed1 77010000 		.4byte	.LLST10
 2788 0ed5 2E       		.uleb128 0x2e
 2789 0ed6 6300     		.ascii	"c\000"
 2790 0ed8 01       		.byte	0x1
 2791 0ed9 8A       		.byte	0x8a
 2792 0eda F30A0000 		.4byte	0xaf3
 2793 0ede 98010000 		.4byte	.LLST11
 2794 0ee2 26       		.uleb128 0x26
 2795 0ee3 2E000000 		.4byte	.LVL33
 2796 0ee7 BE110000 		.4byte	0x11be
 2797 0eeb F90E0000 		.4byte	0xef9
 2798 0eef 23       		.uleb128 0x23
 2799 0ef0 01       		.uleb128 0x1
 2800 0ef1 51       		.byte	0x51
 2801 0ef2 05       		.uleb128 0x5
 2802 0ef3 03       		.byte	0x3
 2803 0ef4 00000000 		.4byte	.LANCHOR5
 2804 0ef8 00       		.byte	0
 2805 0ef9 26       		.uleb128 0x26
 2806 0efa 84000000 		.4byte	.LVL34
 2807 0efe D4110000 		.4byte	0x11d4
 2808 0f02 0C0F0000 		.4byte	0xf0c
 2809 0f06 23       		.uleb128 0x23
 2810 0f07 01       		.uleb128 0x1
 2811 0f08 50       		.byte	0x50
 2812 0f09 01       		.uleb128 0x1
 2813 0f0a 49       		.byte	0x49
 2814 0f0b 00       		.byte	0
 2815 0f0c 21       		.uleb128 0x21
 2816 0f0d 98000000 		.4byte	.LVL35
 2817 0f11 640E0000 		.4byte	0xe64
 2818 0f15 21       		.uleb128 0x21
 2819 0f16 A0000000 		.4byte	.LVL36
 2820 0f1a E6110000 		.4byte	0x11e6
 2821 0f1e 00       		.byte	0
ARM GAS  /tmp/ccs4ODSO.s 			page 51


 2822 0f1f 2F       		.uleb128 0x2f
 2823 0f20 730A0000 		.4byte	.LASF202
 2824 0f24 01       		.byte	0x1
 2825 0f25 5801     		.2byte	0x158
 2826 0f27 E4000000 		.4byte	0xe4
 2827 0f2b 00000000 		.4byte	.LFB72
 2828 0f2f 1C000000 		.4byte	.LFE72-.LFB72
 2829 0f33 01       		.uleb128 0x1
 2830 0f34 9C       		.byte	0x9c
 2831 0f35 4A0F0000 		.4byte	0xf4a
 2832 0f39 28       		.uleb128 0x28
 2833 0f3a 2C070000 		.4byte	.LASF192
 2834 0f3e 01       		.byte	0x1
 2835 0f3f 5801     		.2byte	0x158
 2836 0f41 F30A0000 		.4byte	0xaf3
 2837 0f45 CA010000 		.4byte	.LLST12
 2838 0f49 00       		.byte	0
 2839 0f4a 2F       		.uleb128 0x2f
 2840 0f4b 35040000 		.4byte	.LASF203
 2841 0f4f 01       		.byte	0x1
 2842 0f50 6801     		.2byte	0x168
 2843 0f52 E4000000 		.4byte	0xe4
 2844 0f56 00000000 		.4byte	.LFB73
 2845 0f5a 1C000000 		.4byte	.LFE73-.LFB73
 2846 0f5e 01       		.uleb128 0x1
 2847 0f5f 9C       		.byte	0x9c
 2848 0f60 750F0000 		.4byte	0xf75
 2849 0f64 28       		.uleb128 0x28
 2850 0f65 2C070000 		.4byte	.LASF192
 2851 0f69 01       		.byte	0x1
 2852 0f6a 6801     		.2byte	0x168
 2853 0f6c F30A0000 		.4byte	0xaf3
 2854 0f70 EB010000 		.4byte	.LLST13
 2855 0f74 00       		.byte	0
 2856 0f75 27       		.uleb128 0x27
 2857 0f76 52010000 		.4byte	.LASF204
 2858 0f7a 01       		.byte	0x1
 2859 0f7b 7901     		.2byte	0x179
 2860 0f7d 00000000 		.4byte	.LFB74
 2861 0f81 60000000 		.4byte	.LFE74-.LFB74
 2862 0f85 01       		.uleb128 0x1
 2863 0f86 9C       		.byte	0x9c
 2864 0f87 06100000 		.4byte	0x1006
 2865 0f8b 30       		.uleb128 0x30
 2866 0f8c 63687000 		.ascii	"chp\000"
 2867 0f90 01       		.byte	0x1
 2868 0f91 7901     		.2byte	0x179
 2869 0f93 EA0B0000 		.4byte	0xbea
 2870 0f97 0C020000 		.4byte	.LLST14
 2871 0f9b 28       		.uleb128 0x28
 2872 0f9c 5A060000 		.4byte	.LASF205
 2873 0fa0 01       		.byte	0x1
 2874 0fa1 7901     		.2byte	0x179
 2875 0fa3 37000000 		.4byte	0x37
 2876 0fa7 38020000 		.4byte	.LLST15
 2877 0fab 28       		.uleb128 0x28
 2878 0fac A5060000 		.4byte	.LASF206
ARM GAS  /tmp/ccs4ODSO.s 			page 52


 2879 0fb0 01       		.byte	0x1
 2880 0fb1 7901     		.2byte	0x179
 2881 0fb3 F00B0000 		.4byte	0xbf0
 2882 0fb7 59020000 		.4byte	.LLST16
 2883 0fbb 2A       		.uleb128 0x2a
 2884 0fbc 6300     		.ascii	"c\000"
 2885 0fbe 01       		.byte	0x1
 2886 0fbf 7E01     		.2byte	0x17e
 2887 0fc1 F30A0000 		.4byte	0xaf3
 2888 0fc5 7A020000 		.4byte	.LLST17
 2889 0fc9 26       		.uleb128 0x26
 2890 0fca 2E000000 		.4byte	.LVL47
 2891 0fce F8110000 		.4byte	0x11f8
 2892 0fd2 EC0F0000 		.4byte	0xfec
 2893 0fd6 23       		.uleb128 0x23
 2894 0fd7 01       		.uleb128 0x1
 2895 0fd8 52       		.byte	0x52
 2896 0fd9 02       		.uleb128 0x2
 2897 0fda 76       		.byte	0x76
 2898 0fdb 00       		.sleb128 0
 2899 0fdc 23       		.uleb128 0x23
 2900 0fdd 01       		.uleb128 0x1
 2901 0fde 51       		.byte	0x51
 2902 0fdf 05       		.uleb128 0x5
 2903 0fe0 03       		.byte	0x3
 2904 0fe1 08000000 		.4byte	.LC1
 2905 0fe5 23       		.uleb128 0x23
 2906 0fe6 01       		.uleb128 0x1
 2907 0fe7 50       		.byte	0x50
 2908 0fe8 02       		.uleb128 0x2
 2909 0fe9 77       		.byte	0x77
 2910 0fea 00       		.sleb128 0
 2911 0feb 00       		.byte	0
 2912 0fec 22       		.uleb128 0x22
 2913 0fed 4C000000 		.4byte	.LVL49
 2914 0ff1 F8110000 		.4byte	0x11f8
 2915 0ff5 23       		.uleb128 0x23
 2916 0ff6 01       		.uleb128 0x1
 2917 0ff7 51       		.byte	0x51
 2918 0ff8 05       		.uleb128 0x5
 2919 0ff9 03       		.byte	0x3
 2920 0ffa 18000000 		.4byte	.LC2
 2921 0ffe 23       		.uleb128 0x23
 2922 0fff 01       		.uleb128 0x1
 2923 1000 50       		.byte	0x50
 2924 1001 02       		.uleb128 0x2
 2925 1002 77       		.byte	0x77
 2926 1003 00       		.sleb128 0
 2927 1004 00       		.byte	0
 2928 1005 00       		.byte	0
 2929 1006 14       		.uleb128 0x14
 2930 1007 990B0000 		.4byte	0xb99
 2931 100b 16100000 		.4byte	0x1016
 2932 100f 15       		.uleb128 0x15
 2933 1010 B8000000 		.4byte	0xb8
 2934 1014 04       		.byte	0x4
 2935 1015 00       		.byte	0
ARM GAS  /tmp/ccs4ODSO.s 			page 53


 2936 1016 31       		.uleb128 0x31
 2937 1017 BD050000 		.4byte	.LASF207
 2938 101b 01       		.byte	0x1
 2939 101c 45       		.byte	0x45
 2940 101d 06100000 		.4byte	0x1006
 2941 1021 05       		.uleb128 0x5
 2942 1022 03       		.byte	0x3
 2943 1023 00000000 		.4byte	vexSonars
 2944 1027 32       		.uleb128 0x32
 2945 1028 35020000 		.4byte	.LASF208
 2946 102c 01       		.byte	0x1
 2947 102d 4A       		.byte	0x4a
 2948 102e 32100000 		.4byte	0x1032
 2949 1032 07       		.uleb128 0x7
 2950 1033 35080000 		.4byte	0x835
 2951 1037 31       		.uleb128 0x31
 2952 1038 C2070000 		.4byte	.LASF209
 2953 103c 01       		.byte	0x1
 2954 103d 4C       		.byte	0x4c
 2955 103e F30A0000 		.4byte	0xaf3
 2956 1042 05       		.uleb128 0x5
 2957 1043 03       		.byte	0x3
 2958 1044 00000000 		.4byte	nextSonar
 2959 1048 31       		.uleb128 0x31
 2960 1049 22070000 		.4byte	.LASF210
 2961 104d 01       		.byte	0x1
 2962 104e 4D       		.byte	0x4d
 2963 104f 170C0000 		.4byte	0xc17
 2964 1053 05       		.uleb128 0x5
 2965 1054 03       		.byte	0x3
 2966 1055 00000000 		.4byte	nextState
 2967 1059 31       		.uleb128 0x31
 2968 105a 94040000 		.4byte	.LASF211
 2969 105e 01       		.byte	0x1
 2970 105f 4E       		.byte	0x4e
 2971 1060 A3020000 		.4byte	0x2a3
 2972 1064 05       		.uleb128 0x5
 2973 1065 03       		.byte	0x3
 2974 1066 00000000 		.4byte	vexSonarThread
 2975 106a 31       		.uleb128 0x31
 2976 106b 31000000 		.4byte	.LASF212
 2977 106f 01       		.byte	0x1
 2978 1070 7A       		.byte	0x7a
 2979 1071 C0090000 		.4byte	0x9c0
 2980 1075 05       		.uleb128 0x5
 2981 1076 03       		.byte	0x3
 2982 1077 00000000 		.4byte	vexSonarGpt
 2983 107b 14       		.uleb128 0x14
 2984 107c DF020000 		.4byte	0x2df
 2985 1080 8B100000 		.4byte	0x108b
 2986 1084 15       		.uleb128 0x15
 2987 1085 B8000000 		.4byte	0xb8
 2988 1089 2F       		.byte	0x2f
 2989 108a 00       		.byte	0
 2990 108b 31       		.uleb128 0x31
 2991 108c 6E040000 		.4byte	.LASF213
 2992 1090 01       		.byte	0x1
ARM GAS  /tmp/ccs4ODSO.s 			page 54


 2993 1091 86       		.byte	0x86
 2994 1092 7B100000 		.4byte	0x107b
 2995 1096 05       		.uleb128 0x5
 2996 1097 03       		.byte	0x3
 2997 1098 00000000 		.4byte	waVexSonarTask
 2998 109c 33       		.uleb128 0x33
 2999 109d 3A010000 		.4byte	.LASF214
 3000 10a1 09       		.byte	0x9
 3001 10a2 F5       		.byte	0xf5
 3002 10a3 40040000 		.4byte	0x440
 3003 10a7 33       		.uleb128 0x33
 3004 10a8 53080000 		.4byte	.LASF215
 3005 10ac 0A       		.byte	0xa
 3006 10ad 6F       		.byte	0x6f
 3007 10ae 9C040000 		.4byte	0x49c
 3008 10b2 34       		.uleb128 0x34
 3009 10b3 07080000 		.4byte	.LASF216
 3010 10b7 18       		.byte	0x18
 3011 10b8 0706     		.2byte	0x607
 3012 10ba 25060000 		.4byte	0x625
 3013 10be 33       		.uleb128 0x33
 3014 10bf 24050000 		.4byte	.LASF217
 3015 10c3 10       		.byte	0x10
 3016 10c4 86       		.byte	0x86
 3017 10c5 D2060000 		.4byte	0x6d2
 3018 10c9 34       		.uleb128 0x34
 3019 10ca ED040000 		.4byte	.LASF218
 3020 10ce 12       		.byte	0x12
 3021 10cf D001     		.2byte	0x1d0
 3022 10d1 CC070000 		.4byte	0x7cc
 3023 10d5 14       		.uleb128 0x14
 3024 10d6 BB0A0000 		.4byte	0xabb
 3025 10da E5100000 		.4byte	0x10e5
 3026 10de 15       		.uleb128 0x15
 3027 10df B8000000 		.4byte	0xb8
 3028 10e3 0B       		.byte	0xb
 3029 10e4 00       		.byte	0
 3030 10e5 33       		.uleb128 0x33
 3031 10e6 B7080000 		.4byte	.LASF219
 3032 10ea 15       		.byte	0x15
 3033 10eb BE       		.byte	0xbe
 3034 10ec D5100000 		.4byte	0x10d5
 3035 10f0 35       		.uleb128 0x35
 3036 10f1 CF030000 		.4byte	.LASF220
 3037 10f5 15       		.byte	0x15
 3038 10f6 C3       		.byte	0xc3
 3039 10f7 06110000 		.4byte	0x1106
 3040 10fb 10       		.uleb128 0x10
 3041 10fc 330A0000 		.4byte	0xa33
 3042 1100 10       		.uleb128 0x10
 3043 1101 730A0000 		.4byte	0xa73
 3044 1105 00       		.byte	0
 3045 1106 35       		.uleb128 0x35
 3046 1107 8C000000 		.4byte	.LASF221
 3047 110b 11       		.byte	0x11
 3048 110c 76       		.byte	0x76
 3049 110d 1C110000 		.4byte	0x111c
ARM GAS  /tmp/ccs4ODSO.s 			page 55


 3050 1111 10       		.uleb128 0x10
 3051 1112 35080000 		.4byte	0x835
 3052 1116 10       		.uleb128 0x10
 3053 1117 71090000 		.4byte	0x971
 3054 111b 00       		.byte	0
 3055 111c 35       		.uleb128 0x35
 3056 111d 8A060000 		.4byte	.LASF222
 3057 1121 15       		.byte	0x15
 3058 1122 C1       		.byte	0xc1
 3059 1123 32110000 		.4byte	0x1132
 3060 1127 10       		.uleb128 0x10
 3061 1128 330A0000 		.4byte	0xa33
 3062 112c 10       		.uleb128 0x10
 3063 112d 530A0000 		.4byte	0xa53
 3064 1131 00       		.byte	0
 3065 1132 35       		.uleb128 0x35
 3066 1133 810A0000 		.4byte	.LASF223
 3067 1137 15       		.byte	0x15
 3068 1138 CC       		.byte	0xcc
 3069 1139 52110000 		.4byte	0x1152
 3070 113d 10       		.uleb128 0x10
 3071 113e 9B060000 		.4byte	0x69b
 3072 1142 10       		.uleb128 0x10
 3073 1143 EF000000 		.4byte	0xef
 3074 1147 10       		.uleb128 0x10
 3075 1148 05010000 		.4byte	0x105
 3076 114c 10       		.uleb128 0x10
 3077 114d 0D070000 		.4byte	0x70d
 3078 1151 00       		.byte	0
 3079 1152 35       		.uleb128 0x35
 3080 1153 3E020000 		.4byte	.LASF224
 3081 1157 0F       		.byte	0xf
 3082 1158 94       		.byte	0x94
 3083 1159 68110000 		.4byte	0x1168
 3084 115d 10       		.uleb128 0x10
 3085 115e 2E070000 		.4byte	0x72e
 3086 1162 10       		.uleb128 0x10
 3087 1163 02070000 		.4byte	0x702
 3088 1167 00       		.byte	0
 3089 1168 35       		.uleb128 0x35
 3090 1169 CD040000 		.4byte	.LASF225
 3091 116d 0F       		.byte	0xf
 3092 116e 95       		.byte	0x95
 3093 116f 7E110000 		.4byte	0x117e
 3094 1173 10       		.uleb128 0x10
 3095 1174 2E070000 		.4byte	0x72e
 3096 1178 10       		.uleb128 0x10
 3097 1179 02070000 		.4byte	0x702
 3098 117d 00       		.byte	0
 3099 117e 36       		.uleb128 0x36
 3100 117f 48060000 		.4byte	.LASF235
 3101 1183 07       		.byte	0x7
 3102 1184 7001     		.2byte	0x170
 3103 1186 A3020000 		.4byte	0x2a3
 3104 118a A8110000 		.4byte	0x11a8
 3105 118e 10       		.uleb128 0x10
 3106 118f BF000000 		.4byte	0xbf
ARM GAS  /tmp/ccs4ODSO.s 			page 56


 3107 1193 10       		.uleb128 0x10
 3108 1194 25000000 		.4byte	0x25
 3109 1198 10       		.uleb128 0x10
 3110 1199 4E010000 		.4byte	0x14e
 3111 119d 10       		.uleb128 0x10
 3112 119e 24050000 		.4byte	0x524
 3113 11a2 10       		.uleb128 0x10
 3114 11a3 BF000000 		.4byte	0xbf
 3115 11a7 00       		.byte	0
 3116 11a8 35       		.uleb128 0x35
 3117 11a9 0B010000 		.4byte	.LASF226
 3118 11ad 11       		.byte	0x11
 3119 11ae 75       		.byte	0x75
 3120 11af BE110000 		.4byte	0x11be
 3121 11b3 10       		.uleb128 0x10
 3122 11b4 35080000 		.4byte	0x835
 3123 11b8 10       		.uleb128 0x10
 3124 11b9 71090000 		.4byte	0x971
 3125 11bd 00       		.byte	0
 3126 11be 35       		.uleb128 0x35
 3127 11bf 9C060000 		.4byte	.LASF227
 3128 11c3 11       		.byte	0x11
 3129 11c4 70       		.byte	0x70
 3130 11c5 D4110000 		.4byte	0x11d4
 3131 11c9 10       		.uleb128 0x10
 3132 11ca 35080000 		.4byte	0x835
 3133 11ce 10       		.uleb128 0x10
 3134 11cf BA090000 		.4byte	0x9ba
 3135 11d3 00       		.byte	0
 3136 11d4 37       		.uleb128 0x37
 3137 11d5 4D000000 		.4byte	.LASF228
 3138 11d9 07       		.byte	0x7
 3139 11da 7501     		.2byte	0x175
 3140 11dc E6110000 		.4byte	0x11e6
 3141 11e0 10       		.uleb128 0x10
 3142 11e1 6F010000 		.4byte	0x16f
 3143 11e5 00       		.byte	0
 3144 11e6 37       		.uleb128 0x37
 3145 11e7 4A030000 		.4byte	.LASF229
 3146 11eb 07       		.byte	0x7
 3147 11ec 7601     		.2byte	0x176
 3148 11ee F8110000 		.4byte	0x11f8
 3149 11f2 10       		.uleb128 0x10
 3150 11f3 6F010000 		.4byte	0x16f
 3151 11f7 00       		.byte	0
 3152 11f8 38       		.uleb128 0x38
 3153 11f9 B5070000 		.4byte	.LASF230
 3154 11fd 19       		.byte	0x19
 3155 11fe 3B       		.byte	0x3b
 3156 11ff 37000000 		.4byte	0x37
 3157 1203 10       		.uleb128 0x10
 3158 1204 EA0B0000 		.4byte	0xbea
 3159 1208 10       		.uleb128 0x10
 3160 1209 CE000000 		.4byte	0xce
 3161 120d 39       		.uleb128 0x39
 3162 120e 00       		.byte	0
 3163 120f 00       		.byte	0
ARM GAS  /tmp/ccs4ODSO.s 			page 57


 3164              		.section	.debug_abbrev,"",%progbits
 3165              	.Ldebug_abbrev0:
 3166 0000 01       		.uleb128 0x1
 3167 0001 11       		.uleb128 0x11
 3168 0002 01       		.byte	0x1
 3169 0003 25       		.uleb128 0x25
 3170 0004 0E       		.uleb128 0xe
 3171 0005 13       		.uleb128 0x13
 3172 0006 0B       		.uleb128 0xb
 3173 0007 03       		.uleb128 0x3
 3174 0008 0E       		.uleb128 0xe
 3175 0009 1B       		.uleb128 0x1b
 3176 000a 0E       		.uleb128 0xe
 3177 000b 55       		.uleb128 0x55
 3178 000c 17       		.uleb128 0x17
 3179 000d 11       		.uleb128 0x11
 3180 000e 01       		.uleb128 0x1
 3181 000f 10       		.uleb128 0x10
 3182 0010 17       		.uleb128 0x17
 3183 0011 00       		.byte	0
 3184 0012 00       		.byte	0
 3185 0013 02       		.uleb128 0x2
 3186 0014 16       		.uleb128 0x16
 3187 0015 00       		.byte	0
 3188 0016 03       		.uleb128 0x3
 3189 0017 0E       		.uleb128 0xe
 3190 0018 3A       		.uleb128 0x3a
 3191 0019 0B       		.uleb128 0xb
 3192 001a 3B       		.uleb128 0x3b
 3193 001b 0B       		.uleb128 0xb
 3194 001c 49       		.uleb128 0x49
 3195 001d 13       		.uleb128 0x13
 3196 001e 00       		.byte	0
 3197 001f 00       		.byte	0
 3198 0020 03       		.uleb128 0x3
 3199 0021 24       		.uleb128 0x24
 3200 0022 00       		.byte	0
 3201 0023 0B       		.uleb128 0xb
 3202 0024 0B       		.uleb128 0xb
 3203 0025 3E       		.uleb128 0x3e
 3204 0026 0B       		.uleb128 0xb
 3205 0027 03       		.uleb128 0x3
 3206 0028 0E       		.uleb128 0xe
 3207 0029 00       		.byte	0
 3208 002a 00       		.byte	0
 3209 002b 04       		.uleb128 0x4
 3210 002c 24       		.uleb128 0x24
 3211 002d 00       		.byte	0
 3212 002e 0B       		.uleb128 0xb
 3213 002f 0B       		.uleb128 0xb
 3214 0030 3E       		.uleb128 0x3e
 3215 0031 0B       		.uleb128 0xb
 3216 0032 03       		.uleb128 0x3
 3217 0033 08       		.uleb128 0x8
 3218 0034 00       		.byte	0
 3219 0035 00       		.byte	0
 3220 0036 05       		.uleb128 0x5
ARM GAS  /tmp/ccs4ODSO.s 			page 58


 3221 0037 0F       		.uleb128 0xf
 3222 0038 00       		.byte	0
 3223 0039 0B       		.uleb128 0xb
 3224 003a 0B       		.uleb128 0xb
 3225 003b 00       		.byte	0
 3226 003c 00       		.byte	0
 3227 003d 06       		.uleb128 0x6
 3228 003e 0F       		.uleb128 0xf
 3229 003f 00       		.byte	0
 3230 0040 0B       		.uleb128 0xb
 3231 0041 0B       		.uleb128 0xb
 3232 0042 49       		.uleb128 0x49
 3233 0043 13       		.uleb128 0x13
 3234 0044 00       		.byte	0
 3235 0045 00       		.byte	0
 3236 0046 07       		.uleb128 0x7
 3237 0047 26       		.uleb128 0x26
 3238 0048 00       		.byte	0
 3239 0049 49       		.uleb128 0x49
 3240 004a 13       		.uleb128 0x13
 3241 004b 00       		.byte	0
 3242 004c 00       		.byte	0
 3243 004d 08       		.uleb128 0x8
 3244 004e 13       		.uleb128 0x13
 3245 004f 01       		.byte	0x1
 3246 0050 03       		.uleb128 0x3
 3247 0051 0E       		.uleb128 0xe
 3248 0052 0B       		.uleb128 0xb
 3249 0053 0B       		.uleb128 0xb
 3250 0054 3A       		.uleb128 0x3a
 3251 0055 0B       		.uleb128 0xb
 3252 0056 3B       		.uleb128 0x3b
 3253 0057 0B       		.uleb128 0xb
 3254 0058 01       		.uleb128 0x1
 3255 0059 13       		.uleb128 0x13
 3256 005a 00       		.byte	0
 3257 005b 00       		.byte	0
 3258 005c 09       		.uleb128 0x9
 3259 005d 0D       		.uleb128 0xd
 3260 005e 00       		.byte	0
 3261 005f 03       		.uleb128 0x3
 3262 0060 0E       		.uleb128 0xe
 3263 0061 3A       		.uleb128 0x3a
 3264 0062 0B       		.uleb128 0xb
 3265 0063 3B       		.uleb128 0x3b
 3266 0064 0B       		.uleb128 0xb
 3267 0065 49       		.uleb128 0x49
 3268 0066 13       		.uleb128 0x13
 3269 0067 38       		.uleb128 0x38
 3270 0068 0B       		.uleb128 0xb
 3271 0069 00       		.byte	0
 3272 006a 00       		.byte	0
 3273 006b 0A       		.uleb128 0xa
 3274 006c 0D       		.uleb128 0xd
 3275 006d 00       		.byte	0
 3276 006e 03       		.uleb128 0x3
 3277 006f 08       		.uleb128 0x8
ARM GAS  /tmp/ccs4ODSO.s 			page 59


 3278 0070 3A       		.uleb128 0x3a
 3279 0071 0B       		.uleb128 0xb
 3280 0072 3B       		.uleb128 0x3b
 3281 0073 0B       		.uleb128 0xb
 3282 0074 49       		.uleb128 0x49
 3283 0075 13       		.uleb128 0x13
 3284 0076 38       		.uleb128 0x38
 3285 0077 0B       		.uleb128 0xb
 3286 0078 00       		.byte	0
 3287 0079 00       		.byte	0
 3288 007a 0B       		.uleb128 0xb
 3289 007b 13       		.uleb128 0x13
 3290 007c 01       		.byte	0x1
 3291 007d 0B       		.uleb128 0xb
 3292 007e 0B       		.uleb128 0xb
 3293 007f 3A       		.uleb128 0x3a
 3294 0080 0B       		.uleb128 0xb
 3295 0081 3B       		.uleb128 0x3b
 3296 0082 0B       		.uleb128 0xb
 3297 0083 01       		.uleb128 0x1
 3298 0084 13       		.uleb128 0x13
 3299 0085 00       		.byte	0
 3300 0086 00       		.byte	0
 3301 0087 0C       		.uleb128 0xc
 3302 0088 13       		.uleb128 0x13
 3303 0089 01       		.byte	0x1
 3304 008a 03       		.uleb128 0x3
 3305 008b 0E       		.uleb128 0xe
 3306 008c 0B       		.uleb128 0xb
 3307 008d 0B       		.uleb128 0xb
 3308 008e 3A       		.uleb128 0x3a
 3309 008f 0B       		.uleb128 0xb
 3310 0090 3B       		.uleb128 0x3b
 3311 0091 05       		.uleb128 0x5
 3312 0092 01       		.uleb128 0x1
 3313 0093 13       		.uleb128 0x13
 3314 0094 00       		.byte	0
 3315 0095 00       		.byte	0
 3316 0096 0D       		.uleb128 0xd
 3317 0097 0D       		.uleb128 0xd
 3318 0098 00       		.byte	0
 3319 0099 03       		.uleb128 0x3
 3320 009a 08       		.uleb128 0x8
 3321 009b 3A       		.uleb128 0x3a
 3322 009c 0B       		.uleb128 0xb
 3323 009d 3B       		.uleb128 0x3b
 3324 009e 05       		.uleb128 0x5
 3325 009f 49       		.uleb128 0x49
 3326 00a0 13       		.uleb128 0x13
 3327 00a1 38       		.uleb128 0x38
 3328 00a2 0B       		.uleb128 0xb
 3329 00a3 00       		.byte	0
 3330 00a4 00       		.byte	0
 3331 00a5 0E       		.uleb128 0xe
 3332 00a6 35       		.uleb128 0x35
 3333 00a7 00       		.byte	0
 3334 00a8 49       		.uleb128 0x49
ARM GAS  /tmp/ccs4ODSO.s 			page 60


 3335 00a9 13       		.uleb128 0x13
 3336 00aa 00       		.byte	0
 3337 00ab 00       		.byte	0
 3338 00ac 0F       		.uleb128 0xf
 3339 00ad 15       		.uleb128 0x15
 3340 00ae 01       		.byte	0x1
 3341 00af 27       		.uleb128 0x27
 3342 00b0 19       		.uleb128 0x19
 3343 00b1 01       		.uleb128 0x1
 3344 00b2 13       		.uleb128 0x13
 3345 00b3 00       		.byte	0
 3346 00b4 00       		.byte	0
 3347 00b5 10       		.uleb128 0x10
 3348 00b6 05       		.uleb128 0x5
 3349 00b7 00       		.byte	0
 3350 00b8 49       		.uleb128 0x49
 3351 00b9 13       		.uleb128 0x13
 3352 00ba 00       		.byte	0
 3353 00bb 00       		.byte	0
 3354 00bc 11       		.uleb128 0x11
 3355 00bd 17       		.uleb128 0x17
 3356 00be 01       		.byte	0x1
 3357 00bf 0B       		.uleb128 0xb
 3358 00c0 0B       		.uleb128 0xb
 3359 00c1 3A       		.uleb128 0x3a
 3360 00c2 0B       		.uleb128 0xb
 3361 00c3 3B       		.uleb128 0x3b
 3362 00c4 0B       		.uleb128 0xb
 3363 00c5 01       		.uleb128 0x1
 3364 00c6 13       		.uleb128 0x13
 3365 00c7 00       		.byte	0
 3366 00c8 00       		.byte	0
 3367 00c9 12       		.uleb128 0x12
 3368 00ca 0D       		.uleb128 0xd
 3369 00cb 00       		.byte	0
 3370 00cc 03       		.uleb128 0x3
 3371 00cd 0E       		.uleb128 0xe
 3372 00ce 3A       		.uleb128 0x3a
 3373 00cf 0B       		.uleb128 0xb
 3374 00d0 3B       		.uleb128 0x3b
 3375 00d1 0B       		.uleb128 0xb
 3376 00d2 49       		.uleb128 0x49
 3377 00d3 13       		.uleb128 0x13
 3378 00d4 00       		.byte	0
 3379 00d5 00       		.byte	0
 3380 00d6 13       		.uleb128 0x13
 3381 00d7 15       		.uleb128 0x15
 3382 00d8 01       		.byte	0x1
 3383 00d9 27       		.uleb128 0x27
 3384 00da 19       		.uleb128 0x19
 3385 00db 49       		.uleb128 0x49
 3386 00dc 13       		.uleb128 0x13
 3387 00dd 01       		.uleb128 0x1
 3388 00de 13       		.uleb128 0x13
 3389 00df 00       		.byte	0
 3390 00e0 00       		.byte	0
 3391 00e1 14       		.uleb128 0x14
ARM GAS  /tmp/ccs4ODSO.s 			page 61


 3392 00e2 01       		.uleb128 0x1
 3393 00e3 01       		.byte	0x1
 3394 00e4 49       		.uleb128 0x49
 3395 00e5 13       		.uleb128 0x13
 3396 00e6 01       		.uleb128 0x1
 3397 00e7 13       		.uleb128 0x13
 3398 00e8 00       		.byte	0
 3399 00e9 00       		.byte	0
 3400 00ea 15       		.uleb128 0x15
 3401 00eb 21       		.uleb128 0x21
 3402 00ec 00       		.byte	0
 3403 00ed 49       		.uleb128 0x49
 3404 00ee 13       		.uleb128 0x13
 3405 00ef 2F       		.uleb128 0x2f
 3406 00f0 0B       		.uleb128 0xb
 3407 00f1 00       		.byte	0
 3408 00f2 00       		.byte	0
 3409 00f3 16       		.uleb128 0x16
 3410 00f4 13       		.uleb128 0x13
 3411 00f5 01       		.byte	0x1
 3412 00f6 0B       		.uleb128 0xb
 3413 00f7 0B       		.uleb128 0xb
 3414 00f8 3A       		.uleb128 0x3a
 3415 00f9 0B       		.uleb128 0xb
 3416 00fa 3B       		.uleb128 0x3b
 3417 00fb 05       		.uleb128 0x5
 3418 00fc 01       		.uleb128 0x1
 3419 00fd 13       		.uleb128 0x13
 3420 00fe 00       		.byte	0
 3421 00ff 00       		.byte	0
 3422 0100 17       		.uleb128 0x17
 3423 0101 0D       		.uleb128 0xd
 3424 0102 00       		.byte	0
 3425 0103 03       		.uleb128 0x3
 3426 0104 0E       		.uleb128 0xe
 3427 0105 3A       		.uleb128 0x3a
 3428 0106 0B       		.uleb128 0xb
 3429 0107 3B       		.uleb128 0x3b
 3430 0108 05       		.uleb128 0x5
 3431 0109 49       		.uleb128 0x49
 3432 010a 13       		.uleb128 0x13
 3433 010b 38       		.uleb128 0x38
 3434 010c 0B       		.uleb128 0xb
 3435 010d 00       		.byte	0
 3436 010e 00       		.byte	0
 3437 010f 18       		.uleb128 0x18
 3438 0110 16       		.uleb128 0x16
 3439 0111 00       		.byte	0
 3440 0112 03       		.uleb128 0x3
 3441 0113 0E       		.uleb128 0xe
 3442 0114 3A       		.uleb128 0x3a
 3443 0115 0B       		.uleb128 0xb
 3444 0116 3B       		.uleb128 0x3b
 3445 0117 05       		.uleb128 0x5
 3446 0118 49       		.uleb128 0x49
 3447 0119 13       		.uleb128 0x13
 3448 011a 00       		.byte	0
ARM GAS  /tmp/ccs4ODSO.s 			page 62


 3449 011b 00       		.byte	0
 3450 011c 19       		.uleb128 0x19
 3451 011d 04       		.uleb128 0x4
 3452 011e 01       		.byte	0x1
 3453 011f 0B       		.uleb128 0xb
 3454 0120 0B       		.uleb128 0xb
 3455 0121 3A       		.uleb128 0x3a
 3456 0122 0B       		.uleb128 0xb
 3457 0123 3B       		.uleb128 0x3b
 3458 0124 0B       		.uleb128 0xb
 3459 0125 01       		.uleb128 0x1
 3460 0126 13       		.uleb128 0x13
 3461 0127 00       		.byte	0
 3462 0128 00       		.byte	0
 3463 0129 1A       		.uleb128 0x1a
 3464 012a 28       		.uleb128 0x28
 3465 012b 00       		.byte	0
 3466 012c 03       		.uleb128 0x3
 3467 012d 0E       		.uleb128 0xe
 3468 012e 1C       		.uleb128 0x1c
 3469 012f 0D       		.uleb128 0xd
 3470 0130 00       		.byte	0
 3471 0131 00       		.byte	0
 3472 0132 1B       		.uleb128 0x1b
 3473 0133 2E       		.uleb128 0x2e
 3474 0134 01       		.byte	0x1
 3475 0135 03       		.uleb128 0x3
 3476 0136 0E       		.uleb128 0xe
 3477 0137 3A       		.uleb128 0x3a
 3478 0138 0B       		.uleb128 0xb
 3479 0139 3B       		.uleb128 0x3b
 3480 013a 0B       		.uleb128 0xb
 3481 013b 27       		.uleb128 0x27
 3482 013c 19       		.uleb128 0x19
 3483 013d 11       		.uleb128 0x11
 3484 013e 01       		.uleb128 0x1
 3485 013f 12       		.uleb128 0x12
 3486 0140 06       		.uleb128 0x6
 3487 0141 40       		.uleb128 0x40
 3488 0142 18       		.uleb128 0x18
 3489 0143 9742     		.uleb128 0x2117
 3490 0145 19       		.uleb128 0x19
 3491 0146 01       		.uleb128 0x1
 3492 0147 13       		.uleb128 0x13
 3493 0148 00       		.byte	0
 3494 0149 00       		.byte	0
 3495 014a 1C       		.uleb128 0x1c
 3496 014b 05       		.uleb128 0x5
 3497 014c 00       		.byte	0
 3498 014d 03       		.uleb128 0x3
 3499 014e 0E       		.uleb128 0xe
 3500 014f 3A       		.uleb128 0x3a
 3501 0150 0B       		.uleb128 0xb
 3502 0151 3B       		.uleb128 0x3b
 3503 0152 0B       		.uleb128 0xb
 3504 0153 49       		.uleb128 0x49
 3505 0154 13       		.uleb128 0x13
ARM GAS  /tmp/ccs4ODSO.s 			page 63


 3506 0155 02       		.uleb128 0x2
 3507 0156 17       		.uleb128 0x17
 3508 0157 00       		.byte	0
 3509 0158 00       		.byte	0
 3510 0159 1D       		.uleb128 0x1d
 3511 015a 0B       		.uleb128 0xb
 3512 015b 01       		.byte	0x1
 3513 015c 11       		.uleb128 0x11
 3514 015d 01       		.uleb128 0x1
 3515 015e 12       		.uleb128 0x12
 3516 015f 06       		.uleb128 0x6
 3517 0160 01       		.uleb128 0x1
 3518 0161 13       		.uleb128 0x13
 3519 0162 00       		.byte	0
 3520 0163 00       		.byte	0
 3521 0164 1E       		.uleb128 0x1e
 3522 0165 34       		.uleb128 0x34
 3523 0166 00       		.byte	0
 3524 0167 03       		.uleb128 0x3
 3525 0168 08       		.uleb128 0x8
 3526 0169 3A       		.uleb128 0x3a
 3527 016a 0B       		.uleb128 0xb
 3528 016b 3B       		.uleb128 0x3b
 3529 016c 0B       		.uleb128 0xb
 3530 016d 49       		.uleb128 0x49
 3531 016e 13       		.uleb128 0x13
 3532 016f 02       		.uleb128 0x2
 3533 0170 18       		.uleb128 0x18
 3534 0171 00       		.byte	0
 3535 0172 00       		.byte	0
 3536 0173 1F       		.uleb128 0x1f
 3537 0174 0B       		.uleb128 0xb
 3538 0175 01       		.byte	0x1
 3539 0176 55       		.uleb128 0x55
 3540 0177 17       		.uleb128 0x17
 3541 0178 00       		.byte	0
 3542 0179 00       		.byte	0
 3543 017a 20       		.uleb128 0x20
 3544 017b 0B       		.uleb128 0xb
 3545 017c 01       		.byte	0x1
 3546 017d 55       		.uleb128 0x55
 3547 017e 17       		.uleb128 0x17
 3548 017f 01       		.uleb128 0x1
 3549 0180 13       		.uleb128 0x13
 3550 0181 00       		.byte	0
 3551 0182 00       		.byte	0
 3552 0183 21       		.uleb128 0x21
 3553 0184 898201   		.uleb128 0x4109
 3554 0187 00       		.byte	0
 3555 0188 11       		.uleb128 0x11
 3556 0189 01       		.uleb128 0x1
 3557 018a 31       		.uleb128 0x31
 3558 018b 13       		.uleb128 0x13
 3559 018c 00       		.byte	0
 3560 018d 00       		.byte	0
 3561 018e 22       		.uleb128 0x22
 3562 018f 898201   		.uleb128 0x4109
ARM GAS  /tmp/ccs4ODSO.s 			page 64


 3563 0192 01       		.byte	0x1
 3564 0193 11       		.uleb128 0x11
 3565 0194 01       		.uleb128 0x1
 3566 0195 31       		.uleb128 0x31
 3567 0196 13       		.uleb128 0x13
 3568 0197 00       		.byte	0
 3569 0198 00       		.byte	0
 3570 0199 23       		.uleb128 0x23
 3571 019a 8A8201   		.uleb128 0x410a
 3572 019d 00       		.byte	0
 3573 019e 02       		.uleb128 0x2
 3574 019f 18       		.uleb128 0x18
 3575 01a0 9142     		.uleb128 0x2111
 3576 01a2 18       		.uleb128 0x18
 3577 01a3 00       		.byte	0
 3578 01a4 00       		.byte	0
 3579 01a5 24       		.uleb128 0x24
 3580 01a6 2E       		.uleb128 0x2e
 3581 01a7 01       		.byte	0x1
 3582 01a8 3F       		.uleb128 0x3f
 3583 01a9 19       		.uleb128 0x19
 3584 01aa 03       		.uleb128 0x3
 3585 01ab 0E       		.uleb128 0xe
 3586 01ac 3A       		.uleb128 0x3a
 3587 01ad 0B       		.uleb128 0xb
 3588 01ae 3B       		.uleb128 0x3b
 3589 01af 0B       		.uleb128 0xb
 3590 01b0 27       		.uleb128 0x27
 3591 01b1 19       		.uleb128 0x19
 3592 01b2 11       		.uleb128 0x11
 3593 01b3 01       		.uleb128 0x1
 3594 01b4 12       		.uleb128 0x12
 3595 01b5 06       		.uleb128 0x6
 3596 01b6 40       		.uleb128 0x40
 3597 01b7 18       		.uleb128 0x18
 3598 01b8 9742     		.uleb128 0x2117
 3599 01ba 19       		.uleb128 0x19
 3600 01bb 01       		.uleb128 0x1
 3601 01bc 13       		.uleb128 0x13
 3602 01bd 00       		.byte	0
 3603 01be 00       		.byte	0
 3604 01bf 25       		.uleb128 0x25
 3605 01c0 05       		.uleb128 0x5
 3606 01c1 00       		.byte	0
 3607 01c2 03       		.uleb128 0x3
 3608 01c3 08       		.uleb128 0x8
 3609 01c4 3A       		.uleb128 0x3a
 3610 01c5 0B       		.uleb128 0xb
 3611 01c6 3B       		.uleb128 0x3b
 3612 01c7 0B       		.uleb128 0xb
 3613 01c8 49       		.uleb128 0x49
 3614 01c9 13       		.uleb128 0x13
 3615 01ca 02       		.uleb128 0x2
 3616 01cb 17       		.uleb128 0x17
 3617 01cc 00       		.byte	0
 3618 01cd 00       		.byte	0
 3619 01ce 26       		.uleb128 0x26
ARM GAS  /tmp/ccs4ODSO.s 			page 65


 3620 01cf 898201   		.uleb128 0x4109
 3621 01d2 01       		.byte	0x1
 3622 01d3 11       		.uleb128 0x11
 3623 01d4 01       		.uleb128 0x1
 3624 01d5 31       		.uleb128 0x31
 3625 01d6 13       		.uleb128 0x13
 3626 01d7 01       		.uleb128 0x1
 3627 01d8 13       		.uleb128 0x13
 3628 01d9 00       		.byte	0
 3629 01da 00       		.byte	0
 3630 01db 27       		.uleb128 0x27
 3631 01dc 2E       		.uleb128 0x2e
 3632 01dd 01       		.byte	0x1
 3633 01de 3F       		.uleb128 0x3f
 3634 01df 19       		.uleb128 0x19
 3635 01e0 03       		.uleb128 0x3
 3636 01e1 0E       		.uleb128 0xe
 3637 01e2 3A       		.uleb128 0x3a
 3638 01e3 0B       		.uleb128 0xb
 3639 01e4 3B       		.uleb128 0x3b
 3640 01e5 05       		.uleb128 0x5
 3641 01e6 27       		.uleb128 0x27
 3642 01e7 19       		.uleb128 0x19
 3643 01e8 11       		.uleb128 0x11
 3644 01e9 01       		.uleb128 0x1
 3645 01ea 12       		.uleb128 0x12
 3646 01eb 06       		.uleb128 0x6
 3647 01ec 40       		.uleb128 0x40
 3648 01ed 18       		.uleb128 0x18
 3649 01ee 9742     		.uleb128 0x2117
 3650 01f0 19       		.uleb128 0x19
 3651 01f1 01       		.uleb128 0x1
 3652 01f2 13       		.uleb128 0x13
 3653 01f3 00       		.byte	0
 3654 01f4 00       		.byte	0
 3655 01f5 28       		.uleb128 0x28
 3656 01f6 05       		.uleb128 0x5
 3657 01f7 00       		.byte	0
 3658 01f8 03       		.uleb128 0x3
 3659 01f9 0E       		.uleb128 0xe
 3660 01fa 3A       		.uleb128 0x3a
 3661 01fb 0B       		.uleb128 0xb
 3662 01fc 3B       		.uleb128 0x3b
 3663 01fd 05       		.uleb128 0x5
 3664 01fe 49       		.uleb128 0x49
 3665 01ff 13       		.uleb128 0x13
 3666 0200 02       		.uleb128 0x2
 3667 0201 17       		.uleb128 0x17
 3668 0202 00       		.byte	0
 3669 0203 00       		.byte	0
 3670 0204 29       		.uleb128 0x29
 3671 0205 898201   		.uleb128 0x4109
 3672 0208 00       		.byte	0
 3673 0209 11       		.uleb128 0x11
 3674 020a 01       		.uleb128 0x1
 3675 020b 9542     		.uleb128 0x2115
 3676 020d 19       		.uleb128 0x19
ARM GAS  /tmp/ccs4ODSO.s 			page 66


 3677 020e 31       		.uleb128 0x31
 3678 020f 13       		.uleb128 0x13
 3679 0210 00       		.byte	0
 3680 0211 00       		.byte	0
 3681 0212 2A       		.uleb128 0x2a
 3682 0213 34       		.uleb128 0x34
 3683 0214 00       		.byte	0
 3684 0215 03       		.uleb128 0x3
 3685 0216 08       		.uleb128 0x8
 3686 0217 3A       		.uleb128 0x3a
 3687 0218 0B       		.uleb128 0xb
 3688 0219 3B       		.uleb128 0x3b
 3689 021a 05       		.uleb128 0x5
 3690 021b 49       		.uleb128 0x49
 3691 021c 13       		.uleb128 0x13
 3692 021d 02       		.uleb128 0x2
 3693 021e 17       		.uleb128 0x17
 3694 021f 00       		.byte	0
 3695 0220 00       		.byte	0
 3696 0221 2B       		.uleb128 0x2b
 3697 0222 34       		.uleb128 0x34
 3698 0223 00       		.byte	0
 3699 0224 03       		.uleb128 0x3
 3700 0225 08       		.uleb128 0x8
 3701 0226 3A       		.uleb128 0x3a
 3702 0227 0B       		.uleb128 0xb
 3703 0228 3B       		.uleb128 0x3b
 3704 0229 05       		.uleb128 0x5
 3705 022a 49       		.uleb128 0x49
 3706 022b 13       		.uleb128 0x13
 3707 022c 00       		.byte	0
 3708 022d 00       		.byte	0
 3709 022e 2C       		.uleb128 0x2c
 3710 022f 898201   		.uleb128 0x4109
 3711 0232 01       		.byte	0x1
 3712 0233 11       		.uleb128 0x11
 3713 0234 01       		.uleb128 0x1
 3714 0235 9542     		.uleb128 0x2115
 3715 0237 19       		.uleb128 0x19
 3716 0238 31       		.uleb128 0x31
 3717 0239 13       		.uleb128 0x13
 3718 023a 00       		.byte	0
 3719 023b 00       		.byte	0
 3720 023c 2D       		.uleb128 0x2d
 3721 023d 2E       		.uleb128 0x2e
 3722 023e 01       		.byte	0x1
 3723 023f 03       		.uleb128 0x3
 3724 0240 0E       		.uleb128 0xe
 3725 0241 3A       		.uleb128 0x3a
 3726 0242 0B       		.uleb128 0xb
 3727 0243 3B       		.uleb128 0x3b
 3728 0244 0B       		.uleb128 0xb
 3729 0245 27       		.uleb128 0x27
 3730 0246 19       		.uleb128 0x19
 3731 0247 49       		.uleb128 0x49
 3732 0248 13       		.uleb128 0x13
 3733 0249 11       		.uleb128 0x11
ARM GAS  /tmp/ccs4ODSO.s 			page 67


 3734 024a 01       		.uleb128 0x1
 3735 024b 12       		.uleb128 0x12
 3736 024c 06       		.uleb128 0x6
 3737 024d 40       		.uleb128 0x40
 3738 024e 18       		.uleb128 0x18
 3739 024f 9742     		.uleb128 0x2117
 3740 0251 19       		.uleb128 0x19
 3741 0252 01       		.uleb128 0x1
 3742 0253 13       		.uleb128 0x13
 3743 0254 00       		.byte	0
 3744 0255 00       		.byte	0
 3745 0256 2E       		.uleb128 0x2e
 3746 0257 34       		.uleb128 0x34
 3747 0258 00       		.byte	0
 3748 0259 03       		.uleb128 0x3
 3749 025a 08       		.uleb128 0x8
 3750 025b 3A       		.uleb128 0x3a
 3751 025c 0B       		.uleb128 0xb
 3752 025d 3B       		.uleb128 0x3b
 3753 025e 0B       		.uleb128 0xb
 3754 025f 49       		.uleb128 0x49
 3755 0260 13       		.uleb128 0x13
 3756 0261 02       		.uleb128 0x2
 3757 0262 17       		.uleb128 0x17
 3758 0263 00       		.byte	0
 3759 0264 00       		.byte	0
 3760 0265 2F       		.uleb128 0x2f
 3761 0266 2E       		.uleb128 0x2e
 3762 0267 01       		.byte	0x1
 3763 0268 3F       		.uleb128 0x3f
 3764 0269 19       		.uleb128 0x19
 3765 026a 03       		.uleb128 0x3
 3766 026b 0E       		.uleb128 0xe
 3767 026c 3A       		.uleb128 0x3a
 3768 026d 0B       		.uleb128 0xb
 3769 026e 3B       		.uleb128 0x3b
 3770 026f 05       		.uleb128 0x5
 3771 0270 27       		.uleb128 0x27
 3772 0271 19       		.uleb128 0x19
 3773 0272 49       		.uleb128 0x49
 3774 0273 13       		.uleb128 0x13
 3775 0274 11       		.uleb128 0x11
 3776 0275 01       		.uleb128 0x1
 3777 0276 12       		.uleb128 0x12
 3778 0277 06       		.uleb128 0x6
 3779 0278 40       		.uleb128 0x40
 3780 0279 18       		.uleb128 0x18
 3781 027a 9742     		.uleb128 0x2117
 3782 027c 19       		.uleb128 0x19
 3783 027d 01       		.uleb128 0x1
 3784 027e 13       		.uleb128 0x13
 3785 027f 00       		.byte	0
 3786 0280 00       		.byte	0
 3787 0281 30       		.uleb128 0x30
 3788 0282 05       		.uleb128 0x5
 3789 0283 00       		.byte	0
 3790 0284 03       		.uleb128 0x3
ARM GAS  /tmp/ccs4ODSO.s 			page 68


 3791 0285 08       		.uleb128 0x8
 3792 0286 3A       		.uleb128 0x3a
 3793 0287 0B       		.uleb128 0xb
 3794 0288 3B       		.uleb128 0x3b
 3795 0289 05       		.uleb128 0x5
 3796 028a 49       		.uleb128 0x49
 3797 028b 13       		.uleb128 0x13
 3798 028c 02       		.uleb128 0x2
 3799 028d 17       		.uleb128 0x17
 3800 028e 00       		.byte	0
 3801 028f 00       		.byte	0
 3802 0290 31       		.uleb128 0x31
 3803 0291 34       		.uleb128 0x34
 3804 0292 00       		.byte	0
 3805 0293 03       		.uleb128 0x3
 3806 0294 0E       		.uleb128 0xe
 3807 0295 3A       		.uleb128 0x3a
 3808 0296 0B       		.uleb128 0xb
 3809 0297 3B       		.uleb128 0x3b
 3810 0298 0B       		.uleb128 0xb
 3811 0299 49       		.uleb128 0x49
 3812 029a 13       		.uleb128 0x13
 3813 029b 02       		.uleb128 0x2
 3814 029c 18       		.uleb128 0x18
 3815 029d 00       		.byte	0
 3816 029e 00       		.byte	0
 3817 029f 32       		.uleb128 0x32
 3818 02a0 34       		.uleb128 0x34
 3819 02a1 00       		.byte	0
 3820 02a2 03       		.uleb128 0x3
 3821 02a3 0E       		.uleb128 0xe
 3822 02a4 3A       		.uleb128 0x3a
 3823 02a5 0B       		.uleb128 0xb
 3824 02a6 3B       		.uleb128 0x3b
 3825 02a7 0B       		.uleb128 0xb
 3826 02a8 49       		.uleb128 0x49
 3827 02a9 13       		.uleb128 0x13
 3828 02aa 00       		.byte	0
 3829 02ab 00       		.byte	0
 3830 02ac 33       		.uleb128 0x33
 3831 02ad 34       		.uleb128 0x34
 3832 02ae 00       		.byte	0
 3833 02af 03       		.uleb128 0x3
 3834 02b0 0E       		.uleb128 0xe
 3835 02b1 3A       		.uleb128 0x3a
 3836 02b2 0B       		.uleb128 0xb
 3837 02b3 3B       		.uleb128 0x3b
 3838 02b4 0B       		.uleb128 0xb
 3839 02b5 49       		.uleb128 0x49
 3840 02b6 13       		.uleb128 0x13
 3841 02b7 3F       		.uleb128 0x3f
 3842 02b8 19       		.uleb128 0x19
 3843 02b9 3C       		.uleb128 0x3c
 3844 02ba 19       		.uleb128 0x19
 3845 02bb 00       		.byte	0
 3846 02bc 00       		.byte	0
 3847 02bd 34       		.uleb128 0x34
ARM GAS  /tmp/ccs4ODSO.s 			page 69


 3848 02be 34       		.uleb128 0x34
 3849 02bf 00       		.byte	0
 3850 02c0 03       		.uleb128 0x3
 3851 02c1 0E       		.uleb128 0xe
 3852 02c2 3A       		.uleb128 0x3a
 3853 02c3 0B       		.uleb128 0xb
 3854 02c4 3B       		.uleb128 0x3b
 3855 02c5 05       		.uleb128 0x5
 3856 02c6 49       		.uleb128 0x49
 3857 02c7 13       		.uleb128 0x13
 3858 02c8 3F       		.uleb128 0x3f
 3859 02c9 19       		.uleb128 0x19
 3860 02ca 3C       		.uleb128 0x3c
 3861 02cb 19       		.uleb128 0x19
 3862 02cc 00       		.byte	0
 3863 02cd 00       		.byte	0
 3864 02ce 35       		.uleb128 0x35
 3865 02cf 2E       		.uleb128 0x2e
 3866 02d0 01       		.byte	0x1
 3867 02d1 3F       		.uleb128 0x3f
 3868 02d2 19       		.uleb128 0x19
 3869 02d3 03       		.uleb128 0x3
 3870 02d4 0E       		.uleb128 0xe
 3871 02d5 3A       		.uleb128 0x3a
 3872 02d6 0B       		.uleb128 0xb
 3873 02d7 3B       		.uleb128 0x3b
 3874 02d8 0B       		.uleb128 0xb
 3875 02d9 27       		.uleb128 0x27
 3876 02da 19       		.uleb128 0x19
 3877 02db 3C       		.uleb128 0x3c
 3878 02dc 19       		.uleb128 0x19
 3879 02dd 01       		.uleb128 0x1
 3880 02de 13       		.uleb128 0x13
 3881 02df 00       		.byte	0
 3882 02e0 00       		.byte	0
 3883 02e1 36       		.uleb128 0x36
 3884 02e2 2E       		.uleb128 0x2e
 3885 02e3 01       		.byte	0x1
 3886 02e4 3F       		.uleb128 0x3f
 3887 02e5 19       		.uleb128 0x19
 3888 02e6 03       		.uleb128 0x3
 3889 02e7 0E       		.uleb128 0xe
 3890 02e8 3A       		.uleb128 0x3a
 3891 02e9 0B       		.uleb128 0xb
 3892 02ea 3B       		.uleb128 0x3b
 3893 02eb 05       		.uleb128 0x5
 3894 02ec 27       		.uleb128 0x27
 3895 02ed 19       		.uleb128 0x19
 3896 02ee 49       		.uleb128 0x49
 3897 02ef 13       		.uleb128 0x13
 3898 02f0 3C       		.uleb128 0x3c
 3899 02f1 19       		.uleb128 0x19
 3900 02f2 01       		.uleb128 0x1
 3901 02f3 13       		.uleb128 0x13
 3902 02f4 00       		.byte	0
 3903 02f5 00       		.byte	0
 3904 02f6 37       		.uleb128 0x37
ARM GAS  /tmp/ccs4ODSO.s 			page 70


 3905 02f7 2E       		.uleb128 0x2e
 3906 02f8 01       		.byte	0x1
 3907 02f9 3F       		.uleb128 0x3f
 3908 02fa 19       		.uleb128 0x19
 3909 02fb 03       		.uleb128 0x3
 3910 02fc 0E       		.uleb128 0xe
 3911 02fd 3A       		.uleb128 0x3a
 3912 02fe 0B       		.uleb128 0xb
 3913 02ff 3B       		.uleb128 0x3b
 3914 0300 05       		.uleb128 0x5
 3915 0301 27       		.uleb128 0x27
 3916 0302 19       		.uleb128 0x19
 3917 0303 3C       		.uleb128 0x3c
 3918 0304 19       		.uleb128 0x19
 3919 0305 01       		.uleb128 0x1
 3920 0306 13       		.uleb128 0x13
 3921 0307 00       		.byte	0
 3922 0308 00       		.byte	0
 3923 0309 38       		.uleb128 0x38
 3924 030a 2E       		.uleb128 0x2e
 3925 030b 01       		.byte	0x1
 3926 030c 3F       		.uleb128 0x3f
 3927 030d 19       		.uleb128 0x19
 3928 030e 03       		.uleb128 0x3
 3929 030f 0E       		.uleb128 0xe
 3930 0310 3A       		.uleb128 0x3a
 3931 0311 0B       		.uleb128 0xb
 3932 0312 3B       		.uleb128 0x3b
 3933 0313 0B       		.uleb128 0xb
 3934 0314 27       		.uleb128 0x27
 3935 0315 19       		.uleb128 0x19
 3936 0316 49       		.uleb128 0x49
 3937 0317 13       		.uleb128 0x13
 3938 0318 3C       		.uleb128 0x3c
 3939 0319 19       		.uleb128 0x19
 3940 031a 00       		.byte	0
 3941 031b 00       		.byte	0
 3942 031c 39       		.uleb128 0x39
 3943 031d 18       		.uleb128 0x18
 3944 031e 00       		.byte	0
 3945 031f 00       		.byte	0
 3946 0320 00       		.byte	0
 3947 0321 00       		.byte	0
 3948              		.section	.debug_loc,"",%progbits
 3949              	.Ldebug_loc0:
 3950              	.LLST0:
 3951 0000 00000000 		.4byte	.LVL0
 3952 0004 20000000 		.4byte	.LVL2
 3953 0008 0100     		.2byte	0x1
 3954 000a 50       		.byte	0x50
 3955 000b 20000000 		.4byte	.LVL2
 3956 000f 6C000000 		.4byte	.LFE65
 3957 0013 0400     		.2byte	0x4
 3958 0015 F3       		.byte	0xf3
 3959 0016 01       		.uleb128 0x1
 3960 0017 50       		.byte	0x50
 3961 0018 9F       		.byte	0x9f
ARM GAS  /tmp/ccs4ODSO.s 			page 71


 3962 0019 00000000 		.4byte	0
 3963 001d 00000000 		.4byte	0
 3964              	.LLST1:
 3965 0021 00000000 		.4byte	.LVL0
 3966 0025 12000000 		.4byte	.LVL1
 3967 0029 0100     		.2byte	0x1
 3968 002b 51       		.byte	0x51
 3969 002c 12000000 		.4byte	.LVL1
 3970 0030 6C000000 		.4byte	.LFE65
 3971 0034 0400     		.2byte	0x4
 3972 0036 F3       		.byte	0xf3
 3973 0037 01       		.uleb128 0x1
 3974 0038 51       		.byte	0x51
 3975 0039 9F       		.byte	0x9f
 3976 003a 00000000 		.4byte	0
 3977 003e 00000000 		.4byte	0
 3978              	.LLST2:
 3979 0042 00000000 		.4byte	.LVL3
 3980 0046 38000000 		.4byte	.LVL4
 3981 004a 0100     		.2byte	0x1
 3982 004c 50       		.byte	0x50
 3983 004d 38000000 		.4byte	.LVL4
 3984 0051 4C000000 		.4byte	.LVL5
 3985 0055 0400     		.2byte	0x4
 3986 0057 F3       		.byte	0xf3
 3987 0058 01       		.uleb128 0x1
 3988 0059 50       		.byte	0x50
 3989 005a 9F       		.byte	0x9f
 3990 005b 4C000000 		.4byte	.LVL5
 3991 005f 56000000 		.4byte	.LVL6
 3992 0063 0100     		.2byte	0x1
 3993 0065 50       		.byte	0x50
 3994 0066 56000000 		.4byte	.LVL6
 3995 006a 86000000 		.4byte	.LFE63
 3996 006e 0400     		.2byte	0x4
 3997 0070 F3       		.byte	0xf3
 3998 0071 01       		.uleb128 0x1
 3999 0072 50       		.byte	0x50
 4000 0073 9F       		.byte	0x9f
 4001 0074 00000000 		.4byte	0
 4002 0078 00000000 		.4byte	0
 4003              	.LLST3:
 4004 007c 00000000 		.4byte	.LVL9
 4005 0080 1C000000 		.4byte	.LVL10
 4006 0084 0100     		.2byte	0x1
 4007 0086 50       		.byte	0x50
 4008 0087 1C000000 		.4byte	.LVL10
 4009 008b 80000000 		.4byte	.LFE66
 4010 008f 0400     		.2byte	0x4
 4011 0091 F3       		.byte	0xf3
 4012 0092 01       		.uleb128 0x1
 4013 0093 50       		.byte	0x50
 4014 0094 9F       		.byte	0x9f
 4015 0095 00000000 		.4byte	0
 4016 0099 00000000 		.4byte	0
 4017              	.LLST4:
 4018 009d 00000000 		.4byte	.LVL9
ARM GAS  /tmp/ccs4ODSO.s 			page 72


 4019 00a1 1E000000 		.4byte	.LVL11
 4020 00a5 0100     		.2byte	0x1
 4021 00a7 51       		.byte	0x51
 4022 00a8 1E000000 		.4byte	.LVL11
 4023 00ac 80000000 		.4byte	.LFE66
 4024 00b0 0400     		.2byte	0x4
 4025 00b2 F3       		.byte	0xf3
 4026 00b3 01       		.uleb128 0x1
 4027 00b4 51       		.byte	0x51
 4028 00b5 9F       		.byte	0x9f
 4029 00b6 00000000 		.4byte	0
 4030 00ba 00000000 		.4byte	0
 4031              	.LLST5:
 4032 00be 00000000 		.4byte	.LVL9
 4033 00c2 21000000 		.4byte	.LVL12-1
 4034 00c6 0100     		.2byte	0x1
 4035 00c8 52       		.byte	0x52
 4036 00c9 21000000 		.4byte	.LVL12-1
 4037 00cd 80000000 		.4byte	.LFE66
 4038 00d1 0400     		.2byte	0x4
 4039 00d3 F3       		.byte	0xf3
 4040 00d4 01       		.uleb128 0x1
 4041 00d5 52       		.byte	0x52
 4042 00d6 9F       		.byte	0x9f
 4043 00d7 00000000 		.4byte	0
 4044 00db 00000000 		.4byte	0
 4045              	.LLST6:
 4046 00df 00000000 		.4byte	.LVL15
 4047 00e3 18000000 		.4byte	.LVL16
 4048 00e7 0100     		.2byte	0x1
 4049 00e9 50       		.byte	0x50
 4050 00ea 18000000 		.4byte	.LVL16
 4051 00ee 24000000 		.4byte	.LFE67
 4052 00f2 0400     		.2byte	0x4
 4053 00f4 F3       		.byte	0xf3
 4054 00f5 01       		.uleb128 0x1
 4055 00f6 50       		.byte	0x50
 4056 00f7 9F       		.byte	0x9f
 4057 00f8 00000000 		.4byte	0
 4058 00fc 00000000 		.4byte	0
 4059              	.LLST7:
 4060 0100 00000000 		.4byte	.LVL18
 4061 0104 18000000 		.4byte	.LVL19
 4062 0108 0100     		.2byte	0x1
 4063 010a 50       		.byte	0x50
 4064 010b 18000000 		.4byte	.LVL19
 4065 010f 24000000 		.4byte	.LFE68
 4066 0113 0400     		.2byte	0x4
 4067 0115 F3       		.byte	0xf3
 4068 0116 01       		.uleb128 0x1
 4069 0117 50       		.byte	0x50
 4070 0118 9F       		.byte	0x9f
 4071 0119 00000000 		.4byte	0
 4072 011d 00000000 		.4byte	0
 4073              	.LLST8:
 4074 0121 00000000 		.4byte	.LVL21
 4075 0125 04000000 		.4byte	.LVL22
ARM GAS  /tmp/ccs4ODSO.s 			page 73


 4076 0129 0200     		.2byte	0x2
 4077 012b 30       		.byte	0x30
 4078 012c 9F       		.byte	0x9f
 4079 012d 04000000 		.4byte	.LVL22
 4080 0131 08000000 		.4byte	.LVL23
 4081 0135 0100     		.2byte	0x1
 4082 0137 54       		.byte	0x54
 4083 0138 08000000 		.4byte	.LVL23
 4084 013c 0D000000 		.4byte	.LVL24-1
 4085 0140 0100     		.2byte	0x1
 4086 0142 50       		.byte	0x50
 4087 0143 0E000000 		.4byte	.LVL24
 4088 0147 14000000 		.4byte	.LFE69
 4089 014b 0100     		.2byte	0x1
 4090 014d 54       		.byte	0x54
 4091 014e 00000000 		.4byte	0
 4092 0152 00000000 		.4byte	0
 4093              	.LLST9:
 4094 0156 00000000 		.4byte	.LVL27
 4095 015a 0E000000 		.4byte	.LVL28
 4096 015e 0100     		.2byte	0x1
 4097 0160 50       		.byte	0x50
 4098 0161 0E000000 		.4byte	.LVL28
 4099 0165 40000000 		.4byte	.LFE71
 4100 0169 0400     		.2byte	0x4
 4101 016b F3       		.byte	0xf3
 4102 016c 01       		.uleb128 0x1
 4103 016d 50       		.byte	0x50
 4104 016e 9F       		.byte	0x9f
 4105 016f 00000000 		.4byte	0
 4106 0173 00000000 		.4byte	0
 4107              	.LLST10:
 4108 0177 00000000 		.4byte	.LVL31
 4109 017b 1C000000 		.4byte	.LVL32
 4110 017f 0100     		.2byte	0x1
 4111 0181 50       		.byte	0x50
 4112 0182 1C000000 		.4byte	.LVL32
 4113 0186 16010000 		.4byte	.LFE64
 4114 018a 0400     		.2byte	0x4
 4115 018c F3       		.byte	0xf3
 4116 018d 01       		.uleb128 0x1
 4117 018e 50       		.byte	0x50
 4118 018f 9F       		.byte	0x9f
 4119 0190 00000000 		.4byte	0
 4120 0194 00000000 		.4byte	0
 4121              	.LLST11:
 4122 0198 D2000000 		.4byte	.LVL37
 4123 019c D4000000 		.4byte	.LVL38
 4124 01a0 0200     		.2byte	0x2
 4125 01a2 30       		.byte	0x30
 4126 01a3 9F       		.byte	0x9f
 4127 01a4 D4000000 		.4byte	.LVL38
 4128 01a8 EC000000 		.4byte	.LVL39
 4129 01ac 0500     		.2byte	0x5
 4130 01ae 36       		.byte	0x36
 4131 01af 72       		.byte	0x72
 4132 01b0 00       		.sleb128 0
ARM GAS  /tmp/ccs4ODSO.s 			page 74


 4133 01b1 1C       		.byte	0x1c
 4134 01b2 9F       		.byte	0x9f
 4135 01b3 EC000000 		.4byte	.LVL39
 4136 01b7 EE000000 		.4byte	.LVL40
 4137 01bb 0500     		.2byte	0x5
 4138 01bd 35       		.byte	0x35
 4139 01be 72       		.byte	0x72
 4140 01bf 00       		.sleb128 0
 4141 01c0 1C       		.byte	0x1c
 4142 01c1 9F       		.byte	0x9f
 4143 01c2 00000000 		.4byte	0
 4144 01c6 00000000 		.4byte	0
 4145              	.LLST12:
 4146 01ca 00000000 		.4byte	.LVL41
 4147 01ce 0C000000 		.4byte	.LVL42
 4148 01d2 0100     		.2byte	0x1
 4149 01d4 50       		.byte	0x50
 4150 01d5 0C000000 		.4byte	.LVL42
 4151 01d9 1C000000 		.4byte	.LFE72
 4152 01dd 0400     		.2byte	0x4
 4153 01df F3       		.byte	0xf3
 4154 01e0 01       		.uleb128 0x1
 4155 01e1 50       		.byte	0x50
 4156 01e2 9F       		.byte	0x9f
 4157 01e3 00000000 		.4byte	0
 4158 01e7 00000000 		.4byte	0
 4159              	.LLST13:
 4160 01eb 00000000 		.4byte	.LVL43
 4161 01ef 0C000000 		.4byte	.LVL44
 4162 01f3 0100     		.2byte	0x1
 4163 01f5 50       		.byte	0x50
 4164 01f6 0C000000 		.4byte	.LVL44
 4165 01fa 1C000000 		.4byte	.LFE73
 4166 01fe 0400     		.2byte	0x4
 4167 0200 F3       		.byte	0xf3
 4168 0201 01       		.uleb128 0x1
 4169 0202 50       		.byte	0x50
 4170 0203 9F       		.byte	0x9f
 4171 0204 00000000 		.4byte	0
 4172 0208 00000000 		.4byte	0
 4173              	.LLST14:
 4174 020c 00000000 		.4byte	.LVL45
 4175 0210 0E000000 		.4byte	.LVL46
 4176 0214 0100     		.2byte	0x1
 4177 0216 50       		.byte	0x50
 4178 0217 0E000000 		.4byte	.LVL46
 4179 021b 5C000000 		.4byte	.LVL50
 4180 021f 0100     		.2byte	0x1
 4181 0221 57       		.byte	0x57
 4182 0222 5C000000 		.4byte	.LVL50
 4183 0226 60000000 		.4byte	.LFE74
 4184 022a 0400     		.2byte	0x4
 4185 022c F3       		.byte	0xf3
 4186 022d 01       		.uleb128 0x1
 4187 022e 50       		.byte	0x50
 4188 022f 9F       		.byte	0x9f
 4189 0230 00000000 		.4byte	0
ARM GAS  /tmp/ccs4ODSO.s 			page 75


 4190 0234 00000000 		.4byte	0
 4191              	.LLST15:
 4192 0238 00000000 		.4byte	.LVL45
 4193 023c 0E000000 		.4byte	.LVL46
 4194 0240 0100     		.2byte	0x1
 4195 0242 51       		.byte	0x51
 4196 0243 0E000000 		.4byte	.LVL46
 4197 0247 60000000 		.4byte	.LFE74
 4198 024b 0400     		.2byte	0x4
 4199 024d F3       		.byte	0xf3
 4200 024e 01       		.uleb128 0x1
 4201 024f 51       		.byte	0x51
 4202 0250 9F       		.byte	0x9f
 4203 0251 00000000 		.4byte	0
 4204 0255 00000000 		.4byte	0
 4205              	.LLST16:
 4206 0259 00000000 		.4byte	.LVL45
 4207 025d 0E000000 		.4byte	.LVL46
 4208 0261 0100     		.2byte	0x1
 4209 0263 52       		.byte	0x52
 4210 0264 0E000000 		.4byte	.LVL46
 4211 0268 60000000 		.4byte	.LFE74
 4212 026c 0400     		.2byte	0x4
 4213 026e F3       		.byte	0xf3
 4214 026f 01       		.uleb128 0x1
 4215 0270 52       		.byte	0x52
 4216 0271 9F       		.byte	0x9f
 4217 0272 00000000 		.4byte	0
 4218 0276 00000000 		.4byte	0
 4219              	.LLST17:
 4220 027a 00000000 		.4byte	.LVL45
 4221 027e 0E000000 		.4byte	.LVL46
 4222 0282 0200     		.2byte	0x2
 4223 0284 30       		.byte	0x30
 4224 0285 9F       		.byte	0x9f
 4225 0286 0E000000 		.4byte	.LVL46
 4226 028a 42000000 		.4byte	.LVL48
 4227 028e 0100     		.2byte	0x1
 4228 0290 56       		.byte	0x56
 4229 0291 42000000 		.4byte	.LVL48
 4230 0295 4C000000 		.4byte	.LVL49
 4231 0299 0300     		.2byte	0x3
 4232 029b 76       		.byte	0x76
 4233 029c 7F       		.sleb128 -1
 4234 029d 9F       		.byte	0x9f
 4235 029e 00000000 		.4byte	0
 4236 02a2 00000000 		.4byte	0
 4237              		.section	.debug_aranges,"",%progbits
 4238 0000 74000000 		.4byte	0x74
 4239 0004 0200     		.2byte	0x2
 4240 0006 00000000 		.4byte	.Ldebug_info0
 4241 000a 04       		.byte	0x4
 4242 000b 00       		.byte	0
 4243 000c 0000     		.2byte	0
 4244 000e 0000     		.2byte	0
 4245 0010 00000000 		.4byte	.LFB65
 4246 0014 6C000000 		.4byte	.LFE65-.LFB65
ARM GAS  /tmp/ccs4ODSO.s 			page 76


 4247 0018 00000000 		.4byte	.LFB63
 4248 001c 86000000 		.4byte	.LFE63-.LFB63
 4249 0020 00000000 		.4byte	.LFB66
 4250 0024 80000000 		.4byte	.LFE66-.LFB66
 4251 0028 00000000 		.4byte	.LFB67
 4252 002c 24000000 		.4byte	.LFE67-.LFB67
 4253 0030 00000000 		.4byte	.LFB68
 4254 0034 24000000 		.4byte	.LFE68-.LFB68
 4255 0038 00000000 		.4byte	.LFB69
 4256 003c 14000000 		.4byte	.LFE69-.LFB69
 4257 0040 00000000 		.4byte	.LFB70
 4258 0044 52000000 		.4byte	.LFE70-.LFB70
 4259 0048 00000000 		.4byte	.LFB71
 4260 004c 40000000 		.4byte	.LFE71-.LFB71
 4261 0050 00000000 		.4byte	.LFB64
 4262 0054 16010000 		.4byte	.LFE64-.LFB64
 4263 0058 00000000 		.4byte	.LFB72
 4264 005c 1C000000 		.4byte	.LFE72-.LFB72
 4265 0060 00000000 		.4byte	.LFB73
 4266 0064 1C000000 		.4byte	.LFE73-.LFB73
 4267 0068 00000000 		.4byte	.LFB74
 4268 006c 60000000 		.4byte	.LFE74-.LFB74
 4269 0070 00000000 		.4byte	0
 4270 0074 00000000 		.4byte	0
 4271              		.section	.debug_ranges,"",%progbits
 4272              	.Ldebug_ranges0:
 4273 0000 46000000 		.4byte	.LBB3
 4274 0004 4C000000 		.4byte	.LBE3
 4275 0008 60000000 		.4byte	.LBB4
 4276 000c 66000000 		.4byte	.LBE4
 4277 0010 00000000 		.4byte	0
 4278 0014 00000000 		.4byte	0
 4279 0018 18000000 		.4byte	.LBB6
 4280 001c 20000000 		.4byte	.LBE6
 4281 0020 44000000 		.4byte	.LBB7
 4282 0024 4C000000 		.4byte	.LBE7
 4283 0028 7E000000 		.4byte	.LBB8
 4284 002c 86000000 		.4byte	.LBE8
 4285 0030 00000000 		.4byte	0
 4286 0034 00000000 		.4byte	0
 4287 0038 00000000 		.4byte	.LFB65
 4288 003c 6C000000 		.4byte	.LFE65
 4289 0040 00000000 		.4byte	.LFB63
 4290 0044 86000000 		.4byte	.LFE63
 4291 0048 00000000 		.4byte	.LFB66
 4292 004c 80000000 		.4byte	.LFE66
 4293 0050 00000000 		.4byte	.LFB67
 4294 0054 24000000 		.4byte	.LFE67
 4295 0058 00000000 		.4byte	.LFB68
 4296 005c 24000000 		.4byte	.LFE68
 4297 0060 00000000 		.4byte	.LFB69
 4298 0064 14000000 		.4byte	.LFE69
 4299 0068 00000000 		.4byte	.LFB70
 4300 006c 52000000 		.4byte	.LFE70
 4301 0070 00000000 		.4byte	.LFB71
 4302 0074 40000000 		.4byte	.LFE71
 4303 0078 00000000 		.4byte	.LFB64
ARM GAS  /tmp/ccs4ODSO.s 			page 77


 4304 007c 16010000 		.4byte	.LFE64
 4305 0080 00000000 		.4byte	.LFB72
 4306 0084 1C000000 		.4byte	.LFE72
 4307 0088 00000000 		.4byte	.LFB73
 4308 008c 1C000000 		.4byte	.LFE73
 4309 0090 00000000 		.4byte	.LFB74
 4310 0094 60000000 		.4byte	.LFE74
 4311 0098 00000000 		.4byte	0
 4312 009c 00000000 		.4byte	0
 4313              		.section	.debug_line,"",%progbits
 4314              	.Ldebug_line0:
 4315 0000 F2040000 		.section	.debug_str,"MS",%progbits,1
 4315      02005C03 
 4315      00000201 
 4315      FB0E0D00 
 4315      01010101 
 4316              	.LASF54:
 4317 0000 54687265 		.ascii	"ThreadsList\000"
 4317      6164734C 
 4317      69737400 
 4318              	.LASF59:
 4319 000c 76746675 		.ascii	"vtfunc_t\000"
 4319      6E635F74 
 4319      00
 4320              	.LASF186:
 4321 0015 6B536F6E 		.ascii	"kSonarStatePing\000"
 4321      61725374 
 4321      61746550 
 4321      696E6700 
 4322              	.LASF45:
 4323 0025 705F7469 		.ascii	"p_time\000"
 4323      6D6500
 4324              	.LASF88:
 4325 002c 42535252 		.ascii	"BSRR\000"
 4325      00
 4326              	.LASF212:
 4327 0031 76657853 		.ascii	"vexSonarGpt\000"
 4327      6F6E6172 
 4327      47707400 
 4328              	.LASF55:
 4329 003d 72656761 		.ascii	"regarm_t\000"
 4329      726D5F74 
 4329      00
 4330              	.LASF36:
 4331 0046 705F7072 		.ascii	"p_prio\000"
 4331      696F00
 4332              	.LASF228:
 4333 004d 63685468 		.ascii	"chThdSleep\000"
 4333      64536C65 
 4333      657000
 4334              	.LASF170:
 4335 0058 666C6167 		.ascii	"flags\000"
 4335      7300
 4336              	.LASF32:
 4337 005e 73797374 		.ascii	"systime_t\000"
 4337      696D655F 
 4337      7400
ARM GAS  /tmp/ccs4ODSO.s 			page 78


 4338              	.LASF152:
 4339 0068 74566578 		.ascii	"tVexDigitalState\000"
 4339      44696769 
 4339      74616C53 
 4339      74617465 
 4339      00
 4340              	.LASF77:
 4341 0079 6D5F6F77 		.ascii	"m_owner\000"
 4341      6E657200 
 4342              	.LASF66:
 4343 0081 76745F73 		.ascii	"vt_systime\000"
 4343      79737469 
 4343      6D6500
 4344              	.LASF221:
 4345 008c 67707453 		.ascii	"gptStartOneShotI\000"
 4345      74617274 
 4345      4F6E6553 
 4345      686F7449 
 4345      00
 4346              	.LASF47:
 4347 009d 705F6D73 		.ascii	"p_msgqueue\000"
 4347      67717565 
 4347      756500
 4348              	.LASF0:
 4349 00a8 756E7369 		.ascii	"unsigned int\000"
 4349      676E6564 
 4349      20696E74 
 4349      00
 4350              	.LASF109:
 4351 00b5 4750545F 		.ascii	"GPT_ONESHOT\000"
 4351      4F4E4553 
 4351      484F5400 
 4352              	.LASF113:
 4353 00c1 67707463 		.ascii	"gptcallback_t\000"
 4353      616C6C62 
 4353      61636B5F 
 4353      7400
 4354              	.LASF131:
 4355 00cf 76657853 		.ascii	"vexStream\000"
 4355      74726561 
 4355      6D00
 4356              	.LASF46:
 4357 00d9 705F7761 		.ascii	"p_waiting\000"
 4357      6974696E 
 4357      6700
 4358              	.LASF156:
 4359 00e3 696F4465 		.ascii	"ioDef\000"
 4359      6600
 4360              	.LASF9:
 4361 00e9 5F5F696E 		.ascii	"__int32_t\000"
 4361      7433325F 
 4361      7400
 4362              	.LASF84:
 4363 00f3 42617365 		.ascii	"BaseSequentialStreamVMT\000"
 4363      53657175 
 4363      656E7469 
 4363      616C5374 
ARM GAS  /tmp/ccs4ODSO.s 			page 79


 4363      7265616D 
 4364              	.LASF226:
 4365 010b 67707453 		.ascii	"gptStartOneShot\000"
 4365      74617274 
 4365      4F6E6553 
 4365      686F7400 
 4366              	.LASF150:
 4367 011b 6B566578 		.ascii	"kVexDigitalLow\000"
 4367      44696769 
 4367      74616C4C 
 4367      6F7700
 4368              	.LASF106:
 4369 012a 4750545F 		.ascii	"GPT_STOP\000"
 4369      53544F50 
 4369      00
 4370              	.LASF81:
 4371 0133 77746F62 		.ascii	"wtobjp\000"
 4371      6A7000
 4372              	.LASF214:
 4373 013a 76746C69 		.ascii	"vtlist\000"
 4373      737400
 4374              	.LASF130:
 4375 0141 47505443 		.ascii	"GPTConfig\000"
 4375      6F6E6669 
 4375      6700
 4376              	.LASF153:
 4377 014b 5F696F44 		.ascii	"_ioDef\000"
 4377      656600
 4378              	.LASF204:
 4379 0152 76657853 		.ascii	"vexSonarDebug\000"
 4379      6F6E6172 
 4379      44656275 
 4379      6700
 4380              	.LASF101:
 4381 0160 6D6F6465 		.ascii	"mode\000"
 4381      00
 4382              	.LASF96:
 4383 0165 45585444 		.ascii	"EXTDriver\000"
 4383      72697665 
 4383      7200
 4384              	.LASF191:
 4385 016f 65787470 		.ascii	"extp\000"
 4385      00
 4386              	.LASF146:
 4387 0174 74566578 		.ascii	"tVexDigitalPin\000"
 4387      44696769 
 4387      74616C50 
 4387      696E00
 4388              	.LASF193:
 4389 0183 5F76735F 		.ascii	"_vs_echo_cb\000"
 4389      6563686F 
 4389      5F636200 
 4390              	.LASF144:
 4391 018f 6B566578 		.ascii	"kVexDigital_12\000"
 4391      44696769 
 4391      74616C5F 
 4391      313200
ARM GAS  /tmp/ccs4ODSO.s 			page 80


 4392              	.LASF63:
 4393 019e 76745F74 		.ascii	"vt_time\000"
 4393      696D6500 
 4394              	.LASF22:
 4395 01a6 75696E74 		.ascii	"uint32_t\000"
 4395      33325F74 
 4395      00
 4396              	.LASF168:
 4397 01af 64697374 		.ascii	"distance_cm\000"
 4397      616E6365 
 4397      5F636D00 
 4398              	.LASF172:
 4399 01bb 70615F70 		.ascii	"pa_pad\000"
 4399      616400
 4400              	.LASF69:
 4401 01c2 725F7072 		.ascii	"r_prio\000"
 4401      696F00
 4402              	.LASF119:
 4403 01c9 42445452 		.ascii	"BDTR\000"
 4403      00
 4404              	.LASF65:
 4405 01ce 76745F70 		.ascii	"vt_par\000"
 4405      617200
 4406              	.LASF145:
 4407 01d5 6B566578 		.ascii	"kVexDigital_Num\000"
 4407      44696769 
 4407      74616C5F 
 4407      4E756D00 
 4408              	.LASF29:
 4409 01e5 74707269 		.ascii	"tprio_t\000"
 4409      6F5F7400 
 4410              	.LASF198:
 4411 01ed 76657853 		.ascii	"vexSonarStop\000"
 4411      6F6E6172 
 4411      53746F70 
 4411      00
 4412              	.LASF122:
 4413 01fa 43435235 		.ascii	"CCR5\000"
 4413      00
 4414              	.LASF123:
 4415 01ff 43435236 		.ascii	"CCR6\000"
 4415      00
 4416              	.LASF116:
 4417 0204 43434D52 		.ascii	"CCMR1\000"
 4417      3100
 4418              	.LASF117:
 4419 020a 43434D52 		.ascii	"CCMR2\000"
 4419      3200
 4420              	.LASF121:
 4421 0210 43434D52 		.ascii	"CCMR3\000"
 4421      3300
 4422              	.LASF83:
 4423 0216 7466756E 		.ascii	"tfunc_t\000"
 4423      635F7400 
 4424              	.LASF15:
 4425 021e 6C6F6E67 		.ascii	"long long unsigned int\000"
 4425      206C6F6E 
ARM GAS  /tmp/ccs4ODSO.s 			page 81


 4425      6720756E 
 4425      7369676E 
 4425      65642069 
 4426              	.LASF208:
 4427 0235 736F6E61 		.ascii	"sonarGpt\000"
 4427      72477074 
 4427      00
 4428              	.LASF224:
 4429 023e 65787443 		.ascii	"extChannelEnable\000"
 4429      68616E6E 
 4429      656C456E 
 4429      61626C65 
 4429      00
 4430              	.LASF231:
 4431 024f 474E5520 		.ascii	"GNU C 4.8.2 -mcpu=cortex-m3 -mno-thumb-interwork -m"
 4431      4320342E 
 4431      382E3220 
 4431      2D6D6370 
 4431      753D636F 
 4432 0282 7468756D 		.ascii	"thumb -ggdb -O2 -fomit-frame-pointer -falign-functi"
 4432      62202D67 
 4432      67646220 
 4432      2D4F3220 
 4432      2D666F6D 
 4433 02b5 6F6E733D 		.ascii	"ons=16 -ffunction-sections -fdata-sections -fno-com"
 4433      3136202D 
 4433      6666756E 
 4433      6374696F 
 4433      6E2D7365 
 4434 02e8 6D6F6E00 		.ascii	"mon\000"
 4435              	.LASF7:
 4436 02ec 5F5F7569 		.ascii	"__uint16_t\000"
 4436      6E743136 
 4436      5F7400
 4437              	.LASF167:
 4438 02f7 74696D65 		.ascii	"time\000"
 4438      00
 4439              	.LASF38:
 4440 02fc 705F6E65 		.ascii	"p_newer\000"
 4440      77657200 
 4441              	.LASF155:
 4442 0304 696E7472 		.ascii	"intrCount\000"
 4442      436F756E 
 4442      7400
 4443              	.LASF134:
 4444 030e 6B566578 		.ascii	"kVexDigital_2\000"
 4444      44696769 
 4444      74616C5F 
 4444      3200
 4445              	.LASF2:
 4446 031c 73697A65 		.ascii	"size_t\000"
 4446      5F7400
 4447              	.LASF79:
 4448 0323 7264796D 		.ascii	"rdymsg\000"
 4448      736700
 4449              	.LASF124:
 4450 032a 73746D33 		.ascii	"stm32_tim_t\000"
ARM GAS  /tmp/ccs4ODSO.s 			page 82


 4450      325F7469 
 4450      6D5F7400 
 4451              	.LASF162:
 4452 0336 6B566578 		.ascii	"kVexSonar_Num\000"
 4452      536F6E61 
 4452      725F4E75 
 4452      6D00
 4453              	.LASF24:
 4454 0344 5F426F6F 		.ascii	"_Bool\000"
 4454      6C00
 4455              	.LASF229:
 4456 034a 63685468 		.ascii	"chThdSleepUntil\000"
 4456      64536C65 
 4456      6570556E 
 4456      74696C00 
 4457              	.LASF234:
 4458 035a 56657853 		.ascii	"VexSonarTask\000"
 4458      6F6E6172 
 4458      5461736B 
 4458      00
 4459              	.LASF14:
 4460 0367 5F5F7569 		.ascii	"__uint64_t\000"
 4460      6E743634 
 4460      5F7400
 4461              	.LASF173:
 4462 0372 70625F70 		.ascii	"pb_port\000"
 4462      6F727400 
 4463              	.LASF115:
 4464 037a 44494552 		.ascii	"DIER\000"
 4464      00
 4465              	.LASF149:
 4466 037f 74566578 		.ascii	"tVexDigitalMode\000"
 4466      44696769 
 4466      74616C4D 
 4466      6F646500 
 4467              	.LASF75:
 4468 038f 4D757465 		.ascii	"Mutex\000"
 4468      7800
 4469              	.LASF91:
 4470 0395 696F706F 		.ascii	"ioportid_t\000"
 4470      72746964 
 4470      5F7400
 4471              	.LASF112:
 4472 03a0 636C6F63 		.ascii	"clock\000"
 4472      6B00
 4473              	.LASF107:
 4474 03a6 4750545F 		.ascii	"GPT_READY\000"
 4474      52454144 
 4474      5900
 4475              	.LASF87:
 4476 03b0 42617365 		.ascii	"BaseSequentialStream\000"
 4476      53657175 
 4476      656E7469 
 4476      616C5374 
 4476      7265616D 
 4477              	.LASF125:
 4478 03c5 67707466 		.ascii	"gptfreq_t\000"
ARM GAS  /tmp/ccs4ODSO.s 			page 83


 4478      7265715F 
 4478      7400
 4479              	.LASF220:
 4480 03cf 76657844 		.ascii	"vexDigitalPinSet\000"
 4480      69676974 
 4480      616C5069 
 4480      6E536574 
 4480      00
 4481              	.LASF184:
 4482 03e0 6B496D65 		.ascii	"kImeTotal\000"
 4482      546F7461 
 4482      6C00
 4483              	.LASF190:
 4484 03ea 74566578 		.ascii	"tVexSonnarState\000"
 4484      536F6E6E 
 4484      61725374 
 4484      61746500 
 4485              	.LASF118:
 4486 03fa 43434552 		.ascii	"CCER\000"
 4486      00
 4487              	.LASF201:
 4488 03ff 76657853 		.ascii	"vexSonarPing\000"
 4488      6F6E6172 
 4488      50696E67 
 4488      00
 4489              	.LASF53:
 4490 040c 54687265 		.ascii	"ThreadsQueue\000"
 4490      61647351 
 4490      75657565 
 4490      00
 4491              	.LASF17:
 4492 0419 63686172 		.ascii	"char\000"
 4492      00
 4493              	.LASF71:
 4494 041e 725F6E65 		.ascii	"r_newer\000"
 4494      77657200 
 4495              	.LASF108:
 4496 0426 4750545F 		.ascii	"GPT_CONTINUOUS\000"
 4496      434F4E54 
 4496      494E554F 
 4496      555300
 4497              	.LASF203:
 4498 0435 76657853 		.ascii	"vexSonarGetInch\000"
 4498      6F6E6172 
 4498      47657449 
 4498      6E636800 
 4499              	.LASF26:
 4500 0445 74737461 		.ascii	"tstate_t\000"
 4500      74655F74 
 4500      00
 4501              	.LASF67:
 4502 044e 56544C69 		.ascii	"VTList\000"
 4502      737400
 4503              	.LASF104:
 4504 0455 45585443 		.ascii	"EXTConfig\000"
 4504      6F6E6669 
 4504      6700
ARM GAS  /tmp/ccs4ODSO.s 			page 84


 4505              	.LASF166:
 4506 045f 74696D65 		.ascii	"time_f\000"
 4506      5F6600
 4507              	.LASF41:
 4508 0466 705F7374 		.ascii	"p_state\000"
 4508      61746500 
 4509              	.LASF213:
 4510 046e 77615665 		.ascii	"waVexSonarTask\000"
 4510      78536F6E 
 4510      61725461 
 4510      736B00
 4511              	.LASF18:
 4512 047d 75696E74 		.ascii	"uint8_t\000"
 4512      385F7400 
 4513              	.LASF165:
 4514 0485 74696D65 		.ascii	"time_r\000"
 4514      5F7200
 4515              	.LASF52:
 4516 048c 705F6D70 		.ascii	"p_mpool\000"
 4516      6F6F6C00 
 4517              	.LASF211:
 4518 0494 76657853 		.ascii	"vexSonarThread\000"
 4518      6F6E6172 
 4518      54687265 
 4518      616400
 4519              	.LASF50:
 4520 04a3 705F6D74 		.ascii	"p_mtxlist\000"
 4520      786C6973 
 4520      7400
 4521              	.LASF175:
 4522 04ad 76657853 		.ascii	"vexSonar_t\000"
 4522      6F6E6172 
 4522      5F7400
 4523              	.LASF188:
 4524 04b8 6B536F6E 		.ascii	"kSonarStateDone\000"
 4524      61725374 
 4524      61746544 
 4524      6F6E6500 
 4525              	.LASF114:
 4526 04c8 534D4352 		.ascii	"SMCR\000"
 4526      00
 4527              	.LASF225:
 4528 04cd 65787443 		.ascii	"extChannelDisable\000"
 4528      68616E6E 
 4528      656C4469 
 4528      7361626C 
 4528      6500
 4529              	.LASF100:
 4530 04df 65787463 		.ascii	"extcallback_t\000"
 4530      616C6C62 
 4530      61636B5F 
 4530      7400
 4531              	.LASF218:
 4532 04ed 47505444 		.ascii	"GPTD5\000"
 4532      3500
 4533              	.LASF13:
 4534 04f3 6C6F6E67 		.ascii	"long long int\000"
ARM GAS  /tmp/ccs4ODSO.s 			page 85


 4534      206C6F6E 
 4534      6720696E 
 4534      7400
 4535              	.LASF85:
 4536 0501 77726974 		.ascii	"write\000"
 4536      6500
 4537              	.LASF68:
 4538 0507 725F7175 		.ascii	"r_queue\000"
 4538      65756500 
 4539              	.LASF103:
 4540 050f 6368616E 		.ascii	"channels\000"
 4540      6E656C73 
 4540      00
 4541              	.LASF31:
 4542 0518 6576656E 		.ascii	"eventmask_t\000"
 4542      746D6173 
 4542      6B5F7400 
 4543              	.LASF217:
 4544 0524 45585444 		.ascii	"EXTD1\000"
 4544      3100
 4545              	.LASF142:
 4546 052a 6B566578 		.ascii	"kVexDigital_10\000"
 4546      44696769 
 4546      74616C5F 
 4546      313000
 4547              	.LASF143:
 4548 0539 6B566578 		.ascii	"kVexDigital_11\000"
 4548      44696769 
 4548      74616C5F 
 4548      313100
 4549              	.LASF30:
 4550 0548 6D73675F 		.ascii	"msg_t\000"
 4550      7400
 4551              	.LASF58:
 4552 054e 636F6E74 		.ascii	"context\000"
 4552      65787400 
 4553              	.LASF42:
 4554 0556 705F666C 		.ascii	"p_flags\000"
 4554      61677300 
 4555              	.LASF5:
 4556 055e 5F5F696E 		.ascii	"__int16_t\000"
 4556      7431365F 
 4556      7400
 4557              	.LASF148:
 4558 0568 6B566578 		.ascii	"kVexDigitalOutput\000"
 4558      44696769 
 4558      74616C4F 
 4558      75747075 
 4558      7400
 4559              	.LASF199:
 4560 057a 76657853 		.ascii	"vexSonarStartAll\000"
 4560      6F6E6172 
 4560      53746172 
 4560      74416C6C 
 4560      00
 4561              	.LASF129:
 4562 058b 64696572 		.ascii	"dier\000"
ARM GAS  /tmp/ccs4ODSO.s 			page 86


 4562      00
 4563              	.LASF92:
 4564 0590 4558545F 		.ascii	"EXT_UNINIT\000"
 4564      554E494E 
 4564      495400
 4565              	.LASF94:
 4566 059b 4558545F 		.ascii	"EXT_ACTIVE\000"
 4566      41435449 
 4566      564500
 4567              	.LASF89:
 4568 05a6 4C434B52 		.ascii	"LCKR\000"
 4568      00
 4569              	.LASF28:
 4570 05ab 74736C69 		.ascii	"tslices_t\000"
 4570      6365735F 
 4570      7400
 4571              	.LASF72:
 4572 05b5 725F6F6C 		.ascii	"r_older\000"
 4572      64657200 
 4573              	.LASF207:
 4574 05bd 76657853 		.ascii	"vexSonars\000"
 4574      6F6E6172 
 4574      7300
 4575              	.LASF133:
 4576 05c7 6B566578 		.ascii	"kVexDigital_1\000"
 4576      44696769 
 4576      74616C5F 
 4576      3100
 4577              	.LASF163:
 4578 05d5 74566578 		.ascii	"tVexSonarChannel\000"
 4578      536F6E61 
 4578      72436861 
 4578      6E6E656C 
 4578      00
 4579              	.LASF135:
 4580 05e6 6B566578 		.ascii	"kVexDigital_3\000"
 4580      44696769 
 4580      74616C5F 
 4580      3300
 4581              	.LASF136:
 4582 05f4 6B566578 		.ascii	"kVexDigital_4\000"
 4582      44696769 
 4582      74616C5F 
 4582      3400
 4583              	.LASF137:
 4584 0602 6B566578 		.ascii	"kVexDigital_5\000"
 4584      44696769 
 4584      74616C5F 
 4584      3500
 4585              	.LASF138:
 4586 0610 6B566578 		.ascii	"kVexDigital_6\000"
 4586      44696769 
 4586      74616C5F 
 4586      3600
 4587              	.LASF139:
 4588 061e 6B566578 		.ascii	"kVexDigital_7\000"
 4588      44696769 
ARM GAS  /tmp/ccs4ODSO.s 			page 87


 4588      74616C5F 
 4588      3700
 4589              	.LASF140:
 4590 062c 6B566578 		.ascii	"kVexDigital_8\000"
 4590      44696769 
 4590      74616C5F 
 4590      3800
 4591              	.LASF141:
 4592 063a 6B566578 		.ascii	"kVexDigital_9\000"
 4592      44696769 
 4592      74616C5F 
 4592      3900
 4593              	.LASF235:
 4594 0648 63685468 		.ascii	"chThdCreateStatic\000"
 4594      64437265 
 4594      61746553 
 4594      74617469 
 4594      6300
 4595              	.LASF205:
 4596 065a 61726763 		.ascii	"argc\000"
 4596      00
 4597              	.LASF48:
 4598 065f 705F6D73 		.ascii	"p_msg\000"
 4598      6700
 4599              	.LASF82:
 4600 0665 65776D61 		.ascii	"ewmask\000"
 4600      736B00
 4601              	.LASF25:
 4602 066c 746D6F64 		.ascii	"tmode_t\000"
 4602      655F7400 
 4603              	.LASF95:
 4604 0674 65787473 		.ascii	"extstate_t\000"
 4604      74617465 
 4604      5F7400
 4605              	.LASF51:
 4606 067f 705F7265 		.ascii	"p_realprio\000"
 4606      616C7072 
 4606      696F00
 4607              	.LASF222:
 4608 068a 76657844 		.ascii	"vexDigitalModeSet\000"
 4608      69676974 
 4608      616C4D6F 
 4608      64655365 
 4608      7400
 4609              	.LASF227:
 4610 069c 67707453 		.ascii	"gptStart\000"
 4610      74617274 
 4610      00
 4611              	.LASF206:
 4612 06a5 61726776 		.ascii	"argv\000"
 4612      00
 4613              	.LASF40:
 4614 06aa 705F6E61 		.ascii	"p_name\000"
 4614      6D6500
 4615              	.LASF164:
 4616 06b1 5F766578 		.ascii	"_vexSonar_t\000"
 4616      536F6E61 
ARM GAS  /tmp/ccs4ODSO.s 			page 88


 4616      725F7400 
 4617              	.LASF20:
 4618 06bd 75696E74 		.ascii	"uint16_t\000"
 4618      31365F74 
 4618      00
 4619              	.LASF233:
 4620 06c6 2F6D6E74 		.ascii	"/mnt/c/Users/DQ Sullivan/Downloads/Convex/convex/co"
 4620      2F632F55 
 4620      73657273 
 4620      2F445120 
 4620      53756C6C 
 4621 06f9 72746578 		.ascii	"rtex/projects/Vex2016 CyberBrains\000"
 4621      2F70726F 
 4621      6A656374 
 4621      732F5665 
 4621      78323031 
 4622              	.LASF57:
 4623 071b 696E7463 		.ascii	"intctx\000"
 4623      747800
 4624              	.LASF210:
 4625 0722 6E657874 		.ascii	"nextState\000"
 4625      53746174 
 4625      6500
 4626              	.LASF192:
 4627 072c 6368616E 		.ascii	"channel\000"
 4627      6E656C00 
 4628              	.LASF98:
 4629 0734 636F6E66 		.ascii	"config\000"
 4629      696700
 4630              	.LASF176:
 4631 073b 6B496D65 		.ascii	"kImeChannel_1\000"
 4631      4368616E 
 4631      6E656C5F 
 4631      3100
 4632              	.LASF177:
 4633 0749 6B496D65 		.ascii	"kImeChannel_2\000"
 4633      4368616E 
 4633      6E656C5F 
 4633      3200
 4634              	.LASF178:
 4635 0757 6B496D65 		.ascii	"kImeChannel_3\000"
 4635      4368616E 
 4635      6E656C5F 
 4635      3300
 4636              	.LASF179:
 4637 0765 6B496D65 		.ascii	"kImeChannel_4\000"
 4637      4368616E 
 4637      6E656C5F 
 4637      3400
 4638              	.LASF180:
 4639 0773 6B496D65 		.ascii	"kImeChannel_5\000"
 4639      4368616E 
 4639      6E656C5F 
 4639      3500
 4640              	.LASF181:
 4641 0781 6B496D65 		.ascii	"kImeChannel_6\000"
 4641      4368616E 
ARM GAS  /tmp/ccs4ODSO.s 			page 89


 4641      6E656C5F 
 4641      3600
 4642              	.LASF182:
 4643 078f 6B496D65 		.ascii	"kImeChannel_7\000"
 4643      4368616E 
 4643      6E656C5F 
 4643      3700
 4644              	.LASF183:
 4645 079d 6B496D65 		.ascii	"kImeChannel_8\000"
 4645      4368616E 
 4645      6E656C5F 
 4645      3800
 4646              	.LASF6:
 4647 07ab 73686F72 		.ascii	"short int\000"
 4647      7420696E 
 4647      7400
 4648              	.LASF230:
 4649 07b5 7665785F 		.ascii	"vex_chprintf\000"
 4649      63687072 
 4649      696E7466 
 4649      00
 4650              	.LASF209:
 4651 07c2 6E657874 		.ascii	"nextSonar\000"
 4651      536F6E61 
 4651      7200
 4652              	.LASF73:
 4653 07cc 725F6375 		.ascii	"r_current\000"
 4653      7272656E 
 4653      7400
 4654              	.LASF49:
 4655 07d6 705F6570 		.ascii	"p_epending\000"
 4655      656E6469 
 4655      6E6700
 4656              	.LASF76:
 4657 07e1 6D5F7175 		.ascii	"m_queue\000"
 4657      65756500 
 4658              	.LASF10:
 4659 07e9 6C6F6E67 		.ascii	"long int\000"
 4659      20696E74 
 4659      00
 4660              	.LASF120:
 4661 07f2 444D4152 		.ascii	"DMAR\000"
 4661      00
 4662              	.LASF185:
 4663 07f7 6B496D65 		.ascii	"kImeChannelNone\000"
 4663      4368616E 
 4663      6E656C4E 
 4663      6F6E6500 
 4664              	.LASF216:
 4665 0807 49544D5F 		.ascii	"ITM_RxBuffer\000"
 4665      52784275 
 4665      66666572 
 4665      00
 4666              	.LASF102:
 4667 0814 45585443 		.ascii	"EXTChannelConfig\000"
 4667      68616E6E 
 4667      656C436F 
ARM GAS  /tmp/ccs4ODSO.s 			page 90


 4667      6E666967 
 4667      00
 4668              	.LASF19:
 4669 0825 696E7431 		.ascii	"int16_t\000"
 4669      365F7400 
 4670              	.LASF200:
 4671 082d 76657853 		.ascii	"vexSonarRun\000"
 4671      6F6E6172 
 4671      52756E00 
 4672              	.LASF23:
 4673 0839 75696E74 		.ascii	"uint64_t\000"
 4673      36345F74 
 4673      00
 4674              	.LASF37:
 4675 0842 705F6374 		.ascii	"p_ctx\000"
 4675      7800
 4676              	.LASF105:
 4677 0848 4750545F 		.ascii	"GPT_UNINIT\000"
 4677      554E494E 
 4677      495400
 4678              	.LASF215:
 4679 0853 726C6973 		.ascii	"rlist\000"
 4679      7400
 4680              	.LASF60:
 4681 0859 56697274 		.ascii	"VirtualTimer\000"
 4681      75616C54 
 4681      696D6572 
 4681      00
 4682              	.LASF151:
 4683 0866 6B566578 		.ascii	"kVexDigitalHigh\000"
 4683      44696769 
 4683      74616C48 
 4683      69676800 
 4684              	.LASF3:
 4685 0876 5F5F7569 		.ascii	"__uint8_t\000"
 4685      6E74385F 
 4685      7400
 4686              	.LASF132:
 4687 0880 6B566578 		.ascii	"kVexDigital_None\000"
 4687      44696769 
 4687      74616C5F 
 4687      4E6F6E65 
 4687      00
 4688              	.LASF86:
 4689 0891 72656164 		.ascii	"read\000"
 4689      00
 4690              	.LASF90:
 4691 0896 4750494F 		.ascii	"GPIO_TypeDef\000"
 4691      5F547970 
 4691      65446566 
 4691      00
 4692              	.LASF93:
 4693 08a3 4558545F 		.ascii	"EXT_STOP\000"
 4693      53544F50 
 4693      00
 4694              	.LASF110:
 4695 08ac 67707473 		.ascii	"gptstate_t\000"
ARM GAS  /tmp/ccs4ODSO.s 			page 91


 4695      74617465 
 4695      5F7400
 4696              	.LASF219:
 4697 08b7 76657869 		.ascii	"vexioDefinition\000"
 4697      6F446566 
 4697      696E6974 
 4697      696F6E00 
 4698              	.LASF35:
 4699 08c7 705F7072 		.ascii	"p_prev\000"
 4699      657600
 4700              	.LASF16:
 4701 08ce 73697A65 		.ascii	"sizetype\000"
 4701      74797065 
 4701      00
 4702              	.LASF27:
 4703 08d7 74726566 		.ascii	"trefs_t\000"
 4703      735F7400 
 4704              	.LASF12:
 4705 08df 6C6F6E67 		.ascii	"long unsigned int\000"
 4705      20756E73 
 4705      69676E65 
 4705      6420696E 
 4705      7400
 4706              	.LASF99:
 4707 08f1 65787063 		.ascii	"expchannel_t\000"
 4707      68616E6E 
 4707      656C5F74 
 4707      00
 4708              	.LASF197:
 4709 08fe 76657853 		.ascii	"vexSonarStart\000"
 4709      6F6E6172 
 4709      53746172 
 4709      7400
 4710              	.LASF21:
 4711 090c 696E7433 		.ascii	"int32_t\000"
 4711      325F7400 
 4712              	.LASF154:
 4713 0914 706F7274 		.ascii	"port\000"
 4713      00
 4714              	.LASF97:
 4715 0919 73746174 		.ascii	"state\000"
 4715      6500
 4716              	.LASF111:
 4717 091f 47505444 		.ascii	"GPTDriver\000"
 4717      72697665 
 4717      7200
 4718              	.LASF171:
 4719 0929 70615F70 		.ascii	"pa_port\000"
 4719      6F727400 
 4720              	.LASF4:
 4721 0931 756E7369 		.ascii	"unsigned char\000"
 4721      676E6564 
 4721      20636861 
 4721      7200
 4722              	.LASF11:
 4723 093f 5F5F7569 		.ascii	"__uint32_t\000"
 4723      6E743332 
ARM GAS  /tmp/ccs4ODSO.s 			page 92


 4723      5F7400
 4724              	.LASF43:
 4725 094a 705F7265 		.ascii	"p_refs\000"
 4725      667300
 4726              	.LASF74:
 4727 0951 52656164 		.ascii	"ReadyList\000"
 4727      794C6973 
 4727      7400
 4728              	.LASF196:
 4729 095b 76657853 		.ascii	"vexSonarAdd\000"
 4729      6F6E6172 
 4729      41646400 
 4730              	.LASF232:
 4731 0967 2E2E2F2E 		.ascii	"../../fw/vexsonar.c\000"
 4731      2E2F6677 
 4731      2F766578 
 4731      736F6E61 
 4731      722E6300 
 4732              	.LASF174:
 4733 097b 70625F70 		.ascii	"pb_pad\000"
 4733      616400
 4734              	.LASF44:
 4735 0982 705F7072 		.ascii	"p_preempt\000"
 4735      65656D70 
 4735      7400
 4736              	.LASF195:
 4737 098c 67707470 		.ascii	"gptp\000"
 4737      00
 4738              	.LASF187:
 4739 0991 6B536F6E 		.ascii	"kSonarStateWait\000"
 4739      61725374 
 4739      61746557 
 4739      61697400 
 4740              	.LASF126:
 4741 09a1 67707463 		.ascii	"gptcnt_t\000"
 4741      6E745F74 
 4741      00
 4742              	.LASF127:
 4743 09aa 66726571 		.ascii	"frequency\000"
 4743      75656E63 
 4743      7900
 4744              	.LASF157:
 4745 09b4 6B566578 		.ascii	"kVexSonar_1\000"
 4745      536F6E61 
 4745      725F3100 
 4746              	.LASF158:
 4747 09c0 6B566578 		.ascii	"kVexSonar_2\000"
 4747      536F6E61 
 4747      725F3200 
 4748              	.LASF159:
 4749 09cc 6B566578 		.ascii	"kVexSonar_3\000"
 4749      536F6E61 
 4749      725F3300 
 4750              	.LASF160:
 4751 09d8 6B566578 		.ascii	"kVexSonar_4\000"
 4751      536F6E61 
 4751      725F3400 
ARM GAS  /tmp/ccs4ODSO.s 			page 93


 4752              	.LASF161:
 4753 09e4 6B566578 		.ascii	"kVexSonar_5\000"
 4753      536F6E61 
 4753      725F3500 
 4754              	.LASF128:
 4755 09f0 63616C6C 		.ascii	"callback\000"
 4755      6261636B 
 4755      00
 4756              	.LASF194:
 4757 09f9 5F76735F 		.ascii	"_vs_gpt_cb\000"
 4757      6770745F 
 4757      636200
 4758              	.LASF61:
 4759 0a04 76745F6E 		.ascii	"vt_next\000"
 4759      65787400 
 4760              	.LASF34:
 4761 0a0c 705F6E65 		.ascii	"p_next\000"
 4761      787400
 4762              	.LASF78:
 4763 0a13 6D5F6E65 		.ascii	"m_next\000"
 4763      787400
 4764              	.LASF1:
 4765 0a1a 7369676E 		.ascii	"signed char\000"
 4765      65642063 
 4765      68617200 
 4766              	.LASF39:
 4767 0a26 705F6F6C 		.ascii	"p_older\000"
 4767      64657200 
 4768              	.LASF8:
 4769 0a2e 73686F72 		.ascii	"short unsigned int\000"
 4769      7420756E 
 4769      7369676E 
 4769      65642069 
 4769      6E7400
 4770              	.LASF70:
 4771 0a41 725F6374 		.ascii	"r_ctx\000"
 4771      7800
 4772              	.LASF147:
 4773 0a47 6B566578 		.ascii	"kVexDigitalInput\000"
 4773      44696769 
 4773      74616C49 
 4773      6E707574 
 4773      00
 4774              	.LASF56:
 4775 0a58 73746B61 		.ascii	"stkalign_t\000"
 4775      6C69676E 
 4775      5F7400
 4776              	.LASF64:
 4777 0a63 76745F66 		.ascii	"vt_func\000"
 4777      756E6300 
 4778              	.LASF62:
 4779 0a6b 76745F70 		.ascii	"vt_prev\000"
 4779      72657600 
 4780              	.LASF202:
 4781 0a73 76657853 		.ascii	"vexSonarGetCm\000"
 4781      6F6E6172 
 4781      47657443 
ARM GAS  /tmp/ccs4ODSO.s 			page 94


 4781      6D00
 4782              	.LASF223:
 4783 0a81 76657845 		.ascii	"vexExtSet\000"
 4783      78745365 
 4783      7400
 4784              	.LASF80:
 4785 0a8b 65786974 		.ascii	"exitcode\000"
 4785      636F6465 
 4785      00
 4786              	.LASF189:
 4787 0a94 6B536F6E 		.ascii	"kSonarStateError\000"
 4787      61725374 
 4787      61746545 
 4787      72726F72 
 4787      00
 4788              	.LASF33:
 4789 0aa5 54687265 		.ascii	"Thread\000"
 4789      616400
 4790              	.LASF169:
 4791 0aac 64697374 		.ascii	"distance_inch\000"
 4791      616E6365 
 4791      5F696E63 
 4791      6800
 4792              		.ident	"GCC: (4.8.2-14ubuntu1+6) 4.8.2"
ARM GAS  /tmp/ccs4ODSO.s 			page 95


DEFINED SYMBOLS
                            *ABS*:0000000000000000 vexsonar.c
     /tmp/ccs4ODSO.s:19     .text._vs_echo_cb:0000000000000000 $t
     /tmp/ccs4ODSO.s:24     .text._vs_echo_cb:0000000000000000 _vs_echo_cb
     /tmp/ccs4ODSO.s:872    .bss.nextSonar:0000000000000000 .LANCHOR0
     /tmp/ccs4ODSO.s:879    .bss.vexSonars:0000000000000000 .LANCHOR1
     /tmp/ccs4ODSO.s:903    .bss.nextState:0000000000000000 .LANCHOR2
     /tmp/ccs4ODSO.s:107    .text._vs_gpt_cb:0000000000000000 $t
     /tmp/ccs4ODSO.s:112    .text._vs_gpt_cb:0000000000000000 _vs_gpt_cb
     /tmp/ccs4ODSO.s:216    .text.vexSonarAdd:0000000000000000 $t
     /tmp/ccs4ODSO.s:222    .text.vexSonarAdd:0000000000000000 vexSonarAdd
     /tmp/ccs4ODSO.s:321    .text.vexSonarStart:0000000000000000 $t
     /tmp/ccs4ODSO.s:327    .text.vexSonarStart:0000000000000000 vexSonarStart
     /tmp/ccs4ODSO.s:355    .text.vexSonarStop:0000000000000000 $t
     /tmp/ccs4ODSO.s:361    .text.vexSonarStop:0000000000000000 vexSonarStop
     /tmp/ccs4ODSO.s:389    .text.vexSonarStartAll:0000000000000000 $t
     /tmp/ccs4ODSO.s:395    .text.vexSonarStartAll:0000000000000000 vexSonarStartAll
     /tmp/ccs4ODSO.s:428    .text.vexSonarRun:0000000000000000 $t
     /tmp/ccs4ODSO.s:434    .text.vexSonarRun:0000000000000000 vexSonarRun
     /tmp/ccs4ODSO.s:859    .bss.vexSonarThread:0000000000000000 .LANCHOR3
     /tmp/ccs4ODSO.s:866    .bss.waVexSonarTask:0000000000000000 .LANCHOR4
     /tmp/ccs4ODSO.s:551    .text.VexSonarTask:0000000000000000 VexSonarTask
     /tmp/ccs4ODSO.s:494    .text.vexSonarPing:0000000000000000 $t
     /tmp/ccs4ODSO.s:500    .text.vexSonarPing:0000000000000000 vexSonarPing
     /tmp/ccs4ODSO.s:546    .text.VexSonarTask:0000000000000000 $t
     /tmp/ccs4ODSO.s:895    .rodata.str1.4:0000000000000000 .LC0
     /tmp/ccs4ODSO.s:886    .rodata.vexSonarGpt:0000000000000000 .LANCHOR5
     /tmp/ccs4ODSO.s:722    .text.vexSonarGetCm:0000000000000000 $t
     /tmp/ccs4ODSO.s:728    .text.vexSonarGetCm:0000000000000000 vexSonarGetCm
     /tmp/ccs4ODSO.s:755    .text.vexSonarGetInch:0000000000000000 $t
     /tmp/ccs4ODSO.s:761    .text.vexSonarGetInch:0000000000000000 vexSonarGetInch
     /tmp/ccs4ODSO.s:788    .text.vexSonarDebug:0000000000000000 $t
     /tmp/ccs4ODSO.s:794    .text.vexSonarDebug:0000000000000000 vexSonarDebug
     /tmp/ccs4ODSO.s:898    .rodata.str1.4:0000000000000008 .LC1
     /tmp/ccs4ODSO.s:900    .rodata.str1.4:0000000000000018 .LC2
     /tmp/ccs4ODSO.s:853    .text.vexSonarDebug:000000000000005c $d
     /tmp/ccs4ODSO.s:858    .bss.vexSonarThread:0000000000000000 $d
     /tmp/ccs4ODSO.s:862    .bss.vexSonarThread:0000000000000000 vexSonarThread
     /tmp/ccs4ODSO.s:865    .bss.waVexSonarTask:0000000000000000 $d
     /tmp/ccs4ODSO.s:869    .bss.waVexSonarTask:0000000000000000 waVexSonarTask
     /tmp/ccs4ODSO.s:875    .bss.nextSonar:0000000000000000 nextSonar
     /tmp/ccs4ODSO.s:876    .bss.nextSonar:0000000000000000 $d
     /tmp/ccs4ODSO.s:878    .bss.vexSonars:0000000000000000 $d
     /tmp/ccs4ODSO.s:882    .bss.vexSonars:0000000000000000 vexSonars
     /tmp/ccs4ODSO.s:885    .rodata.vexSonarGpt:0000000000000000 $d
     /tmp/ccs4ODSO.s:889    .rodata.vexSonarGpt:0000000000000000 vexSonarGpt
     /tmp/ccs4ODSO.s:894    .rodata.str1.4:0000000000000000 $d
     /tmp/ccs4ODSO.s:906    .bss.nextState:0000000000000000 nextState
     /tmp/ccs4ODSO.s:907    .bss.nextState:0000000000000000 $d
                     .debug_frame:0000000000000010 $d

UNDEFINED SYMBOLS
GPTD5
vexDigitalPinSet
gptStartOneShotI
vexDigitalModeSet
vexioDefinition
ARM GAS  /tmp/ccs4ODSO.s 			page 96


vexExtSet
EXTD1
extChannelEnable
extChannelDisable
chThdCreateStatic
gptStartOneShot
rlist
gptStart
vtlist
chThdSleep
chThdSleepUntil
vex_chprintf
