ARM GAS  /tmp/ccPWKzv5.s 			page 1


   1              		.syntax unified
   2              		.cpu cortex-m3
   3              		.fpu softvfp
   4              		.eabi_attribute 20, 1
   5              		.eabi_attribute 21, 1
   6              		.eabi_attribute 23, 3
   7              		.eabi_attribute 24, 1
   8              		.eabi_attribute 25, 1
   9              		.eabi_attribute 26, 1
  10              		.eabi_attribute 30, 2
  11              		.eabi_attribute 34, 1
  12              		.eabi_attribute 18, 4
  13              		.thumb
  14              		.file	"vexsensor.c"
  15              		.text
  16              	.Ltext0:
  17              		.cfi_sections	.debug_frame
  18              		.section	.text.vexSensorIsAnalog,"ax",%progbits
  19              		.align	2
  20              		.p2align 4,,15
  21              		.global	vexSensorIsAnalog
  22              		.thumb
  23              		.thumb_func
  24              		.type	vexSensorIsAnalog, %function
  25              	vexSensorIsAnalog:
  26              	.LFB63:
  27              		.file 1 "../../fw/vexsensor.c"
  28              		.loc 1 63 0
  29              		.cfi_startproc
  30              		@ args = 0, pretend = 0, frame = 0
  31              		@ frame_needed = 0, uses_anonymous_args = 0
  32              		@ link register save eliminated.
  33              	.LVL0:
  34              		.loc 1 64 0
  35 0000 C0B2     		uxtb	r0, r0
  36              		.loc 1 68 0
  37 0002 0728     		cmp	r0, #7
  38 0004 8CBF     		ite	hi
  39 0006 0020     		movhi	r0, #0
  40              	.LVL1:
  41 0008 0120     		movls	r0, #1
  42 000a 7047     		bx	lr
  43              		.cfi_endproc
  44              	.LFE63:
  45              		.size	vexSensorIsAnalog, .-vexSensorIsAnalog
  46 000c AFF30080 		.section	.text.vexSensorValueGet,"ax",%progbits
  47              		.align	2
  48              		.p2align 4,,15
  49              		.global	vexSensorValueGet
  50              		.thumb
  51              		.thumb_func
  52              		.type	vexSensorValueGet, %function
  53              	vexSensorValueGet:
  54              	.LFB64:
  55              		.loc 1 79 0
  56              		.cfi_startproc
  57              		@ args = 0, pretend = 0, frame = 0
ARM GAS  /tmp/ccPWKzv5.s 			page 2


  58              		@ frame_needed = 0, uses_anonymous_args = 0
  59              	.LVL2:
  60              		.loc 1 80 0
  61 0000 0728     		cmp	r0, #7
  62              		.loc 1 79 0
  63 0002 10B5     		push	{r4, lr}
  64              		.cfi_def_cfa_offset 8
  65              		.cfi_offset 4, -8
  66              		.cfi_offset 14, -4
  67              		.loc 1 80 0
  68 0004 26DD     		ble	.L16
  69              		.loc 1 83 0
  70 0006 1328     		cmp	r0, #19
  71 0008 08DD     		ble	.L17
  72              		.loc 1 119 0
  73 000a 1B28     		cmp	r0, #27
  74 000c 01DD     		ble	.L18
  75              	.LVL3:
  76              	.L14:
  77              		.loc 1 125 0
  78 000e 0020     		movs	r0, #0
  79              		.loc 1 126 0
  80 0010 10BD     		pop	{r4, pc}
  81              	.LVL4:
  82              	.L18:
  83              	.LBB2:
  84              		.loc 1 122 0
  85 0012 1438     		subs	r0, r0, #20
  86              	.LVL5:
  87              	.LBE2:
  88              		.loc 1 126 0
  89 0014 BDE81040 		pop	{r4, lr}
  90              	.LBB3:
  91              		.loc 1 122 0
  92 0018 FFF7FEBF 		b	vexImeGetCount
  93              	.LVL6:
  94              	.L17:
  95              	.LBE3:
  96              	.LBB4:
  97              		.loc 1 86 0
  98 001c A0F10803 		sub	r3, r0, #8
  99              	.LVL7:
 100              		.loc 1 87 0
 101 0020 5CB2     		sxtb	r4, r3
 102 0022 2046     		mov	r0, r4
 103              	.LVL8:
 104 0024 FFF7FEFF 		bl	vexDigitalTypeGet
 105              	.LVL9:
 106              		.loc 1 89 0
 107 0028 0138     		subs	r0, r0, #1
 108              	.LVL10:
 109 002a 0728     		cmp	r0, #7
 110 002c EFD8     		bhi	.L14
 111 002e 01A3     		adr	r3, .L7
 112 0030 53F820F0 		ldr	pc, [r3, r0, lsl #2]
 113              		.p2align 2
 114              	.L7:
ARM GAS  /tmp/ccPWKzv5.s 			page 3


 115 0034 5B000000 		.word	.L12+1
 116 0038 5B000000 		.word	.L12+1
 117 003c 63000000 		.word	.L9+1
 118 0040 81000000 		.word	.L10+1
 119 0044 73000000 		.word	.L11+1
 120 0048 0F000000 		.word	.L14+1
 121 004c 0F000000 		.word	.L14+1
 122 0050 5B000000 		.word	.L12+1
 123              	.LVL11:
 124              	.L16:
 125              	.LBE4:
 126              		.loc 1 81 0
 127 0054 FFF7FEFF 		bl	vexAdcGet
 128              	.LVL12:
 129 0058 10BD     		pop	{r4, pc}
 130              	.L12:
 131              	.LBB5:
 132              		.loc 1 100 0
 133 005a 2046     		mov	r0, r4
 134 005c FFF7FEFF 		bl	vexDigitalPinGet
 135              	.LVL13:
 136 0060 10BD     		pop	{r4, pc}
 137              	.L9:
 138              		.loc 1 103 0
 139 0062 2046     		mov	r0, r4
 140 0064 FFF7FEFF 		bl	vexDigitalChannelGet
 141              	.LVL14:
 142              	.LBE5:
 143              		.loc 1 126 0
 144 0068 BDE81040 		pop	{r4, lr}
 145              	.LBB6:
 146              		.loc 1 104 0
 147 006c 00B2     		sxth	r0, r0
 148 006e FFF7FEBF 		b	vexEncoderGet
 149              	.LVL15:
 150              	.L11:
 151              		.loc 1 111 0
 152 0072 2046     		mov	r0, r4
 153 0074 FFF7FEFF 		bl	vexDigitalChannelGet
 154              	.LVL16:
 155              		.loc 1 112 0
 156 0078 C0B2     		uxtb	r0, r0
 157              	.LVL17:
 158 007a FFF7FEFF 		bl	vexSonarGetInch
 159              	.LVL18:
 160 007e 10BD     		pop	{r4, pc}
 161              	.L10:
 162              		.loc 1 107 0
 163 0080 2046     		mov	r0, r4
 164 0082 FFF7FEFF 		bl	vexDigitalChannelGet
 165              	.LVL19:
 166              		.loc 1 108 0
 167 0086 C0B2     		uxtb	r0, r0
 168              	.LVL20:
 169 0088 FFF7FEFF 		bl	vexSonarGetCm
 170              	.LVL21:
 171 008c 10BD     		pop	{r4, pc}
ARM GAS  /tmp/ccPWKzv5.s 			page 4


 172              	.LBE6:
 173              		.cfi_endproc
 174              	.LFE64:
 175              		.size	vexSensorValueGet, .-vexSensorValueGet
 176 008e 00BF     		.section	.text.vexSensorValueSet,"ax",%progbits
 177              		.align	2
 178              		.p2align 4,,15
 179              		.global	vexSensorValueSet
 180              		.thumb
 181              		.thumb_func
 182              		.type	vexSensorValueSet, %function
 183              	vexSensorValueSet:
 184              	.LFB65:
 185              		.loc 1 138 0
 186              		.cfi_startproc
 187              		@ args = 0, pretend = 0, frame = 0
 188              		@ frame_needed = 0, uses_anonymous_args = 0
 189              	.LVL22:
 190              		.loc 1 139 0
 191 0000 0728     		cmp	r0, #7
 192              		.loc 1 138 0
 193 0002 38B5     		push	{r3, r4, r5, lr}
 194              		.cfi_def_cfa_offset 16
 195              		.cfi_offset 3, -16
 196              		.cfi_offset 4, -12
 197              		.cfi_offset 5, -8
 198              		.cfi_offset 14, -4
 199              		.loc 1 138 0
 200 0004 0C46     		mov	r4, r1
 201              		.loc 1 139 0
 202 0006 03DD     		ble	.L19
 203              		.loc 1 142 0
 204 0008 1328     		cmp	r0, #19
 205 000a 02DD     		ble	.L24
 206              		.loc 1 172 0
 207 000c 1B28     		cmp	r0, #27
 208 000e 0ADD     		ble	.L25
 209              	.L19:
 210 0010 38BD     		pop	{r3, r4, r5, pc}
 211              	.L24:
 212              	.LBB7:
 213              		.loc 1 145 0
 214 0012 0838     		subs	r0, r0, #8
 215              	.LVL23:
 216              		.loc 1 146 0
 217 0014 45B2     		sxtb	r5, r0
 218 0016 2846     		mov	r0, r5
 219              	.LVL24:
 220 0018 FFF7FEFF 		bl	vexDigitalTypeGet
 221              	.LVL25:
 222              		.loc 1 148 0
 223 001c 0228     		cmp	r0, #2
 224 001e 10D0     		beq	.L22
 225 0020 0328     		cmp	r0, #3
 226 0022 05D0     		beq	.L23
 227 0024 38BD     		pop	{r3, r4, r5, pc}
 228              	.LVL26:
ARM GAS  /tmp/ccPWKzv5.s 			page 5


 229              	.L25:
 230              	.LBE7:
 231              	.LBB8:
 232              		.loc 1 175 0
 233 0026 1438     		subs	r0, r0, #20
 234              	.LVL27:
 235              	.LBE8:
 236              		.loc 1 179 0
 237 0028 BDE83840 		pop	{r3, r4, r5, lr}
 238              	.LBB9:
 239              		.loc 1 175 0
 240 002c FFF7FEBF 		b	vexImeSetCount
 241              	.LVL28:
 242              	.L23:
 243              	.LBE9:
 244              	.LBB10:
 245              		.loc 1 160 0
 246 0030 2846     		mov	r0, r5
 247              	.LVL29:
 248 0032 FFF7FEFF 		bl	vexDigitalChannelGet
 249              	.LVL30:
 250              		.loc 1 161 0
 251 0036 2146     		mov	r1, r4
 252 0038 00B2     		sxth	r0, r0
 253              	.LBE10:
 254              		.loc 1 179 0
 255 003a BDE83840 		pop	{r3, r4, r5, lr}
 256              	.LVL31:
 257              	.LBB11:
 258              		.loc 1 161 0
 259 003e FFF7FEBF 		b	vexEncoderSet
 260              	.LVL32:
 261              	.L22:
 262              		.loc 1 157 0
 263 0042 2846     		mov	r0, r5
 264              	.LVL33:
 265 0044 E1B2     		uxtb	r1, r4
 266              	.LBE11:
 267              		.loc 1 179 0
 268 0046 BDE83840 		pop	{r3, r4, r5, lr}
 269              	.LVL34:
 270              	.LBB12:
 271              		.loc 1 157 0
 272 004a FFF7FEBF 		b	vexDigitalPinSet
 273              	.LVL35:
 274              	.LBE12:
 275              		.cfi_endproc
 276              	.LFE65:
 277              		.size	vexSensorValueSet, .-vexSensorValueSet
 278 004e 00BF     		.text
 279              	.Letext0:
 280              		.file 2 "/usr/include/newlib/machine/_default_types.h"
 281              		.file 3 "/usr/include/newlib/stdint.h"
 282              		.file 4 "../../../../ChibiOS_2.6.2/os/ports/GCC/ARMCMx/chtypes.h"
 283              		.file 5 "../../fw/vexdigital.h"
 284              		.file 6 "../../fw/vexsonar.h"
 285              		.file 7 "../../fw/vexconfig.h"
ARM GAS  /tmp/ccPWKzv5.s 			page 6


 286              		.file 8 "../../fw/vexsensor.h"
 287              		.file 9 "../../fw/vexime.h"
 288              		.file 10 "../../fw/vexencoder.h"
 289              		.file 11 "../../fw/vexanalog.h"
 290              		.file 12 "../../../../ChibiOS_2.6.2/os/ports/common/ARMCMx/CMSIS/include/core_cm3.h"
 291              		.section	.debug_info,"",%progbits
 292              	.Ldebug_info0:
 293 0000 8F050000 		.4byte	0x58f
 294 0004 0400     		.2byte	0x4
 295 0006 00000000 		.4byte	.Ldebug_abbrev0
 296 000a 04       		.byte	0x4
 297 000b 01       		.uleb128 0x1
 298 000c 3F010000 		.4byte	.LASF100
 299 0010 01       		.byte	0x1
 300 0011 85050000 		.4byte	.LASF101
 301 0015 A4050000 		.4byte	.LASF102
 302 0019 78000000 		.4byte	.Ldebug_ranges0+0x78
 303 001d 00000000 		.4byte	0
 304 0021 00000000 		.4byte	.Ldebug_line0
 305 0025 02       		.uleb128 0x2
 306 0026 04       		.byte	0x4
 307 0027 05       		.byte	0x5
 308 0028 696E7400 		.ascii	"int\000"
 309 002c 03       		.uleb128 0x3
 310 002d 04       		.byte	0x4
 311 002e 07       		.byte	0x7
 312 002f 64060000 		.4byte	.LASF0
 313 0033 03       		.uleb128 0x3
 314 0034 01       		.byte	0x1
 315 0035 06       		.byte	0x6
 316 0036 ED020000 		.4byte	.LASF1
 317 003a 03       		.uleb128 0x3
 318 003b 01       		.byte	0x1
 319 003c 08       		.byte	0x8
 320 003d D1020000 		.4byte	.LASF2
 321 0041 04       		.uleb128 0x4
 322 0042 9A050000 		.4byte	.LASF4
 323 0046 02       		.byte	0x2
 324 0047 25       		.byte	0x25
 325 0048 4C000000 		.4byte	0x4c
 326 004c 03       		.uleb128 0x3
 327 004d 02       		.byte	0x2
 328 004e 05       		.byte	0x5
 329 004f 9F000000 		.4byte	.LASF3
 330 0053 04       		.uleb128 0x4
 331 0054 CE000000 		.4byte	.LASF5
 332 0058 02       		.byte	0x2
 333 0059 26       		.byte	0x26
 334 005a 5E000000 		.4byte	0x5e
 335 005e 03       		.uleb128 0x3
 336 005f 02       		.byte	0x2
 337 0060 07       		.byte	0x7
 338 0061 5E030000 		.4byte	.LASF6
 339 0065 04       		.uleb128 0x4
 340 0066 50050000 		.4byte	.LASF7
 341 006a 02       		.byte	0x2
 342 006b 37       		.byte	0x37
ARM GAS  /tmp/ccPWKzv5.s 			page 7


 343 006c 70000000 		.4byte	0x70
 344 0070 03       		.uleb128 0x3
 345 0071 04       		.byte	0x4
 346 0072 05       		.byte	0x5
 347 0073 88020000 		.4byte	.LASF8
 348 0077 03       		.uleb128 0x3
 349 0078 04       		.byte	0x4
 350 0079 07       		.byte	0x7
 351 007a E5040000 		.4byte	.LASF9
 352 007e 03       		.uleb128 0x3
 353 007f 08       		.byte	0x8
 354 0080 05       		.byte	0x5
 355 0081 5F020000 		.4byte	.LASF10
 356 0085 03       		.uleb128 0x3
 357 0086 08       		.byte	0x8
 358 0087 07       		.byte	0x7
 359 0088 F9020000 		.4byte	.LASF11
 360 008c 04       		.uleb128 0x4
 361 008d 26060000 		.4byte	.LASF12
 362 0091 03       		.byte	0x3
 363 0092 35       		.byte	0x35
 364 0093 41000000 		.4byte	0x41
 365 0097 04       		.uleb128 0x4
 366 0098 35030000 		.4byte	.LASF13
 367 009c 03       		.byte	0x3
 368 009d 36       		.byte	0x36
 369 009e 53000000 		.4byte	0x53
 370 00a2 04       		.uleb128 0x4
 371 00a3 B6030000 		.4byte	.LASF14
 372 00a7 03       		.byte	0x3
 373 00a8 41       		.byte	0x41
 374 00a9 65000000 		.4byte	0x65
 375 00ad 04       		.uleb128 0x4
 376 00ae 2E060000 		.4byte	.LASF15
 377 00b2 04       		.byte	0x4
 378 00b3 2B       		.byte	0x2b
 379 00b4 B8000000 		.4byte	0xb8
 380 00b8 03       		.uleb128 0x3
 381 00b9 01       		.byte	0x1
 382 00ba 02       		.byte	0x2
 383 00bb 14040000 		.4byte	.LASF16
 384 00bf 03       		.uleb128 0x3
 385 00c0 04       		.byte	0x4
 386 00c1 07       		.byte	0x7
 387 00c2 A9000000 		.4byte	.LASF17
 388 00c6 03       		.uleb128 0x3
 389 00c7 01       		.byte	0x1
 390 00c8 08       		.byte	0x8
 391 00c9 7D030000 		.4byte	.LASF18
 392 00cd 05       		.uleb128 0x5
 393 00ce A2000000 		.4byte	0xa2
 394 00d2 06       		.uleb128 0x6
 395 00d3 01       		.byte	0x1
 396 00d4 05       		.byte	0x5
 397 00d5 8D       		.byte	0x8d
 398 00d6 2F010000 		.4byte	0x12f
 399 00da 07       		.uleb128 0x7
ARM GAS  /tmp/ccPWKzv5.s 			page 8


 400 00db 0E000000 		.4byte	.LASF19
 401 00df 7F       		.sleb128 -1
 402 00e0 07       		.uleb128 0x7
 403 00e1 9A030000 		.4byte	.LASF20
 404 00e5 00       		.sleb128 0
 405 00e6 07       		.uleb128 0x7
 406 00e7 A8030000 		.4byte	.LASF21
 407 00eb 01       		.sleb128 1
 408 00ec 07       		.uleb128 0x7
 409 00ed 27030000 		.4byte	.LASF22
 410 00f1 02       		.sleb128 2
 411 00f2 07       		.uleb128 0x7
 412 00f3 BE030000 		.4byte	.LASF23
 413 00f7 03       		.sleb128 3
 414 00f8 07       		.uleb128 0x7
 415 00f9 CC030000 		.4byte	.LASF24
 416 00fd 04       		.sleb128 4
 417 00fe 07       		.uleb128 0x7
 418 00ff DA030000 		.4byte	.LASF25
 419 0103 05       		.sleb128 5
 420 0104 07       		.uleb128 0x7
 421 0105 E8030000 		.4byte	.LASF26
 422 0109 06       		.sleb128 6
 423 010a 07       		.uleb128 0x7
 424 010b 3E030000 		.4byte	.LASF27
 425 010f 07       		.sleb128 7
 426 0110 07       		.uleb128 0x7
 427 0111 06040000 		.4byte	.LASF28
 428 0115 08       		.sleb128 8
 429 0116 07       		.uleb128 0x7
 430 0117 DC010000 		.4byte	.LASF29
 431 011b 09       		.sleb128 9
 432 011c 07       		.uleb128 0x7
 433 011d EB010000 		.4byte	.LASF30
 434 0121 0A       		.sleb128 10
 435 0122 07       		.uleb128 0x7
 436 0123 FA010000 		.4byte	.LASF31
 437 0127 0B       		.sleb128 11
 438 0128 07       		.uleb128 0x7
 439 0129 F9050000 		.4byte	.LASF32
 440 012d 0C       		.sleb128 12
 441 012e 00       		.byte	0
 442 012f 04       		.uleb128 0x4
 443 0130 17060000 		.4byte	.LASF33
 444 0134 05       		.byte	0x5
 445 0135 9D       		.byte	0x9d
 446 0136 D2000000 		.4byte	0xd2
 447 013a 06       		.uleb128 0x6
 448 013b 01       		.byte	0x1
 449 013c 05       		.byte	0x5
 450 013d AA       		.byte	0xaa
 451 013e 4F010000 		.4byte	0x14f
 452 0142 07       		.uleb128 0x7
 453 0143 39020000 		.4byte	.LASF34
 454 0147 00       		.sleb128 0
 455 0148 07       		.uleb128 0x7
 456 0149 1F000000 		.4byte	.LASF35
ARM GAS  /tmp/ccPWKzv5.s 			page 9


 457 014d 01       		.sleb128 1
 458 014e 00       		.byte	0
 459 014f 04       		.uleb128 0x4
 460 0150 D9000000 		.4byte	.LASF36
 461 0154 05       		.byte	0x5
 462 0155 AD       		.byte	0xad
 463 0156 3A010000 		.4byte	0x13a
 464 015a 06       		.uleb128 0x6
 465 015b 01       		.byte	0x1
 466 015c 06       		.byte	0x6
 467 015d 39       		.byte	0x39
 468 015e 87010000 		.4byte	0x187
 469 0162 07       		.uleb128 0x7
 470 0163 55000000 		.4byte	.LASF37
 471 0167 00       		.sleb128 0
 472 0168 07       		.uleb128 0x7
 473 0169 1A040000 		.4byte	.LASF38
 474 016d 01       		.sleb128 1
 475 016e 07       		.uleb128 0x7
 476 016f 72000000 		.4byte	.LASF39
 477 0173 02       		.sleb128 2
 478 0174 07       		.uleb128 0x7
 479 0175 7C020000 		.4byte	.LASF40
 480 0179 03       		.sleb128 3
 481 017a 07       		.uleb128 0x7
 482 017b 93000000 		.4byte	.LASF41
 483 017f 04       		.sleb128 4
 484 0180 07       		.uleb128 0x7
 485 0181 B4020000 		.4byte	.LASF42
 486 0185 05       		.sleb128 5
 487 0186 00       		.byte	0
 488 0187 04       		.uleb128 0x4
 489 0188 61000000 		.4byte	.LASF43
 490 018c 06       		.byte	0x6
 491 018d 41       		.byte	0x41
 492 018e 5A010000 		.4byte	0x15a
 493 0192 06       		.uleb128 0x6
 494 0193 01       		.byte	0x1
 495 0194 07       		.byte	0x7
 496 0195 3A       		.byte	0x3a
 497 0196 D1010000 		.4byte	0x1d1
 498 019a 07       		.uleb128 0x7
 499 019b 6D020000 		.4byte	.LASF44
 500 019f 00       		.sleb128 0
 501 01a0 07       		.uleb128 0x7
 502 01a1 36040000 		.4byte	.LASF45
 503 01a5 01       		.sleb128 1
 504 01a6 07       		.uleb128 0x7
 505 01a7 82030000 		.4byte	.LASF46
 506 01ab 02       		.sleb128 2
 507 01ac 07       		.uleb128 0x7
 508 01ad 5A050000 		.4byte	.LASF47
 509 01b1 03       		.sleb128 3
 510 01b2 07       		.uleb128 0x7
 511 01b3 48020000 		.4byte	.LASF48
 512 01b7 04       		.sleb128 4
 513 01b8 07       		.uleb128 0x7
ARM GAS  /tmp/ccPWKzv5.s 			page 10


 514 01b9 16050000 		.4byte	.LASF49
 515 01bd 05       		.sleb128 5
 516 01be 07       		.uleb128 0x7
 517 01bf 00000000 		.4byte	.LASF50
 518 01c3 06       		.sleb128 6
 519 01c4 07       		.uleb128 0x7
 520 01c5 10010000 		.4byte	.LASF51
 521 01c9 07       		.sleb128 7
 522 01ca 07       		.uleb128 0x7
 523 01cb A0020000 		.4byte	.LASF52
 524 01cf 08       		.sleb128 8
 525 01d0 00       		.byte	0
 526 01d1 04       		.uleb128 0x4
 527 01d2 C2020000 		.4byte	.LASF53
 528 01d6 07       		.byte	0x7
 529 01d7 45       		.byte	0x45
 530 01d8 92010000 		.4byte	0x192
 531 01dc 06       		.uleb128 0x6
 532 01dd 01       		.byte	0x1
 533 01de 08       		.byte	0x8
 534 01df 3C       		.byte	0x3c
 535 01e0 93020000 		.4byte	0x293
 536 01e4 07       		.uleb128 0x7
 537 01e5 35060000 		.4byte	.LASF54
 538 01e9 7F       		.sleb128 -1
 539 01ea 07       		.uleb128 0x7
 540 01eb 4D040000 		.4byte	.LASF55
 541 01ef 00       		.sleb128 0
 542 01f0 07       		.uleb128 0x7
 543 01f1 60040000 		.4byte	.LASF56
 544 01f5 01       		.sleb128 1
 545 01f6 07       		.uleb128 0x7
 546 01f7 73040000 		.4byte	.LASF57
 547 01fb 02       		.sleb128 2
 548 01fc 07       		.uleb128 0x7
 549 01fd 86040000 		.4byte	.LASF58
 550 0201 03       		.sleb128 3
 551 0202 07       		.uleb128 0x7
 552 0203 99040000 		.4byte	.LASF59
 553 0207 04       		.sleb128 4
 554 0208 07       		.uleb128 0x7
 555 0209 AC040000 		.4byte	.LASF60
 556 020d 05       		.sleb128 5
 557 020e 07       		.uleb128 0x7
 558 020f BF040000 		.4byte	.LASF61
 559 0213 06       		.sleb128 6
 560 0214 07       		.uleb128 0x7
 561 0215 D2040000 		.4byte	.LASF62
 562 0219 07       		.sleb128 7
 563 021a 07       		.uleb128 0x7
 564 021b 71060000 		.4byte	.LASF63
 565 021f 08       		.sleb128 8
 566 0220 07       		.uleb128 0x7
 567 0221 85060000 		.4byte	.LASF64
 568 0225 09       		.sleb128 9
 569 0226 07       		.uleb128 0x7
 570 0227 99060000 		.4byte	.LASF65
ARM GAS  /tmp/ccPWKzv5.s 			page 11


 571 022b 0A       		.sleb128 10
 572 022c 07       		.uleb128 0x7
 573 022d AD060000 		.4byte	.LASF66
 574 0231 0B       		.sleb128 11
 575 0232 07       		.uleb128 0x7
 576 0233 C1060000 		.4byte	.LASF67
 577 0237 0C       		.sleb128 12
 578 0238 07       		.uleb128 0x7
 579 0239 D5060000 		.4byte	.LASF68
 580 023d 0D       		.sleb128 13
 581 023e 07       		.uleb128 0x7
 582 023f E9060000 		.4byte	.LASF69
 583 0243 0E       		.sleb128 14
 584 0244 07       		.uleb128 0x7
 585 0245 FD060000 		.4byte	.LASF70
 586 0249 0F       		.sleb128 15
 587 024a 07       		.uleb128 0x7
 588 024b 11070000 		.4byte	.LASF71
 589 024f 10       		.sleb128 16
 590 0250 07       		.uleb128 0x7
 591 0251 7E000000 		.4byte	.LASF72
 592 0255 11       		.sleb128 17
 593 0256 07       		.uleb128 0x7
 594 0257 3B050000 		.4byte	.LASF73
 595 025b 12       		.sleb128 18
 596 025c 07       		.uleb128 0x7
 597 025d 70050000 		.4byte	.LASF74
 598 0261 13       		.sleb128 19
 599 0262 07       		.uleb128 0x7
 600 0263 2F010000 		.4byte	.LASF75
 601 0267 14       		.sleb128 20
 602 0268 07       		.uleb128 0x7
 603 0269 F6030000 		.4byte	.LASF76
 604 026d 15       		.sleb128 21
 605 026e 07       		.uleb128 0x7
 606 026f 00010000 		.4byte	.LASF77
 607 0273 16       		.sleb128 22
 608 0274 07       		.uleb128 0x7
 609 0275 26040000 		.4byte	.LASF78
 610 0279 17       		.sleb128 23
 611 027a 07       		.uleb128 0x7
 612 027b F7040000 		.4byte	.LASF79
 613 027f 18       		.sleb128 24
 614 0280 07       		.uleb128 0x7
 615 0281 09020000 		.4byte	.LASF80
 616 0285 19       		.sleb128 25
 617 0286 07       		.uleb128 0x7
 618 0287 19020000 		.4byte	.LASF81
 619 028b 1A       		.sleb128 26
 620 028c 07       		.uleb128 0x7
 621 028d 29020000 		.4byte	.LASF82
 622 0291 1B       		.sleb128 27
 623 0292 00       		.byte	0
 624 0293 04       		.uleb128 0x4
 625 0294 71030000 		.4byte	.LASF83
 626 0298 08       		.byte	0x8
 627 0299 64       		.byte	0x64
ARM GAS  /tmp/ccPWKzv5.s 			page 12


 628 029a DC010000 		.4byte	0x1dc
 629 029e 08       		.uleb128 0x8
 630 029f 25070000 		.4byte	.LASF84
 631 02a3 01       		.byte	0x1
 632 02a4 3E       		.byte	0x3e
 633 02a5 AD000000 		.4byte	0xad
 634 02a9 00000000 		.4byte	.LFB63
 635 02ad 0C000000 		.4byte	.LFE63-.LFB63
 636 02b1 01       		.uleb128 0x1
 637 02b2 9C       		.byte	0x9c
 638 02b3 C7020000 		.4byte	0x2c7
 639 02b7 09       		.uleb128 0x9
 640 02b8 28010000 		.4byte	.LASF86
 641 02bc 01       		.byte	0x1
 642 02bd 3E       		.byte	0x3e
 643 02be 93020000 		.4byte	0x293
 644 02c2 00000000 		.4byte	.LLST0
 645 02c6 00       		.byte	0
 646 02c7 08       		.uleb128 0x8
 647 02c8 15030000 		.4byte	.LASF85
 648 02cc 01       		.byte	0x1
 649 02cd 4E       		.byte	0x4e
 650 02ce A2000000 		.4byte	0xa2
 651 02d2 00000000 		.4byte	.LFB64
 652 02d6 8E000000 		.4byte	.LFE64-.LFB64
 653 02da 01       		.uleb128 0x1
 654 02db 9C       		.byte	0x9c
 655 02dc D1030000 		.4byte	0x3d1
 656 02e0 09       		.uleb128 0x9
 657 02e1 28010000 		.4byte	.LASF86
 658 02e5 01       		.byte	0x1
 659 02e6 4E       		.byte	0x4e
 660 02e7 93020000 		.4byte	0x293
 661 02eb 21000000 		.4byte	.LLST1
 662 02ef 0A       		.uleb128 0xa
 663 02f0 00000000 		.4byte	.Ldebug_ranges0+0
 664 02f4 11030000 		.4byte	0x311
 665 02f8 0B       		.uleb128 0xb
 666 02f9 5A020000 		.4byte	.LASF87
 667 02fd 01       		.byte	0x1
 668 02fe 79       		.byte	0x79
 669 02ff 8C000000 		.4byte	0x8c
 670 0303 8D000000 		.4byte	.LLST2
 671 0307 0C       		.uleb128 0xc
 672 0308 1C000000 		.4byte	.LVL6
 673 030c AC040000 		.4byte	0x4ac
 674 0310 00       		.byte	0
 675 0311 0A       		.uleb128 0xa
 676 0312 18000000 		.4byte	.Ldebug_ranges0+0x18
 677 0316 C7030000 		.4byte	0x3c7
 678 031a 0B       		.uleb128 0xb
 679 031b 5A020000 		.4byte	.LASF87
 680 031f 01       		.byte	0x1
 681 0320 55       		.byte	0x55
 682 0321 8C000000 		.4byte	0x8c
 683 0325 BB000000 		.4byte	.LLST3
 684 0329 0D       		.uleb128 0xd
ARM GAS  /tmp/ccPWKzv5.s 			page 13


 685 032a 70696E00 		.ascii	"pin\000"
 686 032e 01       		.byte	0x1
 687 032f 56       		.byte	0x56
 688 0330 2F010000 		.4byte	0x12f
 689 0334 E4000000 		.4byte	.LLST4
 690 0338 0B       		.uleb128 0xb
 691 0339 10030000 		.4byte	.LASF88
 692 033d 01       		.byte	0x1
 693 033e 57       		.byte	0x57
 694 033f D1010000 		.4byte	0x1d1
 695 0343 F7000000 		.4byte	.LLST5
 696 0347 0E       		.uleb128 0xe
 697 0348 28000000 		.4byte	.LVL9
 698 034c C1040000 		.4byte	0x4c1
 699 0350 5B030000 		.4byte	0x35b
 700 0354 0F       		.uleb128 0xf
 701 0355 01       		.uleb128 0x1
 702 0356 50       		.byte	0x50
 703 0357 02       		.uleb128 0x2
 704 0358 74       		.byte	0x74
 705 0359 00       		.sleb128 0
 706 035a 00       		.byte	0
 707 035b 0E       		.uleb128 0xe
 708 035c 60000000 		.4byte	.LVL13
 709 0360 D6040000 		.4byte	0x4d6
 710 0364 6F030000 		.4byte	0x36f
 711 0368 0F       		.uleb128 0xf
 712 0369 01       		.uleb128 0x1
 713 036a 50       		.byte	0x50
 714 036b 02       		.uleb128 0x2
 715 036c 74       		.byte	0x74
 716 036d 00       		.sleb128 0
 717 036e 00       		.byte	0
 718 036f 0E       		.uleb128 0xe
 719 0370 68000000 		.4byte	.LVL14
 720 0374 EB040000 		.4byte	0x4eb
 721 0378 83030000 		.4byte	0x383
 722 037c 0F       		.uleb128 0xf
 723 037d 01       		.uleb128 0x1
 724 037e 50       		.byte	0x50
 725 037f 02       		.uleb128 0x2
 726 0380 74       		.byte	0x74
 727 0381 00       		.sleb128 0
 728 0382 00       		.byte	0
 729 0383 0C       		.uleb128 0xc
 730 0384 72000000 		.4byte	.LVL15
 731 0388 00050000 		.4byte	0x500
 732 038c 0E       		.uleb128 0xe
 733 038d 78000000 		.4byte	.LVL16
 734 0391 EB040000 		.4byte	0x4eb
 735 0395 A0030000 		.4byte	0x3a0
 736 0399 0F       		.uleb128 0xf
 737 039a 01       		.uleb128 0x1
 738 039b 50       		.byte	0x50
 739 039c 02       		.uleb128 0x2
 740 039d 74       		.byte	0x74
 741 039e 00       		.sleb128 0
ARM GAS  /tmp/ccPWKzv5.s 			page 14


 742 039f 00       		.byte	0
 743 03a0 10       		.uleb128 0x10
 744 03a1 7E000000 		.4byte	.LVL18
 745 03a5 15050000 		.4byte	0x515
 746 03a9 0E       		.uleb128 0xe
 747 03aa 86000000 		.4byte	.LVL19
 748 03ae EB040000 		.4byte	0x4eb
 749 03b2 BD030000 		.4byte	0x3bd
 750 03b6 0F       		.uleb128 0xf
 751 03b7 01       		.uleb128 0x1
 752 03b8 50       		.byte	0x50
 753 03b9 02       		.uleb128 0x2
 754 03ba 74       		.byte	0x74
 755 03bb 00       		.sleb128 0
 756 03bc 00       		.byte	0
 757 03bd 10       		.uleb128 0x10
 758 03be 8C000000 		.4byte	.LVL21
 759 03c2 2A050000 		.4byte	0x52a
 760 03c6 00       		.byte	0
 761 03c7 10       		.uleb128 0x10
 762 03c8 58000000 		.4byte	.LVL12
 763 03cc 3F050000 		.4byte	0x53f
 764 03d0 00       		.byte	0
 765 03d1 11       		.uleb128 0x11
 766 03d2 BC000000 		.4byte	.LASF103
 767 03d6 01       		.byte	0x1
 768 03d7 89       		.byte	0x89
 769 03d8 00000000 		.4byte	.LFB65
 770 03dc 4E000000 		.4byte	.LFE65-.LFB65
 771 03e0 01       		.uleb128 0x1
 772 03e1 9C       		.byte	0x9c
 773 03e2 A0040000 		.4byte	0x4a0
 774 03e6 09       		.uleb128 0x9
 775 03e7 28010000 		.4byte	.LASF86
 776 03eb 01       		.byte	0x1
 777 03ec 89       		.byte	0x89
 778 03ed 93020000 		.4byte	0x293
 779 03f1 0A010000 		.4byte	.LLST6
 780 03f5 09       		.uleb128 0x9
 781 03f6 FA000000 		.4byte	.LASF89
 782 03fa 01       		.byte	0x1
 783 03fb 89       		.byte	0x89
 784 03fc A2000000 		.4byte	0xa2
 785 0400 44010000 		.4byte	.LLST7
 786 0404 0A       		.uleb128 0xa
 787 0405 38000000 		.4byte	.Ldebug_ranges0+0x38
 788 0409 81040000 		.4byte	0x481
 789 040d 0B       		.uleb128 0xb
 790 040e 5A020000 		.4byte	.LASF87
 791 0412 01       		.byte	0x1
 792 0413 90       		.byte	0x90
 793 0414 8C000000 		.4byte	0x8c
 794 0418 B8010000 		.4byte	.LLST8
 795 041c 0D       		.uleb128 0xd
 796 041d 70696E00 		.ascii	"pin\000"
 797 0421 01       		.byte	0x1
 798 0422 91       		.byte	0x91
ARM GAS  /tmp/ccPWKzv5.s 			page 15


 799 0423 2F010000 		.4byte	0x12f
 800 0427 CB010000 		.4byte	.LLST9
 801 042b 0B       		.uleb128 0xb
 802 042c 10030000 		.4byte	.LASF88
 803 0430 01       		.byte	0x1
 804 0431 92       		.byte	0x92
 805 0432 D1010000 		.4byte	0x1d1
 806 0436 DE010000 		.4byte	.LLST10
 807 043a 0E       		.uleb128 0xe
 808 043b 1C000000 		.4byte	.LVL25
 809 043f C1040000 		.4byte	0x4c1
 810 0443 4E040000 		.4byte	0x44e
 811 0447 0F       		.uleb128 0xf
 812 0448 01       		.uleb128 0x1
 813 0449 50       		.byte	0x50
 814 044a 02       		.uleb128 0x2
 815 044b 75       		.byte	0x75
 816 044c 00       		.sleb128 0
 817 044d 00       		.byte	0
 818 044e 0E       		.uleb128 0xe
 819 044f 36000000 		.4byte	.LVL30
 820 0453 EB040000 		.4byte	0x4eb
 821 0457 62040000 		.4byte	0x462
 822 045b 0F       		.uleb128 0xf
 823 045c 01       		.uleb128 0x1
 824 045d 50       		.byte	0x50
 825 045e 02       		.uleb128 0x2
 826 045f 75       		.byte	0x75
 827 0460 00       		.sleb128 0
 828 0461 00       		.byte	0
 829 0462 12       		.uleb128 0x12
 830 0463 42000000 		.4byte	.LVL32
 831 0467 54050000 		.4byte	0x554
 832 046b 77040000 		.4byte	0x477
 833 046f 0F       		.uleb128 0xf
 834 0470 01       		.uleb128 0x1
 835 0471 51       		.byte	0x51
 836 0472 03       		.uleb128 0x3
 837 0473 F3       		.byte	0xf3
 838 0474 01       		.uleb128 0x1
 839 0475 51       		.byte	0x51
 840 0476 00       		.byte	0
 841 0477 0C       		.uleb128 0xc
 842 0478 4E000000 		.4byte	.LVL35
 843 047c 6A050000 		.4byte	0x56a
 844 0480 00       		.byte	0
 845 0481 13       		.uleb128 0x13
 846 0482 60000000 		.4byte	.Ldebug_ranges0+0x60
 847 0486 0B       		.uleb128 0xb
 848 0487 5A020000 		.4byte	.LASF87
 849 048b 01       		.byte	0x1
 850 048c AE       		.byte	0xae
 851 048d 8C000000 		.4byte	0x8c
 852 0491 07020000 		.4byte	.LLST11
 853 0495 0C       		.uleb128 0xc
 854 0496 30000000 		.4byte	.LVL28
 855 049a 80050000 		.4byte	0x580
ARM GAS  /tmp/ccPWKzv5.s 			page 16


 856 049e 00       		.byte	0
 857 049f 00       		.byte	0
 858 04a0 14       		.uleb128 0x14
 859 04a1 49060000 		.4byte	.LASF104
 860 04a5 0C       		.byte	0xc
 861 04a6 0706     		.2byte	0x607
 862 04a8 CD000000 		.4byte	0xcd
 863 04ac 15       		.uleb128 0x15
 864 04ad 07050000 		.4byte	.LASF90
 865 04b1 09       		.byte	0x9
 866 04b2 B1       		.byte	0xb1
 867 04b3 A2000000 		.4byte	0xa2
 868 04b7 C1040000 		.4byte	0x4c1
 869 04bb 16       		.uleb128 0x16
 870 04bc 8C000000 		.4byte	0x8c
 871 04c0 00       		.byte	0
 872 04c1 15       		.uleb128 0x15
 873 04c2 4C030000 		.4byte	.LASF91
 874 04c6 07       		.byte	0x7
 875 04c7 84       		.byte	0x84
 876 04c8 D1010000 		.4byte	0x1d1
 877 04cc D6040000 		.4byte	0x4d6
 878 04d0 16       		.uleb128 0x16
 879 04d1 2F010000 		.4byte	0x12f
 880 04d5 00       		.byte	0
 881 04d6 15       		.uleb128 0x15
 882 04d7 2F000000 		.4byte	.LASF92
 883 04db 05       		.byte	0x5
 884 04dc C4       		.byte	0xc4
 885 04dd 4F010000 		.4byte	0x14f
 886 04e1 EB040000 		.4byte	0x4eb
 887 04e5 16       		.uleb128 0x16
 888 04e6 2F010000 		.4byte	0x12f
 889 04ea 00       		.byte	0
 890 04eb 15       		.uleb128 0x15
 891 04ec 40000000 		.4byte	.LASF93
 892 04f0 07       		.byte	0x7
 893 04f1 86       		.byte	0x86
 894 04f2 97000000 		.4byte	0x97
 895 04f6 00050000 		.4byte	0x500
 896 04fa 16       		.uleb128 0x16
 897 04fb 2F010000 		.4byte	0x12f
 898 04ff 00       		.byte	0
 899 0500 15       		.uleb128 0x15
 900 0501 09060000 		.4byte	.LASF94
 901 0505 0A       		.byte	0xa
 902 0506 62       		.byte	0x62
 903 0507 A2000000 		.4byte	0xa2
 904 050b 15050000 		.4byte	0x515
 905 050f 16       		.uleb128 0x16
 906 0510 8C000000 		.4byte	0x8c
 907 0514 00       		.byte	0
 908 0515 15       		.uleb128 0x15
 909 0516 EA000000 		.4byte	.LASF95
 910 051a 06       		.byte	0x6
 911 051b 67       		.byte	0x67
 912 051c 8C000000 		.4byte	0x8c
ARM GAS  /tmp/ccPWKzv5.s 			page 17


 913 0520 2A050000 		.4byte	0x52a
 914 0524 16       		.uleb128 0x16
 915 0525 87010000 		.4byte	0x187
 916 0529 00       		.byte	0
 917 052a 15       		.uleb128 0x15
 918 052b 56060000 		.4byte	.LASF96
 919 052f 06       		.byte	0x6
 920 0530 66       		.byte	0x66
 921 0531 8C000000 		.4byte	0x8c
 922 0535 3F050000 		.4byte	0x53f
 923 0539 16       		.uleb128 0x16
 924 053a 87010000 		.4byte	0x187
 925 053e 00       		.byte	0
 926 053f 15       		.uleb128 0x15
 927 0540 B2000000 		.4byte	.LASF97
 928 0544 0B       		.byte	0xb
 929 0545 4F       		.byte	0x4f
 930 0546 8C000000 		.4byte	0x8c
 931 054a 54050000 		.4byte	0x554
 932 054e 16       		.uleb128 0x16
 933 054f 8C000000 		.4byte	0x8c
 934 0553 00       		.byte	0
 935 0554 17       		.uleb128 0x17
 936 0555 DF020000 		.4byte	.LASF98
 937 0559 0A       		.byte	0xa
 938 055a 63       		.byte	0x63
 939 055b 6A050000 		.4byte	0x56a
 940 055f 16       		.uleb128 0x16
 941 0560 8C000000 		.4byte	0x8c
 942 0564 16       		.uleb128 0x16
 943 0565 A2000000 		.4byte	0xa2
 944 0569 00       		.byte	0
 945 056a 17       		.uleb128 0x17
 946 056b 2A050000 		.4byte	.LASF99
 947 056f 05       		.byte	0x5
 948 0570 C3       		.byte	0xc3
 949 0571 80050000 		.4byte	0x580
 950 0575 16       		.uleb128 0x16
 951 0576 2F010000 		.4byte	0x12f
 952 057a 16       		.uleb128 0x16
 953 057b 4F010000 		.4byte	0x14f
 954 057f 00       		.byte	0
 955 0580 18       		.uleb128 0x18
 956 0581 91020000 		.4byte	.LASF105
 957 0585 09       		.byte	0x9
 958 0586 B2       		.byte	0xb2
 959 0587 16       		.uleb128 0x16
 960 0588 8C000000 		.4byte	0x8c
 961 058c 16       		.uleb128 0x16
 962 058d A2000000 		.4byte	0xa2
 963 0591 00       		.byte	0
 964 0592 00       		.byte	0
 965              		.section	.debug_abbrev,"",%progbits
 966              	.Ldebug_abbrev0:
 967 0000 01       		.uleb128 0x1
 968 0001 11       		.uleb128 0x11
 969 0002 01       		.byte	0x1
ARM GAS  /tmp/ccPWKzv5.s 			page 18


 970 0003 25       		.uleb128 0x25
 971 0004 0E       		.uleb128 0xe
 972 0005 13       		.uleb128 0x13
 973 0006 0B       		.uleb128 0xb
 974 0007 03       		.uleb128 0x3
 975 0008 0E       		.uleb128 0xe
 976 0009 1B       		.uleb128 0x1b
 977 000a 0E       		.uleb128 0xe
 978 000b 55       		.uleb128 0x55
 979 000c 17       		.uleb128 0x17
 980 000d 11       		.uleb128 0x11
 981 000e 01       		.uleb128 0x1
 982 000f 10       		.uleb128 0x10
 983 0010 17       		.uleb128 0x17
 984 0011 00       		.byte	0
 985 0012 00       		.byte	0
 986 0013 02       		.uleb128 0x2
 987 0014 24       		.uleb128 0x24
 988 0015 00       		.byte	0
 989 0016 0B       		.uleb128 0xb
 990 0017 0B       		.uleb128 0xb
 991 0018 3E       		.uleb128 0x3e
 992 0019 0B       		.uleb128 0xb
 993 001a 03       		.uleb128 0x3
 994 001b 08       		.uleb128 0x8
 995 001c 00       		.byte	0
 996 001d 00       		.byte	0
 997 001e 03       		.uleb128 0x3
 998 001f 24       		.uleb128 0x24
 999 0020 00       		.byte	0
 1000 0021 0B       		.uleb128 0xb
 1001 0022 0B       		.uleb128 0xb
 1002 0023 3E       		.uleb128 0x3e
 1003 0024 0B       		.uleb128 0xb
 1004 0025 03       		.uleb128 0x3
 1005 0026 0E       		.uleb128 0xe
 1006 0027 00       		.byte	0
 1007 0028 00       		.byte	0
 1008 0029 04       		.uleb128 0x4
 1009 002a 16       		.uleb128 0x16
 1010 002b 00       		.byte	0
 1011 002c 03       		.uleb128 0x3
 1012 002d 0E       		.uleb128 0xe
 1013 002e 3A       		.uleb128 0x3a
 1014 002f 0B       		.uleb128 0xb
 1015 0030 3B       		.uleb128 0x3b
 1016 0031 0B       		.uleb128 0xb
 1017 0032 49       		.uleb128 0x49
 1018 0033 13       		.uleb128 0x13
 1019 0034 00       		.byte	0
 1020 0035 00       		.byte	0
 1021 0036 05       		.uleb128 0x5
 1022 0037 35       		.uleb128 0x35
 1023 0038 00       		.byte	0
 1024 0039 49       		.uleb128 0x49
 1025 003a 13       		.uleb128 0x13
 1026 003b 00       		.byte	0
ARM GAS  /tmp/ccPWKzv5.s 			page 19


 1027 003c 00       		.byte	0
 1028 003d 06       		.uleb128 0x6
 1029 003e 04       		.uleb128 0x4
 1030 003f 01       		.byte	0x1
 1031 0040 0B       		.uleb128 0xb
 1032 0041 0B       		.uleb128 0xb
 1033 0042 3A       		.uleb128 0x3a
 1034 0043 0B       		.uleb128 0xb
 1035 0044 3B       		.uleb128 0x3b
 1036 0045 0B       		.uleb128 0xb
 1037 0046 01       		.uleb128 0x1
 1038 0047 13       		.uleb128 0x13
 1039 0048 00       		.byte	0
 1040 0049 00       		.byte	0
 1041 004a 07       		.uleb128 0x7
 1042 004b 28       		.uleb128 0x28
 1043 004c 00       		.byte	0
 1044 004d 03       		.uleb128 0x3
 1045 004e 0E       		.uleb128 0xe
 1046 004f 1C       		.uleb128 0x1c
 1047 0050 0D       		.uleb128 0xd
 1048 0051 00       		.byte	0
 1049 0052 00       		.byte	0
 1050 0053 08       		.uleb128 0x8
 1051 0054 2E       		.uleb128 0x2e
 1052 0055 01       		.byte	0x1
 1053 0056 3F       		.uleb128 0x3f
 1054 0057 19       		.uleb128 0x19
 1055 0058 03       		.uleb128 0x3
 1056 0059 0E       		.uleb128 0xe
 1057 005a 3A       		.uleb128 0x3a
 1058 005b 0B       		.uleb128 0xb
 1059 005c 3B       		.uleb128 0x3b
 1060 005d 0B       		.uleb128 0xb
 1061 005e 27       		.uleb128 0x27
 1062 005f 19       		.uleb128 0x19
 1063 0060 49       		.uleb128 0x49
 1064 0061 13       		.uleb128 0x13
 1065 0062 11       		.uleb128 0x11
 1066 0063 01       		.uleb128 0x1
 1067 0064 12       		.uleb128 0x12
 1068 0065 06       		.uleb128 0x6
 1069 0066 40       		.uleb128 0x40
 1070 0067 18       		.uleb128 0x18
 1071 0068 9742     		.uleb128 0x2117
 1072 006a 19       		.uleb128 0x19
 1073 006b 01       		.uleb128 0x1
 1074 006c 13       		.uleb128 0x13
 1075 006d 00       		.byte	0
 1076 006e 00       		.byte	0
 1077 006f 09       		.uleb128 0x9
 1078 0070 05       		.uleb128 0x5
 1079 0071 00       		.byte	0
 1080 0072 03       		.uleb128 0x3
 1081 0073 0E       		.uleb128 0xe
 1082 0074 3A       		.uleb128 0x3a
 1083 0075 0B       		.uleb128 0xb
ARM GAS  /tmp/ccPWKzv5.s 			page 20


 1084 0076 3B       		.uleb128 0x3b
 1085 0077 0B       		.uleb128 0xb
 1086 0078 49       		.uleb128 0x49
 1087 0079 13       		.uleb128 0x13
 1088 007a 02       		.uleb128 0x2
 1089 007b 17       		.uleb128 0x17
 1090 007c 00       		.byte	0
 1091 007d 00       		.byte	0
 1092 007e 0A       		.uleb128 0xa
 1093 007f 0B       		.uleb128 0xb
 1094 0080 01       		.byte	0x1
 1095 0081 55       		.uleb128 0x55
 1096 0082 17       		.uleb128 0x17
 1097 0083 01       		.uleb128 0x1
 1098 0084 13       		.uleb128 0x13
 1099 0085 00       		.byte	0
 1100 0086 00       		.byte	0
 1101 0087 0B       		.uleb128 0xb
 1102 0088 34       		.uleb128 0x34
 1103 0089 00       		.byte	0
 1104 008a 03       		.uleb128 0x3
 1105 008b 0E       		.uleb128 0xe
 1106 008c 3A       		.uleb128 0x3a
 1107 008d 0B       		.uleb128 0xb
 1108 008e 3B       		.uleb128 0x3b
 1109 008f 0B       		.uleb128 0xb
 1110 0090 49       		.uleb128 0x49
 1111 0091 13       		.uleb128 0x13
 1112 0092 02       		.uleb128 0x2
 1113 0093 17       		.uleb128 0x17
 1114 0094 00       		.byte	0
 1115 0095 00       		.byte	0
 1116 0096 0C       		.uleb128 0xc
 1117 0097 898201   		.uleb128 0x4109
 1118 009a 00       		.byte	0
 1119 009b 11       		.uleb128 0x11
 1120 009c 01       		.uleb128 0x1
 1121 009d 9542     		.uleb128 0x2115
 1122 009f 19       		.uleb128 0x19
 1123 00a0 31       		.uleb128 0x31
 1124 00a1 13       		.uleb128 0x13
 1125 00a2 00       		.byte	0
 1126 00a3 00       		.byte	0
 1127 00a4 0D       		.uleb128 0xd
 1128 00a5 34       		.uleb128 0x34
 1129 00a6 00       		.byte	0
 1130 00a7 03       		.uleb128 0x3
 1131 00a8 08       		.uleb128 0x8
 1132 00a9 3A       		.uleb128 0x3a
 1133 00aa 0B       		.uleb128 0xb
 1134 00ab 3B       		.uleb128 0x3b
 1135 00ac 0B       		.uleb128 0xb
 1136 00ad 49       		.uleb128 0x49
 1137 00ae 13       		.uleb128 0x13
 1138 00af 02       		.uleb128 0x2
 1139 00b0 17       		.uleb128 0x17
 1140 00b1 00       		.byte	0
ARM GAS  /tmp/ccPWKzv5.s 			page 21


 1141 00b2 00       		.byte	0
 1142 00b3 0E       		.uleb128 0xe
 1143 00b4 898201   		.uleb128 0x4109
 1144 00b7 01       		.byte	0x1
 1145 00b8 11       		.uleb128 0x11
 1146 00b9 01       		.uleb128 0x1
 1147 00ba 31       		.uleb128 0x31
 1148 00bb 13       		.uleb128 0x13
 1149 00bc 01       		.uleb128 0x1
 1150 00bd 13       		.uleb128 0x13
 1151 00be 00       		.byte	0
 1152 00bf 00       		.byte	0
 1153 00c0 0F       		.uleb128 0xf
 1154 00c1 8A8201   		.uleb128 0x410a
 1155 00c4 00       		.byte	0
 1156 00c5 02       		.uleb128 0x2
 1157 00c6 18       		.uleb128 0x18
 1158 00c7 9142     		.uleb128 0x2111
 1159 00c9 18       		.uleb128 0x18
 1160 00ca 00       		.byte	0
 1161 00cb 00       		.byte	0
 1162 00cc 10       		.uleb128 0x10
 1163 00cd 898201   		.uleb128 0x4109
 1164 00d0 00       		.byte	0
 1165 00d1 11       		.uleb128 0x11
 1166 00d2 01       		.uleb128 0x1
 1167 00d3 31       		.uleb128 0x31
 1168 00d4 13       		.uleb128 0x13
 1169 00d5 00       		.byte	0
 1170 00d6 00       		.byte	0
 1171 00d7 11       		.uleb128 0x11
 1172 00d8 2E       		.uleb128 0x2e
 1173 00d9 01       		.byte	0x1
 1174 00da 3F       		.uleb128 0x3f
 1175 00db 19       		.uleb128 0x19
 1176 00dc 03       		.uleb128 0x3
 1177 00dd 0E       		.uleb128 0xe
 1178 00de 3A       		.uleb128 0x3a
 1179 00df 0B       		.uleb128 0xb
 1180 00e0 3B       		.uleb128 0x3b
 1181 00e1 0B       		.uleb128 0xb
 1182 00e2 27       		.uleb128 0x27
 1183 00e3 19       		.uleb128 0x19
 1184 00e4 11       		.uleb128 0x11
 1185 00e5 01       		.uleb128 0x1
 1186 00e6 12       		.uleb128 0x12
 1187 00e7 06       		.uleb128 0x6
 1188 00e8 40       		.uleb128 0x40
 1189 00e9 18       		.uleb128 0x18
 1190 00ea 9742     		.uleb128 0x2117
 1191 00ec 19       		.uleb128 0x19
 1192 00ed 01       		.uleb128 0x1
 1193 00ee 13       		.uleb128 0x13
 1194 00ef 00       		.byte	0
 1195 00f0 00       		.byte	0
 1196 00f1 12       		.uleb128 0x12
 1197 00f2 898201   		.uleb128 0x4109
ARM GAS  /tmp/ccPWKzv5.s 			page 22


 1198 00f5 01       		.byte	0x1
 1199 00f6 11       		.uleb128 0x11
 1200 00f7 01       		.uleb128 0x1
 1201 00f8 9542     		.uleb128 0x2115
 1202 00fa 19       		.uleb128 0x19
 1203 00fb 31       		.uleb128 0x31
 1204 00fc 13       		.uleb128 0x13
 1205 00fd 01       		.uleb128 0x1
 1206 00fe 13       		.uleb128 0x13
 1207 00ff 00       		.byte	0
 1208 0100 00       		.byte	0
 1209 0101 13       		.uleb128 0x13
 1210 0102 0B       		.uleb128 0xb
 1211 0103 01       		.byte	0x1
 1212 0104 55       		.uleb128 0x55
 1213 0105 17       		.uleb128 0x17
 1214 0106 00       		.byte	0
 1215 0107 00       		.byte	0
 1216 0108 14       		.uleb128 0x14
 1217 0109 34       		.uleb128 0x34
 1218 010a 00       		.byte	0
 1219 010b 03       		.uleb128 0x3
 1220 010c 0E       		.uleb128 0xe
 1221 010d 3A       		.uleb128 0x3a
 1222 010e 0B       		.uleb128 0xb
 1223 010f 3B       		.uleb128 0x3b
 1224 0110 05       		.uleb128 0x5
 1225 0111 49       		.uleb128 0x49
 1226 0112 13       		.uleb128 0x13
 1227 0113 3F       		.uleb128 0x3f
 1228 0114 19       		.uleb128 0x19
 1229 0115 3C       		.uleb128 0x3c
 1230 0116 19       		.uleb128 0x19
 1231 0117 00       		.byte	0
 1232 0118 00       		.byte	0
 1233 0119 15       		.uleb128 0x15
 1234 011a 2E       		.uleb128 0x2e
 1235 011b 01       		.byte	0x1
 1236 011c 3F       		.uleb128 0x3f
 1237 011d 19       		.uleb128 0x19
 1238 011e 03       		.uleb128 0x3
 1239 011f 0E       		.uleb128 0xe
 1240 0120 3A       		.uleb128 0x3a
 1241 0121 0B       		.uleb128 0xb
 1242 0122 3B       		.uleb128 0x3b
 1243 0123 0B       		.uleb128 0xb
 1244 0124 27       		.uleb128 0x27
 1245 0125 19       		.uleb128 0x19
 1246 0126 49       		.uleb128 0x49
 1247 0127 13       		.uleb128 0x13
 1248 0128 3C       		.uleb128 0x3c
 1249 0129 19       		.uleb128 0x19
 1250 012a 01       		.uleb128 0x1
 1251 012b 13       		.uleb128 0x13
 1252 012c 00       		.byte	0
 1253 012d 00       		.byte	0
 1254 012e 16       		.uleb128 0x16
ARM GAS  /tmp/ccPWKzv5.s 			page 23


 1255 012f 05       		.uleb128 0x5
 1256 0130 00       		.byte	0
 1257 0131 49       		.uleb128 0x49
 1258 0132 13       		.uleb128 0x13
 1259 0133 00       		.byte	0
 1260 0134 00       		.byte	0
 1261 0135 17       		.uleb128 0x17
 1262 0136 2E       		.uleb128 0x2e
 1263 0137 01       		.byte	0x1
 1264 0138 3F       		.uleb128 0x3f
 1265 0139 19       		.uleb128 0x19
 1266 013a 03       		.uleb128 0x3
 1267 013b 0E       		.uleb128 0xe
 1268 013c 3A       		.uleb128 0x3a
 1269 013d 0B       		.uleb128 0xb
 1270 013e 3B       		.uleb128 0x3b
 1271 013f 0B       		.uleb128 0xb
 1272 0140 27       		.uleb128 0x27
 1273 0141 19       		.uleb128 0x19
 1274 0142 3C       		.uleb128 0x3c
 1275 0143 19       		.uleb128 0x19
 1276 0144 01       		.uleb128 0x1
 1277 0145 13       		.uleb128 0x13
 1278 0146 00       		.byte	0
 1279 0147 00       		.byte	0
 1280 0148 18       		.uleb128 0x18
 1281 0149 2E       		.uleb128 0x2e
 1282 014a 01       		.byte	0x1
 1283 014b 3F       		.uleb128 0x3f
 1284 014c 19       		.uleb128 0x19
 1285 014d 03       		.uleb128 0x3
 1286 014e 0E       		.uleb128 0xe
 1287 014f 3A       		.uleb128 0x3a
 1288 0150 0B       		.uleb128 0xb
 1289 0151 3B       		.uleb128 0x3b
 1290 0152 0B       		.uleb128 0xb
 1291 0153 27       		.uleb128 0x27
 1292 0154 19       		.uleb128 0x19
 1293 0155 3C       		.uleb128 0x3c
 1294 0156 19       		.uleb128 0x19
 1295 0157 00       		.byte	0
 1296 0158 00       		.byte	0
 1297 0159 00       		.byte	0
 1298              		.section	.debug_loc,"",%progbits
 1299              	.Ldebug_loc0:
 1300              	.LLST0:
 1301 0000 00000000 		.4byte	.LVL0
 1302 0004 08000000 		.4byte	.LVL1
 1303 0008 0100     		.2byte	0x1
 1304 000a 50       		.byte	0x50
 1305 000b 08000000 		.4byte	.LVL1
 1306 000f 0C000000 		.4byte	.LFE63
 1307 0013 0400     		.2byte	0x4
 1308 0015 F3       		.byte	0xf3
 1309 0016 01       		.uleb128 0x1
 1310 0017 50       		.byte	0x50
 1311 0018 9F       		.byte	0x9f
ARM GAS  /tmp/ccPWKzv5.s 			page 24


 1312 0019 00000000 		.4byte	0
 1313 001d 00000000 		.4byte	0
 1314              	.LLST1:
 1315 0021 00000000 		.4byte	.LVL2
 1316 0025 0E000000 		.4byte	.LVL3
 1317 0029 0100     		.2byte	0x1
 1318 002b 50       		.byte	0x50
 1319 002c 0E000000 		.4byte	.LVL3
 1320 0030 12000000 		.4byte	.LVL4
 1321 0034 0400     		.2byte	0x4
 1322 0036 F3       		.byte	0xf3
 1323 0037 01       		.uleb128 0x1
 1324 0038 50       		.byte	0x50
 1325 0039 9F       		.byte	0x9f
 1326 003a 12000000 		.4byte	.LVL4
 1327 003e 14000000 		.4byte	.LVL5
 1328 0042 0100     		.2byte	0x1
 1329 0044 50       		.byte	0x50
 1330 0045 14000000 		.4byte	.LVL5
 1331 0049 1C000000 		.4byte	.LVL6
 1332 004d 0400     		.2byte	0x4
 1333 004f F3       		.byte	0xf3
 1334 0050 01       		.uleb128 0x1
 1335 0051 50       		.byte	0x50
 1336 0052 9F       		.byte	0x9f
 1337 0053 1C000000 		.4byte	.LVL6
 1338 0057 24000000 		.4byte	.LVL8
 1339 005b 0100     		.2byte	0x1
 1340 005d 50       		.byte	0x50
 1341 005e 24000000 		.4byte	.LVL8
 1342 0062 54000000 		.4byte	.LVL11
 1343 0066 0400     		.2byte	0x4
 1344 0068 F3       		.byte	0xf3
 1345 0069 01       		.uleb128 0x1
 1346 006a 50       		.byte	0x50
 1347 006b 9F       		.byte	0x9f
 1348 006c 54000000 		.4byte	.LVL11
 1349 0070 57000000 		.4byte	.LVL12-1
 1350 0074 0100     		.2byte	0x1
 1351 0076 50       		.byte	0x50
 1352 0077 57000000 		.4byte	.LVL12-1
 1353 007b 8E000000 		.4byte	.LFE64
 1354 007f 0400     		.2byte	0x4
 1355 0081 F3       		.byte	0xf3
 1356 0082 01       		.uleb128 0x1
 1357 0083 50       		.byte	0x50
 1358 0084 9F       		.byte	0x9f
 1359 0085 00000000 		.4byte	0
 1360 0089 00000000 		.4byte	0
 1361              	.LLST2:
 1362 008d 12000000 		.4byte	.LVL4
 1363 0091 14000000 		.4byte	.LVL5
 1364 0095 0900     		.2byte	0x9
 1365 0097 70       		.byte	0x70
 1366 0098 00       		.sleb128 0
 1367 0099 48       		.byte	0x48
 1368 009a 24       		.byte	0x24
ARM GAS  /tmp/ccPWKzv5.s 			page 25


 1369 009b 48       		.byte	0x48
 1370 009c 26       		.byte	0x26
 1371 009d 44       		.byte	0x44
 1372 009e 1C       		.byte	0x1c
 1373 009f 9F       		.byte	0x9f
 1374 00a0 14000000 		.4byte	.LVL5
 1375 00a4 1B000000 		.4byte	.LVL6-1
 1376 00a8 0900     		.2byte	0x9
 1377 00aa 70       		.byte	0x70
 1378 00ab 14       		.sleb128 20
 1379 00ac 48       		.byte	0x48
 1380 00ad 24       		.byte	0x24
 1381 00ae 48       		.byte	0x48
 1382 00af 26       		.byte	0x26
 1383 00b0 44       		.byte	0x44
 1384 00b1 1C       		.byte	0x1c
 1385 00b2 9F       		.byte	0x9f
 1386 00b3 00000000 		.4byte	0
 1387 00b7 00000000 		.4byte	0
 1388              	.LLST3:
 1389 00bb 68000000 		.4byte	.LVL14
 1390 00bf 71000000 		.4byte	.LVL15-1
 1391 00c3 0100     		.2byte	0x1
 1392 00c5 50       		.byte	0x50
 1393 00c6 78000000 		.4byte	.LVL16
 1394 00ca 7A000000 		.4byte	.LVL17
 1395 00ce 0100     		.2byte	0x1
 1396 00d0 50       		.byte	0x50
 1397 00d1 86000000 		.4byte	.LVL19
 1398 00d5 88000000 		.4byte	.LVL20
 1399 00d9 0100     		.2byte	0x1
 1400 00db 50       		.byte	0x50
 1401 00dc 00000000 		.4byte	0
 1402 00e0 00000000 		.4byte	0
 1403              	.LLST4:
 1404 00e4 20000000 		.4byte	.LVL7
 1405 00e8 27000000 		.4byte	.LVL9-1
 1406 00ec 0100     		.2byte	0x1
 1407 00ee 53       		.byte	0x53
 1408 00ef 00000000 		.4byte	0
 1409 00f3 00000000 		.4byte	0
 1410              	.LLST5:
 1411 00f7 28000000 		.4byte	.LVL9
 1412 00fb 2A000000 		.4byte	.LVL10
 1413 00ff 0100     		.2byte	0x1
 1414 0101 50       		.byte	0x50
 1415 0102 00000000 		.4byte	0
 1416 0106 00000000 		.4byte	0
 1417              	.LLST6:
 1418 010a 00000000 		.4byte	.LVL22
 1419 010e 14000000 		.4byte	.LVL23
 1420 0112 0100     		.2byte	0x1
 1421 0114 50       		.byte	0x50
 1422 0115 14000000 		.4byte	.LVL23
 1423 0119 26000000 		.4byte	.LVL26
 1424 011d 0400     		.2byte	0x4
 1425 011f F3       		.byte	0xf3
ARM GAS  /tmp/ccPWKzv5.s 			page 26


 1426 0120 01       		.uleb128 0x1
 1427 0121 50       		.byte	0x50
 1428 0122 9F       		.byte	0x9f
 1429 0123 26000000 		.4byte	.LVL26
 1430 0127 28000000 		.4byte	.LVL27
 1431 012b 0100     		.2byte	0x1
 1432 012d 50       		.byte	0x50
 1433 012e 28000000 		.4byte	.LVL27
 1434 0132 4E000000 		.4byte	.LFE65
 1435 0136 0400     		.2byte	0x4
 1436 0138 F3       		.byte	0xf3
 1437 0139 01       		.uleb128 0x1
 1438 013a 50       		.byte	0x50
 1439 013b 9F       		.byte	0x9f
 1440 013c 00000000 		.4byte	0
 1441 0140 00000000 		.4byte	0
 1442              	.LLST7:
 1443 0144 00000000 		.4byte	.LVL22
 1444 0148 1B000000 		.4byte	.LVL25-1
 1445 014c 0100     		.2byte	0x1
 1446 014e 51       		.byte	0x51
 1447 014f 1B000000 		.4byte	.LVL25-1
 1448 0153 26000000 		.4byte	.LVL26
 1449 0157 0100     		.2byte	0x1
 1450 0159 54       		.byte	0x54
 1451 015a 26000000 		.4byte	.LVL26
 1452 015e 2F000000 		.4byte	.LVL28-1
 1453 0162 0100     		.2byte	0x1
 1454 0164 51       		.byte	0x51
 1455 0165 2F000000 		.4byte	.LVL28-1
 1456 0169 30000000 		.4byte	.LVL28
 1457 016d 0400     		.2byte	0x4
 1458 016f F3       		.byte	0xf3
 1459 0170 01       		.uleb128 0x1
 1460 0171 51       		.byte	0x51
 1461 0172 9F       		.byte	0x9f
 1462 0173 30000000 		.4byte	.LVL28
 1463 0177 3E000000 		.4byte	.LVL31
 1464 017b 0100     		.2byte	0x1
 1465 017d 54       		.byte	0x54
 1466 017e 3E000000 		.4byte	.LVL31
 1467 0182 41000000 		.4byte	.LVL32-1
 1468 0186 0100     		.2byte	0x1
 1469 0188 51       		.byte	0x51
 1470 0189 41000000 		.4byte	.LVL32-1
 1471 018d 42000000 		.4byte	.LVL32
 1472 0191 0400     		.2byte	0x4
 1473 0193 F3       		.byte	0xf3
 1474 0194 01       		.uleb128 0x1
 1475 0195 51       		.byte	0x51
 1476 0196 9F       		.byte	0x9f
 1477 0197 42000000 		.4byte	.LVL32
 1478 019b 4A000000 		.4byte	.LVL34
 1479 019f 0100     		.2byte	0x1
 1480 01a1 54       		.byte	0x54
 1481 01a2 4A000000 		.4byte	.LVL34
 1482 01a6 4E000000 		.4byte	.LFE65
ARM GAS  /tmp/ccPWKzv5.s 			page 27


 1483 01aa 0400     		.2byte	0x4
 1484 01ac F3       		.byte	0xf3
 1485 01ad 01       		.uleb128 0x1
 1486 01ae 51       		.byte	0x51
 1487 01af 9F       		.byte	0x9f
 1488 01b0 00000000 		.4byte	0
 1489 01b4 00000000 		.4byte	0
 1490              	.LLST8:
 1491 01b8 36000000 		.4byte	.LVL30
 1492 01bc 41000000 		.4byte	.LVL32-1
 1493 01c0 0100     		.2byte	0x1
 1494 01c2 50       		.byte	0x50
 1495 01c3 00000000 		.4byte	0
 1496 01c7 00000000 		.4byte	0
 1497              	.LLST9:
 1498 01cb 14000000 		.4byte	.LVL23
 1499 01cf 18000000 		.4byte	.LVL24
 1500 01d3 0100     		.2byte	0x1
 1501 01d5 50       		.byte	0x50
 1502 01d6 00000000 		.4byte	0
 1503 01da 00000000 		.4byte	0
 1504              	.LLST10:
 1505 01de 1C000000 		.4byte	.LVL25
 1506 01e2 26000000 		.4byte	.LVL26
 1507 01e6 0100     		.2byte	0x1
 1508 01e8 50       		.byte	0x50
 1509 01e9 30000000 		.4byte	.LVL28
 1510 01ed 32000000 		.4byte	.LVL29
 1511 01f1 0100     		.2byte	0x1
 1512 01f3 50       		.byte	0x50
 1513 01f4 42000000 		.4byte	.LVL32
 1514 01f8 44000000 		.4byte	.LVL33
 1515 01fc 0100     		.2byte	0x1
 1516 01fe 50       		.byte	0x50
 1517 01ff 00000000 		.4byte	0
 1518 0203 00000000 		.4byte	0
 1519              	.LLST11:
 1520 0207 26000000 		.4byte	.LVL26
 1521 020b 28000000 		.4byte	.LVL27
 1522 020f 0900     		.2byte	0x9
 1523 0211 70       		.byte	0x70
 1524 0212 00       		.sleb128 0
 1525 0213 48       		.byte	0x48
 1526 0214 24       		.byte	0x24
 1527 0215 48       		.byte	0x48
 1528 0216 26       		.byte	0x26
 1529 0217 44       		.byte	0x44
 1530 0218 1C       		.byte	0x1c
 1531 0219 9F       		.byte	0x9f
 1532 021a 28000000 		.4byte	.LVL27
 1533 021e 2F000000 		.4byte	.LVL28-1
 1534 0222 0900     		.2byte	0x9
 1535 0224 70       		.byte	0x70
 1536 0225 14       		.sleb128 20
 1537 0226 48       		.byte	0x48
 1538 0227 24       		.byte	0x24
 1539 0228 48       		.byte	0x48
ARM GAS  /tmp/ccPWKzv5.s 			page 28


 1540 0229 26       		.byte	0x26
 1541 022a 44       		.byte	0x44
 1542 022b 1C       		.byte	0x1c
 1543 022c 9F       		.byte	0x9f
 1544 022d 00000000 		.4byte	0
 1545 0231 00000000 		.4byte	0
 1546              		.section	.debug_aranges,"",%progbits
 1547 0000 2C000000 		.4byte	0x2c
 1548 0004 0200     		.2byte	0x2
 1549 0006 00000000 		.4byte	.Ldebug_info0
 1550 000a 04       		.byte	0x4
 1551 000b 00       		.byte	0
 1552 000c 0000     		.2byte	0
 1553 000e 0000     		.2byte	0
 1554 0010 00000000 		.4byte	.LFB63
 1555 0014 0C000000 		.4byte	.LFE63-.LFB63
 1556 0018 00000000 		.4byte	.LFB64
 1557 001c 8E000000 		.4byte	.LFE64-.LFB64
 1558 0020 00000000 		.4byte	.LFB65
 1559 0024 4E000000 		.4byte	.LFE65-.LFB65
 1560 0028 00000000 		.4byte	0
 1561 002c 00000000 		.4byte	0
 1562              		.section	.debug_ranges,"",%progbits
 1563              	.Ldebug_ranges0:
 1564 0000 12000000 		.4byte	.LBB2
 1565 0004 14000000 		.4byte	.LBE2
 1566 0008 18000000 		.4byte	.LBB3
 1567 000c 1C000000 		.4byte	.LBE3
 1568 0010 00000000 		.4byte	0
 1569 0014 00000000 		.4byte	0
 1570 0018 1C000000 		.4byte	.LBB4
 1571 001c 54000000 		.4byte	.LBE4
 1572 0020 5A000000 		.4byte	.LBB5
 1573 0024 68000000 		.4byte	.LBE5
 1574 0028 6C000000 		.4byte	.LBB6
 1575 002c 8E000000 		.4byte	.LBE6
 1576 0030 00000000 		.4byte	0
 1577 0034 00000000 		.4byte	0
 1578 0038 12000000 		.4byte	.LBB7
 1579 003c 26000000 		.4byte	.LBE7
 1580 0040 30000000 		.4byte	.LBB10
 1581 0044 3A000000 		.4byte	.LBE10
 1582 0048 3E000000 		.4byte	.LBB11
 1583 004c 46000000 		.4byte	.LBE11
 1584 0050 4A000000 		.4byte	.LBB12
 1585 0054 4E000000 		.4byte	.LBE12
 1586 0058 00000000 		.4byte	0
 1587 005c 00000000 		.4byte	0
 1588 0060 26000000 		.4byte	.LBB8
 1589 0064 28000000 		.4byte	.LBE8
 1590 0068 2C000000 		.4byte	.LBB9
 1591 006c 30000000 		.4byte	.LBE9
 1592 0070 00000000 		.4byte	0
 1593 0074 00000000 		.4byte	0
 1594 0078 00000000 		.4byte	.LFB63
 1595 007c 0C000000 		.4byte	.LFE63
 1596 0080 00000000 		.4byte	.LFB64
ARM GAS  /tmp/ccPWKzv5.s 			page 29


 1597 0084 8E000000 		.4byte	.LFE64
 1598 0088 00000000 		.4byte	.LFB65
 1599 008c 4E000000 		.4byte	.LFE65
 1600 0090 00000000 		.4byte	0
 1601 0094 00000000 		.4byte	0
 1602              		.section	.debug_line,"",%progbits
 1603              	.Ldebug_line0:
 1604 0000 E7010000 		.section	.debug_str,"MS",%progbits,1
 1604      02006A01 
 1604      00000201 
 1604      FB0E0D00 
 1604      01010101 
 1605              	.LASF50:
 1606 0000 6B566578 		.ascii	"kVexSensorIME\000"
 1606      53656E73 
 1606      6F72494D 
 1606      4500
 1607              	.LASF19:
 1608 000e 6B566578 		.ascii	"kVexDigital_None\000"
 1608      44696769 
 1608      74616C5F 
 1608      4E6F6E65 
 1608      00
 1609              	.LASF35:
 1610 001f 6B566578 		.ascii	"kVexDigitalHigh\000"
 1610      44696769 
 1610      74616C48 
 1610      69676800 
 1611              	.LASF92:
 1612 002f 76657844 		.ascii	"vexDigitalPinGet\000"
 1612      69676974 
 1612      616C5069 
 1612      6E476574 
 1612      00
 1613              	.LASF93:
 1614 0040 76657844 		.ascii	"vexDigitalChannelGet\000"
 1614      69676974 
 1614      616C4368 
 1614      616E6E65 
 1614      6C476574 
 1615              	.LASF37:
 1616 0055 6B566578 		.ascii	"kVexSonar_1\000"
 1616      536F6E61 
 1616      725F3100 
 1617              	.LASF43:
 1618 0061 74566578 		.ascii	"tVexSonarChannel\000"
 1618      536F6E61 
 1618      72436861 
 1618      6E6E656C 
 1618      00
 1619              	.LASF39:
 1620 0072 6B566578 		.ascii	"kVexSonar_3\000"
 1620      536F6E61 
 1620      725F3300 
 1621              	.LASF72:
 1622 007e 6B566578 		.ascii	"kVexSensorDigital_10\000"
 1622      53656E73 
ARM GAS  /tmp/ccPWKzv5.s 			page 30


 1622      6F724469 
 1622      67697461 
 1622      6C5F3130 
 1623              	.LASF41:
 1624 0093 6B566578 		.ascii	"kVexSonar_5\000"
 1624      536F6E61 
 1624      725F3500 
 1625              	.LASF3:
 1626 009f 73686F72 		.ascii	"short int\000"
 1626      7420696E 
 1626      7400
 1627              	.LASF17:
 1628 00a9 73697A65 		.ascii	"sizetype\000"
 1628      74797065 
 1628      00
 1629              	.LASF97:
 1630 00b2 76657841 		.ascii	"vexAdcGet\000"
 1630      64634765 
 1630      7400
 1631              	.LASF103:
 1632 00bc 76657853 		.ascii	"vexSensorValueSet\000"
 1632      656E736F 
 1632      7256616C 
 1632      75655365 
 1632      7400
 1633              	.LASF5:
 1634 00ce 5F5F7569 		.ascii	"__uint16_t\000"
 1634      6E743136 
 1634      5F7400
 1635              	.LASF36:
 1636 00d9 74566578 		.ascii	"tVexDigitalState\000"
 1636      44696769 
 1636      74616C53 
 1636      74617465 
 1636      00
 1637              	.LASF95:
 1638 00ea 76657853 		.ascii	"vexSonarGetInch\000"
 1638      6F6E6172 
 1638      47657449 
 1638      6E636800 
 1639              	.LASF89:
 1640 00fa 76616C75 		.ascii	"value\000"
 1640      6500
 1641              	.LASF77:
 1642 0100 6B566578 		.ascii	"kVexSensorIme_3\000"
 1642      53656E73 
 1642      6F72496D 
 1642      655F3300 
 1643              	.LASF51:
 1644 0110 6B566578 		.ascii	"kVexSensorPotentiometer\000"
 1644      53656E73 
 1644      6F72506F 
 1644      74656E74 
 1644      696F6D65 
 1645              	.LASF86:
 1646 0128 73656E73 		.ascii	"sensor\000"
 1646      6F7200
ARM GAS  /tmp/ccPWKzv5.s 			page 31


 1647              	.LASF75:
 1648 012f 6B566578 		.ascii	"kVexSensorIme_1\000"
 1648      53656E73 
 1648      6F72496D 
 1648      655F3100 
 1649              	.LASF100:
 1650 013f 474E5520 		.ascii	"GNU C 4.8.2 -mcpu=cortex-m3 -mno-thumb-interwork -m"
 1650      4320342E 
 1650      382E3220 
 1650      2D6D6370 
 1650      753D636F 
 1651 0172 7468756D 		.ascii	"thumb -ggdb -O2 -fomit-frame-pointer -falign-functi"
 1651      62202D67 
 1651      67646220 
 1651      2D4F3220 
 1651      2D666F6D 
 1652 01a5 6F6E733D 		.ascii	"ons=16 -ffunction-sections -fdata-sections -fno-com"
 1652      3136202D 
 1652      6666756E 
 1652      6374696F 
 1652      6E2D7365 
 1653 01d8 6D6F6E00 		.ascii	"mon\000"
 1654              	.LASF29:
 1655 01dc 6B566578 		.ascii	"kVexDigital_10\000"
 1655      44696769 
 1655      74616C5F 
 1655      313000
 1656              	.LASF30:
 1657 01eb 6B566578 		.ascii	"kVexDigital_11\000"
 1657      44696769 
 1657      74616C5F 
 1657      313100
 1658              	.LASF31:
 1659 01fa 6B566578 		.ascii	"kVexDigital_12\000"
 1659      44696769 
 1659      74616C5F 
 1659      313200
 1660              	.LASF80:
 1661 0209 6B566578 		.ascii	"kVexSensorIme_6\000"
 1661      53656E73 
 1661      6F72496D 
 1661      655F3600 
 1662              	.LASF81:
 1663 0219 6B566578 		.ascii	"kVexSensorIme_7\000"
 1663      53656E73 
 1663      6F72496D 
 1663      655F3700 
 1664              	.LASF82:
 1665 0229 6B566578 		.ascii	"kVexSensorIme_8\000"
 1665      53656E73 
 1665      6F72496D 
 1665      655F3800 
 1666              	.LASF34:
 1667 0239 6B566578 		.ascii	"kVexDigitalLow\000"
 1667      44696769 
 1667      74616C4C 
 1667      6F7700
ARM GAS  /tmp/ccPWKzv5.s 			page 32


 1668              	.LASF48:
 1669 0248 6B566578 		.ascii	"kVexSensorSonarCm\000"
 1669      53656E73 
 1669      6F72536F 
 1669      6E617243 
 1669      6D00
 1670              	.LASF87:
 1671 025a 6368616E 		.ascii	"chan\000"
 1671      00
 1672              	.LASF10:
 1673 025f 6C6F6E67 		.ascii	"long long int\000"
 1673      206C6F6E 
 1673      6720696E 
 1673      7400
 1674              	.LASF44:
 1675 026d 6B566578 		.ascii	"kVexSensorNone\000"
 1675      53656E73 
 1675      6F724E6F 
 1675      6E6500
 1676              	.LASF40:
 1677 027c 6B566578 		.ascii	"kVexSonar_4\000"
 1677      536F6E61 
 1677      725F3400 
 1678              	.LASF8:
 1679 0288 6C6F6E67 		.ascii	"long int\000"
 1679      20696E74 
 1679      00
 1680              	.LASF105:
 1681 0291 76657849 		.ascii	"vexImeSetCount\000"
 1681      6D655365 
 1681      74436F75 
 1681      6E7400
 1682              	.LASF52:
 1683 02a0 6B566578 		.ascii	"kVexSensorInterrupt\000"
 1683      53656E73 
 1683      6F72496E 
 1683      74657272 
 1683      75707400 
 1684              	.LASF42:
 1685 02b4 6B566578 		.ascii	"kVexSonar_Num\000"
 1685      536F6E61 
 1685      725F4E75 
 1685      6D00
 1686              	.LASF53:
 1687 02c2 74566578 		.ascii	"tVexSensorType\000"
 1687      53656E73 
 1687      6F725479 
 1687      706500
 1688              	.LASF2:
 1689 02d1 756E7369 		.ascii	"unsigned char\000"
 1689      676E6564 
 1689      20636861 
 1689      7200
 1690              	.LASF98:
 1691 02df 76657845 		.ascii	"vexEncoderSet\000"
 1691      6E636F64 
 1691      65725365 
ARM GAS  /tmp/ccPWKzv5.s 			page 33


 1691      7400
 1692              	.LASF1:
 1693 02ed 7369676E 		.ascii	"signed char\000"
 1693      65642063 
 1693      68617200 
 1694              	.LASF11:
 1695 02f9 6C6F6E67 		.ascii	"long long unsigned int\000"
 1695      206C6F6E 
 1695      6720756E 
 1695      7369676E 
 1695      65642069 
 1696              	.LASF88:
 1697 0310 74797065 		.ascii	"type\000"
 1697      00
 1698              	.LASF85:
 1699 0315 76657853 		.ascii	"vexSensorValueGet\000"
 1699      656E736F 
 1699      7256616C 
 1699      75654765 
 1699      7400
 1700              	.LASF22:
 1701 0327 6B566578 		.ascii	"kVexDigital_3\000"
 1701      44696769 
 1701      74616C5F 
 1701      3300
 1702              	.LASF13:
 1703 0335 75696E74 		.ascii	"uint16_t\000"
 1703      31365F74 
 1703      00
 1704              	.LASF27:
 1705 033e 6B566578 		.ascii	"kVexDigital_8\000"
 1705      44696769 
 1705      74616C5F 
 1705      3800
 1706              	.LASF91:
 1707 034c 76657844 		.ascii	"vexDigitalTypeGet\000"
 1707      69676974 
 1707      616C5479 
 1707      70654765 
 1707      7400
 1708              	.LASF6:
 1709 035e 73686F72 		.ascii	"short unsigned int\000"
 1709      7420756E 
 1709      7369676E 
 1709      65642069 
 1709      6E7400
 1710              	.LASF83:
 1711 0371 74566578 		.ascii	"tVexSensors\000"
 1711      53656E73 
 1711      6F727300 
 1712              	.LASF18:
 1713 037d 63686172 		.ascii	"char\000"
 1713      00
 1714              	.LASF46:
 1715 0382 6B566578 		.ascii	"kVexSensorDigitalOutput\000"
 1715      53656E73 
 1715      6F724469 
ARM GAS  /tmp/ccPWKzv5.s 			page 34


 1715      67697461 
 1715      6C4F7574 
 1716              	.LASF20:
 1717 039a 6B566578 		.ascii	"kVexDigital_1\000"
 1717      44696769 
 1717      74616C5F 
 1717      3100
 1718              	.LASF21:
 1719 03a8 6B566578 		.ascii	"kVexDigital_2\000"
 1719      44696769 
 1719      74616C5F 
 1719      3200
 1720              	.LASF14:
 1721 03b6 696E7433 		.ascii	"int32_t\000"
 1721      325F7400 
 1722              	.LASF23:
 1723 03be 6B566578 		.ascii	"kVexDigital_4\000"
 1723      44696769 
 1723      74616C5F 
 1723      3400
 1724              	.LASF24:
 1725 03cc 6B566578 		.ascii	"kVexDigital_5\000"
 1725      44696769 
 1725      74616C5F 
 1725      3500
 1726              	.LASF25:
 1727 03da 6B566578 		.ascii	"kVexDigital_6\000"
 1727      44696769 
 1727      74616C5F 
 1727      3600
 1728              	.LASF26:
 1729 03e8 6B566578 		.ascii	"kVexDigital_7\000"
 1729      44696769 
 1729      74616C5F 
 1729      3700
 1730              	.LASF76:
 1731 03f6 6B566578 		.ascii	"kVexSensorIme_2\000"
 1731      53656E73 
 1731      6F72496D 
 1731      655F3200 
 1732              	.LASF28:
 1733 0406 6B566578 		.ascii	"kVexDigital_9\000"
 1733      44696769 
 1733      74616C5F 
 1733      3900
 1734              	.LASF16:
 1735 0414 5F426F6F 		.ascii	"_Bool\000"
 1735      6C00
 1736              	.LASF38:
 1737 041a 6B566578 		.ascii	"kVexSonar_2\000"
 1737      536F6E61 
 1737      725F3200 
 1738              	.LASF78:
 1739 0426 6B566578 		.ascii	"kVexSensorIme_4\000"
 1739      53656E73 
 1739      6F72496D 
 1739      655F3400 
ARM GAS  /tmp/ccPWKzv5.s 			page 35


 1740              	.LASF45:
 1741 0436 6B566578 		.ascii	"kVexSensorDigitalInput\000"
 1741      53656E73 
 1741      6F724469 
 1741      67697461 
 1741      6C496E70 
 1742              	.LASF55:
 1743 044d 6B566578 		.ascii	"kVexSensorAnalog_1\000"
 1743      53656E73 
 1743      6F72416E 
 1743      616C6F67 
 1743      5F3100
 1744              	.LASF56:
 1745 0460 6B566578 		.ascii	"kVexSensorAnalog_2\000"
 1745      53656E73 
 1745      6F72416E 
 1745      616C6F67 
 1745      5F3200
 1746              	.LASF57:
 1747 0473 6B566578 		.ascii	"kVexSensorAnalog_3\000"
 1747      53656E73 
 1747      6F72416E 
 1747      616C6F67 
 1747      5F3300
 1748              	.LASF58:
 1749 0486 6B566578 		.ascii	"kVexSensorAnalog_4\000"
 1749      53656E73 
 1749      6F72416E 
 1749      616C6F67 
 1749      5F3400
 1750              	.LASF59:
 1751 0499 6B566578 		.ascii	"kVexSensorAnalog_5\000"
 1751      53656E73 
 1751      6F72416E 
 1751      616C6F67 
 1751      5F3500
 1752              	.LASF60:
 1753 04ac 6B566578 		.ascii	"kVexSensorAnalog_6\000"
 1753      53656E73 
 1753      6F72416E 
 1753      616C6F67 
 1753      5F3600
 1754              	.LASF61:
 1755 04bf 6B566578 		.ascii	"kVexSensorAnalog_7\000"
 1755      53656E73 
 1755      6F72416E 
 1755      616C6F67 
 1755      5F3700
 1756              	.LASF62:
 1757 04d2 6B566578 		.ascii	"kVexSensorAnalog_8\000"
 1757      53656E73 
 1757      6F72416E 
 1757      616C6F67 
 1757      5F3800
 1758              	.LASF9:
 1759 04e5 6C6F6E67 		.ascii	"long unsigned int\000"
 1759      20756E73 
ARM GAS  /tmp/ccPWKzv5.s 			page 36


 1759      69676E65 
 1759      6420696E 
 1759      7400
 1760              	.LASF79:
 1761 04f7 6B566578 		.ascii	"kVexSensorIme_5\000"
 1761      53656E73 
 1761      6F72496D 
 1761      655F3500 
 1762              	.LASF90:
 1763 0507 76657849 		.ascii	"vexImeGetCount\000"
 1763      6D654765 
 1763      74436F75 
 1763      6E7400
 1764              	.LASF49:
 1765 0516 6B566578 		.ascii	"kVexSensorSonarInch\000"
 1765      53656E73 
 1765      6F72536F 
 1765      6E617249 
 1765      6E636800 
 1766              	.LASF99:
 1767 052a 76657844 		.ascii	"vexDigitalPinSet\000"
 1767      69676974 
 1767      616C5069 
 1767      6E536574 
 1767      00
 1768              	.LASF73:
 1769 053b 6B566578 		.ascii	"kVexSensorDigital_11\000"
 1769      53656E73 
 1769      6F724469 
 1769      67697461 
 1769      6C5F3131 
 1770              	.LASF7:
 1771 0550 5F5F696E 		.ascii	"__int32_t\000"
 1771      7433325F 
 1771      7400
 1772              	.LASF47:
 1773 055a 6B566578 		.ascii	"kVexSensorQuadEncoder\000"
 1773      53656E73 
 1773      6F725175 
 1773      6164456E 
 1773      636F6465 
 1774              	.LASF74:
 1775 0570 6B566578 		.ascii	"kVexSensorDigital_12\000"
 1775      53656E73 
 1775      6F724469 
 1775      67697461 
 1775      6C5F3132 
 1776              	.LASF101:
 1777 0585 2E2E2F2E 		.ascii	"../../fw/vexsensor.c\000"
 1777      2E2F6677 
 1777      2F766578 
 1777      73656E73 
 1777      6F722E63 
 1778              	.LASF4:
 1779 059a 5F5F696E 		.ascii	"__int16_t\000"
 1779      7431365F 
 1779      7400
ARM GAS  /tmp/ccPWKzv5.s 			page 37


 1780              	.LASF102:
 1781 05a4 2F6D6E74 		.ascii	"/mnt/c/Users/DQ Sullivan/Downloads/Convex/convex/co"
 1781      2F632F55 
 1781      73657273 
 1781      2F445120 
 1781      53756C6C 
 1782 05d7 72746578 		.ascii	"rtex/projects/Vex2016 CyberBrains\000"
 1782      2F70726F 
 1782      6A656374 
 1782      732F5665 
 1782      78323031 
 1783              	.LASF32:
 1784 05f9 6B566578 		.ascii	"kVexDigital_Num\000"
 1784      44696769 
 1784      74616C5F 
 1784      4E756D00 
 1785              	.LASF94:
 1786 0609 76657845 		.ascii	"vexEncoderGet\000"
 1786      6E636F64 
 1786      65724765 
 1786      7400
 1787              	.LASF33:
 1788 0617 74566578 		.ascii	"tVexDigitalPin\000"
 1788      44696769 
 1788      74616C50 
 1788      696E00
 1789              	.LASF12:
 1790 0626 696E7431 		.ascii	"int16_t\000"
 1790      365F7400 
 1791              	.LASF15:
 1792 062e 626F6F6C 		.ascii	"bool_t\000"
 1792      5F7400
 1793              	.LASF54:
 1794 0635 6B566578 		.ascii	"kVexSensorUndefined\000"
 1794      53656E73 
 1794      6F72556E 
 1794      64656669 
 1794      6E656400 
 1795              	.LASF104:
 1796 0649 49544D5F 		.ascii	"ITM_RxBuffer\000"
 1796      52784275 
 1796      66666572 
 1796      00
 1797              	.LASF96:
 1798 0656 76657853 		.ascii	"vexSonarGetCm\000"
 1798      6F6E6172 
 1798      47657443 
 1798      6D00
 1799              	.LASF0:
 1800 0664 756E7369 		.ascii	"unsigned int\000"
 1800      676E6564 
 1800      20696E74 
 1800      00
 1801              	.LASF63:
 1802 0671 6B566578 		.ascii	"kVexSensorDigital_1\000"
 1802      53656E73 
 1802      6F724469 
ARM GAS  /tmp/ccPWKzv5.s 			page 38


 1802      67697461 
 1802      6C5F3100 
 1803              	.LASF64:
 1804 0685 6B566578 		.ascii	"kVexSensorDigital_2\000"
 1804      53656E73 
 1804      6F724469 
 1804      67697461 
 1804      6C5F3200 
 1805              	.LASF65:
 1806 0699 6B566578 		.ascii	"kVexSensorDigital_3\000"
 1806      53656E73 
 1806      6F724469 
 1806      67697461 
 1806      6C5F3300 
 1807              	.LASF66:
 1808 06ad 6B566578 		.ascii	"kVexSensorDigital_4\000"
 1808      53656E73 
 1808      6F724469 
 1808      67697461 
 1808      6C5F3400 
 1809              	.LASF67:
 1810 06c1 6B566578 		.ascii	"kVexSensorDigital_5\000"
 1810      53656E73 
 1810      6F724469 
 1810      67697461 
 1810      6C5F3500 
 1811              	.LASF68:
 1812 06d5 6B566578 		.ascii	"kVexSensorDigital_6\000"
 1812      53656E73 
 1812      6F724469 
 1812      67697461 
 1812      6C5F3600 
 1813              	.LASF69:
 1814 06e9 6B566578 		.ascii	"kVexSensorDigital_7\000"
 1814      53656E73 
 1814      6F724469 
 1814      67697461 
 1814      6C5F3700 
 1815              	.LASF70:
 1816 06fd 6B566578 		.ascii	"kVexSensorDigital_8\000"
 1816      53656E73 
 1816      6F724469 
 1816      67697461 
 1816      6C5F3800 
 1817              	.LASF71:
 1818 0711 6B566578 		.ascii	"kVexSensorDigital_9\000"
 1818      53656E73 
 1818      6F724469 
 1818      67697461 
 1818      6C5F3900 
 1819              	.LASF84:
 1820 0725 76657853 		.ascii	"vexSensorIsAnalog\000"
 1820      656E736F 
 1820      72497341 
 1820      6E616C6F 
 1820      6700
 1821              		.ident	"GCC: (4.8.2-14ubuntu1+6) 4.8.2"
ARM GAS  /tmp/ccPWKzv5.s 			page 39


ARM GAS  /tmp/ccPWKzv5.s 			page 40


DEFINED SYMBOLS
                            *ABS*:0000000000000000 vexsensor.c
     /tmp/ccPWKzv5.s:19     .text.vexSensorIsAnalog:0000000000000000 $t
     /tmp/ccPWKzv5.s:25     .text.vexSensorIsAnalog:0000000000000000 vexSensorIsAnalog
     /tmp/ccPWKzv5.s:47     .text.vexSensorValueGet:0000000000000000 $t
     /tmp/ccPWKzv5.s:53     .text.vexSensorValueGet:0000000000000000 vexSensorValueGet
     /tmp/ccPWKzv5.s:115    .text.vexSensorValueGet:0000000000000034 $d
     /tmp/ccPWKzv5.s:127    .text.vexSensorValueGet:0000000000000054 $t
     /tmp/ccPWKzv5.s:177    .text.vexSensorValueSet:0000000000000000 $t
     /tmp/ccPWKzv5.s:183    .text.vexSensorValueSet:0000000000000000 vexSensorValueSet
                     .debug_frame:0000000000000010 $d

UNDEFINED SYMBOLS
vexImeGetCount
vexDigitalTypeGet
vexAdcGet
vexDigitalPinGet
vexDigitalChannelGet
vexEncoderGet
vexSonarGetInch
vexSonarGetCm
vexImeSetCount
vexEncoderSet
vexDigitalPinSet
