ARM GAS  /tmp/ccfy4kdJ.s 			page 1


   1              		.syntax unified
   2              		.cpu cortex-m3
   3              		.fpu softvfp
   4              		.eabi_attribute 20, 1
   5              		.eabi_attribute 21, 1
   6              		.eabi_attribute 23, 3
   7              		.eabi_attribute 24, 1
   8              		.eabi_attribute 25, 1
   9              		.eabi_attribute 26, 1
  10              		.eabi_attribute 30, 2
  11              		.eabi_attribute 34, 1
  12              		.eabi_attribute 18, 4
  13              		.thumb
  14              		.file	"vexspi.c"
  15              		.text
  16              	.Ltext0:
  17              		.cfi_sections	.debug_frame
  18              		.section	.text._vspi_gpt_cb,"ax",%progbits
  19              		.align	2
  20              		.p2align 4,,15
  21              		.thumb
  22              		.thumb_func
  23              		.type	_vspi_gpt_cb, %function
  24              	_vspi_gpt_cb:
  25              	.LFB64:
  26              		.file 1 "../../fw/vexspi.c"
  27              		.loc 1 102 0
  28              		.cfi_startproc
  29              		@ args = 0, pretend = 0, frame = 0
  30              		@ frame_needed = 0, uses_anonymous_args = 0
  31              	.LVL0:
  32 0000 10B5     		push	{r4, lr}
  33              		.cfi_def_cfa_offset 8
  34              		.cfi_offset 4, -8
  35              		.cfi_offset 14, -4
  36              	.LBB2:
  37              		.loc 1 105 0
  38 0002 2023     		movs	r3, #32
  39              	@ 105 "../../fw/vexspi.c" 1
  40 0004 83F31188 		msr     BASEPRI, r3
  41              	@ 0 "" 2
  42              		.thumb
  43              	.LBE2:
  44              		.loc 1 108 0
  45 0008 40F20004 		movw	r4, #:lower16:.LANCHOR0
  46 000c C0F20004 		movt	r4, #:upper16:.LANCHOR0
  47 0010 2068     		ldr	r0, [r4]
  48              	.LVL1:
  49 0012 18B1     		cbz	r0, .L2
  50              		.loc 1 109 0
  51 0014 FFF7FEFF 		bl	chSchReadyI
  52              	.LVL2:
  53              		.loc 1 110 0
  54 0018 0023     		movs	r3, #0
  55 001a 2360     		str	r3, [r4]
  56              	.L2:
  57              	.LBB3:
ARM GAS  /tmp/ccfy4kdJ.s 			page 2


  58              		.loc 1 113 0
  59 001c 0023     		movs	r3, #0
  60              	@ 113 "../../fw/vexspi.c" 1
  61 001e 83F31188 		msr     BASEPRI, r3
  62              	@ 0 "" 2
  63              		.thumb
  64 0022 10BD     		pop	{r4, pc}
  65              	.LBE3:
  66              		.cfi_endproc
  67              	.LFE64:
  68              		.size	_vspi_gpt_cb, .-_vspi_gpt_cb
  69 0024 AFF30080 		.section	.text.chprintf,"ax",%progbits
  69      AFF30080 
  69      AFF30080 
  70              		.align	2
  71              		.p2align 4,,15
  72              		.thumb
  73              		.thumb_func
  74              		.type	chprintf, %function
  75              	chprintf:
  76              	.LFB63:
  77              		.file 2 "../../../../ChibiOS_2.6.2/os/various/chprintf.h"
  78              		.loc 2 69 0
  79              		.cfi_startproc
  80              		@ args = 4, pretend = 12, frame = 8
  81              		@ frame_needed = 0, uses_anonymous_args = 1
  82              	.LVL3:
  83 0000 0EB4     		push	{r1, r2, r3}
  84              		.cfi_def_cfa_offset 12
  85              		.cfi_offset 1, -12
  86              		.cfi_offset 2, -8
  87              		.cfi_offset 3, -4
  88 0002 00B5     		push	{lr}
  89              		.cfi_def_cfa_offset 16
  90              		.cfi_offset 14, -16
  91 0004 82B0     		sub	sp, sp, #8
  92              		.cfi_def_cfa_offset 24
  93              		.loc 2 69 0
  94 0006 03AB     		add	r3, sp, #12
  95 0008 53F8041B 		ldr	r1, [r3], #4
  96              		.loc 2 73 0
  97 000c 1A46     		mov	r2, r3
  98              		.loc 2 72 0
  99 000e 0193     		str	r3, [sp, #4]
 100              		.loc 2 73 0
 101 0010 FFF7FEFF 		bl	chvprintf
 102              	.LVL4:
 103              		.loc 2 75 0
 104 0014 02B0     		add	sp, sp, #8
 105              		@ sp needed
 106 0016 5DF804EB 		ldr	lr, [sp], #4
 107 001a 03B0     		add	sp, sp, #12
 108 001c 7047     		bx	lr
 109              		.cfi_endproc
 110              	.LFE63:
 111              		.size	chprintf, .-chprintf
 112 001e 00BF     		.section	.text.vexSpiInit,"ax",%progbits
ARM GAS  /tmp/ccfy4kdJ.s 			page 3


 113              		.align	2
 114              		.p2align 4,,15
 115              		.global	vexSpiInit
 116              		.thumb
 117              		.thumb_func
 118              		.type	vexSpiInit, %function
 119              	vexSpiInit:
 120              	.LFB65:
 121              		.loc 1 135 0
 122              		.cfi_startproc
 123              		@ args = 0, pretend = 0, frame = 0
 124              		@ frame_needed = 0, uses_anonymous_args = 0
 125              	.LVL5:
 126 0000 10B5     		push	{r4, lr}
 127              		.cfi_def_cfa_offset 8
 128              		.cfi_offset 4, -8
 129              		.cfi_offset 14, -4
 130 0002 40F20000 		movw	r0, #:lower16:.LANCHOR2
 131 0006 40F20004 		movw	r4, #:lower16:.LANCHOR1
 132 000a C0F20004 		movt	r4, #:upper16:.LANCHOR1
 133 000e C0F20000 		movt	r0, #:upper16:.LANCHOR2
 134              		.loc 1 135 0
 135 0012 0023     		movs	r3, #0
 136              	.LVL6:
 137              	.L10:
 138              		.loc 1 140 0 discriminator 2
 139 0014 C15C     		ldrb	r1, [r0, r3]	@ zero_extendqisi2
 140 0016 40F20002 		movw	r2, #:lower16:.LANCHOR1
 141 001a E154     		strb	r1, [r4, r3]
 142              	.LVL7:
 143 001c 0133     		adds	r3, r3, #1
 144              	.LVL8:
 145              		.loc 1 139 0 discriminator 2
 146 001e 202B     		cmp	r3, #32
 147              		.loc 1 140 0 discriminator 2
 148 0020 C0F20002 		movt	r2, #:upper16:.LANCHOR1
 149              		.loc 1 139 0 discriminator 2
 150 0024 F6D1     		bne	.L10
 151              		.loc 1 145 0
 152 0026 40F20000 		movw	r0, #:lower16:SPID1
 153 002a 40F20001 		movw	r1, #:lower16:.LANCHOR3
 154 002e C0F20000 		movt	r0, #:upper16:SPID1
 155 0032 C0F20001 		movt	r1, #:upper16:.LANCHOR3
 156              		.loc 1 142 0
 157 0036 0023     		movs	r3, #0
 158              	.LVL9:
 159 0038 A2F86030 		strh	r3, [r2, #96]	@ movhi
 160              		.loc 1 145 0
 161 003c FFF7FEFF 		bl	spiStart
 162              	.LVL10:
 163              		.loc 1 149 0
 164 0040 BDE81040 		pop	{r4, lr}
 165              		.loc 1 148 0
 166 0044 40F20000 		movw	r0, #:lower16:GPTD2
 167 0048 40F20001 		movw	r1, #:lower16:.LANCHOR4
 168 004c C0F20000 		movt	r0, #:upper16:GPTD2
 169 0050 C0F20001 		movt	r1, #:upper16:.LANCHOR4
ARM GAS  /tmp/ccfy4kdJ.s 			page 4


 170 0054 FFF7FEBF 		b	gptStart
 171              	.LVL11:
 172              		.cfi_endproc
 173              	.LFE65:
 174              		.size	vexSpiInit, .-vexSpiInit
 175 0058 AFF30080 		.section	.text.vexSpiTeamnameSet,"ax",%progbits
 175      AFF30080 
 176              		.align	2
 177              		.p2align 4,,15
 178              		.global	vexSpiTeamnameSet
 179              		.thumb
 180              		.thumb_func
 181              		.type	vexSpiTeamnameSet, %function
 182              	vexSpiTeamnameSet:
 183              	.LFB66:
 184              		.loc 1 158 0
 185              		.cfi_startproc
 186              		@ args = 0, pretend = 0, frame = 0
 187              		@ frame_needed = 0, uses_anonymous_args = 0
 188              		@ link register save eliminated.
 189              	.LVL12:
 190 0000 40F20001 		movw	r1, #:lower16:.LANCHOR5
 191 0004 C0F20001 		movt	r1, #:upper16:.LANCHOR5
 192              		.loc 1 158 0
 193 0008 0023     		movs	r3, #0
 194 000a 05E0     		b	.L16
 195              	.LVL13:
 196              	.L19:
 197              		.loc 1 164 0
 198 000c CA54     		strb	r2, [r1, r3]
 199 000e 0133     		adds	r3, r3, #1
 200              	.LVL14:
 201              		.loc 1 161 0
 202 0010 082B     		cmp	r3, #8
 203              		.loc 1 164 0
 204 0012 00F10100 		add	r0, r0, #1
 205              	.LVL15:
 206              		.loc 1 161 0
 207 0016 06D0     		beq	.L18
 208              	.L16:
 209              	.LVL16:
 210              		.loc 1 163 0
 211 0018 0278     		ldrb	r2, [r0]	@ zero_extendqisi2
 212 001a 002A     		cmp	r2, #0
 213 001c F6D1     		bne	.L19
 214              		.loc 1 166 0
 215 001e CA54     		strb	r2, [r1, r3]
 216              	.LVL17:
 217 0020 0133     		adds	r3, r3, #1
 218              	.LVL18:
 219              		.loc 1 161 0
 220 0022 082B     		cmp	r3, #8
 221 0024 F8D1     		bne	.L16
 222              	.LVL19:
 223              	.L18:
 224              		.loc 1 168 0
 225 0026 7047     		bx	lr
ARM GAS  /tmp/ccfy4kdJ.s 			page 5


 226              		.cfi_endproc
 227              	.LFE66:
 228              		.size	vexSpiTeamnameSet, .-vexSpiTeamnameSet
 229 0028 AFF30080 		.section	.text.vexSpiModeStandalone,"ax",%progbits
 229      AFF30080 
 230              		.align	2
 231              		.p2align 4,,15
 232              		.global	vexSpiModeStandalone
 233              		.thumb
 234              		.thumb_func
 235              		.type	vexSpiModeStandalone, %function
 236              	vexSpiModeStandalone:
 237              	.LFB67:
 238              		.loc 1 176 0
 239              		.cfi_startproc
 240              		@ args = 0, pretend = 0, frame = 0
 241              		@ frame_needed = 0, uses_anonymous_args = 0
 242              		@ link register save eliminated.
 243              		.loc 1 179 0
 244 0000 40F20003 		movw	r3, #:lower16:.LANCHOR1
 245 0004 C0F20003 		movt	r3, #:upper16:.LANCHOR1
 246 0008 0122     		movs	r2, #1
 247 000a DA70     		strb	r2, [r3, #3]
 248 000c 7047     		bx	lr
 249              		.cfi_endproc
 250              	.LFE67:
 251              		.size	vexSpiModeStandalone, .-vexSpiModeStandalone
 252 000e 00BF     		.section	.text.vexSpiGetOnlineStatus,"ax",%progbits
 253              		.align	2
 254              		.p2align 4,,15
 255              		.global	vexSpiGetOnlineStatus
 256              		.thumb
 257              		.thumb_func
 258              		.type	vexSpiGetOnlineStatus, %function
 259              	vexSpiGetOnlineStatus:
 260              	.LFB68:
 261              		.loc 1 190 0
 262              		.cfi_startproc
 263              		@ args = 0, pretend = 0, frame = 0
 264              		@ frame_needed = 0, uses_anonymous_args = 0
 265              		@ link register save eliminated.
 266              		.loc 1 191 0
 267 0000 40F20003 		movw	r3, #:lower16:.LANCHOR1
 268 0004 C0F20003 		movt	r3, #:upper16:.LANCHOR1
 269              		.loc 1 192 0
 270 0008 B3F96000 		ldrsh	r0, [r3, #96]
 271 000c 7047     		bx	lr
 272              		.cfi_endproc
 273              	.LFE68:
 274              		.size	vexSpiGetOnlineStatus, .-vexSpiGetOnlineStatus
 275 000e 00BF     		.section	.text.vexSpiGetJoystickDataPtr,"ax",%progbits
 276              		.align	2
 277              		.p2align 4,,15
 278              		.global	vexSpiGetJoystickDataPtr
 279              		.thumb
 280              		.thumb_func
 281              		.type	vexSpiGetJoystickDataPtr, %function
ARM GAS  /tmp/ccfy4kdJ.s 			page 6


 282              	vexSpiGetJoystickDataPtr:
 283              	.LFB69:
 284              		.loc 1 202 0
 285              		.cfi_startproc
 286              		@ args = 0, pretend = 0, frame = 0
 287              		@ frame_needed = 0, uses_anonymous_args = 0
 288              		@ link register save eliminated.
 289              	.LVL20:
 290              		.loc 1 204 0
 291 0000 034B     		ldr	r3, .L25
 292 0002 03F10C02 		add	r2, r3, #12
 293              		.loc 1 207 0
 294 0006 0128     		cmp	r0, #1
 295 0008 D4BF     		ite	le
 296 000a 1846     		movle	r0, r3
 297 000c 1046     		movgt	r0, r2
 298              	.LVL21:
 299 000e 7047     		bx	lr
 300              	.L26:
 301              		.align	2
 302              	.L25:
 303 0010 26000000 		.word	.LANCHOR1+38
 304              		.cfi_endproc
 305              	.LFE69:
 306              		.size	vexSpiGetJoystickDataPtr, .-vexSpiGetJoystickDataPtr
 307 0014 AFF30080 		.section	.text.vexSpiGetControl,"ax",%progbits
 307      AFF30080 
 307      AFF30080 
 308              		.align	2
 309              		.p2align 4,,15
 310              		.global	vexSpiGetControl
 311              		.thumb
 312              		.thumb_func
 313              		.type	vexSpiGetControl, %function
 314              	vexSpiGetControl:
 315              	.LFB70:
 316              		.loc 1 216 0
 317              		.cfi_startproc
 318              		@ args = 0, pretend = 0, frame = 0
 319              		@ frame_needed = 0, uses_anonymous_args = 0
 320              		@ link register save eliminated.
 321              		.loc 1 217 0
 322 0000 40F20003 		movw	r3, #:lower16:.LANCHOR1
 323 0004 C0F20003 		movt	r3, #:upper16:.LANCHOR1
 324              		.loc 1 218 0
 325 0008 93F82300 		ldrb	r0, [r3, #35]	@ zero_extendqisi2
 326 000c 7047     		bx	lr
 327              		.cfi_endproc
 328              	.LFE70:
 329              		.size	vexSpiGetControl, .-vexSpiGetControl
 330 000e 00BF     		.section	.text.vexSpiGetMainBattery,"ax",%progbits
 331              		.align	2
 332              		.p2align 4,,15
 333              		.global	vexSpiGetMainBattery
 334              		.thumb
 335              		.thumb_func
 336              		.type	vexSpiGetMainBattery, %function
ARM GAS  /tmp/ccfy4kdJ.s 			page 7


 337              	vexSpiGetMainBattery:
 338              	.LFB71:
 339              		.loc 1 233 0
 340              		.cfi_startproc
 341              		@ args = 0, pretend = 0, frame = 0
 342              		@ frame_needed = 0, uses_anonymous_args = 0
 343              		@ link register save eliminated.
 344              		.loc 1 235 0
 345 0000 40F20003 		movw	r3, #:lower16:.LANCHOR1
 346 0004 C0F20003 		movt	r3, #:upper16:.LANCHOR1
 347 0008 93F82430 		ldrb	r3, [r3, #36]	@ zero_extendqisi2
 348 000c C3EB0312 		rsb	r2, r3, r3, lsl #4
 349 0010 C3EB8200 		rsb	r0, r3, r2, lsl #2
 350              		.loc 1 236 0
 351 0014 80B2     		uxth	r0, r0
 352 0016 7047     		bx	lr
 353              		.cfi_endproc
 354              	.LFE71:
 355              		.size	vexSpiGetMainBattery, .-vexSpiGetMainBattery
 356 0018 AFF30080 		.section	.text.vexSpiGetBackupBattery,"ax",%progbits
 356      AFF30080 
 357              		.align	2
 358              		.p2align 4,,15
 359              		.global	vexSpiGetBackupBattery
 360              		.thumb
 361              		.thumb_func
 362              		.type	vexSpiGetBackupBattery, %function
 363              	vexSpiGetBackupBattery:
 364              	.LFB72:
 365              		.loc 1 246 0
 366              		.cfi_startproc
 367              		@ args = 0, pretend = 0, frame = 0
 368              		@ frame_needed = 0, uses_anonymous_args = 0
 369              		@ link register save eliminated.
 370              		.loc 1 248 0
 371 0000 40F20003 		movw	r3, #:lower16:.LANCHOR1
 372 0004 C0F20003 		movt	r3, #:upper16:.LANCHOR1
 373 0008 93F82530 		ldrb	r3, [r3, #37]	@ zero_extendqisi2
 374 000c C3EB0312 		rsb	r2, r3, r3, lsl #4
 375 0010 C3EB8200 		rsb	r0, r3, r2, lsl #2
 376              		.loc 1 249 0
 377 0014 80B2     		uxth	r0, r0
 378 0016 7047     		bx	lr
 379              		.cfi_endproc
 380              	.LFE72:
 381              		.size	vexSpiGetBackupBattery, .-vexSpiGetBackupBattery
 382 0018 AFF30080 		.section	.text.vexSpiSetMotor,"ax",%progbits
 382      AFF30080 
 383              		.align	2
 384              		.p2align 4,,15
 385              		.global	vexSpiSetMotor
 386              		.thumb
 387              		.thumb_func
 388              		.type	vexSpiSetMotor, %function
 389              	vexSpiSetMotor:
 390              	.LFB73:
 391              		.loc 1 265 0
ARM GAS  /tmp/ccfy4kdJ.s 			page 8


 392              		.cfi_startproc
 393              		@ args = 0, pretend = 0, frame = 0
 394              		@ frame_needed = 0, uses_anonymous_args = 0
 395              		@ link register save eliminated.
 396              	.LVL22:
 397              		.loc 1 270 0
 398 0000 83B2     		uxth	r3, r0
 399 0002 072B     		cmp	r3, #7
 400 0004 0BD8     		bhi	.L30
 401              		.loc 1 275 0
 402 0006 7F29     		cmp	r1, #127
 403              		.loc 1 276 0
 404 0008 C8BF     		it	gt
 405 000a FF21     		movgt	r1, #255
 406              	.LVL23:
 407              		.loc 1 275 0
 408 000c 08DD     		ble	.L37
 409              	.LVL24:
 410              		.loc 1 285 0
 411 000e 40F20003 		movw	r3, #:lower16:.LANCHOR1
 412 0012 C0F20003 		movt	r3, #:upper16:.LANCHOR1
 413              		.loc 1 284 0
 414 0016 02B1     		cbz	r2, .L36
 415              	.LVL25:
 416              	.L33:
 417              		.loc 1 287 0
 418 0018 C943     		mvns	r1, r1
 419              	.L36:
 420 001a 1844     		add	r0, r0, r3
 421              	.LVL26:
 422 001c 8171     		strb	r1, [r0, #6]
 423              	.L30:
 424 001e 7047     		bx	lr
 425              	.LVL27:
 426              	.L37:
 427              		.loc 1 278 0
 428 0020 11F17F0F 		cmn	r1, #127
 429              		.loc 1 281 0
 430 0024 A8BF     		it	ge
 431 0026 7F31     		addge	r1, r1, #127
 432              		.loc 1 285 0
 433 0028 40F20003 		movw	r3, #:lower16:.LANCHOR1
 434              		.loc 1 281 0
 435 002c ACBF     		ite	ge
 436 002e C9B2     		uxtbge	r1, r1
 437              	.LVL28:
 438              		.loc 1 279 0
 439 0030 0021     		movlt	r1, #0
 440              	.LVL29:
 441              		.loc 1 285 0
 442 0032 C0F20003 		movt	r3, #:upper16:.LANCHOR1
 443              		.loc 1 284 0
 444 0036 002A     		cmp	r2, #0
 445 0038 EED1     		bne	.L33
 446 003a EEE7     		b	.L36
 447              		.cfi_endproc
 448              	.LFE73:
ARM GAS  /tmp/ccfy4kdJ.s 			page 9


 449              		.size	vexSpiSetMotor, .-vexSpiSetMotor
 450 003c AFF30080 		.section	.text.vexSpiTickDelay,"ax",%progbits
 451              		.align	2
 452              		.p2align 4,,15
 453              		.global	vexSpiTickDelay
 454              		.thumb
 455              		.thumb_func
 456              		.type	vexSpiTickDelay, %function
 457              	vexSpiTickDelay:
 458              	.LFB74:
 459              		.loc 1 299 0
 460              		.cfi_startproc
 461              		@ args = 0, pretend = 0, frame = 0
 462              		@ frame_needed = 0, uses_anonymous_args = 0
 463              	.LVL30:
 464 0000 08B5     		push	{r3, lr}
 465              		.cfi_def_cfa_offset 8
 466              		.cfi_offset 3, -8
 467              		.cfi_offset 14, -4
 468              		.loc 1 299 0
 469 0002 0146     		mov	r1, r0
 470              	.LBB4:
 471              		.loc 1 303 0
 472 0004 2023     		movs	r3, #32
 473              	@ 303 "../../fw/vexspi.c" 1
 474 0006 83F31188 		msr     BASEPRI, r3
 475              	@ 0 "" 2
 476              		.thumb
 477              	.LBE4:
 478              		.loc 1 304 0
 479 000a 40F20003 		movw	r3, #:lower16:rlist
 480 000e C0F20003 		movt	r3, #:upper16:rlist
 481 0012 9A69     		ldr	r2, [r3, #24]
 482              		.loc 1 305 0
 483 0014 40F20000 		movw	r0, #:lower16:GPTD2
 484              	.LVL31:
 485              		.loc 1 304 0
 486 0018 40F20003 		movw	r3, #:lower16:.LANCHOR0
 487 001c C0F20003 		movt	r3, #:upper16:.LANCHOR0
 488              		.loc 1 305 0
 489 0020 C0F20000 		movt	r0, #:upper16:GPTD2
 490              		.loc 1 304 0
 491 0024 1A60     		str	r2, [r3]
 492              		.loc 1 305 0
 493 0026 FFF7FEFF 		bl	gptStartOneShotI
 494              	.LVL32:
 495              		.loc 1 306 0
 496 002a 0220     		movs	r0, #2
 497 002c FFF7FEFF 		bl	chSchGoSleepS
 498              	.LVL33:
 499              	.LBB5:
 500              		.loc 1 307 0
 501 0030 0023     		movs	r3, #0
 502              	@ 307 "../../fw/vexspi.c" 1
 503 0032 83F31188 		msr     BASEPRI, r3
 504              	@ 0 "" 2
 505              		.thumb
ARM GAS  /tmp/ccfy4kdJ.s 			page 10


 506 0036 08BD     		pop	{r3, pc}
 507              	.LBE5:
 508              		.cfi_endproc
 509              	.LFE74:
 510              		.size	vexSpiTickDelay, .-vexSpiTickDelay
 511 0038 AFF30080 		.section	.text.vexSpiSend,"ax",%progbits
 511      AFF30080 
 512              		.align	2
 513              		.p2align 4,,15
 514              		.global	vexSpiSend
 515              		.thumb
 516              		.thumb_func
 517              		.type	vexSpiSend, %function
 518              	vexSpiSend:
 519              	.LFB75:
 520              		.loc 1 323 0
 521              		.cfi_startproc
 522              		@ args = 0, pretend = 0, frame = 0
 523              		@ frame_needed = 0, uses_anonymous_args = 0
 524              	.LVL34:
 525 0000 2DE9F041 		push	{r4, r5, r6, r7, r8, lr}
 526              		.cfi_def_cfa_offset 24
 527              		.cfi_offset 4, -24
 528              		.cfi_offset 5, -20
 529              		.cfi_offset 6, -16
 530              		.cfi_offset 7, -12
 531              		.cfi_offset 8, -8
 532              		.cfi_offset 14, -4
 533              		.loc 1 330 0
 534 0004 40F20006 		movw	r6, #:lower16:.LANCHOR1
 535 0008 C0F20006 		movt	r6, #:upper16:.LANCHOR1
 536 000c B378     		ldrb	r3, [r6, #2]	@ zero_extendqisi2
 537 000e 032B     		cmp	r3, #3
 538 0010 49D0     		beq	.L40
 539              	.L44:
 540              		.loc 1 347 0
 541 0012 4FF40068 		mov	r8, #2048
 542 0016 C4F20108 		movt	r8, 16385
 543 001a 4FF40067 		mov	r7, #2048
 544 001e C8F81070 		str	r7, [r8, #16]
 545              	.LVL35:
 546 0022 464D     		ldr	r5, .L74
 547              		.loc 1 349 0
 548 0024 0024     		movs	r4, #0
 549 0026 0AE0     		b	.L41
 550              	.LVL36:
 551              	.L70:
 552              		.loc 1 356 0 discriminator 1
 553 0028 0F2C     		cmp	r4, #15
 554 002a 24D0     		beq	.L46
 555 002c 0134     		adds	r4, r4, #1
 556              	.LVL37:
 557              		.loc 1 359 0
 558 002e 4920     		movs	r0, #73
 559 0030 A4B2     		uxth	r4, r4
 560              	.LVL38:
 561 0032 FFF7FEFF 		bl	vexSpiTickDelay
ARM GAS  /tmp/ccfy4kdJ.s 			page 11


 562              	.LVL39:
 563              		.loc 1 349 0
 564 0036 102C     		cmp	r4, #16
 565              		.loc 1 362 0
 566 0038 C8F81470 		str	r7, [r8, #20]
 567              		.loc 1 349 0
 568 003c 21D0     		beq	.L69
 569              	.LVL40:
 570              	.L41:
 571              		.loc 1 351 0
 572 003e 40F20000 		movw	r0, #:lower16:SPID1
 573 0042 C0F20000 		movt	r0, #:upper16:SPID1
 574 0046 FFF7FEFF 		bl	spi_lld_select
 575              	.LVL41:
 576              		.loc 1 352 0
 577 004a 40F20000 		movw	r0, #:lower16:SPID1
 578 004e 35F8021F 		ldrh	r1, [r5, #2]!
 579 0052 C0F20000 		movt	r0, #:upper16:SPID1
 580 0056 FFF7FEFF 		bl	spi_lld_polled_exchange
 581              	.LVL42:
 582 005a A5F84000 		strh	r0, [r5, #64]	@ movhi
 583              		.loc 1 354 0
 584 005e 40F20000 		movw	r0, #:lower16:SPID1
 585 0062 C0F20000 		movt	r0, #:upper16:SPID1
 586 0066 FFF7FEFF 		bl	spi_lld_unselect
 587              	.LVL43:
 588              		.loc 1 356 0
 589 006a 04F00303 		and	r3, r4, #3
 590 006e 032B     		cmp	r3, #3
 591              		.loc 1 365 0
 592 0070 4FF00800 		mov	r0, #8
 593              		.loc 1 356 0
 594 0074 D8D0     		beq	.L70
 595              	.L46:
 596 0076 0134     		adds	r4, r4, #1
 597              	.LVL44:
 598 0078 A4B2     		uxth	r4, r4
 599              	.LVL45:
 600              		.loc 1 365 0
 601 007a FFF7FEFF 		bl	vexSpiTickDelay
 602              	.LVL46:
 603              		.loc 1 349 0
 604 007e 102C     		cmp	r4, #16
 605 0080 DDD1     		bne	.L41
 606              	.LVL47:
 607              	.L69:
 608              		.loc 1 369 0
 609 0082 F07F     		ldrb	r0, [r6, #31]	@ zero_extendqisi2
 610              		.loc 1 372 0
 611 0084 B6F84020 		ldrh	r2, [r6, #64]
 612 0088 4CF61713 		movw	r3, #51479
 613              		.loc 1 369 0
 614 008c 0130     		adds	r0, r0, #1
 615 008e 40F20001 		movw	r1, #:lower16:.LANCHOR1
 616              		.loc 1 372 0
 617 0092 9A42     		cmp	r2, r3
 618              		.loc 1 369 0
ARM GAS  /tmp/ccfy4kdJ.s 			page 12


 619 0094 F077     		strb	r0, [r6, #31]
 620 0096 C0F20001 		movt	r1, #:upper16:.LANCHOR1
 621              		.loc 1 372 0
 622 009a 19D0     		beq	.L71
 623              		.loc 1 404 0
 624 009c 4B6E     		ldr	r3, [r1, #100]
 625 009e 0133     		adds	r3, r3, #1
 626 00a0 4B66     		str	r3, [r1, #100]
 627              	.L39:
 628 00a2 BDE8F081 		pop	{r4, r5, r6, r7, r8, pc}
 629              	.L40:
 630              	.LVL48:
 631              	.LBB6:
 632              		.loc 1 334 0
 633 00a6 5523     		movs	r3, #85
 634              		.loc 1 332 0
 635 00a8 40F20001 		movw	r1, #:lower16:.LANCHOR5
 636              		.loc 1 334 0
 637 00ac 7371     		strb	r3, [r6, #5]
 638              	.LVL49:
 639              		.loc 1 332 0
 640 00ae C0F20001 		movt	r1, #:upper16:.LANCHOR5
 641 00b2 3346     		mov	r3, r6
 642 00b4 06F10800 		add	r0, r6, #8
 643              		.loc 1 342 0
 644 00b8 2024     		movs	r4, #32
 645 00ba 04E0     		b	.L45
 646              	.LVL50:
 647              	.L72:
 648              		.loc 1 340 0
 649 00bc 0131     		adds	r1, r1, #1
 650              	.LVL51:
 651 00be 9A71     		strb	r2, [r3, #6]
 652              	.L43:
 653              	.LVL52:
 654 00c0 0133     		adds	r3, r3, #1
 655              	.LVL53:
 656              		.loc 1 337 0
 657 00c2 8342     		cmp	r3, r0
 658 00c4 A5D0     		beq	.L44
 659              	.LVL54:
 660              	.L45:
 661              		.loc 1 339 0
 662 00c6 0A78     		ldrb	r2, [r1]	@ zero_extendqisi2
 663 00c8 002A     		cmp	r2, #0
 664 00ca F7D1     		bne	.L72
 665              		.loc 1 342 0
 666 00cc 9C71     		strb	r4, [r3, #6]
 667 00ce F7E7     		b	.L43
 668              	.LVL55:
 669              	.L71:
 670 00d0 01F13F03 		add	r3, r1, #63
 671 00d4 5F31     		adds	r1, r1, #95
 672              	.L51:
 673              	.LVL56:
 674              	.LBE6:
 675              		.loc 1 376 0 discriminator 2
ARM GAS  /tmp/ccfy4kdJ.s 			page 13


 676 00d6 13F8012F 		ldrb	r2, [r3, #1]!	@ zero_extendqisi2
 677              	.LVL57:
 678              		.loc 1 375 0 discriminator 2
 679 00da 8B42     		cmp	r3, r1
 680              		.loc 1 376 0 discriminator 2
 681 00dc 03F8202C 		strb	r2, [r3, #-32]
 682              	.LVL58:
 683              		.loc 1 375 0 discriminator 2
 684 00e0 F9D1     		bne	.L51
 685              		.loc 1 379 0
 686 00e2 96F82210 		ldrb	r1, [r6, #34]	@ zero_extendqisi2
 687 00e6 40F20003 		movw	r3, #:lower16:.LANCHOR1
 688              	.LVL59:
 689 00ea 01F00F02 		and	r2, r1, #15
 690 00ee 082A     		cmp	r2, #8
 691 00f0 C0F20003 		movt	r3, #:upper16:.LANCHOR1
 692 00f4 18D0     		beq	.L73
 693              		.loc 1 383 0
 694 00f6 9878     		ldrb	r0, [r3, #2]	@ zero_extendqisi2
 695 00f8 00F00E00 		and	r0, r0, #14
 696 00fc 0228     		cmp	r0, #2
 697 00fe D0D1     		bne	.L39
 698              		.loc 1 386 0
 699 0100 022A     		cmp	r2, #2
 700              		.loc 1 387 0
 701 0102 04BF     		itt	eq
 702 0104 0322     		moveq	r2, #3
 703 0106 9A70     		strbeq	r2, [r3, #2]
 704              		.loc 1 386 0
 705 0108 05D0     		beq	.L55
 706              		.loc 1 389 0
 707 010a 032A     		cmp	r2, #3
 708              		.loc 1 391 0
 709 010c 01BF     		itttt	eq
 710 010e 0820     		moveq	r0, #8
 711              		.loc 1 392 0
 712 0110 0022     		moveq	r2, #0
 713              		.loc 1 391 0
 714 0112 9870     		strbeq	r0, [r3, #2]
 715              		.loc 1 392 0
 716 0114 5A71     		strbeq	r2, [r3, #5]
 717              	.L55:
 718              		.loc 1 396 0
 719 0116 11F00C0F 		tst	r1, #12
 720 011a C2D0     		beq	.L39
 721              		.loc 1 398 0
 722 011c 0822     		movs	r2, #8
 723              		.loc 1 399 0
 724 011e 0023     		movs	r3, #0
 725              		.loc 1 398 0
 726 0120 B270     		strb	r2, [r6, #2]
 727              		.loc 1 399 0
 728 0122 7371     		strb	r3, [r6, #5]
 729 0124 BDE8F081 		pop	{r4, r5, r6, r7, r8, pc}
 730              	.L73:
 731              		.loc 1 383 0
 732 0128 9A78     		ldrb	r2, [r3, #2]	@ zero_extendqisi2
ARM GAS  /tmp/ccfy4kdJ.s 			page 14


 733              		.loc 1 380 0
 734 012a 0120     		movs	r0, #1
 735              		.loc 1 383 0
 736 012c 02F00E02 		and	r2, r2, #14
 737 0130 022A     		cmp	r2, #2
 738              		.loc 1 380 0
 739 0132 A3F86000 		strh	r0, [r3, #96]	@ movhi
 740              		.loc 1 383 0
 741 0136 B4D1     		bne	.L39
 742 0138 EDE7     		b	.L55
 743              	.L75:
 744 013a 00BF     		.align	2
 745              	.L74:
 746 013c FEFFFFFF 		.word	.LANCHOR1-2
 747              		.cfi_endproc
 748              	.LFE75:
 749              		.size	vexSpiSend, .-vexSpiSend
 750              		.section	.text.vexSpiDebug,"ax",%progbits
 751              		.align	2
 752              		.p2align 4,,15
 753              		.global	vexSpiDebug
 754              		.thumb
 755              		.thumb_func
 756              		.type	vexSpiDebug, %function
 757              	vexSpiDebug:
 758              	.LFB76:
 759              		.loc 1 416 0
 760              		.cfi_startproc
 761              		@ args = 0, pretend = 0, frame = 0
 762              		@ frame_needed = 0, uses_anonymous_args = 0
 763              	.LVL60:
 764              		.loc 1 424 0
 765 0000 0129     		cmp	r1, #1
 766              		.loc 1 416 0
 767 0002 2DE9F041 		push	{r4, r5, r6, r7, r8, lr}
 768              		.cfi_def_cfa_offset 24
 769              		.cfi_offset 4, -24
 770              		.cfi_offset 5, -20
 771              		.cfi_offset 6, -16
 772              		.cfi_offset 7, -12
 773              		.cfi_offset 8, -8
 774              		.cfi_offset 14, -4
 775 0006 D8BF     		it	le
 776 0008 40F20007 		movwle	r7, #:lower16:.LANCHOR1
 777              		.loc 1 416 0
 778 000c 0446     		mov	r4, r0
 779 000e 1546     		mov	r5, r2
 780 0010 D8BF     		it	le
 781 0012 C0F20007 		movtle	r7, #:upper16:.LANCHOR1
 782              		.loc 1 424 0
 783 0016 0EDD     		ble	.L78
 784              		.loc 1 426 0
 785 0018 1068     		ldr	r0, [r2]
 786              	.LVL61:
 787 001a FFF7FEFF 		bl	atoi
 788              	.LVL62:
 789 001e 86B2     		uxth	r6, r0
ARM GAS  /tmp/ccfy4kdJ.s 			page 15


 790              	.LVL63:
 791              		.loc 1 427 0
 792 0020 6868     		ldr	r0, [r5, #4]
 793              	.LVL64:
 794 0022 FFF7FEFF 		bl	atoi
 795              	.LVL65:
 796              		.loc 1 429 0
 797 0026 40F20007 		movw	r7, #:lower16:.LANCHOR1
 798              		.loc 1 428 0
 799 002a 33B2     		sxth	r3, r6
 800              		.loc 1 429 0
 801 002c C0F20007 		movt	r7, #:upper16:.LANCHOR1
 802              		.loc 1 428 0
 803 0030 012B     		cmp	r3, #1
 804              		.loc 1 429 0
 805 0032 C8BF     		it	gt
 806 0034 F854     		strbgt	r0, [r7, r3]
 807              	.LVL66:
 808              	.L78:
 809 0036 654D     		ldr	r5, .L90
 810              	.LVL67:
 811 0038 05F11806 		add	r6, r5, #24
 812              	.LVL68:
 813              	.L81:
 814              		.loc 1 433 0 discriminator 2
 815 003c 15F8012F 		ldrb	r2, [r5, #1]!	@ zero_extendqisi2
 816              	.LVL69:
 817 0040 40F20001 		movw	r1, #:lower16:.LC0
 818 0044 C0F20001 		movt	r1, #:upper16:.LC0
 819 0048 2046     		mov	r0, r4
 820 004a FFF7FEFF 		bl	chprintf
 821              	.LVL70:
 822              		.loc 1 432 0 discriminator 2
 823 004e B542     		cmp	r5, r6
 824 0050 F4D1     		bne	.L81
 825              		.loc 1 434 0
 826 0052 40F20001 		movw	r1, #:lower16:.LC1
 827 0056 C0F20001 		movt	r1, #:upper16:.LC1
 828 005a 2046     		mov	r0, r4
 829 005c FFF7FEFF 		bl	chprintf
 830              	.LVL71:
 831 0060 5B4D     		ldr	r5, .L90+4
 832 0062 05F10806 		add	r6, r5, #8
 833              	.LVL72:
 834              	.L83:
 835              		.loc 1 436 0 discriminator 2
 836 0066 15F8012F 		ldrb	r2, [r5, #1]!	@ zero_extendqisi2
 837              	.LVL73:
 838 006a 40F20001 		movw	r1, #:lower16:.LC0
 839 006e C0F20001 		movt	r1, #:upper16:.LC0
 840 0072 2046     		mov	r0, r4
 841 0074 FFF7FEFF 		bl	chprintf
 842              	.LVL74:
 843              		.loc 1 435 0 discriminator 2
 844 0078 B542     		cmp	r5, r6
 845 007a F4D1     		bne	.L83
 846              		.loc 1 437 0
ARM GAS  /tmp/ccfy4kdJ.s 			page 16


 847 007c 40F20001 		movw	r1, #:lower16:.LC1
 848 0080 C0F20001 		movt	r1, #:upper16:.LC1
 849 0084 2046     		mov	r0, r4
 850 0086 FFF7FEFF 		bl	chprintf
 851              	.LVL75:
 852 008a 524D     		ldr	r5, .L90+8
 853 008c 05F11806 		add	r6, r5, #24
 854              	.LVL76:
 855              	.L85:
 856              		.loc 1 440 0 discriminator 2
 857 0090 15F8012F 		ldrb	r2, [r5, #1]!	@ zero_extendqisi2
 858              	.LVL77:
 859 0094 40F20001 		movw	r1, #:lower16:.LC0
 860 0098 C0F20001 		movt	r1, #:upper16:.LC0
 861 009c 2046     		mov	r0, r4
 862 009e FFF7FEFF 		bl	chprintf
 863              	.LVL78:
 864              		.loc 1 439 0 discriminator 2
 865 00a2 B542     		cmp	r5, r6
 866 00a4 F4D1     		bne	.L85
 867              		.loc 1 441 0
 868 00a6 40F20001 		movw	r1, #:lower16:.LC1
 869 00aa C0F20001 		movt	r1, #:upper16:.LC1
 870 00ae 2046     		mov	r0, r4
 871 00b0 FFF7FEFF 		bl	chprintf
 872              	.LVL79:
 873 00b4 484D     		ldr	r5, .L90+12
 874 00b6 05F10806 		add	r6, r5, #8
 875              	.LVL80:
 876              	.L87:
 877              		.loc 1 443 0 discriminator 2
 878 00ba 15F8012F 		ldrb	r2, [r5, #1]!	@ zero_extendqisi2
 879              	.LVL81:
 880 00be 40F20001 		movw	r1, #:lower16:.LC0
 881 00c2 C0F20001 		movt	r1, #:upper16:.LC0
 882 00c6 2046     		mov	r0, r4
 883 00c8 FFF7FEFF 		bl	chprintf
 884              	.LVL82:
 885              		.loc 1 442 0 discriminator 2
 886 00cc B542     		cmp	r5, r6
 887 00ce F4D1     		bne	.L87
 888              		.loc 1 444 0
 889 00d0 40F20001 		movw	r1, #:lower16:.LC1
 890 00d4 2046     		mov	r0, r4
 891 00d6 C0F20001 		movt	r1, #:upper16:.LC1
 892 00da FFF7FEFF 		bl	chprintf
 893              	.LVL83:
 894              		.loc 1 446 0
 895 00de 40F20001 		movw	r1, #:lower16:.LC2
 896 00e2 7A6E     		ldr	r2, [r7, #100]
 897 00e4 2046     		mov	r0, r4
 898 00e6 C0F20001 		movt	r1, #:upper16:.LC2
 899 00ea FFF7FEFF 		bl	chprintf
 900              	.LVL84:
 901              		.loc 1 448 0
 902 00ee 40F20001 		movw	r1, #:lower16:.LC3
 903 00f2 2046     		mov	r0, r4
ARM GAS  /tmp/ccfy4kdJ.s 			page 17


 904 00f4 C0F20001 		movt	r1, #:upper16:.LC3
 905 00f8 FFF7FEFF 		bl	chprintf
 906              	.LVL85:
 907              		.loc 1 449 0
 908 00fc 40F20001 		movw	r1, #:lower16:.LC4
 909 0100 2046     		mov	r0, r4
 910 0102 97F82620 		ldrb	r2, [r7, #38]	@ zero_extendqisi2
 911 0106 C0F20001 		movt	r1, #:upper16:.LC4
 912 010a FFF7FEFF 		bl	chprintf
 913              	.LVL86:
 914              		.loc 1 450 0
 915 010e 40F20001 		movw	r1, #:lower16:.LC5
 916 0112 2046     		mov	r0, r4
 917 0114 97F82720 		ldrb	r2, [r7, #39]	@ zero_extendqisi2
 918 0118 C0F20001 		movt	r1, #:upper16:.LC5
 919 011c FFF7FEFF 		bl	chprintf
 920              	.LVL87:
 921              		.loc 1 451 0
 922 0120 40F20001 		movw	r1, #:lower16:.LC6
 923 0124 2046     		mov	r0, r4
 924 0126 97F82820 		ldrb	r2, [r7, #40]	@ zero_extendqisi2
 925 012a C0F20001 		movt	r1, #:upper16:.LC6
 926 012e FFF7FEFF 		bl	chprintf
 927              	.LVL88:
 928              		.loc 1 452 0
 929 0132 40F20001 		movw	r1, #:lower16:.LC7
 930 0136 2046     		mov	r0, r4
 931 0138 97F82920 		ldrb	r2, [r7, #41]	@ zero_extendqisi2
 932 013c C0F20001 		movt	r1, #:upper16:.LC7
 933 0140 FFF7FEFF 		bl	chprintf
 934              	.LVL89:
 935              		.loc 1 453 0
 936 0144 40F20001 		movw	r1, #:lower16:.LC8
 937 0148 97F82E30 		ldrb	r3, [r7, #46]	@ zero_extendqisi2
 938 014c 97F82D20 		ldrb	r2, [r7, #45]	@ zero_extendqisi2
 939 0150 2046     		mov	r0, r4
 940 0152 C0F20001 		movt	r1, #:upper16:.LC8
 941 0156 FFF7FEFF 		bl	chprintf
 942              	.LVL90:
 943              		.loc 1 454 0
 944 015a 40F20001 		movw	r1, #:lower16:.LC9
 945 015e 2046     		mov	r0, r4
 946 0160 C0F20001 		movt	r1, #:upper16:.LC9
 947 0164 FFF7FEFF 		bl	chprintf
 948              	.LVL91:
 949              		.loc 1 455 0
 950 0168 40F20001 		movw	r1, #:lower16:.LC4
 951 016c 2046     		mov	r0, r4
 952 016e 97F83220 		ldrb	r2, [r7, #50]	@ zero_extendqisi2
 953 0172 C0F20001 		movt	r1, #:upper16:.LC4
 954 0176 FFF7FEFF 		bl	chprintf
 955              	.LVL92:
 956              		.loc 1 456 0
 957 017a 40F20001 		movw	r1, #:lower16:.LC5
 958 017e 2046     		mov	r0, r4
 959 0180 97F83320 		ldrb	r2, [r7, #51]	@ zero_extendqisi2
 960 0184 C0F20001 		movt	r1, #:upper16:.LC5
ARM GAS  /tmp/ccfy4kdJ.s 			page 18


 961 0188 FFF7FEFF 		bl	chprintf
 962              	.LVL93:
 963              		.loc 1 457 0
 964 018c 40F20001 		movw	r1, #:lower16:.LC6
 965 0190 2046     		mov	r0, r4
 966 0192 97F83420 		ldrb	r2, [r7, #52]	@ zero_extendqisi2
 967 0196 C0F20001 		movt	r1, #:upper16:.LC6
 968 019a FFF7FEFF 		bl	chprintf
 969              	.LVL94:
 970              		.loc 1 458 0
 971 019e 40F20001 		movw	r1, #:lower16:.LC7
 972 01a2 2046     		mov	r0, r4
 973 01a4 97F83520 		ldrb	r2, [r7, #53]	@ zero_extendqisi2
 974 01a8 C0F20001 		movt	r1, #:upper16:.LC7
 975 01ac FFF7FEFF 		bl	chprintf
 976              	.LVL95:
 977              		.loc 1 459 0
 978 01b0 40F20001 		movw	r1, #:lower16:.LC8
 979 01b4 2046     		mov	r0, r4
 980 01b6 97F83920 		ldrb	r2, [r7, #57]	@ zero_extendqisi2
 981 01ba 97F83A30 		ldrb	r3, [r7, #58]	@ zero_extendqisi2
 982 01be C0F20001 		movt	r1, #:upper16:.LC8
 983              		.loc 1 461 0
 984 01c2 BDE8F041 		pop	{r4, r5, r6, r7, r8, lr}
 985              	.LVL96:
 986              		.loc 1 459 0
 987 01c6 FFF7FEBF 		b	chprintf
 988              	.LVL97:
 989              	.L91:
 990 01ca 00BF     		.align	2
 991              	.L90:
 992 01cc FFFFFFFF 		.word	.LANCHOR1-1
 993 01d0 17000000 		.word	.LANCHOR1+23
 994 01d4 1F000000 		.word	.LANCHOR1+31
 995 01d8 37000000 		.word	.LANCHOR1+55
 996              		.cfi_endproc
 997              	.LFE76:
 998              		.size	vexSpiDebug, .-vexSpiDebug
 999 01dc AFF30080 		.section	.rodata.txInitData,"a",%progbits
 1000              		.align	2
 1001              		.set	.LANCHOR2,. + 0
 1002              		.type	txInitData, %object
 1003              		.size	txInitData, 32
 1004              	txInitData:
 1005 0000 17       		.byte	23
 1006 0001 C9       		.byte	-55
 1007 0002 02       		.byte	2
 1008 0003 00       		.byte	0
 1009 0004 00       		.byte	0
 1010 0005 00       		.byte	0
 1011 0006 7F       		.byte	127
 1012 0007 7F       		.byte	127
 1013 0008 7F       		.byte	127
 1014 0009 7F       		.byte	127
 1015 000a 7F       		.byte	127
 1016 000b 7F       		.byte	127
 1017 000c 7F       		.byte	127
ARM GAS  /tmp/ccfy4kdJ.s 			page 19


 1018 000d 7F       		.byte	127
 1019 000e 00       		.byte	0
 1020 000f 00       		.byte	0
 1021 0010 00       		.byte	0
 1022 0011 00       		.byte	0
 1023 0012 00       		.byte	0
 1024 0013 00       		.byte	0
 1025 0014 00       		.byte	0
 1026 0015 00       		.byte	0
 1027 0016 00       		.byte	0
 1028 0017 00       		.byte	0
 1029 0018 00       		.byte	0
 1030 0019 00       		.byte	0
 1031 001a 00       		.byte	0
 1032 001b 00       		.byte	0
 1033 001c 00       		.byte	0
 1034 001d 00       		.byte	0
 1035 001e 01       		.byte	1
 1036 001f 00       		.byte	0
 1037              		.section	.data.spicfg,"aw",%progbits
 1038              		.align	2
 1039              		.set	.LANCHOR3,. + 0
 1040              		.type	spicfg, %object
 1041              		.size	spicfg, 12
 1042              	spicfg:
 1043 0000 00000000 		.word	0
 1044 0004 00180140 		.word	1073813504
 1045 0008 0000     		.short	0
 1046 000a 2108     		.short	2081
 1047              		.section	.rodata.vexSpiGpt,"a",%progbits
 1048              		.align	2
 1049              		.set	.LANCHOR4,. + 0
 1050              		.type	vexSpiGpt, %object
 1051              		.size	vexSpiGpt, 12
 1052              	vexSpiGpt:
 1053 0000 40420F00 		.word	1000000
 1054 0004 00000000 		.word	_vspi_gpt_cb
 1055 0008 00000000 		.word	0
 1056              		.section	.rodata.str1.4,"aMS",%progbits,1
 1057              		.align	2
 1058              	.LC0:
 1059 0000 25303258 		.ascii	"%02X \000"
 1059      2000
 1060 0006 0000     		.space	2
 1061              	.LC1:
 1062 0008 0D0A00   		.ascii	"\015\012\000"
 1063 000b 00       		.space	1
 1064              	.LC2:
 1065 000c 6572726F 		.ascii	"errors %ld\015\012\000"
 1065      72732025 
 1065      6C640D0A 
 1065      00
 1066 0019 000000   		.space	3
 1067              	.LC3:
 1068 001c 4A533120 		.ascii	"JS1 - \000"
 1068      2D2000
 1069 0023 00       		.space	1
ARM GAS  /tmp/ccfy4kdJ.s 			page 20


 1070              	.LC4:
 1071 0024 63683120 		.ascii	"ch1 %3d \000"
 1071      25336420 
 1071      00
 1072 002d 000000   		.space	3
 1073              	.LC5:
 1074 0030 63683220 		.ascii	"ch2 %3d \000"
 1074      25336420 
 1074      00
 1075 0039 000000   		.space	3
 1076              	.LC6:
 1077 003c 63683320 		.ascii	"ch3 %3d \000"
 1077      25336420 
 1077      00
 1078 0045 000000   		.space	3
 1079              	.LC7:
 1080 0048 63683420 		.ascii	"ch4 %3d \000"
 1080      25336420 
 1080      00
 1081 0051 000000   		.space	3
 1082              	.LC8:
 1083 0054 62757474 		.ascii	"button %2X%2X\015\012\000"
 1083      6F6E2025 
 1083      32582532 
 1083      580D0A00 
 1084              	.LC9:
 1085 0064 4A533220 		.ascii	"JS2 - \000"
 1085      2D2000
 1086 006b 00       		.section	.bss.vexSpiData,"aw",%nobits
 1087              		.align	2
 1088              		.set	.LANCHOR1,. + 0
 1089              		.type	vexSpiData, %object
 1090              		.size	vexSpiData, 104
 1091              	vexSpiData:
 1092 0000 00000000 		.space	104
 1092      00000000 
 1092      00000000 
 1092      00000000 
 1092      00000000 
 1093              		.section	.data.spiTeamName,"aw",%progbits
 1094              		.align	2
 1095              		.set	.LANCHOR5,. + 0
 1096              		.type	spiTeamName, %object
 1097              		.size	spiTeamName, 16
 1098              	spiTeamName:
 1099 0000 434F4E56 		.ascii	"CONVEX  \000"
 1099      45582020 
 1099      00
 1100 0009 00000000 		.space	7
 1100      000000
 1101              		.section	.bss.spiThread,"aw",%nobits
 1102              		.align	2
 1103              		.set	.LANCHOR0,. + 0
 1104              		.type	spiThread, %object
 1105              		.size	spiThread, 4
 1106              	spiThread:
 1107 0000 00000000 		.space	4
ARM GAS  /tmp/ccfy4kdJ.s 			page 21


 1108              		.text
 1109              	.Letext0:
 1110              		.file 3 "/usr/lib/gcc/arm-none-eabi/4.8.2/include/stddef.h"
 1111              		.file 4 "/usr/include/newlib/machine/_default_types.h"
 1112              		.file 5 "/usr/include/newlib/stdint.h"
 1113              		.file 6 "../../../../ChibiOS_2.6.2/os/ports/GCC/ARMCMx/chtypes.h"
 1114              		.file 7 "../../../../ChibiOS_2.6.2/os/kernel/include/chlists.h"
 1115              		.file 8 "../../../../ChibiOS_2.6.2/os/kernel/include/chthreads.h"
 1116              		.file 9 "../../../../ChibiOS_2.6.2/os/ports/GCC/ARMCMx/chcore_v7m.h"
 1117              		.file 10 "../../../../ChibiOS_2.6.2/os/kernel/include/chschd.h"
 1118              		.file 11 "../../../../ChibiOS_2.6.2/os/kernel/include/chmtx.h"
 1119              		.file 12 "../../../../ChibiOS_2.6.2/os/kernel/include/chstreams.h"
 1120              		.file 13 "../../../../ChibiOS_2.6.2/os/hal/platforms/STM32F1xx/stm32f10x.h"
 1121              		.file 14 "../../../../ChibiOS_2.6.2/os/hal/platforms/STM32F1xx/stm32_dma.h"
 1122              		.file 15 "../../../../ChibiOS_2.6.2/os/hal/platforms/STM32/GPIOv1/pal_lld.h"
 1123              		.file 16 "../../../../ChibiOS_2.6.2/os/hal/include/gpt.h"
 1124              		.file 17 "../../../../ChibiOS_2.6.2/os/hal/platforms/STM32/TIMv1/gpt_lld.h"
 1125              		.file 18 "../../../../ChibiOS_2.6.2/os/hal/platforms/STM32/TIMv1/stm32_tim.h"
 1126              		.file 19 "../../../../ChibiOS_2.6.2/os/hal/include/spi.h"
 1127              		.file 20 "../../../../ChibiOS_2.6.2/os/hal/platforms/STM32/SPIv1/spi_lld.h"
 1128              		.file 21 "/usr/lib/gcc/arm-none-eabi/4.8.2/include/stdarg.h"
 1129              		.file 22 "<built-in>"
 1130              		.file 23 "../../fw/vexcompat.h"
 1131              		.file 24 "../../fw/vexdigital.h"
 1132              		.file 25 "../../fw/vexime.h"
 1133              		.file 26 "../../fw/vexspi.h"
 1134              		.file 27 "../../../../ChibiOS_2.6.2/os/ports/common/ARMCMx/CMSIS/include/core_cm3.h"
 1135              		.file 28 "/usr/include/newlib/stdlib.h"