ARM GAS  /tmp/ccRbDrX3.s 			page 1


   1              		.syntax unified
   2              		.cpu cortex-m3
   3              		.fpu softvfp
   4              		.eabi_attribute 20, 1
   5              		.eabi_attribute 21, 1
   6              		.eabi_attribute 23, 3
   7              		.eabi_attribute 24, 1
   8              		.eabi_attribute 25, 1
   9              		.eabi_attribute 26, 1
  10              		.eabi_attribute 30, 2
  11              		.eabi_attribute 34, 1
  12              		.eabi_attribute 18, 4
  13              		.thumb
  14              		.file	"vexuser.c"
  15              		.text
  16              	.Ltext0:
  17              		.cfi_sections	.debug_frame
  18              		.section	.text.vexUserSetup,"ax",%progbits
  19              		.align	2
  20              		.p2align 4,,15
  21              		.weak	vexUserSetup
  22              		.thumb
  23              		.thumb_func
  24              		.type	vexUserSetup, %function
  25              	vexUserSetup:
  26              	.LFB68:
  27              		.file 1 "usetup.c"
  28              		.loc 1 53 0
  29              		.cfi_startproc
  30              		@ args = 0, pretend = 0, frame = 0
  31              		@ frame_needed = 0, uses_anonymous_args = 0
  32 0000 08B5     		push	{r3, lr}
  33              		.cfi_def_cfa_offset 8
  34              		.cfi_offset 3, -8
  35              		.cfi_offset 14, -4
  36              		.loc 1 54 0
  37 0002 40F20000 		movw	r0, #:lower16:.LANCHOR0
  38 0006 C0F20000 		movt	r0, #:upper16:.LANCHOR0
  39 000a 0C21     		movs	r1, #12
  40 000c FFF7FEFF 		bl	vexDigitalConfigure
  41              	.LVL0:
  42              		.loc 1 56 0
  43 0010 BDE80840 		pop	{r3, lr}
  44              		.loc 1 55 0
  45 0014 40F20000 		movw	r0, #:lower16:.LANCHOR1
  46 0018 C0F20000 		movt	r0, #:upper16:.LANCHOR1
  47 001c 0A21     		movs	r1, #10
  48 001e FFF7FEBF 		b	vexMotorConfigure
  49              	.LVL1:
  50              		.cfi_endproc
  51              	.LFE68:
  52              		.size	vexUserSetup, .-vexUserSetup
  53 0022 00BFAFF3 		.section	.text.vexUserInit,"ax",%progbits
  53      0080AFF3 
  53      0080AFF3 
  53      0080
  54              		.align	2
ARM GAS  /tmp/ccRbDrX3.s 			page 2


  55              		.p2align 4,,15
  56              		.weak	vexUserInit
  57              		.thumb
  58              		.thumb_func
  59              		.type	vexUserInit, %function
  60              	vexUserInit:
  61              	.LFB69:
  62              		.file 2 "vexuser.c"
  63              		.loc 2 45 0
  64              		.cfi_startproc
  65              		@ args = 0, pretend = 0, frame = 0
  66              		@ frame_needed = 0, uses_anonymous_args = 0
  67              		@ link register save eliminated.
  68 0000 7047     		bx	lr
  69              		.cfi_endproc
  70              	.LFE69:
  71              		.size	vexUserInit, .-vexUserInit
  72 0002 00BFAFF3 		.section	.text.vexAutonomous,"ax",%progbits
  72      0080AFF3 
  72      0080AFF3 
  72      0080
  73              		.align	2
  74              		.p2align 4,,15
  75              		.global	vexAutonomous
  76              		.thumb
  77              		.thumb_func
  78              		.type	vexAutonomous, %function
  79              	vexAutonomous:
  80              	.LFB70:
  81              		.loc 2 52 0
  82              		.cfi_startproc
  83              		@ args = 0, pretend = 0, frame = 0
  84              		@ frame_needed = 0, uses_anonymous_args = 0
  85              	.LVL2:
  86              		.loc 2 52 0
  87 0000 10B5     		push	{r4, lr}
  88              		.cfi_def_cfa_offset 8
  89              		.cfi_offset 4, -8
  90              		.cfi_offset 14, -4
  91              		.loc 2 55 0
  92 0002 40F20000 		movw	r0, #:lower16:.LC1
  93              	.LVL3:
  94              		.loc 2 57 0
  95 0006 40F20004 		movw	r4, #:lower16:rlist
  96              		.loc 2 55 0
  97 000a C0F20000 		movt	r0, #:upper16:.LC1
  98              		.loc 2 57 0
  99 000e C0F20004 		movt	r4, #:upper16:rlist
 100              		.loc 2 55 0
 101 0012 FFF7FEFF 		bl	vexTaskRegister
 102              	.LVL4:
 103              		.loc 2 57 0
 104 0016 A369     		ldr	r3, [r4, #24]
 105 0018 5B7F     		ldrb	r3, [r3, #29]	@ zero_extendqisi2
 106 001a 5A07     		lsls	r2, r3, #29
 107 001c 06D4     		bmi	.L7
 108              	.L6:
ARM GAS  /tmp/ccRbDrX3.s 			page 3


 109              		.loc 2 59 0
 110 001e 1920     		movs	r0, #25
 111 0020 FFF7FEFF 		bl	vexSleep
 112              	.LVL5:
 113              		.loc 2 57 0
 114 0024 A369     		ldr	r3, [r4, #24]
 115 0026 5B7F     		ldrb	r3, [r3, #29]	@ zero_extendqisi2
 116 0028 5B07     		lsls	r3, r3, #29
 117 002a F8D5     		bpl	.L6
 118              	.L7:
 119              		.loc 2 63 0
 120 002c 0020     		movs	r0, #0
 121 002e 10BD     		pop	{r4, pc}
 122              		.cfi_endproc
 123              	.LFE70:
 124              		.size	vexAutonomous, .-vexAutonomous
 125              		.global	__aeabi_i2f
 126              		.global	__aeabi_ui2f
 127              		.global	__aeabi_fmul
 128              		.global	__aeabi_fsub
 129              		.global	__aeabi_fadd
 130              		.global	__aeabi_fdiv
 131              		.global	__aeabi_fcmplt
 132              		.global	__aeabi_f2iz
 133              		.global	__aeabi_f2uiz
 134              		.global	__aeabi_f2d
 135              		.global	__aeabi_ddiv
 136              		.global	__aeabi_d2iz
 137              		.global	__aeabi_fcmpgt
 138              		.section	.text.vexOperator,"ax",%progbits
 139              		.align	2
 140              		.p2align 4,,15
 141              		.global	vexOperator
 142              		.thumb
 143              		.thumb_func
 144              		.type	vexOperator, %function
 145              	vexOperator:
 146              	.LFB71:
 147              		.loc 2 70 0
 148              		.cfi_startproc
 149              		@ args = 0, pretend = 0, frame = 16
 150              		@ frame_needed = 0, uses_anonymous_args = 0
 151              	.LVL6:
 152 0000 2DE9F04F 		push	{r4, r5, r6, r7, r8, r9, r10, fp, lr}
 153              		.cfi_def_cfa_offset 36
 154              		.cfi_offset 4, -36
 155              		.cfi_offset 5, -32
 156              		.cfi_offset 6, -28
 157              		.cfi_offset 7, -24
 158              		.cfi_offset 8, -20
 159              		.cfi_offset 9, -16
 160              		.cfi_offset 10, -12
 161              		.cfi_offset 11, -8
 162              		.cfi_offset 14, -4
 163              		.loc 2 76 0
 164 0004 40F20003 		movw	r3, #:lower16:.LANCHOR2
 165 0008 C0F20003 		movt	r3, #:upper16:.LANCHOR2
ARM GAS  /tmp/ccRbDrX3.s 			page 4


 166 000c 1868     		ldr	r0, [r3]	@ unaligned
 167              	.LVL7:
 168              		.loc 2 70 0
 169 000e 85B0     		sub	sp, sp, #20
 170              		.cfi_def_cfa_offset 56
 171              		.loc 2 76 0
 172 0010 0390     		str	r0, [sp, #12]	@ unaligned
 173              		.loc 2 82 0
 174 0012 40F2000B 		movw	fp, #:lower16:rlist
 175              		.loc 2 80 0
 176 0016 40F20000 		movw	r0, #:lower16:.LC2
 177 001a C0F20000 		movt	r0, #:upper16:.LC2
 178              		.loc 2 82 0
 179 001e C0F2000B 		movt	fp, #:upper16:rlist
 180              		.loc 2 80 0
 181 0022 FFF7FEFF 		bl	vexTaskRegister
 182              	.LVL8:
 183              		.loc 2 82 0
 184 0026 DBF81830 		ldr	r3, [fp, #24]
 185 002a 5B7F     		ldrb	r3, [r3, #29]	@ zero_extendqisi2
 186 002c 5807     		lsls	r0, r3, #29
 187 002e 00F1A482 		bmi	.L52
 188 0032 40F20002 		movw	r2, #:lower16:.LANCHOR3
 189 0036 C0F20002 		movt	r2, #:upper16:.LANCHOR3
 190 003a 0192     		str	r2, [sp, #4]
 191 003c 0DF10F04 		add	r4, sp, #15
 192              	.L33:
 193              		.loc 2 83 0
 194 0040 0F20     		movs	r0, #15
 195 0042 FFF7FEFF 		bl	vexControllerGet
 196              	.LVL9:
 197 0046 0128     		cmp	r0, #1
 198 0048 40F09B82 		bne	.L11
 199              		.loc 2 83 0 is_stmt 0 discriminator 1
 200 004c 019B     		ldr	r3, [sp, #4]
 201 004e 1870     		strb	r0, [r3]
 202              	.L12:
 203              		.loc 2 87 0 is_stmt 1
 204 0050 0320     		movs	r0, #3
 205 0052 FFF7FEFF 		bl	vexControllerGet
 206              	.LVL10:
 207 0056 0646     		mov	r6, r0
 208              	.LVL11:
 209              		.loc 2 88 0
 210 0058 0220     		movs	r0, #2
 211              	.LVL12:
 212 005a FFF7FEFF 		bl	vexControllerGet
 213              	.LVL13:
 214 005e 8046     		mov	r8, r0
 215              	.LVL14:
 216              		.loc 2 89 0
 217 0060 0020     		movs	r0, #0
 218              	.LVL15:
 219 0062 FFF7FEFF 		bl	vexControllerGet
 220              	.LVL16:
 221              		.loc 2 91 0
 222 0066 40F20002 		movw	r2, #:lower16:.LC3
ARM GAS  /tmp/ccRbDrX3.s 			page 5


 223              		.loc 2 89 0
 224 006a 0546     		mov	r5, r0
 225              	.LVL17:
 226              		.loc 2 91 0
 227 006c 0020     		movs	r0, #0
 228              	.LVL18:
 229 006e 3346     		mov	r3, r6
 230 0070 C0F20002 		movt	r2, #:upper16:.LC3
 231 0074 0146     		mov	r1, r0
 232 0076 FFF7FEFF 		bl	vexLcdPrintf
 233              	.LVL19:
 234              		.loc 2 93 0
 235 007a 019A     		ldr	r2, [sp, #4]
 236              		.loc 2 91 0
 237 007c 3746     		mov	r7, r6
 238              		.loc 2 93 0
 239 007e 1378     		ldrb	r3, [r2]	@ zero_extendqisi2
 240 0080 002B     		cmp	r3, #0
 241 0082 00F0DE81 		beq	.L13
 242              	.LVL20:
 243              		.loc 2 95 0
 244 0086 002E     		cmp	r6, #0
 245 0088 DABF     		itte	le
 246 008a 0027     		movle	r7, #0
 247 008c CBF68077 		movtle	r7, 49024
 248 0090 4FF07E57 		movgt	r7, #1065353216
 249 0094 86EAE670 		eor	r0, r6, r6, asr #31
 250 0098 A0EBE670 		sub	r0, r0, r6, asr #31
 251 009c FFF7FEFF 		bl	__aeabi_i2f
 252              	.LVL21:
 253              	.LBB24:
 254              	.LBB25:
 255              	.LBB26:
 256              	.LBB27:
 257              		.file 3 "../../opt/fastmath.c"
 258              		.loc 3 74 0
 259 00a0 C0F31606 		ubfx	r6, r0, #0, #23
 260              	.LVL22:
 261              		.loc 3 75 0
 262 00a4 FFF7FEFF 		bl	__aeabi_ui2f
 263              	.LVL23:
 264              		.loc 3 76 0
 265 00a8 4FF05051 		mov	r1, #872415232
 266 00ac FFF7FEFF 		bl	__aeabi_fmul
 267              	.LVL24:
 268              		.loc 3 78 0
 269 00b0 47F27731 		movw	r1, #29559
 270 00b4 C4F2F821 		movt	r1, 17144
 271 00b8 FFF7FEFF 		bl	__aeabi_fsub
 272              	.LVL25:
 273              		.loc 3 74 0
 274 00bc 46F07C56 		orr	r6, r6, #1056964608
 275              	.LVL26:
 276              		.loc 3 79 0
 277 00c0 4BF67571 		movw	r1, #49013
 278              		.loc 3 78 0
 279 00c4 8146     		mov	r9, r0
ARM GAS  /tmp/ccRbDrX3.s 			page 6


 280              		.loc 3 79 0
 281 00c6 C3F6BF71 		movt	r1, 16319
 282 00ca 3046     		mov	r0, r6
 283 00cc FFF7FEFF 		bl	__aeabi_fmul
 284              	.LVL27:
 285 00d0 0146     		mov	r1, r0
 286 00d2 4846     		mov	r0, r9
 287 00d4 FFF7FEFF 		bl	__aeabi_fsub
 288              	.LVL28:
 289              		.loc 3 80 0
 290 00d8 44F2F941 		movw	r1, #17657
 291              		.loc 3 79 0
 292 00dc 8146     		mov	r9, r0
 293              		.loc 3 80 0
 294 00de C3F6B461 		movt	r1, 16052
 295 00e2 3046     		mov	r0, r6
 296 00e4 FFF7FEFF 		bl	__aeabi_fadd
 297              	.LVL29:
 298 00e8 0146     		mov	r1, r0
 299 00ea 4EF6A310 		movw	r0, #59811
 300 00ee C3F6DC70 		movt	r0, 16348
 301 00f2 FFF7FEFF 		bl	__aeabi_fdiv
 302              	.LVL30:
 303 00f6 0146     		mov	r1, r0
 304              		.loc 3 78 0
 305 00f8 4846     		mov	r0, r9
 306 00fa FFF7FEFF 		bl	__aeabi_fsub
 307              	.LVL31:
 308              	.LBE27:
 309              	.LBE26:
 310              		.loc 3 93 0
 311 00fe 43F23331 		movw	r1, #13107
 312 0102 C3F6B371 		movt	r1, 16307
 313 0106 FFF7FEFF 		bl	__aeabi_fmul
 314              	.LVL32:
 315              	.LBB28:
 316              	.LBB29:
 317              		.loc 3 61 0
 318 010a 0021     		movs	r1, #0
 319              	.LBE29:
 320              	.LBE28:
 321              		.loc 3 93 0
 322 010c 0646     		mov	r6, r0
 323              	.LVL33:
 324              	.LBB32:
 325              	.LBB30:
 326              		.loc 3 61 0
 327 010e FFF7FEFF 		bl	__aeabi_fcmplt
 328              	.LVL34:
 329 0112 4FF07E59 		mov	r9, #1065353216
 330 0116 08B9     		cbnz	r0, .L15
 331 0118 4FF00009 		mov	r9, #0
 332              	.L15:
 333              	.LVL35:
 334              		.loc 3 62 0
 335 011c 0021     		movs	r1, #0
 336 011e 3046     		mov	r0, r6
ARM GAS  /tmp/ccRbDrX3.s 			page 7


 337 0120 CCF2FC21 		movt	r1, 49916
 338 0124 FFF7FEFF 		bl	__aeabi_fcmplt
 339              	.LVL36:
 340 0128 0028     		cmp	r0, #0
 341 012a 40F03A82 		bne	.L36
 342 012e 3046     		mov	r0, r6
 343 0130 FFF7FEFF 		bl	__aeabi_f2iz
 344              	.LVL37:
 345 0134 FFF7FEFF 		bl	__aeabi_i2f
 346              	.LVL38:
 347 0138 0146     		mov	r1, r0
 348 013a 3046     		mov	r0, r6
 349 013c FFF7FEFF 		bl	__aeabi_fsub
 350              	.LVL39:
 351 0140 48F65141 		movw	r1, #35921
 352 0144 0346     		mov	r3, r0
 353 0146 C4F2F221 		movt	r1, 17138
 354 014a 3046     		mov	r0, r6
 355 014c 0093     		str	r3, [sp]
 356 014e FFF7FEFF 		bl	__aeabi_fadd
 357              	.LVL40:
 358 0152 009B     		ldr	r3, [sp]
 359 0154 8246     		mov	r10, r0
 360              	.L17:
 361              		.loc 3 64 0
 362 0156 1946     		mov	r1, r3
 363 0158 4846     		mov	r0, r9
 364 015a FFF7FEFF 		bl	__aeabi_fadd
 365              	.LVL41:
 366 015e 0646     		mov	r6, r0
 367              	.LVL42:
 368              		.loc 3 65 0
 369 0160 0146     		mov	r1, r0
 370 0162 4FF2F850 		movw	r0, #62968
 371              	.LVL43:
 372 0166 C4F29A00 		movt	r0, 16538
 373 016a FFF7FEFF 		bl	__aeabi_fsub
 374              	.LVL44:
 375 016e 0146     		mov	r1, r0
 376 0170 4DF2FE20 		movw	r0, #54014
 377 0174 C4F2DD10 		movt	r0, 16861
 378 0178 FFF7FEFF 		bl	__aeabi_fdiv
 379              	.LVL45:
 380 017c 5146     		mov	r1, r10
 381 017e FFF7FEFF 		bl	__aeabi_fadd
 382              	.LVL46:
 383 0182 4BF68D41 		movw	r1, #48269
 384 0186 8146     		mov	r9, r0
 385              	.LVL47:
 386 0188 C3F6BE71 		movt	r1, 16318
 387 018c 3046     		mov	r0, r6
 388 018e FFF7FEFF 		bl	__aeabi_fmul
 389              	.LVL48:
 390 0192 0146     		mov	r1, r0
 391 0194 4846     		mov	r0, r9
 392 0196 FFF7FEFF 		bl	__aeabi_fsub
 393              	.LVL49:
ARM GAS  /tmp/ccRbDrX3.s 			page 8


 394 019a 4FF09641 		mov	r1, #1258291200
 395 019e FFF7FEFF 		bl	__aeabi_fmul
 396              	.LVL50:
 397 01a2 FFF7FEFF 		bl	__aeabi_f2uiz
 398              	.LVL51:
 399 01a6 0146     		mov	r1, r0
 400              	.LBE30:
 401              	.LBE32:
 402              	.LBE25:
 403              	.LBE24:
 404              		.loc 2 95 0
 405 01a8 3846     		mov	r0, r7
 406 01aa FFF7FEFF 		bl	__aeabi_fmul
 407              	.LVL52:
 408 01ae FFF7FEFF 		bl	__aeabi_f2d
 409              	.LVL53:
 410 01b2 C1A3     		adr	r3, .L59
 411 01b4 D3E90023 		ldrd	r2, [r3]
 412 01b8 FFF7FEFF 		bl	__aeabi_ddiv
 413              	.LVL54:
 414 01bc FFF7FEFF 		bl	__aeabi_d2iz
 415              	.LVL55:
 416              		.loc 2 96 0
 417 01c0 B8F1000F 		cmp	r8, #0
 418 01c4 D6BF     		itet	le
 419 01c6 4FF00009 		movle	r9, #0
 420 01ca 4FF07E59 		movgt	r9, #1065353216
 421 01ce CBF68079 		movtle	r9, 49024
 422              		.loc 2 95 0
 423 01d2 87B2     		uxth	r7, r0
 424              	.LVL56:
 425              		.loc 2 96 0
 426 01d4 88EAE870 		eor	r0, r8, r8, asr #31
 427 01d8 A0EBE870 		sub	r0, r0, r8, asr #31
 428              	.LVL57:
 429 01dc FFF7FEFF 		bl	__aeabi_i2f
 430              	.LVL58:
 431              	.LBB35:
 432              	.LBB36:
 433              	.LBB37:
 434              	.LBB38:
 435              		.loc 3 74 0
 436 01e0 C0F31606 		ubfx	r6, r0, #0, #23
 437              	.LVL59:
 438              		.loc 3 75 0
 439 01e4 FFF7FEFF 		bl	__aeabi_ui2f
 440              	.LVL60:
 441              		.loc 3 76 0
 442 01e8 4FF05051 		mov	r1, #872415232
 443 01ec FFF7FEFF 		bl	__aeabi_fmul
 444              	.LVL61:
 445              		.loc 3 78 0
 446 01f0 47F27731 		movw	r1, #29559
 447 01f4 C4F2F821 		movt	r1, 17144
 448 01f8 FFF7FEFF 		bl	__aeabi_fsub
 449              	.LVL62:
 450              		.loc 3 74 0
ARM GAS  /tmp/ccRbDrX3.s 			page 9


 451 01fc 46F07C56 		orr	r6, r6, #1056964608
 452              	.LVL63:
 453              		.loc 3 79 0
 454 0200 4BF67571 		movw	r1, #49013
 455              		.loc 3 78 0
 456 0204 8046     		mov	r8, r0
 457              	.LVL64:
 458              		.loc 3 79 0
 459 0206 C3F6BF71 		movt	r1, 16319
 460 020a 3046     		mov	r0, r6
 461 020c FFF7FEFF 		bl	__aeabi_fmul
 462              	.LVL65:
 463 0210 0146     		mov	r1, r0
 464 0212 4046     		mov	r0, r8
 465 0214 FFF7FEFF 		bl	__aeabi_fsub
 466              	.LVL66:
 467              		.loc 3 80 0
 468 0218 44F2F941 		movw	r1, #17657
 469              		.loc 3 79 0
 470 021c 8046     		mov	r8, r0
 471              		.loc 3 80 0
 472 021e C3F6B461 		movt	r1, 16052
 473 0222 3046     		mov	r0, r6
 474 0224 FFF7FEFF 		bl	__aeabi_fadd
 475              	.LVL67:
 476 0228 0146     		mov	r1, r0
 477 022a 4EF6A310 		movw	r0, #59811
 478 022e C3F6DC70 		movt	r0, 16348
 479 0232 FFF7FEFF 		bl	__aeabi_fdiv
 480              	.LVL68:
 481 0236 0146     		mov	r1, r0
 482              		.loc 3 78 0
 483 0238 4046     		mov	r0, r8
 484 023a FFF7FEFF 		bl	__aeabi_fsub
 485              	.LVL69:
 486              	.LBE38:
 487              	.LBE37:
 488              		.loc 3 93 0
 489 023e 43F23331 		movw	r1, #13107
 490 0242 C3F6B371 		movt	r1, 16307
 491 0246 FFF7FEFF 		bl	__aeabi_fmul
 492              	.LVL70:
 493              	.LBB39:
 494              	.LBB40:
 495              		.loc 3 61 0
 496 024a 0021     		movs	r1, #0
 497              	.LBE40:
 498              	.LBE39:
 499              		.loc 3 93 0
 500 024c 0646     		mov	r6, r0
 501              	.LVL71:
 502              	.LBB43:
 503              	.LBB41:
 504              		.loc 3 61 0
 505 024e FFF7FEFF 		bl	__aeabi_fcmplt
 506              	.LVL72:
 507 0252 4FF07E58 		mov	r8, #1065353216
ARM GAS  /tmp/ccRbDrX3.s 			page 10


 508 0256 08B9     		cbnz	r0, .L19
 509 0258 4FF00008 		mov	r8, #0
 510              	.L19:
 511              	.LVL73:
 512              		.loc 3 62 0
 513 025c 0021     		movs	r1, #0
 514 025e 3046     		mov	r0, r6
 515 0260 CCF2FC21 		movt	r1, 49916
 516 0264 FFF7FEFF 		bl	__aeabi_fcmplt
 517              	.LVL74:
 518 0268 0028     		cmp	r0, #0
 519 026a 40F09481 		bne	.L39
 520 026e 3046     		mov	r0, r6
 521 0270 FFF7FEFF 		bl	__aeabi_f2iz
 522              	.LVL75:
 523 0274 FFF7FEFF 		bl	__aeabi_i2f
 524              	.LVL76:
 525 0278 0146     		mov	r1, r0
 526 027a 3046     		mov	r0, r6
 527 027c FFF7FEFF 		bl	__aeabi_fsub
 528              	.LVL77:
 529 0280 48F65141 		movw	r1, #35921
 530 0284 0346     		mov	r3, r0
 531 0286 C4F2F221 		movt	r1, 17138
 532 028a 3046     		mov	r0, r6
 533 028c 0093     		str	r3, [sp]
 534 028e FFF7FEFF 		bl	__aeabi_fadd
 535              	.LVL78:
 536 0292 009B     		ldr	r3, [sp]
 537 0294 8246     		mov	r10, r0
 538              	.L21:
 539              		.loc 3 64 0
 540 0296 1946     		mov	r1, r3
 541 0298 4046     		mov	r0, r8
 542 029a FFF7FEFF 		bl	__aeabi_fadd
 543              	.LVL79:
 544 029e 0646     		mov	r6, r0
 545              	.LVL80:
 546              		.loc 3 65 0
 547 02a0 0146     		mov	r1, r0
 548 02a2 4FF2F850 		movw	r0, #62968
 549              	.LVL81:
 550 02a6 C4F29A00 		movt	r0, 16538
 551 02aa FFF7FEFF 		bl	__aeabi_fsub
 552              	.LVL82:
 553 02ae 0146     		mov	r1, r0
 554 02b0 4DF2FE20 		movw	r0, #54014
 555 02b4 C4F2DD10 		movt	r0, 16861
 556 02b8 FFF7FEFF 		bl	__aeabi_fdiv
 557              	.LVL83:
 558 02bc 5146     		mov	r1, r10
 559 02be FFF7FEFF 		bl	__aeabi_fadd
 560              	.LVL84:
 561 02c2 4BF68D41 		movw	r1, #48269
 562 02c6 8046     		mov	r8, r0
 563              	.LVL85:
 564 02c8 C3F6BE71 		movt	r1, 16318
ARM GAS  /tmp/ccRbDrX3.s 			page 11


 565 02cc 3046     		mov	r0, r6
 566 02ce FFF7FEFF 		bl	__aeabi_fmul
 567              	.LVL86:
 568 02d2 0146     		mov	r1, r0
 569 02d4 4046     		mov	r0, r8
 570 02d6 FFF7FEFF 		bl	__aeabi_fsub
 571              	.LVL87:
 572 02da 4FF09641 		mov	r1, #1258291200
 573 02de FFF7FEFF 		bl	__aeabi_fmul
 574              	.LVL88:
 575 02e2 FFF7FEFF 		bl	__aeabi_f2uiz
 576              	.LVL89:
 577 02e6 0146     		mov	r1, r0
 578              	.LBE41:
 579              	.LBE43:
 580              	.LBE36:
 581              	.LBE35:
 582              		.loc 2 96 0
 583 02e8 4846     		mov	r0, r9
 584 02ea FFF7FEFF 		bl	__aeabi_fmul
 585              	.LVL90:
 586 02ee FFF7FEFF 		bl	__aeabi_f2d
 587              	.LVL91:
 588 02f2 71A3     		adr	r3, .L59
 589 02f4 D3E90023 		ldrd	r2, [r3]
 590 02f8 FFF7FEFF 		bl	__aeabi_ddiv
 591              	.LVL92:
 592 02fc FFF7FEFF 		bl	__aeabi_d2iz
 593              	.LVL93:
 594              		.loc 2 97 0
 595 0300 002D     		cmp	r5, #0
 596 0302 D6BF     		itet	le
 597 0304 0026     		movle	r6, #0
 598              	.LVL94:
 599 0306 4FF07E56 		movgt	r6, #1065353216
 600 030a CBF68076 		movtle	r6, 49024
 601              		.loc 2 96 0
 602 030e 1FFA80F8 		uxth	r8, r0
 603              	.LVL95:
 604              		.loc 2 97 0
 605 0312 85EAE570 		eor	r0, r5, r5, asr #31
 606 0316 A0EBE570 		sub	r0, r0, r5, asr #31
 607              	.LVL96:
 608 031a FFF7FEFF 		bl	__aeabi_i2f
 609              	.LVL97:
 610              	.LBB46:
 611              	.LBB47:
 612              	.LBB48:
 613              	.LBB49:
 614              		.loc 3 74 0
 615 031e C0F31605 		ubfx	r5, r0, #0, #23
 616              	.LVL98:
 617              		.loc 3 75 0
 618 0322 FFF7FEFF 		bl	__aeabi_ui2f
 619              	.LVL99:
 620              		.loc 3 76 0
 621 0326 4FF05051 		mov	r1, #872415232
ARM GAS  /tmp/ccRbDrX3.s 			page 12


 622 032a FFF7FEFF 		bl	__aeabi_fmul
 623              	.LVL100:
 624              		.loc 3 78 0
 625 032e 47F27731 		movw	r1, #29559
 626 0332 C4F2F821 		movt	r1, 17144
 627 0336 FFF7FEFF 		bl	__aeabi_fsub
 628              	.LVL101:
 629              		.loc 3 74 0
 630 033a 45F07C55 		orr	r5, r5, #1056964608
 631              	.LVL102:
 632              		.loc 3 79 0
 633 033e 4BF67571 		movw	r1, #49013
 634              		.loc 3 78 0
 635 0342 8146     		mov	r9, r0
 636              		.loc 3 79 0
 637 0344 C3F6BF71 		movt	r1, 16319
 638 0348 2846     		mov	r0, r5
 639 034a FFF7FEFF 		bl	__aeabi_fmul
 640              	.LVL103:
 641 034e 0146     		mov	r1, r0
 642 0350 4846     		mov	r0, r9
 643 0352 FFF7FEFF 		bl	__aeabi_fsub
 644              	.LVL104:
 645              		.loc 3 80 0
 646 0356 44F2F941 		movw	r1, #17657
 647              		.loc 3 79 0
 648 035a 8146     		mov	r9, r0
 649              		.loc 3 80 0
 650 035c C3F6B461 		movt	r1, 16052
 651 0360 2846     		mov	r0, r5
 652 0362 FFF7FEFF 		bl	__aeabi_fadd
 653              	.LVL105:
 654 0366 0146     		mov	r1, r0
 655 0368 4EF6A310 		movw	r0, #59811
 656 036c C3F6DC70 		movt	r0, 16348
 657 0370 FFF7FEFF 		bl	__aeabi_fdiv
 658              	.LVL106:
 659 0374 0146     		mov	r1, r0
 660              		.loc 3 78 0
 661 0376 4846     		mov	r0, r9
 662 0378 FFF7FEFF 		bl	__aeabi_fsub
 663              	.LVL107:
 664              	.LBE49:
 665              	.LBE48:
 666              		.loc 3 93 0
 667 037c 43F23331 		movw	r1, #13107
 668 0380 C3F6B371 		movt	r1, 16307
 669 0384 FFF7FEFF 		bl	__aeabi_fmul
 670              	.LVL108:
 671              	.LBB50:
 672              	.LBB51:
 673              		.loc 3 61 0
 674 0388 0021     		movs	r1, #0
 675              	.LBE51:
 676              	.LBE50:
 677              		.loc 3 93 0
 678 038a 0546     		mov	r5, r0
ARM GAS  /tmp/ccRbDrX3.s 			page 13


 679              	.LVL109:
 680              	.LBB54:
 681              	.LBB52:
 682              		.loc 3 61 0
 683 038c FFF7FEFF 		bl	__aeabi_fcmplt
 684              	.LVL110:
 685 0390 4FF07E59 		mov	r9, #1065353216
 686 0394 08B9     		cbnz	r0, .L23
 687 0396 4FF00009 		mov	r9, #0
 688              	.L23:
 689              	.LVL111:
 690              		.loc 3 62 0
 691 039a 0021     		movs	r1, #0
 692 039c 2846     		mov	r0, r5
 693 039e CCF2FC21 		movt	r1, 49916
 694 03a2 FFF7FEFF 		bl	__aeabi_fcmplt
 695              	.LVL112:
 696 03a6 0028     		cmp	r0, #0
 697 03a8 40F00181 		bne	.L42
 698 03ac 2846     		mov	r0, r5
 699 03ae FFF7FEFF 		bl	__aeabi_f2iz
 700              	.LVL113:
 701 03b2 FFF7FEFF 		bl	__aeabi_i2f
 702              	.LVL114:
 703 03b6 0146     		mov	r1, r0
 704 03b8 2846     		mov	r0, r5
 705 03ba FFF7FEFF 		bl	__aeabi_fsub
 706              	.LVL115:
 707 03be 48F65141 		movw	r1, #35921
 708 03c2 0346     		mov	r3, r0
 709 03c4 C4F2F221 		movt	r1, 17138
 710 03c8 2846     		mov	r0, r5
 711 03ca 0093     		str	r3, [sp]
 712 03cc FFF7FEFF 		bl	__aeabi_fadd
 713              	.LVL116:
 714 03d0 009B     		ldr	r3, [sp]
 715 03d2 8246     		mov	r10, r0
 716              	.L25:
 717              		.loc 3 64 0
 718 03d4 1946     		mov	r1, r3
 719 03d6 4846     		mov	r0, r9
 720 03d8 FFF7FEFF 		bl	__aeabi_fadd
 721              	.LVL117:
 722 03dc 0546     		mov	r5, r0
 723              	.LVL118:
 724              		.loc 3 65 0
 725 03de 0146     		mov	r1, r0
 726 03e0 4FF2F850 		movw	r0, #62968
 727              	.LVL119:
 728 03e4 C4F29A00 		movt	r0, 16538
 729 03e8 FFF7FEFF 		bl	__aeabi_fsub
 730              	.LVL120:
 731 03ec 0146     		mov	r1, r0
 732 03ee 4DF2FE20 		movw	r0, #54014
 733 03f2 C4F2DD10 		movt	r0, 16861
 734 03f6 FFF7FEFF 		bl	__aeabi_fdiv
 735              	.LVL121:
ARM GAS  /tmp/ccRbDrX3.s 			page 14


 736 03fa 5146     		mov	r1, r10
 737 03fc FFF7FEFF 		bl	__aeabi_fadd
 738              	.LVL122:
 739 0400 4BF68D41 		movw	r1, #48269
 740 0404 8146     		mov	r9, r0
 741              	.LVL123:
 742 0406 C3F6BE71 		movt	r1, 16318
 743 040a 2846     		mov	r0, r5
 744 040c FFF7FEFF 		bl	__aeabi_fmul
 745              	.LVL124:
 746 0410 0146     		mov	r1, r0
 747 0412 4846     		mov	r0, r9
 748 0414 FFF7FEFF 		bl	__aeabi_fsub
 749              	.LVL125:
 750 0418 4FF09641 		mov	r1, #1258291200
 751 041c FFF7FEFF 		bl	__aeabi_fmul
 752              	.LVL126:
 753 0420 FFF7FEFF 		bl	__aeabi_f2uiz
 754              	.LVL127:
 755 0424 0146     		mov	r1, r0
 756              	.LBE52:
 757              	.LBE54:
 758              	.LBE47:
 759              	.LBE46:
 760              		.loc 2 97 0
 761 0426 3046     		mov	r0, r6
 762 0428 FFF7FEFF 		bl	__aeabi_fmul
 763              	.LVL128:
 764 042c FFF7FEFF 		bl	__aeabi_f2d
 765              	.LVL129:
 766 0430 21A3     		adr	r3, .L59
 767 0432 D3E90023 		ldrd	r2, [r3]
 768 0436 FFF7FEFF 		bl	__aeabi_ddiv
 769              	.LVL130:
 770 043a FFF7FEFF 		bl	__aeabi_d2iz
 771              	.LVL131:
 772 043e 3FB2     		sxth	r7, r7
 773              	.LVL132:
 774 0440 85B2     		uxth	r5, r0
 775              	.LVL133:
 776              	.L13:
 777              		.loc 2 109 0
 778 0442 0FFA88F8 		sxth	r8, r8
 779              	.LVL134:
 780              		.loc 2 100 0
 781 0446 40F20002 		movw	r2, #:lower16:.LC3
 782 044a 0121     		movs	r1, #1
 783 044c 3B46     		mov	r3, r7
 784 044e C0F20002 		movt	r2, #:upper16:.LC3
 785              		.loc 2 109 0
 786 0452 2DB2     		sxth	r5, r5
 787              	.LVL135:
 788 0454 08EB0706 		add	r6, r8, r7
 789              		.loc 2 100 0
 790 0458 0020     		movs	r0, #0
 791 045a FFF7FEFF 		bl	vexLcdPrintf
 792              	.LVL136:
ARM GAS  /tmp/ccRbDrX3.s 			page 15


 793              		.loc 2 109 0
 794 045e 7019     		adds	r0, r6, r5
 795 0460 FFF7FEFF 		bl	__aeabi_i2f
 796              	.LVL137:
 797              		.loc 2 110 0
 798 0464 C7EB0807 		rsb	r7, r7, r8
 799              		.loc 2 109 0
 800 0468 8046     		mov	r8, r0
 801              	.LVL138:
 802              		.loc 2 110 0
 803 046a 781B     		subs	r0, r7, r5
 804              	.LVL139:
 805 046c FFF7FEFF 		bl	__aeabi_i2f
 806              	.LVL140:
 807 0470 8246     		mov	r10, r0
 808              	.LVL141:
 809              		.loc 2 111 0
 810 0472 E819     		adds	r0, r5, r7
 811              	.LVL142:
 812 0474 FFF7FEFF 		bl	__aeabi_i2f
 813              	.LVL143:
 814 0478 0746     		mov	r7, r0
 815              	.LVL144:
 816              		.loc 2 112 0
 817 047a 701B     		subs	r0, r6, r5
 818              	.LVL145:
 819 047c FFF7FEFF 		bl	__aeabi_i2f
 820              	.LVL146:
 821 0480 0646     		mov	r6, r0
 822              	.LVL147:
 823              		.loc 2 115 0
 824 0482 4046     		mov	r0, r8
 825              	.LVL148:
 826 0484 FFF7FEFF 		bl	__aeabi_f2iz
 827              	.LVL149:
 828 0488 0028     		cmp	r0, #0
 829 048a B8BF     		it	lt
 830 048c 4042     		rsblt	r0, r0, #0
 831 048e FFF7FEFF 		bl	__aeabi_i2f
 832              	.LVL150:
 833 0492 8146     		mov	r9, r0
 834              	.LVL151:
 835              		.loc 2 117 0
 836 0494 3846     		mov	r0, r7
 837              	.LVL152:
 838 0496 FFF7FEFF 		bl	__aeabi_f2iz
 839              	.LVL153:
 840 049a 0028     		cmp	r0, #0
 841 049c B8BF     		it	lt
 842 049e 4042     		rsblt	r0, r0, #0
 843 04a0 FFF7FEFF 		bl	__aeabi_i2f
 844              	.LVL154:
 845 04a4 0546     		mov	r5, r0
 846 04a6 2946     		mov	r1, r5
 847 04a8 4846     		mov	r0, r9
 848 04aa FFF7FEFF 		bl	__aeabi_fcmplt
 849              	.LVL155:
ARM GAS  /tmp/ccRbDrX3.s 			page 16


 850 04ae 38B9     		cbnz	r0, .L26
 851 04b0 4D46     		mov	r5, r9
 852 04b2 05E0     		b	.L60
 853              	.L61:
 854 04b4 AFF30080 		.align	3
 855              	.L59:
 856 04b8 E819E52F 		.word	803543528
 857 04bc 36C51B40 		.word	1075561782
 858              	.L60:
 859              	.L26:
 860              	.LVL156:
 861              		.loc 2 118 0
 862 04c0 3046     		mov	r0, r6
 863 04c2 FFF7FEFF 		bl	__aeabi_f2iz
 864              	.LVL157:
 865 04c6 0028     		cmp	r0, #0
 866 04c8 B8BF     		it	lt
 867 04ca 4042     		rsblt	r0, r0, #0
 868 04cc FFF7FEFF 		bl	__aeabi_i2f
 869              	.LVL158:
 870 04d0 8146     		mov	r9, r0
 871 04d2 4946     		mov	r1, r9
 872 04d4 2846     		mov	r0, r5
 873 04d6 FFF7FEFF 		bl	__aeabi_fcmplt
 874              	.LVL159:
 875 04da 00B9     		cbnz	r0, .L27
 876 04dc A946     		mov	r9, r5
 877              	.L27:
 878              	.LVL160:
 879              		.loc 2 121 0
 880 04de 0021     		movs	r1, #0
 881 04e0 4846     		mov	r0, r9
 882 04e2 C4F2FE21 		movt	r1, 17150
 883 04e6 FFF7FEFF 		bl	__aeabi_fcmpgt
 884              	.LVL161:
 885              		.loc 2 122 0
 886 04ea 4FF07E55 		mov	r5, #1065353216
 887              		.loc 2 121 0
 888 04ee 30B1     		cbz	r0, .L28
 889              		.loc 2 121 0 is_stmt 0 discriminator 1
 890 04f0 0020     		movs	r0, #0
 891 04f2 4946     		mov	r1, r9
 892 04f4 C4F2FE20 		movt	r0, 17150
 893 04f8 FFF7FEFF 		bl	__aeabi_fdiv
 894              	.LVL162:
 895 04fc 0546     		mov	r5, r0
 896              	.LVL163:
 897              	.L28:
 898              		.loc 2 125 0 is_stmt 1
 899 04fe 2946     		mov	r1, r5
 900 0500 4046     		mov	r0, r8
 901 0502 FFF7FEFF 		bl	__aeabi_fmul
 902              	.LVL164:
 903 0506 FFF7FEFF 		bl	__aeabi_f2iz
 904              	.LVL165:
 905 050a 01B2     		sxth	r1, r0
 906 050c 0120     		movs	r0, #1
ARM GAS  /tmp/ccRbDrX3.s 			page 17


 907 050e FFF7FEFF 		bl	vexMotorSet
 908              	.LVL166:
 909              		.loc 2 126 0
 910 0512 2946     		mov	r1, r5
 911 0514 5046     		mov	r0, r10
 912 0516 FFF7FEFF 		bl	__aeabi_fmul
 913              	.LVL167:
 914 051a FFF7FEFF 		bl	__aeabi_f2iz
 915              	.LVL168:
 916 051e 01B2     		sxth	r1, r0
 917 0520 0720     		movs	r0, #7
 918 0522 FFF7FEFF 		bl	vexMotorSet
 919              	.LVL169:
 920              		.loc 2 127 0
 921 0526 2946     		mov	r1, r5
 922 0528 3846     		mov	r0, r7
 923 052a FFF7FEFF 		bl	__aeabi_fmul
 924              	.LVL170:
 925 052e FFF7FEFF 		bl	__aeabi_f2iz
 926              	.LVL171:
 927 0532 01B2     		sxth	r1, r0
 928 0534 0220     		movs	r0, #2
 929 0536 FFF7FEFF 		bl	vexMotorSet
 930              	.LVL172:
 931              		.loc 2 128 0
 932 053a 2946     		mov	r1, r5
 933 053c 3046     		mov	r0, r6
 934 053e FFF7FEFF 		bl	__aeabi_fmul
 935              	.LVL173:
 936 0542 FFF7FEFF 		bl	__aeabi_f2iz
 937              	.LVL174:
 938 0546 01B2     		sxth	r1, r0
 939 0548 0820     		movs	r0, #8
 940 054a FFF7FEFF 		bl	vexMotorSet
 941              	.LVL175:
 942 054e 0DF10B05 		add	r5, sp, #11
 943              	.LVL176:
 944              	.L31:
 945              		.loc 2 134 0 discriminator 2
 946 0552 15F8016F 		ldrb	r6, [r5, #1]!	@ zero_extendqisi2
 947              	.LVL177:
 948 0556 3046     		mov	r0, r6
 949 0558 FFF7FEFF 		bl	vexEncoderGet
 950              	.LVL178:
 951              		.loc 2 136 0 discriminator 2
 952 055c 3046     		mov	r0, r6
 953 055e 0021     		movs	r1, #0
 954 0560 FFF7FEFF 		bl	vexEncoderSet
 955              	.LVL179:
 956              		.loc 2 130 0 discriminator 2
 957 0564 A542     		cmp	r5, r4
 958 0566 F4D1     		bne	.L31
 959              		.loc 2 144 0
 960 0568 1920     		movs	r0, #25
 961 056a FFF7FEFF 		bl	vexSleep
 962              	.LVL180:
 963              		.loc 2 82 0
ARM GAS  /tmp/ccRbDrX3.s 			page 18


 964 056e DBF81830 		ldr	r3, [fp, #24]
 965 0572 5B7F     		ldrb	r3, [r3, #29]	@ zero_extendqisi2
 966 0574 5907     		lsls	r1, r3, #29
 967 0576 7FF563AD 		bpl	.L33
 968              	.LVL181:
 969              	.L52:
 970              		.loc 2 148 0
 971 057a 0020     		movs	r0, #0
 972 057c 05B0     		add	sp, sp, #20
 973              		@ sp needed
 974 057e BDE8F08F 		pop	{r4, r5, r6, r7, r8, r9, r10, fp, pc}
 975              	.L11:
 976              		.loc 2 84 0
 977 0582 0D20     		movs	r0, #13
 978 0584 FFF7FEFF 		bl	vexControllerGet
 979              	.LVL182:
 980 0588 0028     		cmp	r0, #0
 981 058a 3FF461AD 		beq	.L12
 982              		.loc 2 84 0 is_stmt 0 discriminator 1
 983 058e 019A     		ldr	r2, [sp, #4]
 984 0590 0023     		movs	r3, #0
 985 0592 1370     		strb	r3, [r2]
 986 0594 5CE5     		b	.L12
 987              	.LVL183:
 988              	.L39:
 989              	.LBB57:
 990              	.LBB45:
 991              	.LBB44:
 992              	.LBB42:
 993              		.loc 3 62 0 is_stmt 1
 994 0596 43F6F02A 		movw	r10, #15088
 995 059a CCF2970A 		movt	r10, 49303
 996 059e 0023     		movs	r3, #0
 997 05a0 79E6     		b	.L21
 998              	.LVL184:
 999              	.L36:
 1000              	.LBE42:
 1001              	.LBE44:
 1002              	.LBE45:
 1003              	.LBE57:
 1004              	.LBB58:
 1005              	.LBB34:
 1006              	.LBB33:
 1007              	.LBB31:
 1008 05a2 43F6F02A 		movw	r10, #15088
 1009 05a6 CCF2970A 		movt	r10, 49303
 1010 05aa 0023     		movs	r3, #0
 1011 05ac D3E5     		b	.L17
 1012              	.LVL185:
 1013              	.L42:
 1014              	.LBE31:
 1015              	.LBE33:
 1016              	.LBE34:
 1017              	.LBE58:
 1018              	.LBB59:
 1019              	.LBB56:
 1020              	.LBB55:
ARM GAS  /tmp/ccRbDrX3.s 			page 19


 1021              	.LBB53:
 1022 05ae 43F6F02A 		movw	r10, #15088
 1023 05b2 CCF2970A 		movt	r10, 49303
 1024 05b6 0023     		movs	r3, #0
 1025 05b8 0CE7     		b	.L25
 1026              	.LBE53:
 1027              	.LBE55:
 1028              	.LBE56:
 1029              	.LBE59:
 1030              		.cfi_endproc
 1031              	.LFE71:
 1032              		.size	vexOperator, .-vexOperator
 1033              		.global	enableCurve
 1034 05ba 00BFAFF3 		.section	.rodata
 1034      0080
 1035              		.align	2
 1036              		.set	.LANCHOR2,. + 0
 1037              	.LC0:
 1038 0000 02       		.byte	2
 1039 0001 01       		.byte	1
 1040 0002 03       		.byte	3
 1041 0003 00       		.byte	0
 1042              		.section	.data.fDigital,"aw",%progbits
 1043              		.align	2
 1044              		.set	.LANCHOR0,. + 0
 1045              		.type	fDigital, %object
 1046              		.size	fDigital, 72
 1047              	fDigital:
 1048 0000 00       		.byte	0
 1049 0001 03       		.byte	3
 1050 0002 0A       		.byte	10
 1051 0003 00       		.space	1
 1052 0004 0000     		.short	0
 1053 0006 01       		.byte	1
 1054 0007 03       		.byte	3
 1055 0008 0B       		.byte	11
 1056 0009 00       		.space	1
 1057 000a 0000     		.short	0
 1058 000c 02       		.byte	2
 1059 000d 03       		.byte	3
 1060 000e 0A       		.byte	10
 1061 000f 00       		.space	1
 1062 0010 0300     		.short	3
 1063 0012 03       		.byte	3
 1064 0013 03       		.byte	3
 1065 0014 0B       		.byte	11
 1066 0015 00       		.space	1
 1067 0016 0300     		.short	3
 1068 0018 04       		.byte	4
 1069 0019 03       		.byte	3
 1070 001a 0A       		.byte	10
 1071 001b 00       		.space	1
 1072 001c 0100     		.short	1
 1073 001e 05       		.byte	5
 1074 001f 03       		.byte	3
 1075 0020 0B       		.byte	11
 1076 0021 00       		.space	1
ARM GAS  /tmp/ccRbDrX3.s 			page 20


 1077 0022 0100     		.short	1
 1078 0024 06       		.byte	6
 1079 0025 03       		.byte	3
 1080 0026 0A       		.byte	10
 1081 0027 00       		.space	1
 1082 0028 0200     		.short	2
 1083 002a 07       		.byte	7
 1084 002b 03       		.byte	3
 1085 002c 0B       		.byte	11
 1086 002d 00       		.space	1
 1087 002e 0200     		.short	2
 1088 0030 08       		.byte	8
 1089 0031 01       		.byte	1
 1090 0032 00       		.byte	0
 1091 0033 00       		.space	1
 1092 0034 0000     		.short	0
 1093 0036 09       		.byte	9
 1094 0037 01       		.byte	1
 1095 0038 00       		.byte	0
 1096 0039 00       		.space	1
 1097 003a 0000     		.short	0
 1098 003c 0A       		.byte	10
 1099 003d 01       		.byte	1
 1100 003e 00       		.byte	0
 1101 003f 00       		.space	1
 1102 0040 0000     		.short	0
 1103 0042 0B       		.byte	11
 1104 0043 01       		.byte	1
 1105 0044 00       		.byte	0
 1106 0045 00       		.space	1
 1107 0046 0000     		.short	0
 1108              		.section	.bss.enableCurve,"aw",%nobits
 1109              		.set	.LANCHOR3,. + 0
 1110              		.type	enableCurve, %object
 1111              		.size	enableCurve, 1
 1112              	enableCurve:
 1113 0000 00       		.space	1
 1114              		.section	.rodata.str1.4,"aMS",%progbits,1
 1115              		.align	2
 1116              	.LC1:
 1117 0000 6175746F 		.ascii	"auton\000"
 1117      6E00
 1118 0006 0000     		.space	2
 1119              	.LC2:
 1120 0008 6F706572 		.ascii	"operator\000"
 1120      61746F72 
 1120      00
 1121 0011 000000   		.space	3
 1122              	.LC3:
 1123 0014 256400   		.ascii	"%d\000"
 1124 0017 00       		.section	.data.fMotors,"aw",%progbits
 1125              		.align	2
 1126              		.set	.LANCHOR1,. + 0
 1127              		.type	fMotors, %object
 1128              		.size	fMotors, 60
 1129              	fMotors:
 1130 0000 00       		.byte	0
ARM GAS  /tmp/ccRbDrX3.s 			page 21


 1131 0001 00       		.byte	0
 1132 0002 00       		.byte	0
 1133 0003 00       		.byte	0
 1134 0004 0000     		.short	0
 1135 0006 01       		.byte	1
 1136 0007 03       		.byte	3
 1137 0008 00       		.byte	0
 1138 0009 03       		.byte	3
 1139 000a 0200     		.short	2
 1140 000c 02       		.byte	2
 1141 000d 03       		.byte	3
 1142 000e 00       		.byte	0
 1143 000f 03       		.byte	3
 1144 0010 0300     		.short	3
 1145 0012 03       		.byte	3
 1146 0013 00       		.byte	0
 1147 0014 00       		.byte	0
 1148 0015 00       		.byte	0
 1149 0016 0000     		.short	0
 1150 0018 04       		.byte	4
 1151 0019 00       		.byte	0
 1152 001a 00       		.byte	0
 1153 001b 00       		.byte	0
 1154 001c 0000     		.short	0
 1155 001e 05       		.byte	5
 1156 001f 00       		.byte	0
 1157 0020 00       		.byte	0
 1158 0021 00       		.byte	0
 1159 0022 0000     		.short	0
 1160 0024 06       		.byte	6
 1161 0025 00       		.byte	0
 1162 0026 00       		.byte	0
 1163 0027 00       		.byte	0
 1164 0028 0000     		.short	0
 1165 002a 07       		.byte	7
 1166 002b 03       		.byte	3
 1167 002c 01       		.byte	1
 1168 002d 03       		.byte	3
 1169 002e 0100     		.short	1
 1170 0030 08       		.byte	8
 1171 0031 03       		.byte	3
 1172 0032 01       		.byte	1
 1173 0033 03       		.byte	3
 1174 0034 0000     		.short	0
 1175 0036 09       		.byte	9
 1176 0037 00       		.byte	0
 1177 0038 00       		.byte	0
 1178 0039 00       		.byte	0
 1179 003a 0000     		.short	0
 1180              		.text
 1181              	.Letext0:
 1182              		.file 4 "/usr/include/newlib/machine/_default_types.h"
 1183              		.file 5 "/usr/include/newlib/stdint.h"
 1184              		.file 6 "../../../../ChibiOS_2.6.2/os/ports/GCC/ARMCMx/chtypes.h"
 1185              		.file 7 "../../../../ChibiOS_2.6.2/os/kernel/include/chlists.h"
 1186              		.file 8 "../../../../ChibiOS_2.6.2/os/kernel/include/chthreads.h"
 1187              		.file 9 "../../../../ChibiOS_2.6.2/os/ports/GCC/ARMCMx/chcore_v7m.h"
ARM GAS  /tmp/ccRbDrX3.s 			page 22


 1188              		.file 10 "../../../../ChibiOS_2.6.2/os/kernel/include/chschd.h"
 1189              		.file 11 "../../../../ChibiOS_2.6.2/os/kernel/include/chmtx.h"
 1190              		.file 12 "../../fw/vexdigital.h"
 1191              		.file 13 "../../fw/vexmotor.h"
 1192              		.file 14 "../../fw/vexime.h"
 1193              		.file 15 "../../fw/vexconfig.h"
 1194              		.file 16 "../../fw/vexctl.h"
 1195              		.file 17 "../../../../ChibiOS_2.6.2/os/ports/common/ARMCMx/CMSIS/include/core_cm3.h"
 1196              		.file 18 "../../fw/vex.h"
 1197              		.file 19 "../../fw/vexlcd.h"
 1198              		.file 20 "../../fw/vexencoder.h"